(iTimba.LSM.LSM
LSM
p0
(dp1
S'_LSM__patch_count'
p2
I0
sS'tmpl_table'
p3
(dp4
sS'cells'
p5
NsS'_LSM__barr'
p6
(lp7
S'J163433+624535'
p8
aS'J163828+623443'
p9
aS'J163556+620533'
p10
aS'J164126+624634'
p11
aS'J164114+622849'
p12
aS'J163942+621330'
p13
aS'J164210+622820'
p14
aS'J163812+623043'
p15
aS'J163842+624327'
p16
aS'J164253+623857'
p17
aS'J163905+620020'
p18
aS'J164248+621031'
p19
aS'J164247+624940'
p20
aS'J164244+624356'
p21
aS'J163913+625944'
p22
aS'J163832+622309'
p23
aS'J163639+623041'
p24
aS'J163727+621643'
p25
aS'J164003+620453'
p26
aS'J163526+623858'
p27
aS'J163851+620025'
p28
aS'J163426+623114'
p29
aS'J163520+624616'
p30
aS'J163648+620433'
p31
aS'J163651+623328'
p32
aS'J163457+623227'
p33
aS'J164049+622543'
p34
aS'J163520+623657'
p35
aS'J163739+625558'
p36
aS'J164212+620545'
p37
aS'J163550+624514'
p38
aS'J163545+624352'
p39
aS'J163746+622052'
p40
aS'J163856+623526'
p41
aS'J163503+624635'
p42
aS'J163642+622524'
p43
aS'J164234+625828'
p44
aS'J163520+622806'
p45
aS'J163516+622058'
p46
aS'J163947+625020'
p47
aS'J163418+620007'
p48
aS'J163718+621358'
p49
aS'J163713+624012'
p50
aS'J163715+623343'
p51
aS'J164100+624800'
p52
aS'J163427+624349'
p53
aS'J163530+623239'
p54
aS'J163810+625843'
p55
aS'J163550+622916'
p56
aS'J163557+623259'
p57
aS'J163623+623447'
p58
aS'J163650+620219'
p59
aS'J163704+620811'
p60
aS'J163751+624912'
p61
aS'J164015+625822'
p62
aS'J163450+625209'
p63
aS'J163838+624704'
p64
aS'J163915+621438'
p65
aS'J163926+623244'
p66
aS'J164139+625523'
p67
aS'J163849+622927'
p68
aS'J163517+623831'
p69
aS'J163754+622601'
p70
aS'J163816+620854'
p71
aS'J163856+623150'
p72
aS'J164056+623705'
p73
aS'J163411+624953'
p74
aS'J163433+620003'
p75
aS'J164032+625110'
p76
aS'J164124+621028'
p77
aS'J164146+623730'
p78
aS'J163441+624420'
p79
aS'J164012+620347'
p80
aS'J163919+624921'
p81
aS'J164046+625410'
p82
aS'J163558+624739'
p83
aS'J163805+623915'
p84
aS'J163440+622557'
p85
aS'J163618+621657'
p86
aS'J163626+624239'
p87
aS'J163448+624932'
p88
aS'J163527+622023'
p89
aS'J163715+623219'
p90
aS'J163759+623418'
p91
aS'J163918+624836'
p92
aS'J164105+624455'
p93
asS'_LSM__root'
p94
S'(dp0\nS\'sixpack:q=J163704+620811\'\np1\n(dp2\nS\'classname\'\np3\nS\'MeqComposer\'\np4\nsS\'initrec\'\np5\n(dp6\nS\'class\'\np7\ng4\nssS\'name\'\np8\ng1\nsS\'children\'\np9\n(lp10\nS\'ra:q=J163704+620811\'\np11\naS\'dec:q=J163704+620811\'\np12\naS\'stokesI:q=J163704+620811\'\np13\naS\'zero\'\np14\nag14\nag14\nassS\'ra:q=J164244+624356\'\np15\n(dp16\ng3\nS\'MeqParm\'\np17\nsg5\n(dp18\nS\'default_funklet\'\np19\n(dp20\nS\'type\'\np21\nS\'meqpolc\'\np22\nsS\'funk\'\np23\ncnumarray.generic\nClassicUnpickler\np24\n(cnumarray.numarraycore\nNumArray\np25\n(dp26\nS\'_type\'\np27\nS\'Float64\'\np28\nsS\'_bytestride\'\np29\nI8\nsS\'_itemsize\'\np30\nI8\nsS\'_shape\'\np31\n(tsS\'_version\'\np32\nS\'1.1.1\'\np33\nsS\'_byteoffset\'\np34\nI0\nsS\'_byteorder\'\np35\nS\'little\'\np36\nsS\'_data\'\np37\ncnumarray.memory\nmemory_from_string\np38\n(S\'\\xcc:X\\x95F\\x80\\x11@\'\np39\ntp40\nRp41\nsS\'_strides\'\np42\n(tstp43\nRp44\nssg7\ng17\nssg8\ng15\nsg9\n(lp45\nssS\'ra:q=J163556+620533\'\np46\n(dp47\ng3\nS\'MeqParm\'\np48\nsg5\n(dp49\ng19\n(dp50\ng21\ng22\nsg23\ng24\n(g25\n(dp51\ng27\ng28\nsg29\nI8\nsg30\nI8\nsg31\n(tsg32\ng33\nsg34\nI0\nsg35\nS\'little\'\np52\nsg37\ng38\n(S\'\\x00\\ti\\xbb\\xe8a\\x11@\'\np53\ntp54\nRp55\nsg42\n(tstp56\nRp57\nssg7\ng48\nssg8\ng46\nsg9\n(lp58\nssS\'dec:q=J163828+623443\'\np59\n(dp60\ng3\nS\'MeqParm\'\np61\nsg5\n(dp62\ng19\n(dp63\ng21\ng22\nsg23\ng24\n(g25\n(dp64\ng27\ng28\nsg29\nI8\nsg30\nI8\nsg31\n(tsg32\ng33\nsg34\nI0\nsg35\nS\'little\'\np65\nsg37\ng38\n(S\':\\xf7\\x1ev\\xady\\xf1?\'\np66\ntp67\nRp68\nsg42\n(tstp69\nRp70\nssg7\ng61\nssg8\ng59\nsg9\n(lp71\nssS\'ra:q=J163433+620003\'\np72\n(dp73\ng3\nS\'MeqParm\'\np74\nsg5\n(dp75\ng19\n(dp76\ng21\ng22\nsg23\ng24\n(g25\n(dp77\ng27\ng28\nsg29\nI8\nsg30\nI8\nsg31\n(tsg32\ng33\nsg34\nI0\nsg35\nS\'little\'\np78\nsg37\ng38\n(S\'z~\\x81\\xe1\\xb2[\\x11@\'\np79\ntp80\nRp81\nsg42\n(tstp82\nRp83\nssg7\ng74\nssg8\ng72\nsg9\n(lp84\nssS\'stokesI:q=J163557+623259\'\np85\n(dp86\ng3\nS\'MeqPow\'\np87\nsg5\n(dp88\ng7\ng87\nssg8\ng85\nsg9\n(lp89\nS\'c10.0\'\np90\naS\'SIF_stokesI:q=J163557+623259\'\np91\nassS\'SIF_stokesI:q=J163739+625558\'\np92\n(dp93\ng3\nS\'MeqParm\'\np94\nsg5\n(dp95\ng19\n(dp96\ng21\nS\'meqpolclog\'\np97\nsg23\n(lp98\n(lp99\nF-2.2218487496163561\naF0.9382317085194406\naassg7\ng94\nssg8\ng92\nsg9\n(lp100\nssS\'SIF_stokesI:q=J164012+620347\'\np101\n(dp102\ng3\nS\'MeqParm\'\np103\nsg5\n(dp104\ng19\n(dp105\ng21\ng97\nsg23\n(lp106\n(lp107\nF-2.5528419686577806\naF0.030009154153709194\naassg7\ng103\nssg8\ng101\nsg9\n(lp108\nssS\'stokesI:q=J163650+620219\'\np109\n(dp110\ng3\nS\'MeqPow\'\np111\nsg5\n(dp112\ng7\ng111\nssg8\ng109\nsg9\n(lp113\ng90\naS\'SIF_stokesI:q=J163650+620219\'\np114\nassS\'sixpack:q=J164234+625828\'\np115\n(dp116\ng3\nS\'MeqComposer\'\np117\nsg5\n(dp118\ng7\ng117\nssg8\ng115\nsg9\n(lp119\nS\'ra:q=J164234+625828\'\np120\naS\'dec:q=J164234+625828\'\np121\naS\'stokesI:q=J164234+625828\'\np122\nag14\nag14\nag14\nassS\'stokesI:q=J163810+625843\'\np123\n(dp124\ng3\nS\'MeqPow\'\np125\nsg5\n(dp126\ng7\ng125\nssg8\ng123\nsg9\n(lp127\ng90\naS\'SIF_stokesI:q=J163810+625843\'\np128\nassS\'sixpack:q=J163545+624352\'\np129\n(dp130\ng3\nS\'MeqComposer\'\np131\nsg5\n(dp132\ng7\ng131\nssg8\ng129\nsg9\n(lp133\nS\'ra:q=J163545+624352\'\np134\naS\'dec:q=J163545+624352\'\np135\naS\'stokesI:q=J163545+624352\'\np136\nag14\nag14\nag14\nassS\'ra:q=J163727+621643\'\np137\n(dp138\ng3\nS\'MeqParm\'\np139\nsg5\n(dp140\ng19\n(dp141\ng21\ng22\nsg23\ng24\n(g25\n(dp142\ng27\ng28\nsg29\nI8\nsg30\nI8\nsg31\n(tsg32\ng33\nsg34\nI0\nsg35\nS\'little\'\np143\nsg37\ng38\n(S\'o\\xb39\\xd8\\xb6h\\x11@\'\np144\ntp145\nRp146\nsg42\n(tstp147\nRp148\nssg7\ng139\nssg8\ng137\nsg9\n(lp149\nssS\'dec:q=J163842+624327\'\np150\n(dp151\ng3\nS\'MeqParm\'\np152\nsg5\n(dp153\ng19\n(dp154\ng21\ng22\nsg23\ng24\n(g25\n(dp155\ng27\ng28\nsg29\nI8\nsg30\nI8\nsg31\n(tsg32\ng33\nsg34\nI0\nsg35\nS\'little\'\np156\nsg37\ng38\n(S\'\\xfcy\\x06\\xb2\\x15\\x84\\xf1?\'\np157\ntp158\nRp159\nsg42\n(tstp160\nRp161\nssg7\ng152\nssg8\ng150\nsg9\n(lp162\nssS\'sixpack:q=J163915+621438\'\np163\n(dp164\ng3\nS\'MeqComposer\'\np165\nsg5\n(dp166\ng7\ng165\nssg8\ng163\nsg9\n(lp167\nS\'ra:q=J163915+621438\'\np168\naS\'dec:q=J163915+621438\'\np169\naS\'stokesI:q=J163915+621438\'\np170\nag14\nag14\nag14\nassS\'SIF_stokesI:q=J164049+622543\'\np171\n(dp172\ng3\nS\'MeqParm\'\np173\nsg5\n(dp174\ng19\n(dp175\ng21\ng97\nsg23\n(lp176\n(lp177\nF-2.2146701649892329\naF0.22564655076690454\naassg7\ng173\nssg8\ng171\nsg9\n(lp178\nssS\'stokesI:q=J164139+625523\'\np179\n(dp180\ng3\nS\'MeqPow\'\np181\nsg5\n(dp182\ng7\ng181\nssg8\ng179\nsg9\n(lp183\ng90\naS\'SIF_stokesI:q=J164139+625523\'\np184\nassS\'sixpack:q=J163527+622023\'\np185\n(dp186\ng3\nS\'MeqComposer\'\np187\nsg5\n(dp188\ng7\ng187\nssg8\ng185\nsg9\n(lp189\nS\'ra:q=J163527+622023\'\np190\naS\'dec:q=J163527+622023\'\np191\naS\'stokesI:q=J163527+622023\'\np192\nag14\nag14\nag14\nassg192\n(dp193\ng3\nS\'MeqPow\'\np194\nsg5\n(dp195\ng7\ng194\nssg8\ng192\nsg9\n(lp196\ng90\naS\'SIF_stokesI:q=J163527+622023\'\np197\nassS\'dec:q=J163759+623418\'\np198\n(dp199\ng3\nS\'MeqParm\'\np200\nsg5\n(dp201\ng19\n(dp202\ng21\ng22\nsg23\ng24\n(g25\n(dp203\ng27\ng28\nsg29\nI8\nsg30\nI8\nsg31\n(tsg32\ng33\nsg34\nI0\nsg35\nS\'little\'\np204\nsg37\ng38\n(S\'\\xd9\\xee7/,y\\xf1?\'\np205\ntp206\nRp207\nsg42\n(tstp208\nRp209\nssg7\ng200\nssg8\ng198\nsg9\n(lp210\nssS\'ra:q=J163648+620433\'\np211\n(dp212\ng3\nS\'MeqParm\'\np213\nsg5\n(dp214\ng19\n(dp215\ng21\ng22\nsg23\ng24\n(g25\n(dp216\ng27\ng28\nsg29\nI8\nsg30\nI8\nsg31\n(tsg32\ng33\nsg34\nI0\nsg35\nS\'little\'\np217\nsg37\ng38\n(S\'3\\x80\\x8bn\\xc7e\\x11@\'\np218\ntp219\nRp220\nsg42\n(tstp221\nRp222\nssg7\ng213\nssg8\ng211\nsg9\n(lp223\nssS\'stokesI:q=J163639+623041\'\np224\n(dp225\ng3\nS\'MeqPow\'\np226\nsg5\n(dp227\ng7\ng226\nssg8\ng224\nsg9\n(lp228\ng90\naS\'SIF_stokesI:q=J163639+623041\'\np229\nassS\'ra:q=J163440+622557\'\np230\n(dp231\ng3\nS\'MeqParm\'\np232\nsg5\n(dp233\ng19\n(dp234\ng21\ng22\nsg23\ng24\n(g25\n(dp235\ng27\ng28\nsg29\nI8\nsg30\nI8\nsg31\n(tsg32\ng33\nsg34\nI0\nsg35\nS\'little\'\np236\nsg37\ng38\n(S\'\\xb3\\xd6Oi7\\\\\\x11@\'\np237\ntp238\nRp239\nsg42\n(tstp240\nRp241\nssg7\ng232\nssg8\ng230\nsg9\n(lp242\nssS\'stokesI:q=J163856+623150\'\np243\n(dp244\ng3\nS\'MeqPow\'\np245\nsg5\n(dp246\ng7\ng245\nssg8\ng243\nsg9\n(lp247\ng90\naS\'SIF_stokesI:q=J163856+623150\'\np248\nassS\'stokesI:q=J163520+622806\'\np249\n(dp250\ng3\nS\'MeqPow\'\np251\nsg5\n(dp252\ng7\ng251\nssg8\ng249\nsg9\n(lp253\ng90\naS\'SIF_stokesI:q=J163520+622806\'\np254\nassS\'sixpack:q=J164146+623730\'\np255\n(dp256\ng3\nS\'MeqComposer\'\np257\nsg5\n(dp258\ng7\ng257\nssg8\ng255\nsg9\n(lp259\nS\'ra:q=J164146+623730\'\np260\naS\'dec:q=J164146+623730\'\np261\naS\'stokesI:q=J164146+623730\'\np262\nag14\nag14\nag14\nassS\'ra:q=J163849+622927\'\np263\n(dp264\ng3\nS\'MeqParm\'\np265\nsg5\n(dp266\ng19\n(dp267\ng21\ng22\nsg23\ng24\n(g25\n(dp268\ng27\ng28\nsg29\nI8\nsg30\nI8\nsg31\n(tsg32\ng33\nsg34\nI0\nsg35\nS\'little\'\np269\nsg37\ng38\n(S\'\\xa8\\xfcr\\xc9\\xc5n\\x11@\'\np270\ntp271\nRp272\nsg42\n(tstp273\nRp274\nssg7\ng265\nssg8\ng263\nsg9\n(lp275\nssS\'ra:q=J164139+625523\'\np276\n(dp277\ng3\nS\'MeqParm\'\np278\nsg5\n(dp279\ng19\n(dp280\ng21\ng22\nsg23\ng24\n(g25\n(dp281\ng27\ng28\nsg29\nI8\nsg30\nI8\nsg31\n(tsg32\ng33\nsg34\nI0\nsg35\nS\'little\'\np282\nsg37\ng38\n(S\'4ca\\xa4j{\\x11@\'\np283\ntp284\nRp285\nsg42\n(tstp286\nRp287\nssg7\ng278\nssg8\ng276\nsg9\n(lp288\nssS\'sixpack:q=J163520+623657\'\np289\n(dp290\ng3\nS\'MeqComposer\'\np291\nsg5\n(dp292\ng7\ng291\nssg8\ng289\nsg9\n(lp293\nS\'ra:q=J163520+623657\'\np294\naS\'dec:q=J163520+623657\'\np295\naS\'stokesI:q=J163520+623657\'\np296\nag14\nag14\nag14\nassS\'dec:q=J163849+622927\'\np297\n(dp298\ng3\nS\'MeqParm\'\np299\nsg5\n(dp300\ng19\n(dp301\ng21\ng22\nsg23\ng24\n(g25\n(dp302\ng27\ng28\nsg29\nI8\nsg30\nI8\nsg31\n(tsg32\ng33\nsg34\nI0\nsg35\nS\'little\'\np303\nsg37\ng38\n(S\'\\xc1\\xf15<ds\\xf1?\'\np304\ntp305\nRp306\nsg42\n(tstp307\nRp308\nssg7\ng299\nssg8\ng297\nsg9\n(lp309\nssS\'dec:q=J164114+622849\'\np310\n(dp311\ng3\nS\'MeqParm\'\np312\nsg5\n(dp313\ng19\n(dp314\ng21\ng22\nsg23\ng24\n(g25\n(dp315\ng27\ng28\nsg29\nI8\nsg30\nI8\nsg31\n(tsg32\ng33\nsg34\nI0\nsg35\nS\'little\'\np316\nsg37\ng38\n(S\'#\\xbeK\\xb3\\xa5r\\xf1?\'\np317\ntp318\nRp319\nsg42\n(tstp320\nRp321\nssg7\ng312\nssg8\ng310\nsg9\n(lp322\nssS\'dec:q=J164049+622543\'\np323\n(dp324\ng3\nS\'MeqParm\'\np325\nsg5\n(dp326\ng19\n(dp327\ng21\ng22\nsg23\ng24\n(g25\n(dp328\ng27\ng28\nsg29\nI8\nsg30\nI8\nsg31\n(tsg32\ng33\nsg34\nI0\nsg35\nS\'little\'\np329\nsg37\ng38\n(S\'\\xde\\xdf\\xd9\\x17\\xf1n\\xf1?\'\np330\ntp331\nRp332\nsg42\n(tstp333\nRp334\nssg7\ng325\nssg8\ng323\nsg9\n(lp335\nssS\'sixpack:q=J163715+623343\'\np336\n(dp337\ng3\nS\'MeqComposer\'\np338\nsg5\n(dp339\ng7\ng338\nssg8\ng336\nsg9\n(lp340\nS\'ra:q=J163715+623343\'\np341\naS\'dec:q=J163715+623343\'\np342\naS\'stokesI:q=J163715+623343\'\np343\nag14\nag14\nag14\nassS\'SIF_stokesI:q=J164032+625110\'\np344\n(dp345\ng3\nS\'MeqParm\'\np346\nsg5\n(dp347\ng19\n(dp348\ng21\ng97\nsg23\n(lp349\n(lp350\nF-2.5376020021010439\naF0.82458066820900344\naassg7\ng346\nssg8\ng344\nsg9\n(lp351\nssg14\n(dp352\ng3\nS\'MeqConstant\'\np353\nsg5\n(dp354\ng7\ng353\nsS\'value\'\np355\nF0.0\nssg8\ng14\nsg9\n(lp356\nssS\'stokesI:q=J163816+620854\'\np357\n(dp358\ng3\nS\'MeqPow\'\np359\nsg5\n(dp360\ng7\ng359\nssg8\ng357\nsg9\n(lp361\ng90\naS\'SIF_stokesI:q=J163816+620854\'\np362\nassS\'ra:q=J163526+623858\'\np363\n(dp364\ng3\nS\'MeqParm\'\np365\nsg5\n(dp366\ng19\n(dp367\ng21\ng22\nsg23\ng24\n(g25\n(dp368\ng27\ng28\nsg29\nI8\nsg30\nI8\nsg31\n(tsg32\ng33\nsg34\nI0\nsg35\nS\'little\'\np369\nsg37\ng38\n(S\'\\xa5\\xb4\\xf7P\\xb6_\\x11@\'\np370\ntp371\nRp372\nsg42\n(tstp373\nRp374\nssg7\ng365\nssg8\ng363\nsg9\n(lp375\nssS\'dec:q=J163618+621657\'\np376\n(dp377\ng3\nS\'MeqParm\'\np378\nsg5\n(dp379\ng19\n(dp380\ng21\ng22\nsg23\ng24\n(g25\n(dp381\ng27\ng28\nsg29\nI8\nsg30\nI8\nsg31\n(tsg32\ng33\nsg34\nI0\nsg35\nS\'little\'\np382\nsg37\ng38\n(S\'\\x02P\\xb7\\xd3\\x80d\\xf1?\'\np383\ntp384\nRp385\nsg42\n(tstp386\nRp387\nssg7\ng378\nssg8\ng376\nsg9\n(lp388\nssS\'SIF_stokesI:q=J164114+622849\'\np389\n(dp390\ng3\nS\'MeqParm\'\np391\nsg5\n(dp392\ng19\n(dp393\ng21\ng97\nsg23\n(lp394\n(lp395\nF-1.2831622767004753\naF0.53993195104273939\naassg7\ng391\nssg8\ng389\nsg9\n(lp396\nssS\'SIF_stokesI:q=J164126+624634\'\np397\n(dp398\ng3\nS\'MeqParm\'\np399\nsg5\n(dp400\ng19\n(dp401\ng21\ng97\nsg23\n(lp402\n(lp403\nF-0.93479387194568797\naF0.90544547810964493\naassg7\ng399\nssg8\ng397\nsg9\n(lp404\nssS\'dec:q=J163816+620854\'\np405\n(dp406\ng3\nS\'MeqParm\'\np407\nsg5\n(dp408\ng19\n(dp409\ng21\ng22\nsg23\ng24\n(g25\n(dp410\ng27\ng28\nsg29\nI8\nsg30\nI8\nsg31\n(tsg32\ng33\nsg34\nI0\nsg35\nS\'little\'\np411\nsg37\ng38\n(S\'\\x06dx5\\xe8Z\\xf1?\'\np412\ntp413\nRp414\nsg42\n(tstp415\nRp416\nssg7\ng407\nssg8\ng405\nsg9\n(lp417\nssS\'SIF_stokesI:q=J163805+623915\'\np418\n(dp419\ng3\nS\'MeqParm\'\np420\nsg5\n(dp421\ng19\n(dp422\ng21\ng97\nsg23\n(lp423\n(lp424\nF-2.5850266520291818\naF0.030030888655954602\naassg7\ng420\nssg8\ng418\nsg9\n(lp425\nssg135\n(dp426\ng3\nS\'MeqParm\'\np427\nsg5\n(dp428\ng19\n(dp429\ng21\ng22\nsg23\ng24\n(g25\n(dp430\ng27\ng28\nsg29\nI8\nsg30\nI8\nsg31\n(tsg32\ng33\nsg34\nI0\nsg35\nS\'little\'\np431\nsg37\ng38\n(S\'Q\\xc1\\xc8\\xda\\x92\\x84\\xf1?\'\np432\ntp433\nRp434\nsg42\n(tstp435\nRp436\nssg7\ng427\nssg8\ng135\nsg9\n(lp437\nssg12\n(dp438\ng3\nS\'MeqParm\'\np439\nsg5\n(dp440\ng19\n(dp441\ng21\ng22\nsg23\ng24\n(g25\n(dp442\ng27\ng28\nsg29\nI8\nsg30\nI8\nsg31\n(tsg32\ng33\nsg34\nI0\nsg35\nS\'little\'\np443\nsg37\ng38\n(S\'JZ\\xca\\xb6\\rZ\\xf1?\'\np444\ntp445\nRp446\nsg42\n(tstp447\nRp448\nssg7\ng439\nssg8\ng12\nsg9\n(lp449\nssS\'lsmroot\'\np450\n(dp451\ng3\nS\'MeqComposer\'\np452\nsg5\n(dp453\ng7\ng452\nssg8\ng450\nsg9\n(lp454\nS\'sixpack:q=J163913+625944\'\np455\naS\'sixpack:q=J164124+621028\'\np456\naS\'sixpack:q=J163947+625020\'\np457\naS\'sixpack:q=J163516+622058\'\np458\naS\'sixpack:q=J164049+622543\'\np459\naS\'sixpack:q=J163626+624239\'\np460\naS\'sixpack:q=J163450+625209\'\np461\naS\'sixpack:q=J164056+623705\'\np462\naS\'sixpack:q=J163517+623831\'\np463\naS\'sixpack:q=J164046+625410\'\np464\naS\'sixpack:q=J163558+624739\'\np465\naS\'sixpack:q=J164126+624634\'\np466\naS\'sixpack:q=J163838+624704\'\np467\naS\'sixpack:q=J163618+621657\'\np468\naS\'sixpack:q=J163503+624635\'\np469\naS\'sixpack:q=J163550+622916\'\np470\naS\'sixpack:q=J163648+620433\'\np471\naS\'sixpack:q=J163433+624535\'\np472\naS\'sixpack:q=J163816+620854\'\np473\naS\'sixpack:q=J163651+623328\'\np474\naS\'sixpack:q=J163457+623227\'\np475\naS\'sixpack:q=J163418+620007\'\np476\naS\'sixpack:q=J164015+625822\'\np477\naS\'sixpack:q=J164139+625523\'\np478\naS\'sixpack:q=J164244+624356\'\np479\naS\'sixpack:q=J163623+623447\'\np480\naS\'sixpack:q=J163557+623259\'\np481\naS\'sixpack:q=J164012+620347\'\np482\naS\'sixpack:q=J163427+624349\'\np483\naS\'sixpack:q=J163828+623443\'\np484\naS\'sixpack:q=J163739+625558\'\np485\naS\'sixpack:q=J164247+624940\'\np486\naS\'sixpack:q=J163842+624327\'\np487\naS\'sixpack:q=J164114+622849\'\np488\naS\'sixpack:q=J164105+624455\'\np489\naS\'sixpack:q=J163530+623239\'\np490\naS\'sixpack:q=J164100+624800\'\np491\nag289\naS\'sixpack:q=J163856+623150\'\np492\naS\'sixpack:q=J163440+622557\'\np493\naS\'sixpack:q=J163448+624932\'\np494\naS\'sixpack:q=J163650+620219\'\np495\naS\'sixpack:q=J163805+623915\'\np496\naS\'sixpack:q=J164003+620453\'\np497\naS\'sixpack:q=J163856+623526\'\np498\naS\'sixpack:q=J164212+620545\'\np499\naS\'sixpack:q=J163556+620533\'\np500\naS\'sixpack:q=J163942+621330\'\np501\naS\'sixpack:q=J163433+620003\'\np502\nag185\naS\'sixpack:q=J163526+623858\'\np503\naS\'sixpack:q=J164253+623857\'\np504\naS\'sixpack:q=J163812+623043\'\np505\naS\'sixpack:q=J163642+622524\'\np506\naS\'sixpack:q=J163718+621358\'\np507\naS\'sixpack:q=J163851+620025\'\np508\naS\'sixpack:q=J163727+621643\'\np509\naS\'sixpack:q=J163918+624836\'\np510\naS\'sixpack:q=J163639+623041\'\np511\naS\'sixpack:q=J163751+624912\'\np512\nag129\naS\'sixpack:q=J163759+623418\'\np513\naS\'sixpack:q=J163713+624012\'\np514\nag115\nag336\naS\'sixpack:q=J163441+624420\'\np515\naS\'sixpack:q=J163754+622601\'\np516\nag255\naS\'sixpack:q=J164210+622820\'\np517\naS\'sixpack:q=J163926+623244\'\np518\nag163\naS\'sixpack:q=J163905+620020\'\np519\naS\'sixpack:q=J163411+624953\'\np520\naS\'sixpack:q=J163715+623219\'\np521\naS\'sixpack:q=J163832+622309\'\np522\naS\'sixpack:q=J164032+625110\'\np523\naS\'sixpack:q=J163849+622927\'\np524\naS\'sixpack:q=J163810+625843\'\np525\naS\'sixpack:q=J164248+621031\'\np526\naS\'sixpack:q=J163919+624921\'\np527\naS\'sixpack:q=J163520+624616\'\np528\naS\'sixpack:q=J163746+622052\'\np529\nag1\naS\'sixpack:q=J163426+623114\'\np530\naS\'sixpack:q=J163550+624514\'\np531\naS\'sixpack:q=J163520+622806\'\np532\nassg456\n(dp533\ng3\nS\'MeqComposer\'\np534\nsg5\n(dp535\ng7\ng534\nssg8\ng456\nsg9\n(lp536\nS\'ra:q=J164124+621028\'\np537\naS\'dec:q=J164124+621028\'\np538\naS\'stokesI:q=J164124+621028\'\np539\nag14\nag14\nag14\nassg121\n(dp540\ng3\nS\'MeqParm\'\np541\nsg5\n(dp542\ng19\n(dp543\ng21\ng22\nsg23\ng24\n(g25\n(dp544\ng27\ng28\nsg29\nI8\nsg30\nI8\nsg31\n(tsg32\ng33\nsg34\nI0\nsg35\nS\'little\'\np545\nsg37\ng38\n(S\'\\xaf\\xb9\\x93F\\xf8\\x95\\xf1?\'\np546\ntp547\nRp548\nsg42\n(tstp549\nRp550\nssg7\ng541\nssg8\ng121\nsg9\n(lp551\nssg481\n(dp552\ng3\nS\'MeqComposer\'\np553\nsg5\n(dp554\ng7\ng553\nssg8\ng481\nsg9\n(lp555\nS\'ra:q=J163557+623259\'\np556\naS\'dec:q=J163557+623259\'\np557\nag85\nag14\nag14\nag14\nassS\'dec:q=J163913+625944\'\np558\n(dp559\ng3\nS\'MeqParm\'\np560\nsg5\n(dp561\ng19\n(dp562\ng21\ng22\nsg23\ng24\n(g25\n(dp563\ng27\ng28\nsg29\nI8\nsg30\nI8\nsg31\n(tsg32\ng33\nsg34\nI0\nsg35\nS\'little\'\np564\nsg37\ng38\n(S\'\\x88~\\x8d\\x12}\\x97\\xf1?\'\np565\ntp566\nRp567\nsg42\n(tstp568\nRp569\nssg7\ng560\nssg8\ng558\nsg9\n(lp570\nssS\'stokesI:q=J163849+622927\'\np571\n(dp572\ng3\nS\'MeqPow\'\np573\nsg5\n(dp574\ng7\ng573\nssg8\ng571\nsg9\n(lp575\ng90\naS\'SIF_stokesI:q=J163849+622927\'\np576\nassS\'SIF_stokesI:q=J163503+624635\'\np577\n(dp578\ng3\nS\'MeqParm\'\np579\nsg5\n(dp580\ng19\n(dp581\ng21\ng97\nsg23\n(lp582\n(lp583\nF-2.3279021420642825\naF0.15772671236206293\naassg7\ng579\nssg8\ng577\nsg9\n(lp584\nssS\'dec:q=J163503+624635\'\np585\n(dp586\ng3\nS\'MeqParm\'\np587\nsg5\n(dp588\ng19\n(dp589\ng21\ng22\nsg23\ng24\n(g25\n(dp590\ng27\ng28\nsg29\nI8\nsg30\nI8\nsg31\n(tsg32\ng33\nsg34\nI0\nsg35\nS\'little\'\np591\nsg37\ng38\n(S\'f\\x91y\\x85\\xd1\\x87\\xf1?\'\np592\ntp593\nRp594\nsg42\n(tstp595\nRp596\nssg7\ng587\nssg8\ng585\nsg9\n(lp597\nssS\'ra:q=J163433+624535\'\np598\n(dp599\ng3\nS\'MeqParm\'\np600\nsg5\n(dp601\ng19\n(dp602\ng21\ng22\nsg23\ng24\n(g25\n(dp603\ng27\ng28\nsg29\nI8\nsg30\nI8\nsg31\n(tsg32\ng33\nsg34\nI0\nsg35\nS\'little\'\np604\nsg37\ng38\n(S\'x\\x98~\\xb1\\xc1[\\x11@\'\np605\ntp606\nRp607\nsg42\n(tstp608\nRp609\nssg7\ng600\nssg8\ng598\nsg9\n(lp610\nssS\'stokesI:q=J163503+624635\'\np611\n(dp612\ng3\nS\'MeqPow\'\np613\nsg5\n(dp614\ng7\ng613\nssg8\ng611\nsg9\n(lp615\ng90\nag577\nassg512\n(dp616\ng3\nS\'MeqComposer\'\np617\nsg5\n(dp618\ng7\ng617\nssg8\ng512\nsg9\n(lp619\nS\'ra:q=J163751+624912\'\np620\naS\'dec:q=J163751+624912\'\np621\naS\'stokesI:q=J163751+624912\'\np622\nag14\nag14\nag14\nassS\'ra:q=J163650+620219\'\np623\n(dp624\ng3\nS\'MeqParm\'\np625\nsg5\n(dp626\ng19\n(dp627\ng21\ng22\nsg23\ng24\n(g25\n(dp628\ng27\ng28\nsg29\nI8\nsg30\nI8\nsg31\n(tsg32\ng33\nsg34\nI0\nsg35\nS\'little\'\np629\nsg37\ng38\n(S\'`\\x96\\x87\\x88\\xe5e\\x11@\'\np630\ntp631\nRp632\nsg42\n(tstp633\nRp634\nssg7\ng625\nssg8\ng623\nsg9\n(lp635\nssS\'stokesI:q=J163727+621643\'\np636\n(dp637\ng3\nS\'MeqPow\'\np638\nsg5\n(dp639\ng7\ng638\nssg8\ng636\nsg9\n(lp640\ng90\naS\'SIF_stokesI:q=J163727+621643\'\np641\nassS\'stokesI:q=J163623+623447\'\np642\n(dp643\ng3\nS\'MeqPow\'\np644\nsg5\n(dp645\ng7\ng644\nssg8\ng642\nsg9\n(lp646\ng90\naS\'SIF_stokesI:q=J163623+623447\'\np647\nassg510\n(dp648\ng3\nS\'MeqComposer\'\np649\nsg5\n(dp650\ng7\ng649\nssg8\ng510\nsg9\n(lp651\nS\'ra:q=J163918+624836\'\np652\naS\'dec:q=J163918+624836\'\np653\naS\'stokesI:q=J163918+624836\'\np654\nag14\nag14\nag14\nassS\'SIF_stokesI:q=J164248+621031\'\np655\n(dp656\ng3\nS\'MeqParm\'\np657\nsg5\n(dp658\ng19\n(dp659\ng21\ng97\nsg23\n(lp660\n(lp661\nF-1.8664610916297821\naF0.59681147849741123\naassg7\ng657\nssg8\ng655\nsg9\n(lp662\nssg471\n(dp663\ng3\nS\'MeqComposer\'\np664\nsg5\n(dp665\ng7\ng664\nssg8\ng471\nsg9\n(lp666\ng211\naS\'dec:q=J163648+620433\'\np667\naS\'stokesI:q=J163648+620433\'\np668\nag14\nag14\nag14\nassg455\n(dp669\ng3\nS\'MeqComposer\'\np670\nsg5\n(dp671\ng7\ng670\nssg8\ng455\nsg9\n(lp672\nS\'ra:q=J163913+625944\'\np673\nag558\naS\'stokesI:q=J163913+625944\'\np674\nag14\nag14\nag14\nassS\'SIF_stokesI:q=J164124+621028\'\np675\n(dp676\ng3\nS\'MeqParm\'\np677\nsg5\n(dp678\ng19\n(dp679\ng21\ng97\nsg23\n(lp680\n(lp681\nF-2.5376020021010439\naF0.24013885199256402\naassg7\ng677\nssg8\ng675\nsg9\n(lp682\nssg654\n(dp683\ng3\nS\'MeqPow\'\np684\nsg5\n(dp685\ng7\ng684\nssg8\ng654\nsg9\n(lp686\ng90\naS\'SIF_stokesI:q=J163918+624836\'\np687\nassS\'SIF_stokesI:q=J163913+625944\'\np688\n(dp689\ng3\nS\'MeqParm\'\np690\nsg5\n(dp691\ng19\n(dp692\ng21\ng97\nsg23\n(lp693\n(lp694\nF-1.9546770212133424\naF0.85512798327398609\naassg7\ng690\nssg8\ng688\nsg9\n(lp695\nssg197\n(dp696\ng3\nS\'MeqParm\'\np697\nsg5\n(dp698\ng19\n(dp699\ng21\ng97\nsg23\n(lp700\n(lp701\nF-2.6382721639824069\naF0.21345571261569918\naassg7\ng697\nssg8\ng197\nsg9\n(lp702\nssS\'ra:q=J163517+623831\'\np703\n(dp704\ng3\nS\'MeqParm\'\np705\nsg5\n(dp706\ng19\n(dp707\ng21\ng22\nsg23\ng24\n(g25\n(dp708\ng27\ng28\nsg29\nI8\nsg30\nI8\nsg31\n(tsg32\ng33\nsg34\nI0\nsg35\nS\'little\'\np709\nsg37\ng38\n(S\'\\x16j~\\x1f\\t_\\x11@\'\np710\ntp711\nRp712\nsg42\n(tstp713\nRp714\nssg7\ng705\nssg8\ng703\nsg9\n(lp715\nssS\'stokesI:q=J163842+624327\'\np716\n(dp717\ng3\nS\'MeqPow\'\np718\nsg5\n(dp719\ng7\ng718\nssg8\ng716\nsg9\n(lp720\ng90\naS\'SIF_stokesI:q=J163842+624327\'\np721\nassS\'dec:q=J163520+624616\'\np722\n(dp723\ng3\nS\'MeqParm\'\np724\nsg5\n(dp725\ng19\n(dp726\ng21\ng22\nsg23\ng24\n(g25\n(dp727\ng27\ng28\nsg29\nI8\nsg30\nI8\nsg31\n(tsg32\ng33\nsg34\nI0\nsg35\nS\'little\'\np728\nsg37\ng38\n(S\'\\xb1\\xe5s8p\\x87\\xf1?\'\np729\ntp730\nRp731\nsg42\n(tstp732\nRp733\nssg7\ng724\nssg8\ng722\nsg9\n(lp734\nssg362\n(dp735\ng3\nS\'MeqParm\'\np736\nsg5\n(dp737\ng19\n(dp738\ng21\ng97\nsg23\n(lp739\n(lp740\nF-2.5086383061657269\naF0.37212882736960895\naassg7\ng736\nssg8\ng362\nsg9\n(lp741\nssg491\n(dp742\ng3\nS\'MeqComposer\'\np743\nsg5\n(dp744\ng7\ng743\nssg8\ng491\nsg9\n(lp745\nS\'ra:q=J164100+624800\'\np746\naS\'dec:q=J164100+624800\'\np747\naS\'stokesI:q=J164100+624800\'\np748\nag14\nag14\nag14\nassS\'SIF_stokesI:q=J164234+625828\'\np749\n(dp750\ng3\nS\'MeqParm\'\np751\nsg5\n(dp752\ng19\n(dp753\ng21\ng97\nsg23\n(lp754\n(lp755\nF-2.3372421683184257\naF0.52983775465279437\naassg7\ng751\nssg8\ng749\nsg9\n(lp756\nssS\'ra:q=J163905+620020\'\np757\n(dp758\ng3\nS\'MeqParm\'\np759\nsg5\n(dp760\ng19\n(dp761\ng21\ng22\nsg23\ng24\n(g25\n(dp762\ng27\ng28\nsg29\nI8\nsg30\nI8\nsg31\n(tsg32\ng33\nsg34\nI0\nsg35\nS\'little\'\np763\nsg37\ng38\n(S\'\\xcd\\xc2\\xe9\\x12\\xf9o\\x11@\'\np764\ntp765\nRp766\nsg42\n(tstp767\nRp768\nssg7\ng759\nssg8\ng757\nsg9\n(lp769\nssg516\n(dp770\ng3\nS\'MeqComposer\'\np771\nsg5\n(dp772\ng7\ng771\nssg8\ng516\nsg9\n(lp773\nS\'ra:q=J163754+622601\'\np774\naS\'dec:q=J163754+622601\'\np775\naS\'stokesI:q=J163754+622601\'\np776\nag14\nag14\nag14\nassS\'SIF_stokesI:q=J163418+620007\'\np777\n(dp778\ng3\nS\'MeqParm\'\np779\nsg5\n(dp780\ng19\n(dp781\ng21\ng97\nsg23\n(lp782\n(lp783\nF-2.397940008672037\naF0.85018264655291442\naassg7\ng779\nssg8\ng777\nsg9\n(lp784\nssS\'ra:q=J163838+624704\'\np785\n(dp786\ng3\nS\'MeqParm\'\np787\nsg5\n(dp788\ng19\n(dp789\ng21\ng22\nsg23\ng24\n(g25\n(dp790\ng27\ng28\nsg29\nI8\nsg30\nI8\nsg31\n(tsg32\ng33\nsg34\nI0\nsg35\nS\'little\'\np791\nsg37\ng38\n(S\'\\x89L\\xa0m\\xf2m\\x11@\'\np792\ntp793\nRp794\nsg42\n(tstp795\nRp796\nssg7\ng787\nssg8\ng785\nsg9\n(lp797\nssS\'stokesI:q=J164212+620545\'\np798\n(dp799\ng3\nS\'MeqPow\'\np800\nsg5\n(dp801\ng7\ng800\nssg8\ng798\nsg9\n(lp802\ng90\naS\'SIF_stokesI:q=J164212+620545\'\np803\nassS\'dec:q=J163838+624704\'\np804\n(dp805\ng3\nS\'MeqParm\'\np806\nsg5\n(dp807\ng19\n(dp808\ng21\ng22\nsg23\ng24\n(g25\n(dp809\ng27\ng28\nsg29\nI8\nsg30\nI8\nsg31\n(tsg32\ng33\nsg34\nI0\nsg35\nS\'little\'\np810\nsg37\ng38\n(S\'I\\x08\\x92\\xe5a\\x88\\xf1?\'\np811\ntp812\nRp813\nsg42\n(tstp814\nRp815\nssg7\ng806\nssg8\ng804\nsg9\n(lp816\nssg134\n(dp817\ng3\nS\'MeqParm\'\np818\nsg5\n(dp819\ng19\n(dp820\ng21\ng22\nsg23\ng24\n(g25\n(dp821\ng27\ng28\nsg29\nI8\nsg30\nI8\nsg31\n(tsg32\ng33\nsg34\nI0\nsg35\nS\'little\'\np822\nsg37\ng38\n(S\'\\xaf\\x058\\x99\\x1ca\\x11@\'\np823\ntp824\nRp825\nsg42\n(tstp826\nRp827\nssg7\ng818\nssg8\ng134\nsg9\n(lp828\nssS\'stokesI:q=J163448+624932\'\np829\n(dp830\ng3\nS\'MeqPow\'\np831\nsg5\n(dp832\ng7\ng831\nssg8\ng829\nsg9\n(lp833\ng90\naS\'SIF_stokesI:q=J163448+624932\'\np834\nassS\'ra:q=J163503+624635\'\np835\n(dp836\ng3\nS\'MeqParm\'\np837\nsg5\n(dp838\ng19\n(dp839\ng21\ng22\nsg23\ng24\n(g25\n(dp840\ng27\ng28\nsg29\nI8\nsg30\nI8\nsg31\n(tsg32\ng33\nsg34\nI0\nsg35\nS\'little\'\np841\nsg37\ng38\n(S\'D\\xdf*\\xe3\\xf0]\\x11@\'\np842\ntp843\nRp844\nsg42\n(tstp845\nRp846\nssg7\ng837\nssg8\ng835\nsg9\n(lp847\nssS\'stokesI:q=J163759+623418\'\np848\n(dp849\ng3\nS\'MeqPow\'\np850\nsg5\n(dp851\ng7\ng850\nssg8\ng848\nsg9\n(lp852\ng90\naS\'SIF_stokesI:q=J163759+623418\'\np853\nassS\'stokesI:q=J163433+624535\'\np854\n(dp855\ng3\nS\'MeqPow\'\np856\nsg5\n(dp857\ng7\ng856\nssg8\ng854\nsg9\n(lp858\ng90\naS\'SIF_stokesI:q=J163433+624535\'\np859\nassS\'stokesI:q=J163851+620025\'\np860\n(dp861\ng3\nS\'MeqPow\'\np862\nsg5\n(dp863\ng7\ng862\nssg8\ng860\nsg9\n(lp864\ng90\naS\'SIF_stokesI:q=J163851+620025\'\np865\nassS\'stokesI:q=J163558+624739\'\np866\n(dp867\ng3\nS\'MeqPow\'\np868\nsg5\n(dp869\ng7\ng868\nssg8\ng866\nsg9\n(lp870\ng90\naS\'SIF_stokesI:q=J163558+624739\'\np871\nassS\'ra:q=J163457+623227\'\np872\n(dp873\ng3\nS\'MeqParm\'\np874\nsg5\n(dp875\ng19\n(dp876\ng21\ng22\nsg23\ng24\n(g25\n(dp877\ng27\ng28\nsg29\nI8\nsg30\nI8\nsg31\n(tsg32\ng33\nsg34\nI0\nsg35\nS\'little\'\np878\nsg37\ng38\n(S\'D\\xcb\\x8fH\\x86]\\x11@\'\np879\ntp880\nRp881\nsg42\n(tstp882\nRp883\nssg7\ng874\nssg8\ng872\nsg9\n(lp884\nssS\'SIF_stokesI:q=J164100+624800\'\np885\n(dp886\ng3\nS\'MeqParm\'\np887\nsg5\n(dp888\ng19\n(dp889\ng21\ng97\nsg23\n(lp890\n(lp891\nF-2.4089353929735005\naF0.8945789714912149\naassg7\ng887\nssg8\ng885\nsg9\n(lp892\nssS\'dec:q=J164056+623705\'\np893\n(dp894\ng3\nS\'MeqParm\'\np895\nsg5\n(dp896\ng19\n(dp897\ng21\ng22\nsg23\ng24\n(g25\n(dp898\ng27\ng28\nsg29\nI8\nsg30\nI8\nsg31\n(tsg32\ng33\nsg34\nI0\nsg35\nS\'little\'\np899\nsg37\ng38\n(S\'\\xc9\\xcd\\xeb\\xe5||\\xf1?\'\np900\ntp901\nRp902\nsg42\n(tstp903\nRp904\nssg7\ng895\nssg8\ng893\nsg9\n(lp905\nssg522\n(dp906\ng3\nS\'MeqComposer\'\np907\nsg5\n(dp908\ng7\ng907\nssg8\ng522\nsg9\n(lp909\nS\'ra:q=J163832+622309\'\np910\naS\'dec:q=J163832+622309\'\np911\naS\'stokesI:q=J163832+622309\'\np912\nag14\nag14\nag14\nassS\'stokesI:q=J163526+623858\'\np913\n(dp914\ng3\nS\'MeqPow\'\np915\nsg5\n(dp916\ng7\ng915\nssg8\ng913\nsg9\n(lp917\ng90\naS\'SIF_stokesI:q=J163526+623858\'\np918\nassg170\n(dp919\ng3\nS\'MeqPow\'\np920\nsg5\n(dp921\ng7\ng920\nssg8\ng170\nsg9\n(lp922\ng90\naS\'SIF_stokesI:q=J163915+621438\'\np923\nassS\'ra:q=J163639+623041\'\np924\n(dp925\ng3\nS\'MeqParm\'\np926\nsg5\n(dp927\ng19\n(dp928\ng21\ng22\nsg23\ng24\n(g25\n(dp929\ng27\ng28\nsg29\nI8\nsg30\nI8\nsg31\n(tsg32\ng33\nsg34\nI0\nsg35\nS\'little\'\np930\nsg37\ng38\n(S\'\\xdd\\xb8\\xe8\\x1a\\x1ae\\x11@\'\np931\ntp932\nRp933\nsg42\n(tstp934\nRp935\nssg7\ng926\nssg8\ng924\nsg9\n(lp936\nssg343\n(dp937\ng3\nS\'MeqPow\'\np938\nsg5\n(dp939\ng7\ng938\nssg8\ng343\nsg9\n(lp940\ng90\naS\'SIF_stokesI:q=J163715+623343\'\np941\nassg774\n(dp942\ng3\nS\'MeqParm\'\np943\nsg5\n(dp944\ng19\n(dp945\ng21\ng22\nsg23\ng24\n(g25\n(dp946\ng27\ng28\nsg29\nI8\nsg30\nI8\nsg31\n(tsg32\ng33\nsg34\nI0\nsg35\nS\'little\'\np947\nsg37\ng38\n(S\'lJ\\x06\\x08\\xb0j\\x11@\'\np948\ntp949\nRp950\nsg42\n(tstp951\nRp952\nssg7\ng943\nssg8\ng774\nsg9\n(lp953\nssS\'ra:q=J163411+624953\'\np954\n(dp955\ng3\nS\'MeqParm\'\np956\nsg5\n(dp957\ng19\n(dp958\ng21\ng22\nsg23\ng24\n(g25\n(dp959\ng27\ng28\nsg29\nI8\nsg30\nI8\nsg31\n(tsg32\ng33\nsg34\nI0\nsg35\nS\'little\'\np960\nsg37\ng38\n(S\'\\x98g\\xe6O\\x1eZ\\x11@\'\np961\ntp962\nRp963\nsg42\n(tstp964\nRp965\nssg7\ng956\nssg8\ng954\nsg9\n(lp966\nssS\'ra:q=J164046+625410\'\np967\n(dp968\ng3\nS\'MeqParm\'\np969\nsg5\n(dp970\ng19\n(dp971\ng21\ng22\nsg23\ng24\n(g25\n(dp972\ng27\ng28\nsg29\nI8\nsg30\nI8\nsg31\n(tsg32\ng33\nsg34\nI0\nsg35\nS\'little\'\np973\nsg37\ng38\n(S\'2/uZ\\x82w\\x11@\'\np974\ntp975\nRp976\nsg42\n(tstp977\nRp978\nssg7\ng969\nssg8\ng967\nsg9\n(lp979\nssS\'stokesI:q=J164210+622820\'\np980\n(dp981\ng3\nS\'MeqPow\'\np982\nsg5\n(dp983\ng7\ng982\nssg8\ng980\nsg9\n(lp984\ng90\naS\'SIF_stokesI:q=J164210+622820\'\np985\nassS\'ra:q=J163520+622806\'\np986\n(dp987\ng3\nS\'MeqParm\'\np988\nsg5\n(dp989\ng19\n(dp990\ng21\ng22\nsg23\ng24\n(g25\n(dp991\ng27\ng28\nsg29\nI8\nsg30\nI8\nsg31\n(tsg32\ng33\nsg34\nI0\nsg35\nS\'little\'\np992\nsg37\ng38\n(S\'\\xd9\\xcd\\xdf\\xe63_\\x11@\'\np993\ntp994\nRp995\nsg42\n(tstp996\nRp997\nssg7\ng988\nssg8\ng986\nsg9\n(lp998\nssg514\n(dp999\ng3\nS\'MeqComposer\'\np1000\nsg5\n(dp1001\ng7\ng1000\nssg8\ng514\nsg9\n(lp1002\nS\'ra:q=J163713+624012\'\np1003\naS\'dec:q=J163713+624012\'\np1004\naS\'stokesI:q=J163713+624012\'\np1005\nag14\nag14\nag14\nassS\'SIF_stokesI:q=J163838+624704\'\np1006\n(dp1007\ng3\nS\'MeqParm\'\np1008\nsg5\n(dp1009\ng19\n(dp1010\ng21\ng97\nsg23\n(lp1011\n(lp1012\nF-2.4814860601221125\naF0.87964742292543752\naassg7\ng1008\nssg8\ng1006\nsg9\n(lp1013\nssS\'stokesI:q=J163856+623526\'\np1014\n(dp1015\ng3\nS\'MeqPow\'\np1016\nsg5\n(dp1017\ng7\ng1016\nssg8\ng1014\nsg9\n(lp1018\ng90\naS\'SIF_stokesI:q=J163856+623526\'\np1019\nassS\'SIF_stokesI:q=J163440+622557\'\np1020\n(dp1021\ng3\nS\'MeqParm\'\np1022\nsg5\n(dp1023\ng19\n(dp1024\ng21\ng97\nsg23\n(lp1025\n(lp1026\nF-2.6020599913279621\naF0.52976301552530469\naassg7\ng1022\nssg8\ng1020\nsg9\n(lp1027\nssS\'SIF_stokesI:q=J163642+622524\'\np1028\n(dp1029\ng3\nS\'MeqParm\'\np1030\nsg5\n(dp1031\ng19\n(dp1032\ng21\ng97\nsg23\n(lp1033\n(lp1034\nF-2.3279021420642825\naF0.84900172099416316\naassg7\ng1030\nssg8\ng1028\nsg9\n(lp1035\nssS\'dec:q=J163517+623831\'\np1036\n(dp1037\ng3\nS\'MeqParm\'\np1038\nsg5\n(dp1039\ng19\n(dp1040\ng21\ng22\nsg23\ng24\n(g25\n(dp1041\ng27\ng28\nsg29\nI8\nsg30\nI8\nsg31\n(tsg32\ng33\nsg34\nI0\nsg35\nS\'little\'\np1042\nsg37\ng38\n(S\'3\\x9f\\x9e\\x1b3~\\xf1?\'\np1043\ntp1044\nRp1045\nsg42\n(tstp1046\nRp1047\nssg7\ng1038\nssg8\ng1036\nsg9\n(lp1048\nssg341\n(dp1049\ng3\nS\'MeqParm\'\np1050\nsg5\n(dp1051\ng19\n(dp1052\ng21\ng22\nsg23\ng24\n(g25\n(dp1053\ng27\ng28\nsg29\nI8\nsg30\nI8\nsg31\n(tsg32\ng33\nsg34\nI0\nsg35\nS\'little\'\np1054\nsg37\ng38\n(S\'\\xc0\\xc3\\xe8\\xe7\\xcdg\\x11@\'\np1055\ntp1056\nRp1057\nsg42\n(tstp1058\nRp1059\nssg7\ng1050\nssg8\ng341\nsg9\n(lp1060\nssS\'SIF_stokesI:q=J163530+623239\'\np1061\n(dp1062\ng3\nS\'MeqParm\'\np1063\nsg5\n(dp1064\ng19\n(dp1065\ng21\ng97\nsg23\n(lp1066\n(lp1067\nF-2.4317982759330046\naF0.093138510495141658\naassg7\ng1063\nssg8\ng1061\nsg9\n(lp1068\nssg668\n(dp1069\ng3\nS\'MeqPow\'\np1070\nsg5\n(dp1071\ng7\ng1070\nssg8\ng668\nsg9\n(lp1072\ng90\naS\'SIF_stokesI:q=J163648+620433\'\np1073\nassg556\n(dp1074\ng3\nS\'MeqParm\'\np1075\nsg5\n(dp1076\ng19\n(dp1077\ng21\ng22\nsg23\ng24\n(g25\n(dp1078\ng27\ng28\nsg29\nI8\nsg30\nI8\nsg31\n(tsg32\ng33\nsg34\nI0\nsg35\nS\'little\'\np1079\nsg37\ng38\n(S\'L\\x0c\\x80\\x82\\xfba\\x11@\'\np1080\ntp1081\nRp1082\nsg42\n(tstp1083\nRp1084\nssg7\ng1075\nssg8\ng556\nsg9\n(lp1085\nssS\'dec:q=J163426+623114\'\np1086\n(dp1087\ng3\nS\'MeqParm\'\np1088\nsg5\n(dp1089\ng19\n(dp1090\ng21\ng22\nsg23\ng24\n(g25\n(dp1091\ng27\ng28\nsg29\nI8\nsg30\nI8\nsg31\n(tsg32\ng33\nsg34\nI0\nsg35\nS\'little\'\np1092\nsg37\ng38\n(S\'\\xc6\\x9fJ\\xd8\\x87u\\xf1?\'\np1093\ntp1094\nRp1095\nsg42\n(tstp1096\nRp1097\nssg7\ng1088\nssg8\ng1086\nsg9\n(lp1098\nssg477\n(dp1099\ng3\nS\'MeqComposer\'\np1100\nsg5\n(dp1101\ng7\ng1100\nssg8\ng477\nsg9\n(lp1102\nS\'ra:q=J164015+625822\'\np1103\naS\'dec:q=J164015+625822\'\np1104\naS\'stokesI:q=J164015+625822\'\np1105\nag14\nag14\nag14\nassS\'stokesI:q=J163746+622052\'\np1106\n(dp1107\ng3\nS\'MeqPow\'\np1108\nsg5\n(dp1109\ng7\ng1108\nssg8\ng1106\nsg9\n(lp1110\ng90\naS\'SIF_stokesI:q=J163746+622052\'\np1111\nassg495\n(dp1112\ng3\nS\'MeqComposer\'\np1113\nsg5\n(dp1114\ng7\ng1113\nssg8\ng495\nsg9\n(lp1115\ng623\naS\'dec:q=J163650+620219\'\np1116\nag109\nag14\nag14\nag14\nassg475\n(dp1117\ng3\nS\'MeqComposer\'\np1118\nsg5\n(dp1119\ng7\ng1118\nssg8\ng475\nsg9\n(lp1120\ng872\naS\'dec:q=J163457+623227\'\np1121\naS\'stokesI:q=J163457+623227\'\np1122\nag14\nag14\nag14\nassg985\n(dp1123\ng3\nS\'MeqParm\'\np1124\nsg5\n(dp1125\ng19\n(dp1126\ng21\ng97\nsg23\n(lp1127\n(lp1128\nF-1.467245621007502\naF0.68699312727851369\naassg7\ng1124\nssg8\ng985\nsg9\n(lp1129\nssS\'SIF_stokesI:q=J163520+624616\'\np1130\n(dp1131\ng3\nS\'MeqParm\'\np1132\nsg5\n(dp1133\ng19\n(dp1134\ng21\ng97\nsg23\n(lp1135\n(lp1136\nF-2.1079053973095192\naF0.73216556658226672\naassg7\ng1132\nssg8\ng1130\nsg9\n(lp1137\nssg490\n(dp1138\ng3\nS\'MeqComposer\'\np1139\nsg5\n(dp1140\ng7\ng1139\nssg8\ng490\nsg9\n(lp1141\nS\'ra:q=J163530+623239\'\np1142\naS\'dec:q=J163530+623239\'\np1143\naS\'stokesI:q=J163530+623239\'\np1144\nag14\nag14\nag14\nassg1004\n(dp1145\ng3\nS\'MeqParm\'\np1146\nsg5\n(dp1147\ng19\n(dp1148\ng21\ng22\nsg23\ng24\n(g25\n(dp1149\ng27\ng28\nsg29\nI8\nsg30\nI8\nsg31\n(tsg32\ng33\nsg34\nI0\nsg35\nS\'little\'\np1150\nsg37\ng38\n(S\'\\xcc\\x8d\\xd5\\xca6\\x80\\xf1?\'\np1151\ntp1152\nRp1153\nsg42\n(tstp1154\nRp1155\nssg7\ng1146\nssg8\ng1004\nsg9\n(lp1156\nssS\'SIF_stokesI:q=J164015+625822\'\np1157\n(dp1158\ng3\nS\'MeqParm\'\np1159\nsg5\n(dp1160\ng19\n(dp1161\ng21\ng97\nsg23\n(lp1162\n(lp1163\nF-2.4685210829577446\naF0.22056488840834798\naassg7\ng1159\nssg8\ng1157\nsg9\n(lp1164\nssg520\n(dp1165\ng3\nS\'MeqComposer\'\np1166\nsg5\n(dp1167\ng7\ng1166\nssg8\ng520\nsg9\n(lp1168\ng954\naS\'dec:q=J163411+624953\'\np1169\naS\'stokesI:q=J163411+624953\'\np1170\nag14\nag14\nag14\nassg128\n(dp1171\ng3\nS\'MeqParm\'\np1172\nsg5\n(dp1173\ng19\n(dp1174\ng21\ng97\nsg23\n(lp1175\n(lp1176\nF-2.4317982759330046\naF0.99977292473429258\naassg7\ng1172\nssg8\ng128\nsg9\n(lp1177\nssS\'SIF_stokesI:q=J163905+620020\'\np1178\n(dp1179\ng3\nS\'MeqParm\'\np1180\nsg5\n(dp1181\ng19\n(dp1182\ng21\ng97\nsg23\n(lp1183\n(lp1184\nF-1.8356471442155629\naF0.21430947548809465\naassg7\ng1180\nssg8\ng1178\nsg9\n(lp1185\nssg458\n(dp1186\ng3\nS\'MeqComposer\'\np1187\nsg5\n(dp1188\ng7\ng1187\nssg8\ng458\nsg9\n(lp1189\nS\'ra:q=J163516+622058\'\np1190\naS\'dec:q=J163516+622058\'\np1191\naS\'stokesI:q=J163516+622058\'\np1192\nag14\nag14\nag14\nassg120\n(dp1193\ng3\nS\'MeqParm\'\np1194\nsg5\n(dp1195\ng19\n(dp1196\ng21\ng22\nsg23\ng24\n(g25\n(dp1197\ng27\ng28\nsg29\nI8\nsg30\nI8\nsg31\n(tsg32\ng33\nsg34\nI0\nsg35\nS\'little\'\np1198\nsg37\ng38\n(S\'\\x8c\\x1c\\xe6\\xe2\\x83\\x7f\\x11@\'\np1199\ntp1200\nRp1201\nsg42\n(tstp1202\nRp1203\nssg7\ng1194\nssg8\ng120\nsg9\n(lp1204\nssS\'SIF_stokesI:q=J163919+624921\'\np1205\n(dp1206\ng3\nS\'MeqParm\'\np1207\nsg5\n(dp1208\ng19\n(dp1209\ng21\ng97\nsg23\n(lp1210\n(lp1211\nF-2.5686362358410122\naF0.16396579056826233\naassg7\ng1207\nssg8\ng1205\nsg9\n(lp1212\nssS\'dec:q=J163639+623041\'\np1213\n(dp1214\ng3\nS\'MeqParm\'\np1215\nsg5\n(dp1216\ng19\n(dp1217\ng21\ng22\nsg23\ng24\n(g25\n(dp1218\ng27\ng28\nsg29\nI8\nsg30\nI8\nsg31\n(tsg32\ng33\nsg34\nI0\nsg35\nS\'little\'\np1219\nsg37\ng38\n(S\'!~1A\\xdet\\xf1?\'\np1220\ntp1221\nRp1222\nsg42\n(tstp1223\nRp1224\nssg7\ng1215\nssg8\ng1213\nsg9\n(lp1225\nssg488\n(dp1226\ng3\nS\'MeqComposer\'\np1227\nsg5\n(dp1228\ng7\ng1227\nssg8\ng488\nsg9\n(lp1229\nS\'ra:q=J164114+622849\'\np1230\nag310\naS\'stokesI:q=J164114+622849\'\np1231\nag14\nag14\nag14\nassg457\n(dp1232\ng3\nS\'MeqComposer\'\np1233\nsg5\n(dp1234\ng7\ng1233\nssg8\ng457\nsg9\n(lp1235\nS\'ra:q=J163947+625020\'\np1236\naS\'dec:q=J163947+625020\'\np1237\naS\'stokesI:q=J163947+625020\'\np1238\nag14\nag14\nag14\nassS\'SIF_stokesI:q=J163426+623114\'\np1239\n(dp1240\ng3\nS\'MeqParm\'\np1241\nsg5\n(dp1242\ng19\n(dp1243\ng21\ng97\nsg23\n(lp1244\n(lp1245\nF-2.1079053973095192\naF0.85677204685927844\naassg7\ng1241\nssg8\ng1239\nsg9\n(lp1246\nssg1237\n(dp1247\ng3\nS\'MeqParm\'\np1248\nsg5\n(dp1249\ng19\n(dp1250\ng21\ng22\nsg23\ng24\n(g25\n(dp1251\ng27\ng28\nsg29\nI8\nsg30\nI8\nsg31\n(tsg32\ng33\nsg34\nI0\nsg35\nS\'little\'\np1252\nsg37\ng38\n(S\'\\x96\\x8c\\xef\\xa0H\\x8c\\xf1?\'\np1253\ntp1254\nRp1255\nsg42\n(tstp1256\nRp1257\nssg7\ng1248\nssg8\ng1237\nsg9\n(lp1258\nssg776\n(dp1259\ng3\nS\'MeqPow\'\np1260\nsg5\n(dp1261\ng7\ng1260\nssg8\ng776\nsg9\n(lp1262\ng90\naS\'SIF_stokesI:q=J163754+622601\'\np1263\nassg504\n(dp1264\ng3\nS\'MeqComposer\'\np1265\nsg5\n(dp1266\ng7\ng1265\nssg8\ng504\nsg9\n(lp1267\nS\'ra:q=J164253+623857\'\np1268\naS\'dec:q=J164253+623857\'\np1269\naS\'stokesI:q=J164253+623857\'\np1270\nag14\nag14\nag14\nassS\'ra:q=J163626+624239\'\np1271\n(dp1272\ng3\nS\'MeqParm\'\np1273\nsg5\n(dp1274\ng19\n(dp1275\ng21\ng22\nsg23\ng24\n(g25\n(dp1276\ng27\ng28\nsg29\nI8\nsg30\nI8\nsg31\n(tsg32\ng33\nsg34\nI0\nsg35\nS\'little\'\np1277\nsg37\ng38\n(S\'z\\x07\\x08K)d\\x11@\'\np1278\ntp1279\nRp1280\nsg42\n(tstp1281\nRp1282\nssg7\ng1273\nssg8\ng1271\nsg9\n(lp1283\nssS\'stokesI:q=J163550+622916\'\np1284\n(dp1285\ng3\nS\'MeqPow\'\np1286\nsg5\n(dp1287\ng7\ng1286\nssg8\ng1284\nsg9\n(lp1288\ng90\naS\'SIF_stokesI:q=J163550+622916\'\np1289\nassS\'stokesI:q=J163828+623443\'\np1290\n(dp1291\ng3\nS\'MeqPow\'\np1292\nsg5\n(dp1293\ng7\ng1292\nssg8\ng1290\nsg9\n(lp1294\ng90\naS\'SIF_stokesI:q=J163828+623443\'\np1295\nassS\'stokesI:q=J163838+624704\'\np1296\n(dp1297\ng3\nS\'MeqPow\'\np1298\nsg5\n(dp1299\ng7\ng1298\nssg8\ng1296\nsg9\n(lp1300\ng90\nag1006\nassg532\n(dp1301\ng3\nS\'MeqComposer\'\np1302\nsg5\n(dp1303\ng7\ng1302\nssg8\ng532\nsg9\n(lp1304\ng986\naS\'dec:q=J163520+622806\'\np1305\nag249\nag14\nag14\nag14\nassS\'dec:q=J163556+620533\'\np1306\n(dp1307\ng3\nS\'MeqParm\'\np1308\nsg5\n(dp1309\ng19\n(dp1310\ng21\ng22\nsg23\ng24\n(g25\n(dp1311\ng27\ng28\nsg29\nI8\nsg30\nI8\nsg31\n(tsg32\ng33\nsg34\nI0\nsg35\nS\'little\'\np1312\nsg37\ng38\n(S\'\\x0e"\\x05\\x91\\xebV\\xf1?\'\np1313\ntp1314\nRp1315\nsg42\n(tstp1316\nRp1317\nssg7\ng1308\nssg8\ng1306\nsg9\n(lp1318\nssg775\n(dp1319\ng3\nS\'MeqParm\'\np1320\nsg5\n(dp1321\ng19\n(dp1322\ng21\ng22\nsg23\ng24\n(g25\n(dp1323\ng27\ng28\nsg29\nI8\nsg30\nI8\nsg31\n(tsg32\ng33\nsg34\nI0\nsg35\nS\'little\'\np1324\nsg37\ng38\n(S\'P\\xce\\x8b\\x9dMo\\xf1?\'\np1325\ntp1326\nRp1327\nsg42\n(tstp1328\nRp1329\nssg7\ng1320\nssg8\ng775\nsg9\n(lp1330\nssS\'ra:q=J164105+624455\'\np1331\n(dp1332\ng3\nS\'MeqParm\'\np1333\nsg5\n(dp1334\ng19\n(dp1335\ng21\ng22\nsg23\ng24\n(g25\n(dp1336\ng27\ng28\nsg29\nI8\nsg30\nI8\nsg31\n(tsg32\ng33\nsg34\nI0\nsg35\nS\'little\'\np1337\nsg37\ng38\n(S\'H\\xa2\\x0e\\xb0\\xe2x\\x11@\'\np1338\ntp1339\nRp1340\nsg42\n(tstp1341\nRp1342\nssg7\ng1333\nssg8\ng1331\nsg9\n(lp1343\nssS\'SIF_stokesI:q=J163715+623219\'\np1344\n(dp1345\ng3\nS\'MeqParm\'\np1346\nsg5\n(dp1347\ng19\n(dp1348\ng21\ng97\nsg23\n(lp1349\n(lp1350\nF-2.6382721639824069\naF0.042748818315239134\naassg7\ng1346\nssg8\ng1344\nsg9\n(lp1351\nssg621\n(dp1352\ng3\nS\'MeqParm\'\np1353\nsg5\n(dp1354\ng19\n(dp1355\ng21\ng22\nsg23\ng24\n(g25\n(dp1356\ng27\ng28\nsg29\nI8\nsg30\nI8\nsg31\n(tsg32\ng33\nsg34\nI0\nsg35\nS\'little\'\np1357\nsg37\ng38\n(S\'\\xb0v\\x89\\x84\\xed\\x8a\\xf1?\'\np1358\ntp1359\nRp1360\nsg42\n(tstp1361\nRp1362\nssg7\ng1353\nssg8\ng621\nsg9\n(lp1363\nssg667\n(dp1364\ng3\nS\'MeqParm\'\np1365\nsg5\n(dp1366\ng19\n(dp1367\ng21\ng22\nsg23\ng24\n(g25\n(dp1368\ng27\ng28\nsg29\nI8\nsg30\nI8\nsg31\n(tsg32\ng33\nsg34\nI0\nsg35\nS\'little\'\np1369\nsg37\ng38\n(S\'I\\x16\\x8di\\xbbU\\xf1?\'\np1370\ntp1371\nRp1372\nsg42\n(tstp1373\nRp1374\nssg7\ng1365\nssg8\ng667\nsg9\n(lp1375\nssg1122\n(dp1376\ng3\nS\'MeqPow\'\np1377\nsg5\n(dp1378\ng7\ng1377\nssg8\ng1122\nsg9\n(lp1379\ng90\naS\'SIF_stokesI:q=J163457+623227\'\np1380\nassS\'ra:q=J163842+624327\'\np1381\n(dp1382\ng3\nS\'MeqParm\'\np1383\nsg5\n(dp1384\ng19\n(dp1385\ng21\ng22\nsg23\ng24\n(g25\n(dp1386\ng27\ng28\nsg29\nI8\nsg30\nI8\nsg31\n(tsg32\ng33\nsg34\nI0\nsg35\nS\'little\'\np1387\nsg37\ng38\n(S\'\\x95\\xef\\xa6\\xcaNn\\x11@\'\np1388\ntp1389\nRp1390\nsg42\n(tstp1391\nRp1392\nssg7\ng1383\nssg8\ng1381\nsg9\n(lp1393\nssg459\n(dp1394\ng3\nS\'MeqComposer\'\np1395\nsg5\n(dp1396\ng7\ng1395\nssg8\ng459\nsg9\n(lp1397\nS\'ra:q=J164049+622543\'\np1398\nag323\naS\'stokesI:q=J164049+622543\'\np1399\nag14\nag14\nag14\nassg295\n(dp1400\ng3\nS\'MeqParm\'\np1401\nsg5\n(dp1402\ng19\n(dp1403\ng21\ng22\nsg23\ng24\n(g25\n(dp1404\ng27\ng28\nsg29\nI8\nsg30\nI8\nsg31\n(tsg32\ng33\nsg34\nI0\nsg35\nS\'little\'\np1405\nsg37\ng38\n(S\'\\xc8\\xdc\\xaenT|\\xf1?\'\np1406\ntp1407\nRp1408\nsg42\n(tstp1409\nRp1410\nssg7\ng1401\nssg8\ng295\nsg9\n(lp1411\nssS\'dec:q=J163746+622052\'\np1412\n(dp1413\ng3\nS\'MeqParm\'\np1414\nsg5\n(dp1415\ng19\n(dp1416\ng21\ng22\nsg23\ng24\n(g25\n(dp1417\ng27\ng28\nsg29\nI8\nsg30\nI8\nsg31\n(tsg32\ng33\nsg34\nI0\nsg35\nS\'little\'\np1418\nsg37\ng38\n(S\'\\xd7\\xb9\\xdf\\xda,i\\xf1?\'\np1419\ntp1420\nRp1421\nsg42\n(tstp1422\nRp1423\nssg7\ng1414\nssg8\ng1412\nsg9\n(lp1424\nssg465\n(dp1425\ng3\nS\'MeqComposer\'\np1426\nsg5\n(dp1427\ng7\ng1426\nssg8\ng465\nsg9\n(lp1428\nS\'ra:q=J163558+624739\'\np1429\naS\'dec:q=J163558+624739\'\np1430\nag866\nag14\nag14\nag14\nassg803\n(dp1431\ng3\nS\'MeqParm\'\np1432\nsg5\n(dp1433\ng19\n(dp1434\ng21\ng97\nsg23\n(lp1435\n(lp1436\nF-2.2365720064370627\naF0.45059457137181602\naassg7\ng1432\nssg8\ng803\nsg9\n(lp1437\nssg462\n(dp1438\ng3\nS\'MeqComposer\'\np1439\nsg5\n(dp1440\ng7\ng1439\nssg8\ng462\nsg9\n(lp1441\nS\'ra:q=J164056+623705\'\np1442\nag893\naS\'stokesI:q=J164056+623705\'\np1443\nag14\nag14\nag14\nassg911\n(dp1444\ng3\nS\'MeqParm\'\np1445\nsg5\n(dp1446\ng19\n(dp1447\ng21\ng22\nsg23\ng24\n(g25\n(dp1448\ng27\ng28\nsg29\nI8\nsg30\nI8\nsg31\n(tsg32\ng33\nsg34\nI0\nsg35\nS\'little\'\np1449\nsg37\ng38\n(S\'Ne*\\xdb\\xe4k\\xf1?\'\np1450\ntp1451\nRp1452\nsg42\n(tstp1453\nRp1454\nssg7\ng1445\nssg8\ng911\nsg9\n(lp1455\nssg1191\n(dp1456\ng3\nS\'MeqParm\'\np1457\nsg5\n(dp1458\ng19\n(dp1459\ng21\ng22\nsg23\ng24\n(g25\n(dp1460\ng27\ng28\nsg29\nI8\nsg30\nI8\nsg31\n(tsg32\ng33\nsg34\nI0\nsg35\nS\'little\'\np1461\nsg37\ng38\n(S\'p\\xb4\\xc7RIi\\xf1?\'\np1462\ntp1463\nRp1464\nsg42\n(tstp1465\nRp1466\nssg7\ng1457\nssg8\ng1191\nsg9\n(lp1467\nssg1236\n(dp1468\ng3\nS\'MeqParm\'\np1469\nsg5\n(dp1470\ng19\n(dp1471\ng21\ng22\nsg23\ng24\n(g25\n(dp1472\ng27\ng28\nsg29\nI8\nsg30\nI8\nsg31\n(tsg32\ng33\nsg34\nI0\nsg35\nS\'little\'\np1473\nsg37\ng38\n(S\'\\xc5\\xb8$\\xe0\\x13s\\x11@\'\np1474\ntp1475\nRp1476\nsg42\n(tstp1477\nRp1478\nssg7\ng1469\nssg8\ng1236\nsg9\n(lp1479\nssg472\n(dp1480\ng3\nS\'MeqComposer\'\np1481\nsg5\n(dp1482\ng7\ng1481\nssg8\ng472\nsg9\n(lp1483\ng598\naS\'dec:q=J163433+624535\'\np1484\nag854\nag14\nag14\nag14\nassg1442\n(dp1485\ng3\nS\'MeqParm\'\np1486\nsg5\n(dp1487\ng19\n(dp1488\ng21\ng22\nsg23\ng24\n(g25\n(dp1489\ng27\ng28\nsg29\nI8\nsg30\nI8\nsg31\n(tsg32\ng33\nsg34\nI0\nsg35\nS\'little\'\np1490\nsg37\ng38\n(S\'^Pl\\x118x\\x11@\'\np1491\ntp1492\nRp1493\nsg42\n(tstp1494\nRp1495\nssg7\ng1486\nssg8\ng1442\nsg9\n(lp1496\nssS\'SIF_stokesI:q=J164003+620453\'\np1497\n(dp1498\ng3\nS\'MeqParm\'\np1499\nsg5\n(dp1500\ng19\n(dp1501\ng21\ng97\nsg23\n(lp1502\n(lp1503\nF-2.0757207139381184\naF0.98808979626432725\naassg7\ng1499\nssg8\ng1497\nsg9\n(lp1504\nssS\'ra:q=J163427+624349\'\np1505\n(dp1506\ng3\nS\'MeqParm\'\np1507\nsg5\n(dp1508\ng19\n(dp1509\ng21\ng22\nsg23\ng24\n(g25\n(dp1510\ng27\ng28\nsg29\nI8\nsg30\nI8\nsg31\n(tsg32\ng33\nsg34\nI0\nsg35\nS\'little\'\np1511\nsg37\ng38\n(S\'{\\xcfd\\xcd>[\\x11@\'\np1512\ntp1513\nRp1514\nsg42\n(tstp1515\nRp1516\nssg7\ng1507\nssg8\ng1505\nsg9\n(lp1517\nssg501\n(dp1518\ng3\nS\'MeqComposer\'\np1519\nsg5\n(dp1520\ng7\ng1519\nssg8\ng501\nsg9\n(lp1521\nS\'ra:q=J163942+621330\'\np1522\naS\'dec:q=J163942+621330\'\np1523\naS\'stokesI:q=J163942+621330\'\np1524\nag14\nag14\nag14\nassg505\n(dp1525\ng3\nS\'MeqComposer\'\np1526\nsg5\n(dp1527\ng7\ng1526\nssg8\ng505\nsg9\n(lp1528\nS\'ra:q=J163812+623043\'\np1529\naS\'dec:q=J163812+623043\'\np1530\naS\'stokesI:q=J163812+623043\'\np1531\nag14\nag14\nag14\nassg528\n(dp1532\ng3\nS\'MeqComposer\'\np1533\nsg5\n(dp1534\ng7\ng1533\nssg8\ng528\nsg9\n(lp1535\nS\'ra:q=J163520+624616\'\np1536\nag722\naS\'stokesI:q=J163520+624616\'\np1537\nag14\nag14\nag14\nassg721\n(dp1538\ng3\nS\'MeqParm\'\np1539\nsg5\n(dp1540\ng19\n(dp1541\ng21\ng97\nsg23\n(lp1542\n(lp1543\nF-1.5590909179347821\naF0.88082811554866314\naassg7\ng1539\nssg8\ng721\nsg9\n(lp1544\nssg531\n(dp1545\ng3\nS\'MeqComposer\'\np1546\nsg5\n(dp1547\ng7\ng1546\nssg8\ng531\nsg9\n(lp1548\nS\'ra:q=J163550+624514\'\np1549\naS\'dec:q=J163550+624514\'\np1550\naS\'stokesI:q=J163550+624514\'\np1551\nag14\nag14\nag14\nassg498\n(dp1552\ng3\nS\'MeqComposer\'\np1553\nsg5\n(dp1554\ng7\ng1553\nssg8\ng498\nsg9\n(lp1555\nS\'ra:q=J163856+623526\'\np1556\naS\'dec:q=J163856+623526\'\np1557\nag1014\nag14\nag14\nag14\nassS\'dec:q=J163919+624921\'\np1558\n(dp1559\ng3\nS\'MeqParm\'\np1560\nsg5\n(dp1561\ng19\n(dp1562\ng21\ng22\nsg23\ng24\n(g25\n(dp1563\ng27\ng28\nsg29\nI8\nsg30\nI8\nsg31\n(tsg32\ng33\nsg34\nI0\nsg35\nS\'little\'\np1564\nsg37\ng38\n(S\'\\x9a\\x8e\\xb5\\xf2\\x1c\\x8b\\xf1?\'\np1565\ntp1566\nRp1567\nsg42\n(tstp1568\nRp1569\nssg7\ng1560\nssg8\ng1558\nsg9\n(lp1570\nssg229\n(dp1571\ng3\nS\'MeqParm\'\np1572\nsg5\n(dp1573\ng19\n(dp1574\ng21\ng97\nsg23\n(lp1575\n(lp1576\nF-2.0043648054024499\naF0.5475294105559394\naassg7\ng1572\nssg8\ng229\nsg9\n(lp1577\nssg507\n(dp1578\ng3\nS\'MeqComposer\'\np1579\nsg5\n(dp1580\ng7\ng1579\nssg8\ng507\nsg9\n(lp1581\nS\'ra:q=J163718+621358\'\np1582\naS\'dec:q=J163718+621358\'\np1583\naS\'stokesI:q=J163718+621358\'\np1584\nag14\nag14\nag14\nassg1550\n(dp1585\ng3\nS\'MeqParm\'\np1586\nsg5\n(dp1587\ng19\n(dp1588\ng21\ng22\nsg23\ng24\n(g25\n(dp1589\ng27\ng28\nsg29\nI8\nsg30\nI8\nsg31\n(tsg32\ng33\nsg34\nI0\nsg35\nS\'little\'\np1590\nsg37\ng38\n(S\'\\xd5ME\\xb22\\x86\\xf1?\'\np1591\ntp1592\nRp1593\nsg42\n(tstp1594\nRp1595\nssg7\ng1586\nssg8\ng1550\nsg9\n(lp1596\nssS\'dec:q=J163427+624349\'\np1597\n(dp1598\ng3\nS\'MeqParm\'\np1599\nsg5\n(dp1600\ng19\n(dp1601\ng21\ng22\nsg23\ng24\n(g25\n(dp1602\ng27\ng28\nsg29\nI8\nsg30\nI8\nsg31\n(tsg32\ng33\nsg34\nI0\nsg35\nS\'little\'\np1603\nsg37\ng38\n(S\'\\xecK\\xf8\\x84\\x81\\x84\\xf1?\'\np1604\ntp1605\nRp1606\nsg42\n(tstp1607\nRp1608\nssg7\ng1599\nssg8\ng1597\nsg9\n(lp1609\nssS\'ra:q=J163448+624932\'\np1610\n(dp1611\ng3\nS\'MeqParm\'\np1612\nsg5\n(dp1613\ng19\n(dp1614\ng21\ng22\nsg23\ng24\n(g25\n(dp1615\ng27\ng28\nsg29\nI8\nsg30\nI8\nsg31\n(tsg32\ng33\nsg34\nI0\nsg35\nS\'little\'\np1616\nsg37\ng38\n(S\'\\xfb\\xd0\\xef\\xd8\\xde\\\\\\x11@\'\np1617\ntp1618\nRp1619\nsg42\n(tstp1620\nRp1621\nssg7\ng1612\nssg8\ng1610\nsg9\n(lp1622\nssg653\n(dp1623\ng3\nS\'MeqParm\'\np1624\nsg5\n(dp1625\ng19\n(dp1626\ng21\ng22\nsg23\ng24\n(g25\n(dp1627\ng27\ng28\nsg29\nI8\nsg30\nI8\nsg31\n(tsg32\ng33\nsg34\nI0\nsg35\nS\'little\'\np1628\nsg37\ng38\n(S\'\\x1b\\x83?p8\\x8a\\xf1?\'\np1629\ntp1630\nRp1631\nsg42\n(tstp1632\nRp1633\nssg7\ng1624\nssg8\ng653\nsg9\n(lp1634\nssS\'SIF_stokesI:q=J163441+624420\'\np1635\n(dp1636\ng3\nS\'MeqParm\'\np1637\nsg5\n(dp1638\ng19\n(dp1639\ng21\ng97\nsg23\n(lp1640\n(lp1641\nF-2.5528419686577806\naF0.40738974760796443\naassg7\ng1637\nssg8\ng1635\nsg9\n(lp1642\nssg620\n(dp1643\ng3\nS\'MeqParm\'\np1644\nsg5\n(dp1645\ng19\n(dp1646\ng21\ng22\nsg23\ng24\n(g25\n(dp1647\ng27\ng28\nsg29\nI8\nsg30\nI8\nsg31\n(tsg32\ng33\nsg34\nI0\nsg35\nS\'little\'\np1648\nsg37\ng38\n(S\'\\xa5\\xa4\\xc3\\x87pj\\x11@\'\np1649\ntp1650\nRp1651\nsg42\n(tstp1652\nRp1653\nssg7\ng1644\nssg8\ng620\nsg9\n(lp1654\nssS\'ra:q=J164032+625110\'\np1655\n(dp1656\ng3\nS\'MeqParm\'\np1657\nsg5\n(dp1658\ng19\n(dp1659\ng21\ng22\nsg23\ng24\n(g25\n(dp1660\ng27\ng28\nsg29\nI8\nsg30\nI8\nsg31\n(tsg32\ng33\nsg34\nI0\nsg35\nS\'little\'\np1661\nsg37\ng38\n(S\'\\xc8\\x13\\xcf\\xe8vv\\x11@\'\np1662\ntp1663\nRp1664\nsg42\n(tstp1665\nRp1666\nssg7\ng1657\nssg8\ng1655\nsg9\n(lp1667\nssg248\n(dp1668\ng3\nS\'MeqParm\'\np1669\nsg5\n(dp1670\ng19\n(dp1671\ng21\ng97\nsg23\n(lp1672\n(lp1673\nF-2.5086383061657269\naF0.72484786280525415\naassg7\ng1669\nssg8\ng248\nsg9\n(lp1674\nssg524\n(dp1675\ng3\nS\'MeqComposer\'\np1676\nsg5\n(dp1677\ng7\ng1676\nssg8\ng524\nsg9\n(lp1678\ng263\nag297\nag571\nag14\nag14\nag14\nassg169\n(dp1679\ng3\nS\'MeqParm\'\np1680\nsg5\n(dp1681\ng19\n(dp1682\ng21\ng22\nsg23\ng24\n(g25\n(dp1683\ng27\ng28\nsg29\nI8\nsg30\nI8\nsg31\n(tsg32\ng33\nsg34\nI0\nsg35\nS\'little\'\np1684\nsg37\ng38\n(S\'\\x0c\\xcb\\x99\\xa8\\xbea\\xf1?\'\np1685\ntp1686\nRp1687\nsg42\n(tstp1688\nRp1689\nssg7\ng1680\nssg8\ng169\nsg9\n(lp1690\nssS\'SIF_stokesI:q=J163832+622309\'\np1691\n(dp1692\ng3\nS\'MeqParm\'\np1693\nsg5\n(dp1694\ng19\n(dp1695\ng21\ng97\nsg23\n(lp1696\n(lp1697\nF-1.991399828238082\naF0.93466422105484115\naassg7\ng1693\nssg8\ng1691\nsg9\n(lp1698\nssS\'SIF_stokesI:q=J163751+624912\'\np1699\n(dp1700\ng3\nS\'MeqParm\'\np1701\nsg5\n(dp1702\ng19\n(dp1703\ng21\ng97\nsg23\n(lp1704\n(lp1705\nF-2.4559319556497239\naF0.37496256306569375\naassg7\ng1701\nssg8\ng1699\nsg9\n(lp1706\nssS\'SIF_stokesI:q=J163942+621330\'\np1707\n(dp1708\ng3\nS\'MeqParm\'\np1709\nsg5\n(dp1710\ng19\n(dp1711\ng21\ng97\nsg23\n(lp1712\n(lp1713\nF-1.3458234581220394\naF0.13146702180867453\naassg7\ng1709\nssg8\ng1707\nsg9\n(lp1714\nssS\'ra:q=J164212+620545\'\np1715\n(dp1716\ng3\nS\'MeqParm\'\np1717\nsg5\n(dp1718\ng19\n(dp1719\ng21\ng22\nsg23\ng24\n(g25\n(dp1720\ng27\ng28\nsg29\nI8\nsg30\nI8\nsg31\n(tsg32\ng33\nsg34\nI0\nsg35\nS\'little\'\np1721\nsg37\ng38\n(S\'\\xbc_\\xb0\\xa4\\xf1}\\x11@\'\np1722\ntp1723\nRp1724\nsg42\n(tstp1725\nRp1726\nssg7\ng1717\nssg8\ng1715\nsg9\n(lp1727\nssS\'dec:q=J163715+623219\'\np1728\n(dp1729\ng3\nS\'MeqParm\'\np1730\nsg5\n(dp1731\ng19\n(dp1732\ng21\ng22\nsg23\ng24\n(g25\n(dp1733\ng27\ng28\nsg29\nI8\nsg30\nI8\nsg31\n(tsg32\ng33\nsg34\nI0\nsg35\nS\'little\'\np1734\nsg37\ng38\n(S\'\\xba\\xb9\\xc2\\x9a\\xcdv\\xf1?\'\np1735\ntp1736\nRp1737\nsg42\n(tstp1738\nRp1739\nssg7\ng1730\nssg8\ng1728\nsg9\n(lp1740\nssg746\n(dp1741\ng3\nS\'MeqParm\'\np1742\nsg5\n(dp1743\ng19\n(dp1744\ng21\ng22\nsg23\ng24\n(g25\n(dp1745\ng27\ng28\nsg29\nI8\nsg30\nI8\nsg31\n(tsg32\ng33\nsg34\nI0\nsg35\nS\'little\'\np1746\nsg37\ng38\n(S\'|\\x13\\x8b7\\x83x\\x11@\'\np1747\ntp1748\nRp1749\nsg42\n(tstp1750\nRp1751\nssg7\ng1742\nssg8\ng746\nsg9\n(lp1752\nssS\'SIF_stokesI:q=J164105+624455\'\np1753\n(dp1754\ng3\nS\'MeqParm\'\np1755\nsg5\n(dp1756\ng19\n(dp1757\ng21\ng97\nsg23\n(lp1758\n(lp1759\nF-2.6382721639824069\naF0.35110393320456423\naassg7\ng1755\nssg8\ng1753\nsg9\n(lp1760\nssg1143\n(dp1761\ng3\nS\'MeqParm\'\np1762\nsg5\n(dp1763\ng19\n(dp1764\ng21\ng22\nsg23\ng24\n(g25\n(dp1765\ng27\ng28\nsg29\nI8\nsg30\nI8\nsg31\n(tsg32\ng33\nsg34\nI0\nsg35\nS\'little\'\np1766\nsg37\ng38\n(S\'/\\xd21\\xfd3w\\xf1?\'\np1767\ntp1768\nRp1769\nsg42\n(tstp1770\nRp1771\nssg7\ng1762\nssg8\ng1143\nsg9\n(lp1772\nssg91\n(dp1773\ng3\nS\'MeqParm\'\np1774\nsg5\n(dp1775\ng19\n(dp1776\ng21\ng97\nsg23\n(lp1777\n(lp1778\nF-2.4436974992327127\naF0.33261645207077961\naassg7\ng1774\nssg8\ng91\nsg9\n(lp1779\nssg518\n(dp1780\ng3\nS\'MeqComposer\'\np1781\nsg5\n(dp1782\ng7\ng1781\nssg8\ng518\nsg9\n(lp1783\nS\'ra:q=J163926+623244\'\np1784\naS\'dec:q=J163926+623244\'\np1785\naS\'stokesI:q=J163926+623244\'\np1786\nag14\nag14\nag14\nassS\'dec:q=J163805+623915\'\np1787\n(dp1788\ng3\nS\'MeqParm\'\np1789\nsg5\n(dp1790\ng19\n(dp1791\ng21\ng22\nsg23\ng24\n(g25\n(dp1792\ng27\ng28\nsg29\nI8\nsg30\nI8\nsg31\n(tsg32\ng33\nsg34\nI0\nsg35\nS\'little\'\np1793\nsg37\ng38\n(S\'\\xce\\xa3ua\\x15\\x7f\\xf1?\'\np1794\ntp1795\nRp1796\nsg42\n(tstp1797\nRp1798\nssg7\ng1789\nssg8\ng1787\nsg9\n(lp1799\nssS\'SIF_stokesI:q=J164046+625410\'\np1800\n(dp1801\ng3\nS\'MeqParm\'\np1802\nsg5\n(dp1803\ng19\n(dp1804\ng21\ng97\nsg23\n(lp1805\n(lp1806\nF-2.5686362358410122\naF0.70009535460736683\naassg7\ng1802\nssg8\ng1800\nsg9\n(lp1807\nssS\'SIF_stokesI:q=J163704+620811\'\np1808\n(dp1809\ng3\nS\'MeqParm\'\np1810\nsg5\n(dp1811\ng19\n(dp1812\ng21\ng97\nsg23\n(lp1813\n(lp1814\nF-2.4559319556497239\naF0.35812414373600987\naassg7\ng1810\nssg8\ng1808\nsg9\n(lp1815\nssg557\n(dp1816\ng3\nS\'MeqParm\'\np1817\nsg5\n(dp1818\ng19\n(dp1819\ng21\ng22\nsg23\ng24\n(g25\n(dp1820\ng27\ng28\nsg29\nI8\nsg30\nI8\nsg31\n(tsg32\ng33\nsg34\nI0\nsg35\nS\'little\'\np1821\nsg37\ng38\n(S\'HT<\\x8f\\x9cw\\xf1?\'\np1822\ntp1823\nRp1824\nsg42\n(tstp1825\nRp1826\nssg7\ng1817\nssg8\ng557\nsg9\n(lp1827\nssS\'dec:q=J163856+623150\'\np1828\n(dp1829\ng3\nS\'MeqParm\'\np1830\nsg5\n(dp1831\ng19\n(dp1832\ng21\ng22\nsg23\ng24\n(g25\n(dp1833\ng27\ng28\nsg29\nI8\nsg30\nI8\nsg31\n(tsg32\ng33\nsg34\nI0\nsg35\nS\'little\'\np1834\nsg37\ng38\n(S\'\\xe6\\x84S\\x02<v\\xf1?\'\np1835\ntp1836\nRp1837\nsg42\n(tstp1838\nRp1839\nssg7\ng1830\nssg8\ng1828\nsg9\n(lp1840\nssS\'ra:q=J163739+625558\'\np1841\n(dp1842\ng3\nS\'MeqParm\'\np1843\nsg5\n(dp1844\ng19\n(dp1845\ng21\ng22\nsg23\ng24\n(g25\n(dp1846\ng27\ng28\nsg29\nI8\nsg30\nI8\nsg31\n(tsg32\ng33\nsg34\nI0\nsg35\nS\'little\'\np1847\nsg37\ng38\n(S\'\\x85U%\\x1b\\x93i\\x11@\'\np1848\ntp1849\nRp1850\nsg42\n(tstp1851\nRp1852\nssg7\ng1843\nssg8\ng1841\nsg9\n(lp1853\nssS\'SIF_stokesI:q=J163411+624953\'\np1854\n(dp1855\ng3\nS\'MeqParm\'\np1856\nsg5\n(dp1857\ng19\n(dp1858\ng21\ng97\nsg23\n(lp1859\n(lp1860\nF-2.5228787452803374\naF0.32067663543692937\naassg7\ng1856\nssg8\ng1854\nsg9\n(lp1861\nssg1537\n(dp1862\ng3\nS\'MeqPow\'\np1863\nsg5\n(dp1864\ng7\ng1863\nssg8\ng1537\nsg9\n(lp1865\ng90\nag1130\nassg11\n(dp1866\ng3\nS\'MeqParm\'\np1867\nsg5\n(dp1868\ng19\n(dp1869\ng21\ng22\nsg23\ng24\n(g25\n(dp1870\ng27\ng28\nsg29\nI8\nsg30\nI8\nsg31\n(tsg32\ng33\nsg34\nI0\nsg35\nS\'little\'\np1871\nsg37\ng38\n(S\'\\x02SK?\\x00g\\x11@\'\np1872\ntp1873\nRp1874\nsg42\n(tstp1875\nRp1876\nssg7\ng1867\nssg8\ng11\nsg9\n(lp1877\nssS\'ra:q=J164248+621031\'\np1878\n(dp1879\ng3\nS\'MeqParm\'\np1880\nsg5\n(dp1881\ng19\n(dp1882\ng21\ng22\nsg23\ng24\n(g25\n(dp1883\ng27\ng28\nsg29\nI8\nsg30\nI8\nsg31\n(tsg32\ng33\nsg34\nI0\nsg35\nS\'little\'\np1884\nsg37\ng38\n(S\')\\xad{\\x19\\x98\\x80\\x11@\'\np1885\ntp1886\nRp1887\nsg42\n(tstp1888\nRp1889\nssg7\ng1880\nssg8\ng1878\nsg9\n(lp1890\nssg1785\n(dp1891\ng3\nS\'MeqParm\'\np1892\nsg5\n(dp1893\ng19\n(dp1894\ng21\ng22\nsg23\ng24\n(g25\n(dp1895\ng27\ng28\nsg29\nI8\nsg30\nI8\nsg31\n(tsg32\ng33\nsg34\nI0\nsg35\nS\'little\'\np1896\nsg37\ng38\n(S"\\xf8\'t\\xbaQw\\xf1?"\np1897\ntp1898\nRp1899\nsg42\n(tstp1900\nRp1901\nssg7\ng1892\nssg8\ng1785\nsg9\n(lp1902\nssg1549\n(dp1903\ng3\nS\'MeqParm\'\np1904\nsg5\n(dp1905\ng19\n(dp1906\ng21\ng22\nsg23\ng24\n(g25\n(dp1907\ng27\ng28\nsg29\nI8\nsg30\nI8\nsg31\n(tsg32\ng33\nsg34\nI0\nsg35\nS\'little\'\np1908\nsg37\ng38\n(S\'\\x1bU\\x86^va\\x11@\'\np1909\ntp1910\nRp1911\nsg42\n(tstp1912\nRp1913\nssg7\ng1904\nssg8\ng1549\nsg9\n(lp1914\nssg647\n(dp1915\ng3\nS\'MeqParm\'\np1916\nsg5\n(dp1917\ng19\n(dp1918\ng21\ng97\nsg23\n(lp1919\n(lp1920\nF-2.4436974992327127\naF0.99383181719120006\naassg7\ng1916\nssg8\ng647\nsg9\n(lp1921\nssS\'stokesI:q=J163905+620020\'\np1922\n(dp1923\ng3\nS\'MeqPow\'\np1924\nsg5\n(dp1925\ng7\ng1924\nssg8\ng1922\nsg9\n(lp1926\ng90\nag1178\nassg470\n(dp1927\ng3\nS\'MeqComposer\'\np1928\nsg5\n(dp1929\ng7\ng1928\nssg8\ng470\nsg9\n(lp1930\nS\'ra:q=J163550+622916\'\np1931\naS\'dec:q=J163550+622916\'\np1932\nag1284\nag14\nag14\nag14\nassg499\n(dp1933\ng3\nS\'MeqComposer\'\np1934\nsg5\n(dp1935\ng7\ng1934\nssg8\ng499\nsg9\n(lp1936\ng1715\naS\'dec:q=J164212+620545\'\np1937\nag798\nag14\nag14\nag14\nassS\'stokesI:q=J164248+621031\'\np1938\n(dp1939\ng3\nS\'MeqPow\'\np1940\nsg5\n(dp1941\ng7\ng1940\nssg8\ng1938\nsg9\n(lp1942\ng90\nag655\nassS\'stokesI:q=J164032+625110\'\np1943\n(dp1944\ng3\nS\'MeqPow\'\np1945\nsg5\n(dp1946\ng7\ng1945\nssg8\ng1943\nsg9\n(lp1947\ng90\nag344\nassS\'stokesI:q=J163440+622557\'\np1948\n(dp1949\ng3\nS\'MeqPow\'\np1950\nsg5\n(dp1951\ng7\ng1950\nssg8\ng1948\nsg9\n(lp1952\ng90\nag1020\nassS\'SIF_stokesI:q=J163626+624239\'\np1953\n(dp1954\ng3\nS\'MeqParm\'\np1955\nsg5\n(dp1956\ng19\n(dp1957\ng21\ng97\nsg23\n(lp1958\n(lp1959\nF-2.6197887582883936\naF0.89537063222443203\naassg7\ng1955\nssg8\ng1953\nsg9\n(lp1960\nssS\'stokesI:q=J163715+623219\'\np1961\n(dp1962\ng3\nS\'MeqPow\'\np1963\nsg5\n(dp1964\ng7\ng1963\nssg8\ng1961\nsg9\n(lp1965\ng90\nag1344\nassg486\n(dp1966\ng3\nS\'MeqComposer\'\np1967\nsg5\n(dp1968\ng7\ng1967\nssg8\ng486\nsg9\n(lp1969\nS\'ra:q=J164247+624940\'\np1970\naS\'dec:q=J164247+624940\'\np1971\naS\'stokesI:q=J164247+624940\'\np1972\nag14\nag14\nag14\nassg480\n(dp1973\ng3\nS\'MeqComposer\'\np1974\nsg5\n(dp1975\ng7\ng1974\nssg8\ng480\nsg9\n(lp1976\nS\'ra:q=J163623+623447\'\np1977\naS\'dec:q=J163623+623447\'\np1978\nag642\nag14\nag14\nag14\nassg1105\n(dp1979\ng3\nS\'MeqPow\'\np1980\nsg5\n(dp1981\ng7\ng1980\nssg8\ng1105\nsg9\n(lp1982\ng90\nag1157\nassg1230\n(dp1983\ng3\nS\'MeqParm\'\np1984\nsg5\n(dp1985\ng19\n(dp1986\ng21\ng22\nsg23\ng24\n(g25\n(dp1987\ng27\ng28\nsg29\nI8\nsg30\nI8\nsg31\n(tsg32\ng33\nsg34\nI0\nsg35\nS\'little\'\np1988\nsg37\ng38\n(S\'^\\xece\\x01\\x9cy\\x11@\'\np1989\ntp1990\nRp1991\nsg42\n(tstp1992\nRp1993\nssg7\ng1984\nssg8\ng1230\nsg9\n(lp1994\nssg479\n(dp1995\ng3\nS\'MeqComposer\'\np1996\nsg5\n(dp1997\ng7\ng1996\nssg8\ng479\nsg9\n(lp1998\ng15\naS\'dec:q=J164244+624356\'\np1999\naS\'stokesI:q=J164244+624356\'\np2000\nag14\nag14\nag14\nassg1305\n(dp2001\ng3\nS\'MeqParm\'\np2002\nsg5\n(dp2003\ng19\n(dp2004\ng21\ng22\nsg23\ng24\n(g25\n(dp2005\ng27\ng28\nsg29\nI8\nsg30\nI8\nsg31\n(tsg32\ng33\nsg34\nI0\nsg35\nS\'little\'\np2006\nsg37\ng38\n(S\'\\xd4\\x17\\x9d\\x98\\xc7q\\xf1?\'\np2007\ntp2008\nRp2009\nsg42\n(tstp2010\nRp2011\nssg7\ng2002\nssg8\ng1305\nsg9\n(lp2012\nssg1190\n(dp2013\ng3\nS\'MeqParm\'\np2014\nsg5\n(dp2015\ng19\n(dp2016\ng21\ng22\nsg23\ng24\n(g25\n(dp2017\ng27\ng28\nsg29\nI8\nsg30\nI8\nsg31\n(tsg32\ng33\nsg34\nI0\nsg35\nS\'little\'\np2018\nsg37\ng38\n(S\'8Iz\\xc2\\xf0^\\x11@\'\np2019\ntp2020\nRp2021\nsg42\n(tstp2022\nRp2023\nssg7\ng2014\nssg8\ng1190\nsg9\n(lp2024\nssS\'SIF_stokesI:q=J163450+625209\'\np2025\n(dp2026\ng3\nS\'MeqParm\'\np2027\nsg5\n(dp2028\ng19\n(dp2029\ng21\ng97\nsg23\n(lp2030\n(lp2031\nF-2.4814860601221125\naF0.38160544853548806\naassg7\ng2027\nssg8\ng2025\nsg9\n(lp2032\nssS\'ra:q=J163828+623443\'\np2033\n(dp2034\ng3\nS\'MeqParm\'\np2035\nsg5\n(dp2036\ng19\n(dp2037\ng21\ng22\nsg23\ng24\n(g25\n(dp2038\ng27\ng28\nsg29\nI8\nsg30\nI8\nsg31\n(tsg32\ng33\nsg34\nI0\nsg35\nS\'little\'\np2039\nsg37\ng38\n(S\'\\xdbK\\x1bQ5m\\x11@\'\np2040\ntp2041\nRp2042\nsg42\n(tstp2043\nRp2044\nssg7\ng2035\nssg8\ng2033\nsg9\n(lp2045\nssS\'dec:q=J163526+623858\'\np2046\n(dp2047\ng3\nS\'MeqParm\'\np2048\nsg5\n(dp2049\ng19\n(dp2050\ng21\ng22\nsg23\ng24\n(g25\n(dp2051\ng27\ng28\nsg29\nI8\nsg30\nI8\nsg31\n(tsg32\ng33\nsg34\nI0\nsg35\nS\'little\'\np2052\nsg37\ng38\n(S\'x\\xb8\\x91\\xc1\\xbb~\\xf1?\'\np2053\ntp2054\nRp2055\nsg42\n(tstp2056\nRp2057\nssg7\ng2048\nssg8\ng2046\nsg9\n(lp2058\nssS\'dec:q=J164248+621031\'\np2059\n(dp2060\ng3\nS\'MeqParm\'\np2061\nsg5\n(dp2062\ng19\n(dp2063\ng21\ng22\nsg23\ng24\n(g25\n(dp2064\ng27\ng28\nsg29\nI8\nsg30\nI8\nsg31\n(tsg32\ng33\nsg34\nI0\nsg35\nS\'little\'\np2065\nsg37\ng38\n(S\'\\xbf#\\\\\\x1e\\xd5\\\\\\xf1?\'\np2066\ntp2067\nRp2068\nsg42\n(tstp2069\nRp2070\nssg7\ng2061\nssg8\ng2059\nsg9\n(lp2071\nssg1268\n(dp2072\ng3\nS\'MeqParm\'\np2073\nsg5\n(dp2074\ng19\n(dp2075\ng21\ng22\nsg23\ng24\n(g25\n(dp2076\ng27\ng28\nsg29\nI8\nsg30\nI8\nsg31\n(tsg32\ng33\nsg34\nI0\nsg35\nS\'little\'\np2077\nsg37\ng38\n(S\'\\xc6q\\xb9\\xa3\\xfa\\x80\\x11@\'\np2078\ntp2079\nRp2080\nsg42\n(tstp2081\nRp2082\nssg7\ng2073\nssg8\ng1268\nsg9\n(lp2083\nssg871\n(dp2084\ng3\nS\'MeqParm\'\np2085\nsg5\n(dp2086\ng19\n(dp2087\ng21\ng97\nsg23\n(lp2088\n(lp2089\nF-2.5850266520291818\naF0.071742730857056292\naassg7\ng2085\nssg8\ng871\nsg9\n(lp2090\nssg521\n(dp2091\ng3\nS\'MeqComposer\'\np2092\nsg5\n(dp2093\ng7\ng2092\nssg8\ng521\nsg9\n(lp2094\nS\'ra:q=J163715+623219\'\np2095\nag1728\nag1961\nag14\nag14\nag14\nassg1530\n(dp2096\ng3\nS\'MeqParm\'\np2097\nsg5\n(dp2098\ng19\n(dp2099\ng21\ng22\nsg23\ng24\n(g25\n(dp2100\ng27\ng28\nsg29\nI8\nsg30\nI8\nsg31\n(tsg32\ng33\nsg34\nI0\nsg35\nS\'little\'\np2101\nsg37\ng38\n(S\'y\\x9d~\\x8a\\xe6t\\xf1?\'\np2102\ntp2103\nRp2104\nsg42\n(tstp2105\nRp2106\nssg7\ng2097\nssg8\ng1530\nsg9\n(lp2107\nssg1523\n(dp2108\ng3\nS\'MeqParm\'\np2109\nsg5\n(dp2110\ng19\n(dp2111\ng21\ng22\nsg23\ng24\n(g25\n(dp2112\ng27\ng28\nsg29\nI8\nsg30\nI8\nsg31\n(tsg32\ng33\nsg34\nI0\nsg35\nS\'little\'\np2113\nsg37\ng38\n(S\'*\\xcb\\x16$c`\\xf1?\'\np2114\ntp2115\nRp2116\nsg42\n(tstp2117\nRp2118\nssg7\ng2109\nssg8\ng1523\nsg9\n(lp2119\nssg1484\n(dp2120\ng3\nS\'MeqParm\'\np2121\nsg5\n(dp2122\ng19\n(dp2123\ng21\ng22\nsg23\ng24\n(g25\n(dp2124\ng27\ng28\nsg29\nI8\nsg30\nI8\nsg31\n(tsg32\ng33\nsg34\nI0\nsg35\nS\'little\'\np2125\nsg37\ng38\n(S\'\\xfd\\x1bf.\\x9f\\x86\\xf1?\'\np2126\ntp2127\nRp2128\nsg42\n(tstp2129\nRp2130\nssg7\ng2121\nssg8\ng1484\nsg9\n(lp2131\nssg865\n(dp2132\ng3\nS\'MeqParm\'\np2133\nsg5\n(dp2134\ng19\n(dp2135\ng21\ng97\nsg23\n(lp2136\n(lp2137\nF-2.0861861476162828\naF0.11872742864102404\naassg7\ng2133\nssg8\ng865\nsg9\n(lp2138\nssg1263\n(dp2139\ng3\nS\'MeqParm\'\np2140\nsg5\n(dp2141\ng19\n(dp2142\ng21\ng97\nsg23\n(lp2143\n(lp2144\nF-2.5086383061657269\naF0.68334178345381691\naassg7\ng2140\nssg8\ng1263\nsg9\n(lp2145\nssS\'dec:q=J164126+624634\'\np2146\n(dp2147\ng3\nS\'MeqParm\'\np2148\nsg5\n(dp2149\ng19\n(dp2150\ng21\ng22\nsg23\ng24\n(g25\n(dp2151\ng27\ng28\nsg29\nI8\nsg30\nI8\nsg31\n(tsg32\ng33\nsg34\nI0\nsg35\nS\'little\'\np2152\nsg37\ng38\n(S\'\\xff/\\x83t\\xca\\x87\\xf1?\'\np2153\ntp2154\nRp2155\nsg42\n(tstp2156\nRp2157\nssg7\ng2148\nssg8\ng2146\nsg9\n(lp2158\nssg261\n(dp2159\ng3\nS\'MeqParm\'\np2160\nsg5\n(dp2161\ng19\n(dp2162\ng21\ng22\nsg23\ng24\n(g25\n(dp2163\ng27\ng28\nsg29\nI8\nsg30\nI8\nsg31\n(tsg32\ng33\nsg34\nI0\nsg35\nS\'little\'\np2164\nsg37\ng38\n(S\'\\xb5<\\xa0v\\xfd|\\xf1?\'\np2165\ntp2166\nRp2167\nsg42\n(tstp2168\nRp2169\nssg7\ng2160\nssg8\ng261\nsg9\n(lp2170\nssS\'ra:q=J163642+622524\'\np2171\n(dp2172\ng3\nS\'MeqParm\'\np2173\nsg5\n(dp2174\ng19\n(dp2175\ng21\ng22\nsg23\ng24\n(g25\n(dp2176\ng27\ng28\nsg29\nI8\nsg30\nI8\nsg31\n(tsg32\ng33\nsg34\nI0\nsg35\nS\'little\'\np2177\nsg37\ng38\n(S\'\\xfeq2\\xceXe\\x11@\'\np2178\ntp2179\nRp2180\nsg42\n(tstp2181\nRp2182\nssg7\ng2173\nssg8\ng2171\nsg9\n(lp2183\nssS\'SIF_stokesI:q=J164056+623705\'\np2184\n(dp2185\ng3\nS\'MeqParm\'\np2186\nsg5\n(dp2187\ng19\n(dp2188\ng21\ng97\nsg23\n(lp2189\n(lp2190\nF-2.5086383061657269\naF0.46845286770822925\naassg7\ng2186\nssg8\ng2184\nsg9\n(lp2191\nssS\'stokesI:q=J164105+624455\'\np2192\n(dp2193\ng3\nS\'MeqPow\'\np2194\nsg5\n(dp2195\ng7\ng2194\nssg8\ng2192\nsg9\n(lp2196\ng90\nag1753\nassS\'dec:q=J163441+624420\'\np2197\n(dp2198\ng3\nS\'MeqParm\'\np2199\nsg5\n(dp2200\ng19\n(dp2201\ng21\ng22\nsg23\ng24\n(g25\n(dp2202\ng27\ng28\nsg29\nI8\nsg30\nI8\nsg31\n(tsg32\ng33\nsg34\nI0\nsg35\nS\'little\'\np2203\nsg37\ng38\n(S\'\\xf5\\x9a\\xdd-#\\x85\\xf1?\'\np2204\ntp2205\nRp2206\nsg42\n(tstp2207\nRp2208\nssg7\ng2199\nssg8\ng2197\nsg9\n(lp2209\nssS\'dec:q=J163450+625209\'\np2210\n(dp2211\ng3\nS\'MeqParm\'\np2212\nsg5\n(dp2213\ng19\n(dp2214\ng21\ng22\nsg23\ng24\n(g25\n(dp2215\ng27\ng28\nsg29\nI8\nsg30\nI8\nsg31\n(tsg32\ng33\nsg34\nI0\nsg35\nS\'little\'\np2216\nsg37\ng38\n(S\'\\xa1ZT\\xf7p\\x8e\\xf1?\'\np2217\ntp2218\nRp2219\nsg42\n(tstp2220\nRp2221\nssg7\ng2212\nssg8\ng2210\nsg9\n(lp2222\nssg114\n(dp2223\ng3\nS\'MeqParm\'\np2224\nsg5\n(dp2225\ng19\n(dp2226\ng21\ng97\nsg23\n(lp2227\n(lp2228\nF-2.4559319556497239\naF0.94343424236266804\naassg7\ng2224\nssg8\ng114\nsg9\n(lp2229\nssS\'SIF_stokesI:q=J163427+624349\'\np2230\n(dp2231\ng3\nS\'MeqParm\'\np2232\nsg5\n(dp2233\ng19\n(dp2234\ng21\ng97\nsg23\n(lp2235\n(lp2236\nF-2.4202164033831894\naF0.9996175292300048\naassg7\ng2232\nssg8\ng2230\nsg9\n(lp2237\nssg342\n(dp2238\ng3\nS\'MeqParm\'\np2239\nsg5\n(dp2240\ng19\n(dp2241\ng21\ng22\nsg23\ng24\n(g25\n(dp2242\ng27\ng28\nsg29\nI8\nsg30\nI8\nsg31\n(tsg32\ng33\nsg34\nI0\nsg35\nS\'little\'\np2243\nsg37\ng38\n(S\'\\xc2?bW|x\\xf1?\'\np2244\ntp2245\nRp2246\nsg42\n(tstp2247\nRp2248\nssg7\ng2239\nssg8\ng342\nsg9\n(lp2249\nssS\'stokesI:q=J163427+624349\'\np2250\n(dp2251\ng3\nS\'MeqPow\'\np2252\nsg5\n(dp2253\ng7\ng2252\nssg8\ng2250\nsg9\n(lp2254\ng90\nag2230\nassg1937\n(dp2255\ng3\nS\'MeqParm\'\np2256\nsg5\n(dp2257\ng19\n(dp2258\ng21\ng22\nsg23\ng24\n(g25\n(dp2259\ng27\ng28\nsg29\nI8\nsg30\nI8\nsg31\n(tsg32\ng33\nsg34\nI0\nsg35\nS\'little\'\np2260\nsg37\ng38\n(S\'\\xfbm[\\xfe)W\\xf1?\'\np2261\ntp2262\nRp2263\nsg42\n(tstp2264\nRp2265\nssg7\ng2256\nssg8\ng1937\nsg9\n(lp2266\nssS\'ra:q=J163919+624921\'\np2267\n(dp2268\ng3\nS\'MeqParm\'\np2269\nsg5\n(dp2270\ng19\n(dp2271\ng21\ng22\nsg23\ng24\n(g25\n(dp2272\ng27\ng28\nsg29\nI8\nsg30\nI8\nsg31\n(tsg32\ng33\nsg34\nI0\nsg35\nS\'little\'\np2273\nsg37\ng38\n(S\'\\xf4\\xa5rN\\x02q\\x11@\'\np2274\ntp2275\nRp2276\nsg42\n(tstp2277\nRp2278\nssg7\ng2269\nssg8\ng2267\nsg9\n(lp2279\nssg1536\n(dp2280\ng3\nS\'MeqParm\'\np2281\nsg5\n(dp2282\ng19\n(dp2283\ng21\ng22\nsg23\ng24\n(g25\n(dp2284\ng27\ng28\nsg29\nI8\nsg30\nI8\nsg31\n(tsg32\ng33\nsg34\nI0\nsg35\nS\'little\'\np2285\nsg37\ng38\n(S\'>\\x8e\\x99C4_\\x11@\'\np2286\ntp2287\nRp2288\nsg42\n(tstp2289\nRp2290\nssg7\ng2281\nssg8\ng1536\nsg9\n(lp2291\nssS\'stokesI:q=J164012+620347\'\np2292\n(dp2293\ng3\nS\'MeqPow\'\np2294\nsg5\n(dp2295\ng7\ng2294\nssg8\ng2292\nsg9\n(lp2296\ng90\nag101\nassg464\n(dp2297\ng3\nS\'MeqComposer\'\np2298\nsg5\n(dp2299\ng7\ng2298\nssg8\ng464\nsg9\n(lp2300\ng967\naS\'dec:q=J164046+625410\'\np2301\naS\'stokesI:q=J164046+625410\'\np2302\nag14\nag14\nag14\nassg1971\n(dp2303\ng3\nS\'MeqParm\'\np2304\nsg5\n(dp2305\ng19\n(dp2306\ng21\ng22\nsg23\ng24\n(g25\n(dp2307\ng27\ng28\nsg29\nI8\nsg30\nI8\nsg31\n(tsg32\ng33\nsg34\nI0\nsg35\nS\'little\'\np2308\nsg37\ng38\n(S\'\\xc6\\xc9\\x80\\xd3y\\x8b\\xf1?\'\np2309\ntp2310\nRp2311\nsg42\n(tstp2312\nRp2313\nssg7\ng2304\nssg8\ng1971\nsg9\n(lp2314\nssg483\n(dp2315\ng3\nS\'MeqComposer\'\np2316\nsg5\n(dp2317\ng7\ng2316\nssg8\ng483\nsg9\n(lp2318\ng1505\nag1597\nag2250\nag14\nag14\nag14\nassS\'ra:q=J163856+623150\'\np2319\n(dp2320\ng3\nS\'MeqParm\'\np2321\nsg5\n(dp2322\ng19\n(dp2323\ng21\ng22\nsg23\ng24\n(g25\n(dp2324\ng27\ng28\nsg29\nI8\nsg30\nI8\nsg31\n(tsg32\ng33\nsg34\nI0\nsg35\nS\'little\'\np2325\nsg37\ng38\n(S\'\\x0b)\\\\\\xb2So\\x11@\'\np2326\ntp2327\nRp2328\nsg42\n(tstp2329\nRp2330\nssg7\ng2321\nssg8\ng2319\nsg9\n(lp2331\nssS\'stokesI:q=J163651+623328\'\np2332\n(dp2333\ng3\nS\'MeqPow\'\np2334\nsg5\n(dp2335\ng7\ng2334\nssg8\ng2332\nsg9\n(lp2336\ng90\naS\'SIF_stokesI:q=J163651+623328\'\np2337\nassS\'dec:q=J164032+625110\'\np2338\n(dp2339\ng3\nS\'MeqParm\'\np2340\nsg5\n(dp2341\ng19\n(dp2342\ng21\ng22\nsg23\ng24\n(g25\n(dp2343\ng27\ng28\nsg29\nI8\nsg30\nI8\nsg31\n(tsg32\ng33\nsg34\nI0\nsg35\nS\'little\'\np2344\nsg37\ng38\n(S\'\\x82M\\xd6\\xedG\\x8d\\xf1?\'\np2345\ntp2346\nRp2347\nsg42\n(tstp2348\nRp2349\nssg7\ng2340\nssg8\ng2338\nsg9\n(lp2350\nssg1398\n(dp2351\ng3\nS\'MeqParm\'\np2352\nsg5\n(dp2353\ng19\n(dp2354\ng21\ng22\nsg23\ng24\n(g25\n(dp2355\ng27\ng28\nsg29\nI8\nsg30\nI8\nsg31\n(tsg32\ng33\nsg34\nI0\nsg35\nS\'little\'\np2356\nsg37\ng38\n(S\'\\xcb\\xdc\\x02(\\xb3w\\x11@\'\np2357\ntp2358\nRp2359\nsg42\n(tstp2360\nRp2361\nssg7\ng2352\nssg8\ng1398\nsg9\n(lp2362\nssg296\n(dp2363\ng3\nS\'MeqPow\'\np2364\nsg5\n(dp2365\ng7\ng2364\nssg8\ng296\nsg9\n(lp2366\ng90\naS\'SIF_stokesI:q=J163520+623657\'\np2367\nassS\'ra:q=J163426+623114\'\np2368\n(dp2369\ng3\nS\'MeqParm\'\np2370\nsg5\n(dp2371\ng19\n(dp2372\ng21\ng22\nsg23\ng24\n(g25\n(dp2373\ng27\ng28\nsg29\nI8\nsg30\nI8\nsg31\n(tsg32\ng33\nsg34\nI0\nsg35\nS\'little\'\np2374\nsg37\ng38\n(S\'\\xcb\\xa6\\x15#5[\\x11@\'\np2375\ntp2376\nRp2377\nsg42\n(tstp2378\nRp2379\nssg7\ng2370\nssg8\ng2368\nsg9\n(lp2380\nssS\'ra:q=J163418+620007\'\np2381\n(dp2382\ng3\nS\'MeqParm\'\np2383\nsg5\n(dp2384\ng19\n(dp2385\ng21\ng22\nsg23\ng24\n(g25\n(dp2386\ng27\ng28\nsg29\nI8\nsg30\nI8\nsg31\n(tsg32\ng33\nsg34\nI0\nsg35\nS\'little\'\np2387\nsg37\ng38\n(S\'Y\\xfe5\\xe8\\x94Z\\x11@\'\np2388\ntp2389\nRp2390\nsg42\n(tstp2391\nRp2392\nssg7\ng2383\nssg8\ng2381\nsg9\n(lp2393\nssg474\n(dp2394\ng3\nS\'MeqComposer\'\np2395\nsg5\n(dp2396\ng7\ng2395\nssg8\ng474\nsg9\n(lp2397\nS\'ra:q=J163651+623328\'\np2398\naS\'dec:q=J163651+623328\'\np2399\nag2332\nag14\nag14\nag14\nassS\'stokesI:q=J163426+623114\'\np2400\n(dp2401\ng3\nS\'MeqPow\'\np2402\nsg5\n(dp2403\ng7\ng2402\nssg8\ng2400\nsg9\n(lp2404\ng90\nag1239\nassg1295\n(dp2405\ng3\nS\'MeqParm\'\np2406\nsg5\n(dp2407\ng19\n(dp2408\ng21\ng97\nsg23\n(lp2409\n(lp2410\nF0.66382337728476359\naF0.146477274938274\naassg7\ng2406\nssg8\ng1295\nsg9\n(lp2411\nssg191\n(dp2412\ng3\nS\'MeqParm\'\np2413\nsg5\n(dp2414\ng19\n(dp2415\ng21\ng22\nsg23\ng24\n(g25\n(dp2416\ng27\ng28\nsg29\nI8\nsg30\nI8\nsg31\n(tsg32\ng33\nsg34\nI0\nsg35\nS\'little\'\np2417\nsg37\ng38\n(S\'\\xffd \\x88\\x96h\\xf1?\'\np2418\ntp2419\nRp2420\nsg42\n(tstp2421\nRp2422\nssg7\ng2413\nssg8\ng191\nsg9\n(lp2423\nssg517\n(dp2424\ng3\nS\'MeqComposer\'\np2425\nsg5\n(dp2426\ng7\ng2425\nssg8\ng517\nsg9\n(lp2427\nS\'ra:q=J164210+622820\'\np2428\naS\'dec:q=J164210+622820\'\np2429\nag980\nag14\nag14\nag14\nassg687\n(dp2430\ng3\nS\'MeqParm\'\np2431\nsg5\n(dp2432\ng19\n(dp2433\ng21\ng97\nsg23\n(lp2434\n(lp2435\nF-2.6382721639824069\naF0.44621954807291275\naassg7\ng2431\nssg8\ng687\nsg9\n(lp2436\nssg674\n(dp2437\ng3\nS\'MeqPow\'\np2438\nsg5\n(dp2439\ng7\ng2438\nssg8\ng674\nsg9\n(lp2440\ng90\nag688\nassg469\n(dp2441\ng3\nS\'MeqComposer\'\np2442\nsg5\n(dp2443\ng7\ng2442\nssg8\ng469\nsg9\n(lp2444\ng835\nag585\nag611\nag14\nag14\nag14\nassg1116\n(dp2445\ng3\nS\'MeqParm\'\np2446\nsg5\n(dp2447\ng19\n(dp2448\ng21\ng22\nsg23\ng24\n(g25\n(dp2449\ng27\ng28\nsg29\nI8\nsg30\nI8\nsg31\n(tsg32\ng33\nsg34\nI0\nsg35\nS\'little\'\np2450\nsg37\ng38\n(S\'i1\\x00\\xe2\\x10S\\xf1?\'\np2451\ntp2452\nRp2453\nsg42\n(tstp2454\nRp2455\nssg7\ng2446\nssg8\ng1116\nsg9\n(lp2456\nssg168\n(dp2457\ng3\nS\'MeqParm\'\np2458\nsg5\n(dp2459\ng19\n(dp2460\ng21\ng22\nsg23\ng24\n(g25\n(dp2461\ng27\ng28\nsg29\nI8\nsg30\nI8\nsg31\n(tsg32\ng33\nsg34\nI0\nsg35\nS\'little\'\np2462\nsg37\ng38\n(S\'{V\\\\z\\xbep\\x11@\'\np2463\ntp2464\nRp2465\nsg42\n(tstp2466\nRp2467\nssg7\ng2458\nssg8\ng168\nsg9\n(lp2468\nssg1932\n(dp2469\ng3\nS\'MeqParm\'\np2470\nsg5\n(dp2471\ng19\n(dp2472\ng21\ng22\nsg23\ng24\n(g25\n(dp2473\ng27\ng28\nsg29\nI8\nsg30\nI8\nsg31\n(tsg32\ng33\nsg34\nI0\nsg35\nS\'little\'\np2474\nsg37\ng38\n(S\'\\xf3\\xc8\\xfdn-s\\xf1?\'\np2475\ntp2476\nRp2477\nsg42\n(tstp2478\nRp2479\nssg7\ng2470\nssg8\ng1932\nsg9\n(lp2480\nssS\'stokesI:q=J163739+625558\'\np2481\n(dp2482\ng3\nS\'MeqPow\'\np2483\nsg5\n(dp2484\ng7\ng2483\nssg8\ng2481\nsg9\n(lp2485\ng90\nag92\nassg461\n(dp2486\ng3\nS\'MeqComposer\'\np2487\nsg5\n(dp2488\ng7\ng2487\nssg8\ng461\nsg9\n(lp2489\nS\'ra:q=J163450+625209\'\np2490\nag2210\naS\'stokesI:q=J163450+625209\'\np2491\nag14\nag14\nag14\nassS\'dec:q=J164139+625523\'\np2492\n(dp2493\ng3\nS\'MeqParm\'\np2494\nsg5\n(dp2495\ng19\n(dp2496\ng21\ng22\nsg23\ng24\n(g25\n(dp2497\ng27\ng28\nsg29\nI8\nsg30\nI8\nsg31\n(tsg32\ng33\nsg34\nI0\nsg35\nS\'little\'\np2498\nsg37\ng38\n(S\'\\x01\\x98r\\x01L\\x92\\xf1?\'\np2499\ntp2500\nRp2501\nsg42\n(tstp2502\nRp2503\nssg7\ng2494\nssg8\ng2492\nsg9\n(lp2504\nssg530\n(dp2505\ng3\nS\'MeqComposer\'\np2506\nsg5\n(dp2507\ng7\ng2506\nssg8\ng530\nsg9\n(lp2508\ng2368\nag1086\nag2400\nag14\nag14\nag14\nassg515\n(dp2509\ng3\nS\'MeqComposer\'\np2510\nsg5\n(dp2511\ng7\ng2510\nssg8\ng515\nsg9\n(lp2512\nS\'ra:q=J163441+624420\'\np2513\nag2197\naS\'stokesI:q=J163441+624420\'\np2514\nag14\nag14\nag14\nassg190\n(dp2515\ng3\nS\'MeqParm\'\np2516\nsg5\n(dp2517\ng19\n(dp2518\ng21\ng22\nsg23\ng24\n(g25\n(dp2519\ng27\ng28\nsg29\nI8\nsg30\nI8\nsg31\n(tsg32\ng33\nsg34\nI0\nsg35\nS\'little\'\np2520\nsg37\ng38\n(S\'r\\xfc\\x1a\\x04\\xc7_\\x11@\'\np2521\ntp2522\nRp2523\nsg42\n(tstp2524\nRp2525\nssg7\ng2516\nssg8\ng190\nsg9\n(lp2526\nssg1269\n(dp2527\ng3\nS\'MeqParm\'\np2528\nsg5\n(dp2529\ng19\n(dp2530\ng21\ng22\nsg23\ng24\n(g25\n(dp2531\ng27\ng28\nsg29\nI8\nsg30\nI8\nsg31\n(tsg32\ng33\nsg34\nI0\nsg35\nS\'little\'\np2532\nsg37\ng38\n(S\'P\\xfe\\x0b\\xe0\\xb9~\\xf1?\'\np2533\ntp2534\nRp2535\nsg42\n(tstp2536\nRp2537\nssg7\ng2528\nssg8\ng1269\nsg9\n(lp2538\nssS\'stokesI:q=J163556+620533\'\np2539\n(dp2540\ng3\nS\'MeqPow\'\np2541\nsg5\n(dp2542\ng7\ng2541\nssg8\ng2539\nsg9\n(lp2543\ng90\naS\'SIF_stokesI:q=J163556+620533\'\np2544\nassS\'SIF_stokesI:q=J164146+623730\'\np2545\n(dp2546\ng3\nS\'MeqParm\'\np2547\nsg5\n(dp2548\ng19\n(dp2549\ng21\ng97\nsg23\n(lp2550\n(lp2551\nF-2.5376020021010439\naF0.58040498088820014\naassg7\ng2547\nssg8\ng2545\nsg9\n(lp2552\nssg1977\n(dp2553\ng3\nS\'MeqParm\'\np2554\nsg5\n(dp2555\ng19\n(dp2556\ng21\ng22\nsg23\ng24\n(g25\n(dp2557\ng27\ng28\nsg29\nI8\nsg30\nI8\nsg31\n(tsg32\ng33\nsg34\nI0\nsg35\nS\'little\'\np2558\nsg37\ng38\n(S\'J}q\\x1c\\xe4c\\x11@\'\np2559\ntp2560\nRp2561\nsg42\n(tstp2562\nRp2563\nssg7\ng2554\nssg8\ng1977\nsg9\n(lp2564\nssg1170\n(dp2565\ng3\nS\'MeqPow\'\np2566\nsg5\n(dp2567\ng7\ng2566\nssg8\ng1170\nsg9\n(lp2568\ng90\nag1854\nassg509\n(dp2569\ng3\nS\'MeqComposer\'\np2570\nsg5\n(dp2571\ng7\ng2570\nssg8\ng509\nsg9\n(lp2572\ng137\naS\'dec:q=J163727+621643\'\np2573\nag636\nag14\nag14\nag14\nassS\'SIF_stokesI:q=J163926+623244\'\np2574\n(dp2575\ng3\nS\'MeqParm\'\np2576\nsg5\n(dp2577\ng19\n(dp2578\ng21\ng97\nsg23\n(lp2579\n(lp2580\nF-2.4814860601221125\naF0.38009330034602473\naassg7\ng2576\nssg8\ng2574\nsg9\n(lp2581\nssg1005\n(dp2582\ng3\nS\'MeqPow\'\np2583\nsg5\n(dp2584\ng7\ng2583\nssg8\ng1005\nsg9\n(lp2585\ng90\naS\'SIF_stokesI:q=J163713+624012\'\np2586\nassg526\n(dp2587\ng3\nS\'MeqComposer\'\np2588\nsg5\n(dp2589\ng7\ng2588\nssg8\ng526\nsg9\n(lp2590\ng1878\nag2059\nag1938\nag14\nag14\nag14\nassg538\n(dp2591\ng3\nS\'MeqParm\'\np2592\nsg5\n(dp2593\ng19\n(dp2594\ng21\ng22\nsg23\ng24\n(g25\n(dp2595\ng27\ng28\nsg29\nI8\nsg30\nI8\nsg31\n(tsg32\ng33\nsg34\nI0\nsg35\nS\'little\'\np2596\nsg37\ng38\n(S\'\\xaf8z#\\xc7\\\\\\xf1?\'\np2597\ntp2598\nRp2599\nsg42\n(tstp2600\nRp2601\nssg7\ng2592\nssg8\ng538\nsg9\n(lp2602\nssg1380\n(dp2603\ng3\nS\'MeqParm\'\np2604\nsg5\n(dp2605\ng19\n(dp2606\ng21\ng97\nsg23\n(lp2607\n(lp2608\nF-2.1870866433571443\naF0.44142824386021984\naassg7\ng2604\nssg8\ng1380\nsg9\n(lp2609\nssg641\n(dp2610\ng3\nS\'MeqParm\'\np2611\nsg5\n(dp2612\ng19\n(dp2613\ng21\ng97\nsg23\n(lp2614\n(lp2615\nF-2.0555173278498309\naF0.031012844259407757\naassg7\ng2611\nssg8\ng641\nsg9\n(lp2616\nssg2544\n(dp2617\ng3\nS\'MeqParm\'\np2618\nsg5\n(dp2619\ng19\n(dp2620\ng21\ng97\nsg23\n(lp2621\n(lp2622\nF-0.73048705578208362\naF0.43898604982019951\naassg7\ng2618\nssg8\ng2544\nsg9\n(lp2623\nssg1429\n(dp2624\ng3\nS\'MeqParm\'\np2625\nsg5\n(dp2626\ng19\n(dp2627\ng21\ng22\nsg23\ng24\n(g25\n(dp2628\ng27\ng28\nsg29\nI8\nsg30\nI8\nsg31\n(tsg32\ng33\nsg34\nI0\nsg35\nS\'little\'\np2629\nsg37\ng38\n(S\'8o-\\xa7\\x12b\\x11@\'\np2630\ntp2631\nRp2632\nsg42\n(tstp2633\nRp2634\nssg7\ng2625\nssg8\ng1429\nsg9\n(lp2635\nssg1524\n(dp2636\ng3\nS\'MeqPow\'\np2637\nsg5\n(dp2638\ng7\ng2637\nssg8\ng1524\nsg9\n(lp2639\ng90\nag1707\nassg1970\n(dp2640\ng3\nS\'MeqParm\'\np2641\nsg5\n(dp2642\ng19\n(dp2643\ng21\ng22\nsg23\ng24\n(g25\n(dp2644\ng27\ng28\nsg29\nI8\nsg30\nI8\nsg31\n(tsg32\ng33\nsg34\nI0\nsg35\nS\'little\'\np2645\nsg37\ng38\n(S\'+\\x8b\\xea\\x1a\\x88\\x80\\x11@\'\np2646\ntp2647\nRp2648\nsg42\n(tstp2649\nRp2650\nssg7\ng2641\nssg8\ng1970\nsg9\n(lp2651\nssg1073\n(dp2652\ng3\nS\'MeqParm\'\np2653\nsg5\n(dp2654\ng19\n(dp2655\ng21\ng97\nsg23\n(lp2656\n(lp2657\nF-2.1487416512809245\naF0.88968790495645533\naassg7\ng2653\nssg8\ng1073\nsg9\n(lp2658\nssg122\n(dp2659\ng3\nS\'MeqPow\'\np2660\nsg5\n(dp2661\ng7\ng2660\nssg8\ng122\nsg9\n(lp2662\ng90\nag749\nassS\'SIF_stokesI:q=J163550+624514\'\np2663\n(dp2664\ng3\nS\'MeqParm\'\np2665\nsg5\n(dp2666\ng19\n(dp2667\ng21\ng97\nsg23\n(lp2668\n(lp2669\nF-2.2596373105057559\naF0.10990001815132\naassg7\ng2665\nssg8\ng2663\nsg9\n(lp2670\nssg496\n(dp2671\ng3\nS\'MeqComposer\'\np2672\nsg5\n(dp2673\ng7\ng2672\nssg8\ng496\nsg9\n(lp2674\nS\'ra:q=J163805+623915\'\np2675\nag1787\naS\'stokesI:q=J163805+623915\'\np2676\nag14\nag14\nag14\nassg525\n(dp2677\ng3\nS\'MeqComposer\'\np2678\nsg5\n(dp2679\ng7\ng2678\nssg8\ng525\nsg9\n(lp2680\nS\'ra:q=J163810+625843\'\np2681\naS\'dec:q=J163810+625843\'\np2682\nag123\nag14\nag14\nag14\nassg260\n(dp2683\ng3\nS\'MeqParm\'\np2684\nsg5\n(dp2685\ng19\n(dp2686\ng21\ng22\nsg23\ng24\n(g25\n(dp2687\ng27\ng28\nsg29\nI8\nsg30\nI8\nsg31\n(tsg32\ng33\nsg34\nI0\nsg35\nS\'little\'\np2688\nsg37\ng38\n(S\'4@\\xed|\\xf0{\\x11@\'\np2689\ntp2690\nRp2691\nsg42\n(tstp2692\nRp2693\nssg7\ng2684\nssg8\ng260\nsg9\n(lp2694\nssg1142\n(dp2695\ng3\nS\'MeqParm\'\np2696\nsg5\n(dp2697\ng19\n(dp2698\ng21\ng22\nsg23\ng24\n(g25\n(dp2699\ng27\ng28\nsg29\nI8\nsg30\nI8\nsg31\n(tsg32\ng33\nsg34\nI0\nsg35\nS\'little\'\np2700\nsg37\ng38\n(S\'8\\xffG\\xdc\\xfb_\\x11@\'\np2701\ntp2702\nRp2703\nsg42\n(tstp2704\nRp2705\nssg7\ng2696\nssg8\ng1142\nsg9\n(lp2706\nssg487\n(dp2707\ng3\nS\'MeqComposer\'\np2708\nsg5\n(dp2709\ng7\ng2708\nssg8\ng487\nsg9\n(lp2710\ng1381\nag150\nag716\nag14\nag14\nag14\nassg468\n(dp2711\ng3\nS\'MeqComposer\'\np2712\nsg5\n(dp2713\ng7\ng2712\nssg8\ng468\nsg9\n(lp2714\nS\'ra:q=J163618+621657\'\np2715\nag376\naS\'stokesI:q=J163618+621657\'\np2716\nag14\nag14\nag14\nassg500\n(dp2717\ng3\nS\'MeqComposer\'\np2718\nsg5\n(dp2719\ng7\ng2718\nssg8\ng500\nsg9\n(lp2720\ng46\nag1306\nag2539\nag14\nag14\nag14\nassg294\n(dp2721\ng3\nS\'MeqParm\'\np2722\nsg5\n(dp2723\ng19\n(dp2724\ng21\ng22\nsg23\ng24\n(g25\n(dp2725\ng27\ng28\nsg29\nI8\nsg30\nI8\nsg31\n(tsg32\ng33\nsg34\nI0\nsg35\nS\'little\'\np2726\nsg37\ng38\n(S\'D\\xba\\xc7\\xc3:_\\x11@\'\np2727\ntp2728\nRp2729\nsg42\n(tstp2730\nRp2731\nssg7\ng2722\nssg8\ng294\nsg9\n(lp2732\nssg476\n(dp2733\ng3\nS\'MeqComposer\'\np2734\nsg5\n(dp2735\ng7\ng2734\nssg8\ng476\nsg9\n(lp2736\ng2381\naS\'dec:q=J163418+620007\'\np2737\naS\'stokesI:q=J163418+620007\'\np2738\nag14\nag14\nag14\nassg1399\n(dp2739\ng3\nS\'MeqPow\'\np2740\nsg5\n(dp2741\ng7\ng2740\nssg8\ng1399\nsg9\n(lp2742\ng90\nag171\nassg2302\n(dp2743\ng3\nS\'MeqPow\'\np2744\nsg5\n(dp2745\ng7\ng2744\nssg8\ng2302\nsg9\n(lp2746\ng90\nag1800\nassg2514\n(dp2747\ng3\nS\'MeqPow\'\np2748\nsg5\n(dp2749\ng7\ng2748\nssg8\ng2514\nsg9\n(lp2750\ng90\nag1635\nassg519\n(dp2751\ng3\nS\'MeqComposer\'\np2752\nsg5\n(dp2753\ng7\ng2752\nssg8\ng519\nsg9\n(lp2754\ng757\naS\'dec:q=J163905+620020\'\np2755\nag1922\nag14\nag14\nag14\nassg2586\n(dp2756\ng3\nS\'MeqParm\'\np2757\nsg5\n(dp2758\ng19\n(dp2759\ng21\ng97\nsg23\n(lp2760\n(lp2761\nF-2.4089353929735005\naF0.92804613976735828\naassg7\ng2757\nssg8\ng2586\nsg9\n(lp2762\nssg492\n(dp2763\ng3\nS\'MeqComposer\'\np2764\nsg5\n(dp2765\ng7\ng2764\nssg8\ng492\nsg9\n(lp2766\ng2319\nag1828\nag243\nag14\nag14\nag14\nassg2000\n(dp2767\ng3\nS\'MeqPow\'\np2768\nsg5\n(dp2769\ng7\ng2768\nssg8\ng2000\nsg9\n(lp2770\ng90\naS\'SIF_stokesI:q=J164244+624356\'\np2771\nassg1582\n(dp2772\ng3\nS\'MeqParm\'\np2773\nsg5\n(dp2774\ng19\n(dp2775\ng21\ng22\nsg23\ng24\n(g25\n(dp2776\ng27\ng28\nsg29\nI8\nsg30\nI8\nsg31\n(tsg32\ng33\nsg34\nI0\nsg35\nS\'little\'\np2777\nsg37\ng38\n(S\'\\x96\\xa7\\x8a\\x98\\x0bh\\x11@\'\np2778\ntp2779\nRp2780\nsg42\n(tstp2781\nRp2782\nssg7\ng2773\nssg8\ng1582\nsg9\n(lp2783\nssg1583\n(dp2784\ng3\nS\'MeqParm\'\np2785\nsg5\n(dp2786\ng19\n(dp2787\ng21\ng22\nsg23\ng24\n(g25\n(dp2788\ng27\ng28\nsg29\nI8\nsg30\nI8\nsg31\n(tsg32\ng33\nsg34\nI0\nsg35\nS\'little\'\np2789\nsg37\ng38\n(S\'\\xe0q\\xc6\\n\\xf2`\\xf1?\'\np2790\ntp2791\nRp2792\nsg42\n(tstp2793\nRp2794\nssg7\ng2785\nssg8\ng1583\nsg9\n(lp2795\nssS\'dec:q=J163448+624932\'\np2796\n(dp2797\ng3\nS\'MeqParm\'\np2798\nsg5\n(dp2799\ng19\n(dp2800\ng21\ng22\nsg23\ng24\n(g25\n(dp2801\ng27\ng28\nsg29\nI8\nsg30\nI8\nsg31\n(tsg32\ng33\nsg34\nI0\nsg35\nS\'little\'\np2802\nsg37\ng38\n(S\'\\x8fqs\\xa1U\\x8b\\xf1?\'\np2803\ntp2804\nRp2805\nsg42\n(tstp2806\nRp2807\nssg7\ng2798\nssg8\ng2796\nsg9\n(lp2808\nssg1999\n(dp2809\ng3\nS\'MeqParm\'\np2810\nsg5\n(dp2811\ng19\n(dp2812\ng21\ng22\nsg23\ng24\n(g25\n(dp2813\ng27\ng28\nsg29\nI8\nsg30\nI8\nsg31\n(tsg32\ng33\nsg34\nI0\nsg35\nS\'little\'\np2814\nsg37\ng38\n(S\'\\x89p\\x9d\\xd9\\xa7\\x84\\xf1?\'\np2815\ntp2816\nRp2817\nsg42\n(tstp2818\nRp2819\nssg7\ng2810\nssg8\ng1999\nsg9\n(lp2820\nssS\'ra:q=J164012+620347\'\np2821\n(dp2822\ng3\nS\'MeqParm\'\np2823\nsg5\n(dp2824\ng19\n(dp2825\ng21\ng22\nsg23\ng24\n(g25\n(dp2826\ng27\ng28\nsg29\nI8\nsg30\nI8\nsg31\n(tsg32\ng33\nsg34\nI0\nsg35\nS\'little\'\np2827\nsg37\ng38\n(S\'$m\\x95\\xc4\\x02u\\x11@\'\np2828\ntp2829\nRp2830\nsg42\n(tstp2831\nRp2832\nssg7\ng2823\nssg8\ng2821\nsg9\n(lp2833\nssg2301\n(dp2834\ng3\nS\'MeqParm\'\np2835\nsg5\n(dp2836\ng19\n(dp2837\ng21\ng22\nsg23\ng24\n(g25\n(dp2838\ng27\ng28\nsg29\nI8\nsg30\nI8\nsg31\n(tsg32\ng33\nsg34\nI0\nsg35\nS\'little\'\np2839\nsg37\ng38\n(S\'qO\\xe8\\xc7\\xda\\x90\\xf1?\'\np2840\ntp2841\nRp2842\nsg42\n(tstp2843\nRp2844\nssg7\ng2835\nssg8\ng2301\nsg9\n(lp2845\nssg1978\n(dp2846\ng3\nS\'MeqParm\'\np2847\nsg5\n(dp2848\ng19\n(dp2849\ng21\ng22\nsg23\ng24\n(g25\n(dp2850\ng27\ng28\nsg29\nI8\nsg30\nI8\nsg31\n(tsg32\ng33\nsg34\nI0\nsg35\nS\'little\'\np2851\nsg37\ng38\n(S\'o\\x1b\\x02\\xa9\\xc2y\\xf1?\'\np2852\ntp2853\nRp2854\nsg42\n(tstp2855\nRp2856\nssg7\ng2847\nssg8\ng1978\nsg9\n(lp2857\nssg622\n(dp2858\ng3\nS\'MeqPow\'\np2859\nsg5\n(dp2860\ng7\ng2859\nssg8\ng622\nsg9\n(lp2861\ng90\nag1699\nassg918\n(dp2862\ng3\nS\'MeqParm\'\np2863\nsg5\n(dp2864\ng19\n(dp2865\ng21\ng97\nsg23\n(lp2866\n(lp2867\nF-2.0861861476162828\naF0.91372466473837755\naassg7\ng2863\nssg8\ng918\nsg9\n(lp2868\nssg485\n(dp2869\ng3\nS\'MeqComposer\'\np2870\nsg5\n(dp2871\ng7\ng2870\nssg8\ng485\nsg9\n(lp2872\ng1841\naS\'dec:q=J163739+625558\'\np2873\nag2481\nag14\nag14\nag14\nassg511\n(dp2874\ng3\nS\'MeqComposer\'\np2875\nsg5\n(dp2876\ng7\ng2875\nssg8\ng511\nsg9\n(lp2877\ng924\nag1213\nag224\nag14\nag14\nag14\nassS\'dec:q=J164003+620453\'\np2878\n(dp2879\ng3\nS\'MeqParm\'\np2880\nsg5\n(dp2881\ng19\n(dp2882\ng21\ng22\nsg23\ng24\n(g25\n(dp2883\ng27\ng28\nsg29\nI8\nsg30\nI8\nsg31\n(tsg32\ng33\nsg34\nI0\nsg35\nS\'little\'\np2884\nsg37\ng38\n(S\'^xGA\\x1fV\\xf1?\'\np2885\ntp2886\nRp2887\nsg42\n(tstp2888\nRp2889\nssg7\ng2880\nssg8\ng2878\nsg9\n(lp2890\nssg1557\n(dp2891\ng3\nS\'MeqParm\'\np2892\nsg5\n(dp2893\ng19\n(dp2894\ng21\ng22\nsg23\ng24\n(g25\n(dp2895\ng27\ng28\nsg29\nI8\nsg30\nI8\nsg31\n(tsg32\ng33\nsg34\nI0\nsg35\nS\'little\'\np2896\nsg37\ng38\n(S\'\\x0cYYT\\x86z\\xf1?\'\np2897\ntp2898\nRp2899\nsg42\n(tstp2900\nRp2901\nssg7\ng2892\nssg8\ng1557\nsg9\n(lp2902\nssg539\n(dp2903\ng3\nS\'MeqPow\'\np2904\nsg5\n(dp2905\ng7\ng2904\nssg8\ng539\nsg9\n(lp2906\ng90\nag675\nassg2681\n(dp2907\ng3\nS\'MeqParm\'\np2908\nsg5\n(dp2909\ng19\n(dp2910\ng21\ng22\nsg23\ng24\n(g25\n(dp2911\ng27\ng28\nsg29\nI8\nsg30\nI8\nsg31\n(tsg32\ng33\nsg34\nI0\nsg35\nS\'little\'\np2912\nsg37\ng38\n(S\'\\xefG\\x1e\\xd6\\xe7k\\x11@\'\np2913\ntp2914\nRp2915\nsg42\n(tstp2916\nRp2917\nssg7\ng2908\nssg8\ng2681\nsg9\n(lp2918\nssg1270\n(dp2919\ng3\nS\'MeqPow\'\np2920\nsg5\n(dp2921\ng7\ng2920\nssg8\ng1270\nsg9\n(lp2922\ng90\naS\'SIF_stokesI:q=J164253+623857\'\np2923\nassg1972\n(dp2924\ng3\nS\'MeqPow\'\np2925\nsg5\n(dp2926\ng7\ng2925\nssg8\ng1972\nsg9\n(lp2927\ng90\naS\'SIF_stokesI:q=J164247+624940\'\np2928\nassg482\n(dp2929\ng3\nS\'MeqComposer\'\np2930\nsg5\n(dp2931\ng7\ng2930\nssg8\ng482\nsg9\n(lp2932\ng2821\naS\'dec:q=J164012+620347\'\np2933\nag2292\nag14\nag14\nag14\nassg2738\n(dp2934\ng3\nS\'MeqPow\'\np2935\nsg5\n(dp2936\ng7\ng2935\nssg8\ng2738\nsg9\n(lp2937\ng90\nag777\nassg1551\n(dp2938\ng3\nS\'MeqPow\'\np2939\nsg5\n(dp2940\ng7\ng2939\nssg8\ng1551\nsg9\n(lp2941\ng90\nag2663\nassg748\n(dp2942\ng3\nS\'MeqPow\'\np2943\nsg5\n(dp2944\ng7\ng2943\nssg8\ng748\nsg9\n(lp2945\ng90\nag885\nassg2716\n(dp2946\ng3\nS\'MeqPow\'\np2947\nsg5\n(dp2948\ng7\ng2947\nssg8\ng2716\nsg9\n(lp2949\ng90\naS\'SIF_stokesI:q=J163618+621657\'\np2950\nassg136\n(dp2951\ng3\nS\'MeqPow\'\np2952\nsg5\n(dp2953\ng7\ng2952\nssg8\ng136\nsg9\n(lp2954\ng90\naS\'SIF_stokesI:q=J163545+624352\'\np2955\nassg2682\n(dp2956\ng3\nS\'MeqParm\'\np2957\nsg5\n(dp2958\ng19\n(dp2959\ng21\ng22\nsg23\ng24\n(g25\n(dp2960\ng27\ng28\nsg29\nI8\nsg30\nI8\nsg31\n(tsg32\ng33\nsg34\nI0\nsg35\nS\'little\'\np2961\nsg37\ng38\n(S\'2\\xcc\\xa7,D\\x96\\xf1?\'\np2962\ntp2963\nRp2964\nsg42\n(tstp2965\nRp2966\nssg7\ng2957\nssg8\ng2682\nsg9\n(lp2967\nssS\'stokesI:q=J163433+620003\'\np2968\n(dp2969\ng3\nS\'MeqPow\'\np2970\nsg5\n(dp2971\ng7\ng2970\nssg8\ng2968\nsg9\n(lp2972\ng90\naS\'SIF_stokesI:q=J163433+620003\'\np2973\nassg254\n(dp2974\ng3\nS\'MeqParm\'\np2975\nsg5\n(dp2976\ng19\n(dp2977\ng21\ng97\nsg23\n(lp2978\n(lp2979\nF-2.346787486224656\naF0.50052194491166691\naassg7\ng2975\nssg8\ng254\nsg9\n(lp2980\nssg2928\n(dp2981\ng3\nS\'MeqParm\'\np2982\nsg5\n(dp2983\ng19\n(dp2984\ng21\ng97\nsg23\n(lp2985\n(lp2986\nF-1.896196279044043\naF0.51297337755095829\naassg7\ng2982\nssg8\ng2928\nsg9\n(lp2987\nssg1238\n(dp2988\ng3\nS\'MeqPow\'\np2989\nsg5\n(dp2990\ng7\ng2989\nssg8\ng1238\nsg9\n(lp2991\ng90\naS\'SIF_stokesI:q=J163947+625020\'\np2992\nassg513\n(dp2993\ng3\nS\'MeqComposer\'\np2994\nsg5\n(dp2995\ng7\ng2994\nssg8\ng513\nsg9\n(lp2996\nS\'ra:q=J163759+623418\'\np2997\nag198\nag848\nag14\nag14\nag14\nassS\'ra:q=J163851+620025\'\np2998\n(dp2999\ng3\nS\'MeqParm\'\np3000\nsg5\n(dp3001\ng19\n(dp3002\ng21\ng22\nsg23\ng24\n(g25\n(dp3003\ng27\ng28\nsg29\nI8\nsg30\nI8\nsg31\n(tsg32\ng33\nsg34\nI0\nsg35\nS\'little\'\np3004\nsg37\ng38\n(S\'f\\xcb\\xdd\\xf2\\xf2n\\x11@\'\np3005\ntp3006\nRp3007\nsg42\n(tstp3008\nRp3009\nssg7\ng3000\nssg8\ng2998\nsg9\n(lp3010\nssS\'dec:q=J163642+622524\'\np3011\n(dp3012\ng3\nS\'MeqParm\'\np3013\nsg5\n(dp3014\ng19\n(dp3015\ng21\ng22\nsg23\ng24\n(g25\n(dp3016\ng27\ng28\nsg29\nI8\nsg30\nI8\nsg31\n(tsg32\ng33\nsg34\nI0\nsg35\nS\'little\'\np3017\nsg37\ng38\n(S\'\\xb9E\\xe3\\x9a\\x93n\\xf1?\'\np3018\ntp3019\nRp3020\nsg42\n(tstp3021\nRp3022\nssg7\ng3013\nssg8\ng3011\nsg9\n(lp3023\nssS\'ra:q=J163746+622052\'\np3024\n(dp3025\ng3\nS\'MeqParm\'\np3026\nsg5\n(dp3027\ng19\n(dp3028\ng21\ng22\nsg23\ng24\n(g25\n(dp3029\ng27\ng28\nsg29\nI8\nsg30\nI8\nsg31\n(tsg32\ng33\nsg34\nI0\nsg35\nS\'little\'\np3030\nsg37\ng38\n(S\'\\xf8\\xcbK\\xfa j\\x11@\'\np3031\ntp3032\nRp3033\nsg42\n(tstp3034\nRp3035\nssg7\ng3026\nssg8\ng3024\nsg9\n(lp3036\nssg2755\n(dp3037\ng3\nS\'MeqParm\'\np3038\nsg5\n(dp3039\ng19\n(dp3040\ng21\ng22\nsg23\ng24\n(g25\n(dp3041\ng27\ng28\nsg29\nI8\nsg30\nI8\nsg31\n(tsg32\ng33\nsg34\nI0\nsg35\nS\'little\'\np3042\nsg37\ng38\n(S\'\\t\\xd4\\x95t\\xb2P\\xf1?\'\np3043\ntp3044\nRp3045\nsg42\n(tstp3046\nRp3047\nssg7\ng3038\nssg8\ng2755\nsg9\n(lp3048\nssg484\n(dp3049\ng3\nS\'MeqComposer\'\np3050\nsg5\n(dp3051\ng7\ng3050\nssg8\ng484\nsg9\n(lp3052\ng2033\nag59\nag1290\nag14\nag14\nag14\nassg853\n(dp3053\ng3\nS\'MeqParm\'\np3054\nsg5\n(dp3055\ng19\n(dp3056\ng21\ng97\nsg23\n(lp3057\n(lp3058\nF-2.6382721639824069\naF0.26043571793863729\naassg7\ng3054\nssg8\ng853\nsg9\n(lp3059\nssS\'dec:q=J163851+620025\'\np3060\n(dp3061\ng3\nS\'MeqParm\'\np3062\nsg5\n(dp3063\ng19\n(dp3064\ng21\ng22\nsg23\ng24\n(g25\n(dp3065\ng27\ng28\nsg29\nI8\nsg30\nI8\nsg31\n(tsg32\ng33\nsg34\nI0\nsg35\nS\'little\'\np3066\nsg37\ng38\n(S\'\\xe9\\x0cV]\\xceP\\xf1?\'\np3067\ntp3068\nRp3069\nsg42\n(tstp3070\nRp3071\nssg7\ng3062\nssg8\ng3060\nsg9\n(lp3072\nssg503\n(dp3073\ng3\nS\'MeqComposer\'\np3074\nsg5\n(dp3075\ng7\ng3074\nssg8\ng503\nsg9\n(lp3076\ng363\nag2046\nag913\nag14\nag14\nag14\nassg2428\n(dp3077\ng3\nS\'MeqParm\'\np3078\nsg5\n(dp3079\ng19\n(dp3080\ng21\ng22\nsg23\ng24\n(g25\n(dp3081\ng27\ng28\nsg29\nI8\nsg30\nI8\nsg31\n(tsg32\ng33\nsg34\nI0\nsg35\nS\'little\'\np3082\nsg37\ng38\n(S\'\\xb2\\xaf\\xbf\\xb2\\xc1}\\x11@\'\np3083\ntp3084\nRp3085\nsg42\n(tstp3086\nRp3087\nssg7\ng3078\nssg8\ng2428\nsg9\n(lp3088\nssS\'stokesI:q=J164126+624634\'\np3089\n(dp3090\ng3\nS\'MeqPow\'\np3091\nsg5\n(dp3092\ng7\ng3091\nssg8\ng3089\nsg9\n(lp3093\ng90\nag397\nassS\'ra:q=J164003+620453\'\np3094\n(dp3095\ng3\nS\'MeqParm\'\np3096\nsg5\n(dp3097\ng19\n(dp3098\ng21\ng22\nsg23\ng24\n(g25\n(dp3099\ng27\ng28\nsg29\nI8\nsg30\nI8\nsg31\n(tsg32\ng33\nsg34\nI0\nsg35\nS\'little\'\np3100\nsg37\ng38\n(S\'\\xef\\x0fH0Dt\\x11@\'\np3101\ntp3102\nRp3103\nsg42\n(tstp3104\nRp3105\nssg7\ng3096\nssg8\ng3094\nsg9\n(lp3106\nssg652\n(dp3107\ng3\nS\'MeqParm\'\np3108\nsg5\n(dp3109\ng19\n(dp3110\ng21\ng22\nsg23\ng24\n(g25\n(dp3111\ng27\ng28\nsg29\nI8\nsg30\nI8\nsg31\n(tsg32\ng33\nsg34\nI0\nsg35\nS\'little\'\np3112\nsg37\ng38\n(S"\\xa9A\'\\x98\\xf9p\\x11@"\np3113\ntp3114\nRp3115\nsg42\n(tstp3116\nRp3117\nssg7\ng3108\nssg8\ng652\nsg9\n(lp3118\nssg673\n(dp3119\ng3\nS\'MeqParm\'\np3120\nsg5\n(dp3121\ng19\n(dp3122\ng21\ng22\nsg23\ng24\n(g25\n(dp3123\ng27\ng28\nsg29\nI8\nsg30\nI8\nsg31\n(tsg32\ng33\nsg34\nI0\nsg35\nS\'little\'\np3124\nsg37\ng38\n(S\']\\xdf\\xf3\\x7f\\x94p\\x11@\'\np3125\ntp3126\nRp3127\nsg42\n(tstp3128\nRp3129\nssg7\ng3120\nssg8\ng673\nsg9\n(lp3130\nssS\'SIF_stokesI:q=J163516+622058\'\np3131\n(dp3132\ng3\nS\'MeqParm\'\np3133\nsg5\n(dp3134\ng19\n(dp3135\ng21\ng97\nsg23\n(lp3136\n(lp3137\nF-2.3665315444204129\naF0.39618882530547728\naassg7\ng3133\nssg8\ng3131\nsg9\n(lp3138\nssg1169\n(dp3139\ng3\nS\'MeqParm\'\np3140\nsg5\n(dp3141\ng19\n(dp3142\ng21\ng22\nsg23\ng24\n(g25\n(dp3143\ng27\ng28\nsg29\nI8\nsg30\nI8\nsg31\n(tsg32\ng33\nsg34\nI0\nsg35\nS\'little\'\np3144\nsg37\ng38\n(S\'\\x98\\xb1\\xd4k\\xbf\\x8b\\xf1?\'\np3145\ntp3146\nRp3147\nsg42\n(tstp3148\nRp3149\nssg7\ng3140\nssg8\ng1169\nsg9\n(lp3150\nssg1144\n(dp3151\ng3\nS\'MeqPow\'\np3152\nsg5\n(dp3153\ng7\ng3152\nssg8\ng1144\nsg9\n(lp3154\ng90\nag1061\nassS\'ra:q=J164126+624634\'\np3155\n(dp3156\ng3\nS\'MeqParm\'\np3157\nsg5\n(dp3158\ng19\n(dp3159\ng21\ng22\nsg23\ng24\n(g25\n(dp3160\ng27\ng28\nsg29\nI8\nsg30\nI8\nsg31\n(tsg32\ng33\nsg34\nI0\nsg35\nS\'little\'\np3161\nsg37\ng38\n(S\'\\x9b\\xaf.\\xa0tz\\x11@\'\np3162\ntp3163\nRp3164\nsg42\n(tstp3165\nRp3166\nssg7\ng3157\nssg8\ng3155\nsg9\n(lp3167\nssg1784\n(dp3168\ng3\nS\'MeqParm\'\np3169\nsg5\n(dp3170\ng19\n(dp3171\ng21\ng22\nsg23\ng24\n(g25\n(dp3172\ng27\ng28\nsg29\nI8\nsg30\nI8\nsg31\n(tsg32\ng33\nsg34\nI0\nsg35\nS\'little\'\np3173\nsg37\ng38\n(S\'l\\xadE4\\x8dq\\x11@\'\np3174\ntp3175\nRp3176\nsg42\n(tstp3177\nRp3178\nssg7\ng3169\nssg8\ng1784\nsg9\n(lp3179\nssg1289\n(dp3180\ng3\nS\'MeqParm\'\np3181\nsg5\n(dp3182\ng19\n(dp3183\ng21\ng97\nsg23\n(lp3184\n(lp3185\nF-2.4436974992327127\naF0.24286094561151783\naassg7\ng3181\nssg8\ng1289\nsg9\n(lp3186\nssS\'SIF_stokesI:q=J163718+621358\'\np3187\n(dp3188\ng3\nS\'MeqParm\'\np3189\nsg5\n(dp3190\ng19\n(dp3191\ng21\ng97\nsg23\n(lp3192\n(lp3193\nF-2.397940008672037\naF0.3520858755171401\naassg7\ng3189\nssg8\ng3187\nsg9\n(lp3194\nssS\'stokesI:q=J163517+623831\'\np3195\n(dp3196\ng3\nS\'MeqPow\'\np3197\nsg5\n(dp3198\ng7\ng3197\nssg8\ng3195\nsg9\n(lp3199\ng90\naS\'SIF_stokesI:q=J163517+623831\'\np3200\nassg2367\n(dp3201\ng3\nS\'MeqParm\'\np3202\nsg5\n(dp3203\ng19\n(dp3204\ng21\ng97\nsg23\n(lp3205\n(lp3206\nF-2.2218487496163561\naF0.79577353347289459\naassg7\ng3202\nssg8\ng2367\nsg9\n(lp3207\nssg2715\n(dp3208\ng3\nS\'MeqParm\'\np3209\nsg5\n(dp3210\ng19\n(dp3211\ng21\ng22\nsg23\ng24\n(g25\n(dp3212\ng27\ng28\nsg29\nI8\nsg30\nI8\nsg31\n(tsg32\ng33\nsg34\nI0\nsg35\nS\'little\'\np3213\nsg37\ng38\n(S\'\\xc8N\\xef\\xc2\\x8cc\\x11@\'\np3214\ntp3215\nRp3216\nsg42\n(tstp3217\nRp3218\nssg7\ng3209\nssg8\ng2715\nsg9\n(lp3219\nssS\'stokesI:q=J164003+620453\'\np3220\n(dp3221\ng3\nS\'MeqPow\'\np3222\nsg5\n(dp3223\ng7\ng3222\nssg8\ng3220\nsg9\n(lp3224\ng90\nag1497\nassg1556\n(dp3225\ng3\nS\'MeqParm\'\np3226\nsg5\n(dp3227\ng19\n(dp3228\ng21\ng22\nsg23\ng24\n(g25\n(dp3229\ng27\ng28\nsg29\nI8\nsg30\nI8\nsg31\n(tsg32\ng33\nsg34\nI0\nsg35\nS\'little\'\np3230\nsg37\ng38\n(S\'c0\\x85\\x1fQo\\x11@\'\np3231\ntp3232\nRp3233\nsg42\n(tstp3234\nRp3235\nssg7\ng3226\nssg8\ng1556\nsg9\n(lp3236\nssg747\n(dp3237\ng3\nS\'MeqParm\'\np3238\nsg5\n(dp3239\ng19\n(dp3240\ng21\ng22\nsg23\ng24\n(g25\n(dp3241\ng27\ng28\nsg29\nI8\nsg30\nI8\nsg31\n(tsg32\ng33\nsg34\nI0\nsg35\nS\'little\'\np3242\nsg37\ng38\n(S\'d\\xebR\\x12\\x81\\x89\\xf1?\'\np3243\ntp3244\nRp3245\nsg42\n(tstp3246\nRp3247\nssg7\ng3238\nssg8\ng747\nsg9\n(lp3248\nssg2676\n(dp3249\ng3\nS\'MeqPow\'\np3250\nsg5\n(dp3251\ng7\ng3250\nssg8\ng2676\nsg9\n(lp3252\ng90\nag418\nassg2573\n(dp3253\ng3\nS\'MeqParm\'\np3254\nsg5\n(dp3255\ng19\n(dp3256\ng21\ng22\nsg23\ng24\n(g25\n(dp3257\ng27\ng28\nsg29\nI8\nsg30\nI8\nsg31\n(tsg32\ng33\nsg34\nI0\nsg35\nS\'little\'\np3258\nsg37\ng38\n(S\'|\\xbc\\x1eD:d\\xf1?\'\np3259\ntp3260\nRp3261\nsg42\n(tstp3262\nRp3263\nssg7\ng3254\nssg8\ng2573\nsg9\n(lp3264\nssg2398\n(dp3265\ng3\nS\'MeqParm\'\np3266\nsg5\n(dp3267\ng19\n(dp3268\ng21\ng22\nsg23\ng24\n(g25\n(dp3269\ng27\ng28\nsg29\nI8\nsg30\nI8\nsg31\n(tsg32\ng33\nsg34\nI0\nsg35\nS\'little\'\np3270\nsg37\ng38\n(S\'\\xa5\\x04\\xa8\\xb1\\xfae\\x11@\'\np3271\ntp3272\nRp3273\nsg42\n(tstp3274\nRp3275\nssg7\ng3266\nssg8\ng2398\nsg9\n(lp3276\nssg2491\n(dp3277\ng3\nS\'MeqPow\'\np3278\nsg5\n(dp3279\ng7\ng3278\nssg8\ng2491\nsg9\n(lp3280\ng90\nag2025\nassS\'SIF_stokesI:q=J163812+623043\'\np3281\n(dp3282\ng3\nS\'MeqParm\'\np3283\nsg5\n(dp3284\ng19\n(dp3285\ng21\ng97\nsg23\n(lp3286\n(lp3287\nF-1.4685210829577449\naF0.83585036485453523\naassg7\ng3283\nssg8\ng3281\nsg9\n(lp3288\nssg1003\n(dp3289\ng3\nS\'MeqParm\'\np3290\nsg5\n(dp3291\ng19\n(dp3292\ng21\ng22\nsg23\ng24\n(g25\n(dp3293\ng27\ng28\nsg29\nI8\nsg30\nI8\nsg31\n(tsg32\ng33\nsg34\nI0\nsg35\nS\'little\'\np3294\nsg37\ng38\n(S\'O\\xd6\\x03\\x87\\xa3g\\x11@\'\np3295\ntp3296\nRp3297\nsg42\n(tstp3298\nRp3299\nssg7\ng3290\nssg8\ng1003\nsg9\n(lp3300\nssg2923\n(dp3301\ng3\nS\'MeqParm\'\np3302\nsg5\n(dp3303\ng19\n(dp3304\ng21\ng97\nsg23\n(lp3305\n(lp3306\nF-1.7304870557820835\naF0.94620807846095678\naassg7\ng3302\nssg8\ng2923\nsg9\n(lp3307\nssg1104\n(dp3308\ng3\nS\'MeqParm\'\np3309\nsg5\n(dp3310\ng19\n(dp3311\ng21\ng22\nsg23\ng24\n(g25\n(dp3312\ng27\ng28\nsg29\nI8\nsg30\nI8\nsg31\n(tsg32\ng33\nsg34\nI0\nsg35\nS\'little\'\np3313\nsg37\ng38\n(S\'\\xbe\\xa9\\xcb\\xa7\\xd8\\x95\\xf1?\'\np3314\ntp3315\nRp3316\nsg42\n(tstp3317\nRp3318\nssg7\ng3309\nssg8\ng1104\nsg9\n(lp3319\nssg537\n(dp3320\ng3\nS\'MeqParm\'\np3321\nsg5\n(dp3322\ng19\n(dp3323\ng21\ng22\nsg23\ng24\n(g25\n(dp3324\ng27\ng28\nsg29\nI8\nsg30\nI8\nsg31\n(tsg32\ng33\nsg34\nI0\nsg35\nS\'little\'\np3325\nsg37\ng38\n(S\'\\x10\\xfd\\x12{[z\\x11@\'\np3326\ntp3327\nRp3328\nsg42\n(tstp3329\nRp3330\nssg7\ng3321\nssg8\ng537\nsg9\n(lp3331\nssS\'dec:q=J163626+624239\'\np3332\n(dp3333\ng3\nS\'MeqParm\'\np3334\nsg5\n(dp3335\ng19\n(dp3336\ng21\ng22\nsg23\ng24\n(g25\n(dp3337\ng27\ng28\nsg29\nI8\nsg30\nI8\nsg31\n(tsg32\ng33\nsg34\nI0\nsg35\nS\'little\'\np3338\nsg37\ng38\n(S\'\\x973\\xc7\\xf3\\x1f\\x83\\xf1?\'\np3339\ntp3340\nRp3341\nsg42\n(tstp3342\nRp3343\nssg7\ng3334\nssg8\ng3332\nsg9\n(lp3344\nssg1430\n(dp3345\ng3\nS\'MeqParm\'\np3346\nsg5\n(dp3347\ng19\n(dp3348\ng21\ng22\nsg23\ng24\n(g25\n(dp3349\ng27\ng28\nsg29\nI8\nsg30\nI8\nsg31\n(tsg32\ng33\nsg34\nI0\nsg35\nS\'little\'\np3350\nsg37\ng38\n(S\'{\\xba5\\xa3\\x14\\x89\\xf1?\'\np3351\ntp3352\nRp3353\nsg42\n(tstp3354\nRp3355\nssg7\ng3346\nssg8\ng1430\nsg9\n(lp3356\nssg466\n(dp3357\ng3\nS\'MeqComposer\'\np3358\nsg5\n(dp3359\ng7\ng3358\nssg8\ng466\nsg9\n(lp3360\ng3155\nag2146\nag3089\nag14\nag14\nag14\nassg2933\n(dp3361\ng3\nS\'MeqParm\'\np3362\nsg5\n(dp3363\ng19\n(dp3364\ng21\ng22\nsg23\ng24\n(g25\n(dp3365\ng27\ng28\nsg29\nI8\nsg30\nI8\nsg31\n(tsg32\ng33\nsg34\nI0\nsg35\nS\'little\'\np3366\nsg37\ng38\n(S\'2\\xc3\\xd4\\xc4\\xceT\\xf1?\'\np3367\ntp3368\nRp3369\nsg42\n(tstp3370\nRp3371\nssg7\ng3362\nssg8\ng2933\nsg9\n(lp3372\nssg529\n(dp3373\ng3\nS\'MeqComposer\'\np3374\nsg5\n(dp3375\ng7\ng3374\nssg8\ng529\nsg9\n(lp3376\ng3024\nag1412\nag1106\nag14\nag14\nag14\nassg941\n(dp3377\ng3\nS\'MeqParm\'\np3378\nsg5\n(dp3379\ng19\n(dp3380\ng21\ng97\nsg23\n(lp3381\n(lp3382\nF-2.4089353929735005\naF0.80310429273951633\naassg7\ng3378\nssg8\ng941\nsg9\n(lp3383\nssS\'dec:q=J163433+620003\'\np3384\n(dp3385\ng3\nS\'MeqParm\'\np3386\nsg5\n(dp3387\ng19\n(dp3388\ng21\ng22\nsg23\ng24\n(g25\n(dp3389\ng27\ng28\nsg29\nI8\nsg30\nI8\nsg31\n(tsg32\ng33\nsg34\nI0\nsg35\nS\'little\'\np3390\nsg37\ng38\n(S\';Y\\xec@]P\\xf1?\'\np3391\ntp3392\nRp3393\nsg42\n(tstp3394\nRp3395\nssg7\ng3386\nssg8\ng3384\nsg9\n(lp3396\nssg1019\n(dp3397\ng3\nS\'MeqParm\'\np3398\nsg5\n(dp3399\ng19\n(dp3400\ng21\ng97\nsg23\n(lp3401\n(lp3402\nF-2.3098039199714862\naF0.5131622293718604\naassg7\ng3398\nssg8\ng1019\nsg9\n(lp3403\nssg1111\n(dp3404\ng3\nS\'MeqParm\'\np3405\nsg5\n(dp3406\ng19\n(dp3407\ng21\ng97\nsg23\n(lp3408\n(lp3409\nF-2.2924298239020633\naF0.25351551674103356\naassg7\ng3405\nssg8\ng1111\nsg9\n(lp3410\nssg1522\n(dp3411\ng3\nS\'MeqParm\'\np3412\nsg5\n(dp3413\ng19\n(dp3414\ng21\ng22\nsg23\ng24\n(g25\n(dp3415\ng27\ng28\nsg29\nI8\nsg30\nI8\nsg31\n(tsg32\ng33\nsg34\nI0\nsg35\nS\'little\'\np3416\nsg37\ng38\n(S\'\\xec\\xf7\\x1f\\xfd\\xb7r\\x11@\'\np3417\ntp3418\nRp3419\nsg42\n(tstp3420\nRp3421\nssg7\ng3412\nssg8\ng1522\nsg9\n(lp3422\nssg467\n(dp3423\ng3\nS\'MeqComposer\'\np3424\nsg5\n(dp3425\ng7\ng3424\nssg8\ng467\nsg9\n(lp3426\ng785\nag804\nag1296\nag14\nag14\nag14\nassg90\n(dp3427\ng3\nS\'MeqConstant\'\np3428\nsg5\n(dp3429\ng7\ng3428\nsg355\nF10.0\nssg8\ng90\nsg9\n(lp3430\nssg489\n(dp3431\ng3\nS\'MeqComposer\'\np3432\nsg5\n(dp3433\ng7\ng3432\nssg8\ng489\nsg9\n(lp3434\ng1331\naS\'dec:q=J164105+624455\'\np3435\nag2192\nag14\nag14\nag14\nassg1584\n(dp3436\ng3\nS\'MeqPow\'\np3437\nsg5\n(dp3438\ng7\ng3437\nssg8\ng1584\nsg9\n(lp3439\ng90\nag3187\nassg2771\n(dp3440\ng3\nS\'MeqParm\'\np3441\nsg5\n(dp3442\ng19\n(dp3443\ng21\ng97\nsg23\n(lp3444\n(lp3445\nF-1.9208187539523751\naF0.18514412816747161\naassg7\ng3441\nssg8\ng2771\nsg9\n(lp3446\nssg923\n(dp3447\ng3\nS\'MeqParm\'\np3448\nsg5\n(dp3449\ng19\n(dp3450\ng21\ng97\nsg23\n(lp3451\n(lp3452\nF-2.4814860601221125\naF0.40968019681951517\naassg7\ng3448\nssg8\ng923\nsg9\n(lp3453\nssg2337\n(dp3454\ng3\nS\'MeqParm\'\np3455\nsg5\n(dp3456\ng19\n(dp3457\ng21\ng97\nsg23\n(lp3458\n(lp3459\nF-2.1611509092627443\naF0.36981197450599368\naassg7\ng3455\nssg8\ng2337\nsg9\n(lp3460\nssg527\n(dp3461\ng3\nS\'MeqComposer\'\np3462\nsg5\n(dp3463\ng7\ng3462\nssg8\ng527\nsg9\n(lp3464\ng2267\nag1558\naS\'stokesI:q=J163919+624921\'\np3465\nag14\nag14\nag14\nassg493\n(dp3466\ng3\nS\'MeqComposer\'\np3467\nsg5\n(dp3468\ng7\ng3467\nssg8\ng493\nsg9\n(lp3469\ng230\naS\'dec:q=J163440+622557\'\np3470\nag1948\nag14\nag14\nag14\nassg1231\n(dp3471\ng3\nS\'MeqPow\'\np3472\nsg5\n(dp3473\ng7\ng3472\nssg8\ng1231\nsg9\n(lp3474\ng90\nag389\nassg2490\n(dp3475\ng3\nS\'MeqParm\'\np3476\nsg5\n(dp3477\ng19\n(dp3478\ng21\ng22\nsg23\ng24\n(g25\n(dp3479\ng27\ng28\nsg29\nI8\nsg30\nI8\nsg31\n(tsg32\ng33\nsg34\nI0\nsg35\nS\'little\'\np3480\nsg37\ng38\n(S\'(\\xef\\x7f!\\xfe\\\\\\x11@\'\np3481\ntp3482\nRp3483\nsg42\n(tstp3484\nRp3485\nssg7\ng3476\nssg8\ng2490\nsg9\n(lp3486\nssg834\n(dp3487\ng3\nS\'MeqParm\'\np3488\nsg5\n(dp3489\ng19\n(dp3490\ng21\ng97\nsg23\n(lp3491\n(lp3492\nF-2.6382721639824069\naF0.69676193361590044\naassg7\ng3488\nssg8\ng834\nsg9\n(lp3493\nssg13\n(dp3494\ng3\nS\'MeqPow\'\np3495\nsg5\n(dp3496\ng7\ng3495\nssg8\ng13\nsg9\n(lp3497\ng90\nag1808\nassg1121\n(dp3498\ng3\nS\'MeqParm\'\np3499\nsg5\n(dp3500\ng19\n(dp3501\ng21\ng22\nsg23\ng24\n(g25\n(dp3502\ng27\ng28\nsg29\nI8\nsg30\nI8\nsg31\n(tsg32\ng33\nsg34\nI0\nsg35\nS\'little\'\np3503\nsg37\ng38\n(S\'\\x90o\\xf5\\x86\\xf9v\\xf1?\'\np3504\ntp3505\nRp3506\nsg42\n(tstp3507\nRp3508\nssg7\ng3499\nssg8\ng1121\nsg9\n(lp3509\nssg859\n(dp3510\ng3\nS\'MeqParm\'\np3511\nsg5\n(dp3512\ng19\n(dp3513\ng21\ng97\nsg23\n(lp3514\n(lp3515\nF0.69918709730824891\naF0.65900527973079981\naassg7\ng3511\nssg8\ng859\nsg9\n(lp3516\nssg2675\n(dp3517\ng3\nS\'MeqParm\'\np3518\nsg5\n(dp3519\ng19\n(dp3520\ng21\ng22\nsg23\ng24\n(g25\n(dp3521\ng27\ng28\nsg29\nI8\nsg30\nI8\nsg31\n(tsg32\ng33\nsg34\nI0\nsg35\nS\'little\'\np3522\nsg37\ng38\n(S\'\\x98,Z\\xce\\x7fk\\x11@\'\np3523\ntp3524\nRp3525\nsg42\n(tstp3526\nRp3527\nssg7\ng3518\nssg8\ng2675\nsg9\n(lp3528\nssg262\n(dp3529\ng3\nS\'MeqPow\'\np3530\nsg5\n(dp3531\ng7\ng3530\nssg8\ng262\nsg9\n(lp3532\ng90\nag2545\nassg910\n(dp3533\ng3\nS\'MeqParm\'\np3534\nsg5\n(dp3535\ng19\n(dp3536\ng21\ng22\nsg23\ng24\n(g25\n(dp3537\ng27\ng28\nsg29\nI8\nsg30\nI8\nsg31\n(tsg32\ng33\nsg34\nI0\nsg35\nS\'little\'\np3538\nsg37\ng38\n(S\'@o;\\x96\\x88m\\x11@\'\np3539\ntp3540\nRp3541\nsg42\n(tstp3542\nRp3543\nssg7\ng3534\nssg8\ng910\nsg9\n(lp3544\nssg3435\n(dp3545\ng3\nS\'MeqParm\'\np3546\nsg5\n(dp3547\ng19\n(dp3548\ng21\ng22\nsg23\ng24\n(g25\n(dp3549\ng27\ng28\nsg29\nI8\nsg30\nI8\nsg31\n(tsg32\ng33\nsg34\nI0\nsg35\nS\'little\'\np3550\nsg37\ng38\n(S\'K\\xe7\\xb6\\x12\\xd3\\x85\\xf1?\'\np3551\ntp3552\nRp3553\nsg42\n(tstp3554\nRp3555\nssg7\ng3546\nssg8\ng3435\nsg9\n(lp3556\nssg508\n(dp3557\ng3\nS\'MeqComposer\'\np3558\nsg5\n(dp3559\ng7\ng3558\nssg8\ng508\nsg9\n(lp3560\ng2998\nag3060\nag860\nag14\nag14\nag14\nassg2737\n(dp3561\ng3\nS\'MeqParm\'\np3562\nsg5\n(dp3563\ng19\n(dp3564\ng21\ng22\nsg23\ng24\n(g25\n(dp3565\ng27\ng28\nsg29\nI8\nsg30\nI8\nsg31\n(tsg32\ng33\nsg34\nI0\nsg35\nS\'little\'\np3566\nsg37\ng38\n(S\'\\x16r\\\\otP\\xf1?\'\np3567\ntp3568\nRp3569\nsg42\n(tstp3570\nRp3571\nssg7\ng3562\nssg8\ng2737\nsg9\n(lp3572\nssg1443\n(dp3573\ng3\nS\'MeqPow\'\np3574\nsg5\n(dp3575\ng7\ng3574\nssg8\ng1443\nsg9\n(lp3576\ng90\nag2184\nassg2399\n(dp3577\ng3\nS\'MeqParm\'\np3578\nsg5\n(dp3579\ng19\n(dp3580\ng21\ng22\nsg23\ng24\n(g25\n(dp3581\ng27\ng28\nsg29\nI8\nsg30\nI8\nsg31\n(tsg32\ng33\nsg34\nI0\nsg35\nS\'little\'\np3582\nsg37\ng38\n(S\'\\xaa\\x05\\\\\\t-x\\xf1?\'\np3583\ntp3584\nRp3585\nsg42\n(tstp3586\nRp3587\nssg7\ng3578\nssg8\ng2399\nsg9\n(lp3588\nssg2513\n(dp3589\ng3\nS\'MeqParm\'\np3590\nsg5\n(dp3591\ng19\n(dp3592\ng21\ng22\nsg23\ng24\n(g25\n(dp3593\ng27\ng28\nsg29\nI8\nsg30\nI8\nsg31\n(tsg32\ng33\nsg34\nI0\nsg35\nS\'little\'\np3594\nsg37\ng38\n(S\'\\xd8Kw\\x1fV\\\\\\x11@\'\np3595\ntp3596\nRp3597\nsg42\n(tstp3598\nRp3599\nssg7\ng3590\nssg8\ng2513\nsg9\n(lp3600\nssg1786\n(dp3601\ng3\nS\'MeqPow\'\np3602\nsg5\n(dp3603\ng7\ng3602\nssg8\ng1786\nsg9\n(lp3604\ng90\nag2574\nassg1192\n(dp3605\ng3\nS\'MeqPow\'\np3606\nsg5\n(dp3607\ng7\ng3606\nssg8\ng1192\nsg9\n(lp3608\ng90\nag3131\nassg2095\n(dp3609\ng3\nS\'MeqParm\'\np3610\nsg5\n(dp3611\ng19\n(dp3612\ng21\ng22\nsg23\ng24\n(g25\n(dp3613\ng27\ng28\nsg29\nI8\nsg30\nI8\nsg31\n(tsg32\ng33\nsg34\nI0\nsg35\nS\'little\'\np3614\nsg37\ng38\n(S\'\\xe6\\xdc1\\x15\\xc9g\\x11@\'\np3615\ntp3616\nRp3617\nsg42\n(tstp3618\nRp3619\nssg7\ng3610\nssg8\ng2095\nsg9\n(lp3620\nssg473\n(dp3621\ng3\nS\'MeqComposer\'\np3622\nsg5\n(dp3623\ng7\ng3622\nssg8\ng473\nsg9\n(lp3624\nS\'ra:q=J163816+620854\'\np3625\nag405\nag357\nag14\nag14\nag14\nassg463\n(dp3626\ng3\nS\'MeqComposer\'\np3627\nsg5\n(dp3628\ng7\ng3627\nssg8\ng463\nsg9\n(lp3629\ng703\nag1036\nag3195\nag14\nag14\nag14\nassg2429\n(dp3630\ng3\nS\'MeqParm\'\np3631\nsg5\n(dp3632\ng19\n(dp3633\ng21\ng22\nsg23\ng24\n(g25\n(dp3634\ng27\ng28\nsg29\nI8\nsg30\nI8\nsg31\n(tsg32\ng33\nsg34\nI0\nsg35\nS\'little\'\np3635\nsg37\ng38\n(S\'\\x99R\\xa6W\\x13r\\xf1?\'\np3636\ntp3637\nRp3638\nsg42\n(tstp3639\nRp3640\nssg7\ng3631\nssg8\ng2429\nsg9\n(lp3641\nssg2992\n(dp3642\ng3\nS\'MeqParm\'\np3643\nsg5\n(dp3644\ng19\n(dp3645\ng21\ng97\nsg23\n(lp3646\n(lp3647\nF-2.3665315444204129\naF0.13092088355653408\naassg7\ng3643\nssg8\ng2992\nsg9\n(lp3648\nssg2997\n(dp3649\ng3\nS\'MeqParm\'\np3650\nsg5\n(dp3651\ng19\n(dp3652\ng21\ng22\nsg23\ng24\n(g25\n(dp3653\ng27\ng28\nsg29\nI8\nsg30\nI8\nsg31\n(tsg32\ng33\nsg34\nI0\nsg35\nS\'little\'\np3654\nsg37\ng38\n(S\'\\x94\\x8f\\xa6[\\x19k\\x11@\'\np3655\ntp3656\nRp3657\nsg42\n(tstp3658\nRp3659\nssg7\ng3650\nssg8\ng2997\nsg9\n(lp3660\nssg1931\n(dp3661\ng3\nS\'MeqParm\'\np3662\nsg5\n(dp3663\ng19\n(dp3664\ng21\ng22\nsg23\ng24\n(g25\n(dp3665\ng27\ng28\nsg29\nI8\nsg30\nI8\nsg31\n(tsg32\ng33\nsg34\nI0\nsg35\nS\'little\'\np3666\nsg37\ng38\n(S\'mZ\\xa6x~a\\x11@\'\np3667\ntp3668\nRp3669\nsg42\n(tstp3670\nRp3671\nssg7\ng3662\nssg8\ng1931\nsg9\n(lp3672\nssg1529\n(dp3673\ng3\nS\'MeqParm\'\np3674\nsg5\n(dp3675\ng19\n(dp3676\ng21\ng22\nsg23\ng24\n(g25\n(dp3677\ng27\ng28\nsg29\nI8\nsg30\nI8\nsg31\n(tsg32\ng33\nsg34\nI0\nsg35\nS\'little\'\np3678\nsg37\ng38\n(S\'B\\x16/.\\x0bl\\x11@\'\np3679\ntp3680\nRp3681\nsg42\n(tstp3682\nRp3683\nssg7\ng3674\nssg8\ng1529\nsg9\n(lp3684\nssg1531\n(dp3685\ng3\nS\'MeqPow\'\np3686\nsg5\n(dp3687\ng7\ng3686\nssg8\ng1531\nsg9\n(lp3688\ng90\nag3281\nassg3200\n(dp3689\ng3\nS\'MeqParm\'\np3690\nsg5\n(dp3691\ng19\n(dp3692\ng21\ng97\nsg23\n(lp3693\n(lp3694\nF-2.5086383061657269\naF0.57580977743820572\naassg7\ng3690\nssg8\ng3200\nsg9\n(lp3695\nssg3625\n(dp3696\ng3\nS\'MeqParm\'\np3697\nsg5\n(dp3698\ng19\n(dp3699\ng21\ng22\nsg23\ng24\n(g25\n(dp3700\ng27\ng28\nsg29\nI8\nsg30\nI8\nsg31\n(tsg32\ng33\nsg34\nI0\nsg35\nS\'little\'\np3701\nsg37\ng38\n(S\'\\xf9\\x0c\\xb61Tl\\x11@\'\np3702\ntp3703\nRp3704\nsg42\n(tstp3705\nRp3706\nssg7\ng3697\nssg8\ng3625\nsg9\n(lp3707\nssg460\n(dp3708\ng3\nS\'MeqComposer\'\np3709\nsg5\n(dp3710\ng7\ng3709\nssg8\ng460\nsg9\n(lp3711\ng1271\nag3332\naS\'stokesI:q=J163626+624239\'\np3712\nag14\nag14\nag14\nassg576\n(dp3713\ng3\nS\'MeqParm\'\np3714\nsg5\n(dp3715\ng19\n(dp3716\ng21\ng97\nsg23\n(lp3717\n(lp3718\nF-2.4948500216800937\naF0.26594710417620082\naassg7\ng3714\nssg8\ng576\nsg9\n(lp3719\nssg1103\n(dp3720\ng3\nS\'MeqParm\'\np3721\nsg5\n(dp3722\ng19\n(dp3723\ng21\ng22\nsg23\ng24\n(g25\n(dp3724\ng27\ng28\nsg29\nI8\nsg30\nI8\nsg31\n(tsg32\ng33\nsg34\nI0\nsg35\nS\'little\'\np3725\nsg37\ng38\n(S\'\\xa3\\xbajT;u\\x11@\'\np3726\ntp3727\nRp3728\nsg42\n(tstp3729\nRp3730\nssg7\ng3721\nssg8\ng1103\nsg9\n(lp3731\nssg3465\n(dp3732\ng3\nS\'MeqPow\'\np3733\nsg5\n(dp3734\ng7\ng3733\nssg8\ng3465\nsg9\n(lp3735\ng90\nag1205\nassg2955\n(dp3736\ng3\nS\'MeqParm\'\np3737\nsg5\n(dp3738\ng19\n(dp3739\ng21\ng97\nsg23\n(lp3740\n(lp3741\nF-2.2924298239020633\naF0.86719462186674212\naassg7\ng3737\nssg8\ng2955\nsg9\n(lp3742\nssg523\n(dp3743\ng3\nS\'MeqComposer\'\np3744\nsg5\n(dp3745\ng7\ng3744\nssg8\ng523\nsg9\n(lp3746\ng1655\nag2338\nag1943\nag14\nag14\nag14\nassg497\n(dp3747\ng3\nS\'MeqComposer\'\np3748\nsg5\n(dp3749\ng7\ng3748\nssg8\ng497\nsg9\n(lp3750\ng3094\nag2878\nag3220\nag14\nag14\nag14\nassg478\n(dp3751\ng3\nS\'MeqComposer\'\np3752\nsg5\n(dp3753\ng7\ng3752\nssg8\ng478\nsg9\n(lp3754\ng276\nag2492\nag179\nag14\nag14\nag14\nassg2873\n(dp3755\ng3\nS\'MeqParm\'\np3756\nsg5\n(dp3757\ng19\n(dp3758\ng21\ng22\nsg23\ng24\n(g25\n(dp3759\ng27\ng28\nsg29\nI8\nsg30\nI8\nsg31\n(tsg32\ng33\nsg34\nI0\nsg35\nS\'little\'\np3760\nsg37\ng38\n(S\'\\x0b\\x90\\x90\\xdd\\xfc\\x92\\xf1?\'\np3761\ntp3762\nRp3763\nsg42\n(tstp3764\nRp3765\nssg7\ng3756\nssg8\ng2873\nsg9\n(lp3766\nssg184\n(dp3767\ng3\nS\'MeqParm\'\np3768\nsg5\n(dp3769\ng19\n(dp3770\ng21\ng97\nsg23\n(lp3771\n(lp3772\nF-2.4814860601221125\naF0.5985815495338056\naassg7\ng3768\nssg8\ng184\nsg9\n(lp3773\nssg3470\n(dp3774\ng3\nS\'MeqParm\'\np3775\nsg5\n(dp3776\ng19\n(dp3777\ng21\ng22\nsg23\ng24\n(g25\n(dp3778\ng27\ng28\nsg29\nI8\nsg30\nI8\nsg31\n(tsg32\ng33\nsg34\nI0\nsg35\nS\'little\'\np3779\nsg37\ng38\n(S\'\\xe0"\\x88\\xf57o\\xf1?\'\np3780\ntp3781\nRp3782\nsg42\n(tstp3783\nRp3784\nssg7\ng3775\nssg8\ng3470\nsg9\n(lp3785\nssS\'stokesI:q=J163642+622524\'\np3786\n(dp3787\ng3\nS\'MeqPow\'\np3788\nsg5\n(dp3789\ng7\ng3788\nssg8\ng3786\nsg9\n(lp3790\ng90\nag1028\nassg3712\n(dp3791\ng3\nS\'MeqPow\'\np3792\nsg5\n(dp3793\ng7\ng3792\nssg8\ng3712\nsg9\n(lp3794\ng90\nag1953\nassg502\n(dp3795\ng3\nS\'MeqComposer\'\np3796\nsg5\n(dp3797\ng7\ng3796\nssg8\ng502\nsg9\n(lp3798\ng72\nag3384\nag2968\nag14\nag14\nag14\nassg912\n(dp3799\ng3\nS\'MeqPow\'\np3800\nsg5\n(dp3801\ng7\ng3800\nssg8\ng912\nsg9\n(lp3802\ng90\nag1691\nassg2950\n(dp3803\ng3\nS\'MeqParm\'\np3804\nsg5\n(dp3805\ng19\n(dp3806\ng21\ng97\nsg23\n(lp3807\n(lp3808\nF-2.6197887582883936\naF0.37435943182365805\naassg7\ng3804\nssg8\ng2950\nsg9\n(lp3809\nssg2973\n(dp3810\ng3\nS\'MeqParm\'\np3811\nsg5\n(dp3812\ng19\n(dp3813\ng21\ng97\nsg23\n(lp3814\n(lp3815\nF-2.5228787452803374\naF0.37204966220815106\naassg7\ng3811\nssg8\ng2973\nsg9\n(lp3816\nssg506\n(dp3817\ng3\nS\'MeqComposer\'\np3818\nsg5\n(dp3819\ng7\ng3818\nssg8\ng506\nsg9\n(lp3820\ng2171\nag3011\nag3786\nag14\nag14\nag14\nassg494\n(dp3821\ng3\nS\'MeqComposer\'\np3822\nsg5\n(dp3823\ng7\ng3822\nssg8\ng494\nsg9\n(lp3824\ng1610\nag2796\nag829\nag14\nag14\nag14\nass.'
p95
sS'mqs'
p96
NsS'm_table'
p97
(dp98
sS's_table'
p99
(dp100
g22
(iTimba.LSM.LSM
Source
p101
(dp102
S'treeType'
p103
S'Point1'
p104
sS'tableName'
p105
S'Table1'
p106
sS'name'
p107
g22
sbsg77
(iTimba.LSM.LSM
Source
p108
(dp109
g103
g104
sg105
g106
sg107
g77
sbsg47
(iTimba.LSM.LSM
Source
p110
(dp111
g103
g104
sg105
g106
sg107
g47
sbsg46
(iTimba.LSM.LSM
Source
p112
(dp113
g103
g104
sg105
g106
sg107
g46
sbsg34
(iTimba.LSM.LSM
Source
p114
(dp115
g103
g104
sg105
g106
sg107
g34
sbsg87
(iTimba.LSM.LSM
Source
p116
(dp117
g103
g104
sg105
g106
sg107
g87
sbsg63
(iTimba.LSM.LSM
Source
p118
(dp119
g103
g104
sg105
g106
sg107
g63
sbsg73
(iTimba.LSM.LSM
Source
p120
(dp121
g103
g104
sg105
g106
sg107
g73
sbsg69
(iTimba.LSM.LSM
Source
p122
(dp123
g103
g104
sg105
g106
sg107
g69
sbsg82
(iTimba.LSM.LSM
Source
p124
(dp125
g103
g104
sg105
g106
sg107
g82
sbsg83
(iTimba.LSM.LSM
Source
p126
(dp127
g103
g104
sg105
g106
sg107
g83
sbsg11
(iTimba.LSM.LSM
Source
p128
(dp129
g103
g104
sg105
g106
sg107
g11
sbsg64
(iTimba.LSM.LSM
Source
p130
(dp131
g103
g104
sg105
g106
sg107
g64
sbsg86
(iTimba.LSM.LSM
Source
p132
(dp133
g103
g104
sg105
g106
sg107
g86
sbsg42
(iTimba.LSM.LSM
Source
p134
(dp135
g103
g104
sg105
g106
sg107
g42
sbsg56
(iTimba.LSM.LSM
Source
p136
(dp137
g103
g104
sg105
g106
sg107
g56
sbsg31
(iTimba.LSM.LSM
Source
p138
(dp139
g103
g104
sg105
g106
sg107
g31
sbsg8
(iTimba.LSM.LSM
Source
p140
(dp141
g103
g104
sg105
g106
sg107
g8
sbsg71
(iTimba.LSM.LSM
Source
p142
(dp143
g103
g104
sg105
g106
sg107
g71
sbsg32
(iTimba.LSM.LSM
Source
p144
(dp145
g103
g104
sg105
g106
sg107
g32
sbsg33
(iTimba.LSM.LSM
Source
p146
(dp147
g103
g104
sg105
g106
sg107
g33
sbsg48
(iTimba.LSM.LSM
Source
p148
(dp149
g103
g104
sg105
g106
sg107
g48
sbsg62
(iTimba.LSM.LSM
Source
p150
(dp151
g103
g104
sg105
g106
sg107
g62
sbsg67
(iTimba.LSM.LSM
Source
p152
(dp153
g103
g104
sg105
g106
sg107
g67
sbsg21
(iTimba.LSM.LSM
Source
p154
(dp155
g103
g104
sg105
g106
sg107
g21
sbsg58
(iTimba.LSM.LSM
Source
p156
(dp157
g103
g104
sg105
g106
sg107
g58
sbsg57
(iTimba.LSM.LSM
Source
p158
(dp159
g103
g104
sg105
g106
sg107
g57
sbsg80
(iTimba.LSM.LSM
Source
p160
(dp161
g103
g104
sg105
g106
sg107
g80
sbsg53
(iTimba.LSM.LSM
Source
p162
(dp163
g103
g104
sg105
g106
sg107
g53
sbsg9
(iTimba.LSM.LSM
Source
p164
(dp165
g103
g104
sg105
g106
sg107
g9
sbsg36
(iTimba.LSM.LSM
Source
p166
(dp167
g103
g104
sg105
g106
sg107
g36
sbsg20
(iTimba.LSM.LSM
Source
p168
(dp169
g103
g104
sg105
g106
sg107
g20
sbsg16
(iTimba.LSM.LSM
Source
p170
(dp171
g103
g104
sg105
g106
sg107
g16
sbsg12
(iTimba.LSM.LSM
Source
p172
(dp173
g103
g104
sg105
g106
sg107
g12
sbsg93
(iTimba.LSM.LSM
Source
p174
(dp175
g103
g104
sg105
g106
sg107
g93
sbsg54
(iTimba.LSM.LSM
Source
p176
(dp177
g103
g104
sg105
g106
sg107
g54
sbsg52
(iTimba.LSM.LSM
Source
p178
(dp179
g103
g104
sg105
g106
sg107
g52
sbsg35
(iTimba.LSM.LSM
Source
p180
(dp181
g103
g104
sg105
g106
sg107
g35
sbsg72
(iTimba.LSM.LSM
Source
p182
(dp183
g103
g104
sg105
g106
sg107
g72
sbsg85
(iTimba.LSM.LSM
Source
p184
(dp185
g103
g104
sg105
g106
sg107
g85
sbsg88
(iTimba.LSM.LSM
Source
p186
(dp187
g103
g104
sg105
g106
sg107
g88
sbsg59
(iTimba.LSM.LSM
Source
p188
(dp189
g103
g104
sg105
g106
sg107
g59
sbsg84
(iTimba.LSM.LSM
Source
p190
(dp191
g103
g104
sg105
g106
sg107
g84
sbsg26
(iTimba.LSM.LSM
Source
p192
(dp193
g103
g104
sg105
g106
sg107
g26
sbsg41
(iTimba.LSM.LSM
Source
p194
(dp195
g103
g104
sg105
g106
sg107
g41
sbsg37
(iTimba.LSM.LSM
Source
p196
(dp197
g103
g104
sg105
g106
sg107
g37
sbsg10
(iTimba.LSM.LSM
Source
p198
(dp199
g103
g104
sg105
g106
sg107
g10
sbsg13
(iTimba.LSM.LSM
Source
p200
(dp201
g103
g104
sg105
g106
sg107
g13
sbsg75
(iTimba.LSM.LSM
Source
p202
(dp203
g103
g104
sg105
g106
sg107
g75
sbsg89
(iTimba.LSM.LSM
Source
p204
(dp205
g103
g104
sg105
g106
sg107
g89
sbsg27
(iTimba.LSM.LSM
Source
p206
(dp207
g103
g104
sg105
g106
sg107
g27
sbsg17
(iTimba.LSM.LSM
Source
p208
(dp209
g103
g104
sg105
g106
sg107
g17
sbsg15
(iTimba.LSM.LSM
Source
p210
(dp211
g103
g104
sg105
g106
sg107
g15
sbsg43
(iTimba.LSM.LSM
Source
p212
(dp213
g103
g104
sg105
g106
sg107
g43
sbsg49
(iTimba.LSM.LSM
Source
p214
(dp215
g103
g104
sg105
g106
sg107
g49
sbsg28
(iTimba.LSM.LSM
Source
p216
(dp217
g103
g104
sg105
g106
sg107
g28
sbsg25
(iTimba.LSM.LSM
Source
p218
(dp219
g103
g104
sg105
g106
sg107
g25
sbsg92
(iTimba.LSM.LSM
Source
p220
(dp221
g103
g104
sg105
g106
sg107
g92
sbsg24
(iTimba.LSM.LSM
Source
p222
(dp223
g103
g104
sg105
g106
sg107
g24
sbsg61
(iTimba.LSM.LSM
Source
p224
(dp225
g103
g104
sg105
g106
sg107
g61
sbsg39
(iTimba.LSM.LSM
Source
p226
(dp227
g103
g104
sg105
g106
sg107
g39
sbsg91
(iTimba.LSM.LSM
Source
p228
(dp229
g103
g104
sg105
g106
sg107
g91
sbsg50
(iTimba.LSM.LSM
Source
p230
(dp231
g103
g104
sg105
g106
sg107
g50
sbsg44
(iTimba.LSM.LSM
Source
p232
(dp233
g103
g104
sg105
g106
sg107
g44
sbsg51
(iTimba.LSM.LSM
Source
p234
(dp235
g103
g104
sg105
g106
sg107
g51
sbsg79
(iTimba.LSM.LSM
Source
p236
(dp237
g103
g104
sg105
g106
sg107
g79
sbsg70
(iTimba.LSM.LSM
Source
p238
(dp239
g103
g104
sg105
g106
sg107
g70
sbsg78
(iTimba.LSM.LSM
Source
p240
(dp241
g103
g104
sg105
g106
sg107
g78
sbsg14
(iTimba.LSM.LSM
Source
p242
(dp243
g103
g104
sg105
g106
sg107
g14
sbsg66
(iTimba.LSM.LSM
Source
p244
(dp245
g103
g104
sg105
g106
sg107
g66
sbsg65
(iTimba.LSM.LSM
Source
p246
(dp247
g103
g104
sg105
g106
sg107
g65
sbsg18
(iTimba.LSM.LSM
Source
p248
(dp249
g103
g104
sg105
g106
sg107
g18
sbsg74
(iTimba.LSM.LSM
Source
p250
(dp251
g103
g104
sg105
g106
sg107
g74
sbsg90
(iTimba.LSM.LSM
Source
p252
(dp253
g103
g104
sg105
g106
sg107
g90
sbsg23
(iTimba.LSM.LSM
Source
p254
(dp255
g103
g104
sg105
g106
sg107
g23
sbsg76
(iTimba.LSM.LSM
Source
p256
(dp257
g103
g104
sg105
g106
sg107
g76
sbsg68
(iTimba.LSM.LSM
Source
p258
(dp259
g103
g104
sg105
g106
sg107
g68
sbsg55
(iTimba.LSM.LSM
Source
p260
(dp261
g103
g104
sg105
g106
sg107
g55
sbsg19
(iTimba.LSM.LSM
Source
p262
(dp263
g103
g104
sg105
g106
sg107
g19
sbsg81
(iTimba.LSM.LSM
Source
p264
(dp265
g103
g104
sg105
g106
sg107
g81
sbsg30
(iTimba.LSM.LSM
Source
p266
(dp267
g103
g104
sg105
g106
sg107
g30
sbsg40
(iTimba.LSM.LSM
Source
p268
(dp269
g103
g104
sg105
g106
sg107
g40
sbsg60
(iTimba.LSM.LSM
Source
p270
(dp271
g103
g104
sg105
g106
sg107
g60
sbsg29
(iTimba.LSM.LSM
Source
p272
(dp273
g103
g104
sg105
g106
sg107
g29
sbsg38
(iTimba.LSM.LSM
Source
p274
(dp275
g103
g104
sg105
g106
sg107
g38
sbsg45
(iTimba.LSM.LSM
Source
p276
(dp277
g103
g104
sg105
g106
sg107
g45
sbssS'_LSM__ns'
p278
NsS'p_table'
p279
(dp280
g22
(iTimba.LSM.LSM
PUnit
p281
(dp282
S'sp'
p283
(iTimba.LSM.LSM
SpH
p284
(dp285
S'static_Dec'
p286
F1.0994845127787887
sS'sQ'
p287
NsS'lsm'
p288
g0
sS'sV'
p289
NsS'sU'
p290
NsS'sI'
p291
NsS'static_RA'
p292
F4.3599414818380327
sS'RA'
p293
NsS'Dec'
p294
NsS'root'
p295
Nsbsg107
g22
sg288
g0
sS's_list'
p296
(lp297
g22
asS'cat'
p298
I1
sS'_patch_name'
p299
NsS'_PUnit__sixpack'
p300
(dp301
S'I'
p302
S'stokesI:q=J163913+625944'
p303
sS'label'
p304
g22
sS'Q'
p305
S'zero'
p306
sS'U'
p307
g306
sS'ra'
p308
S'ra:q=J163913+625944'
p309
sS'V'
p310
g306
sS'dec'
p311
S'dec:q=J163913+625944'
p312
sS'pointroot'
p313
S'sixpack:q=J163913+625944'
p314
ssS'FOV_distance'
p315
I0
sS'type'
p316
I0
sS'app_brightness'
p317
F0.0111
sbsg77
(iTimba.LSM.LSM
PUnit
p318
(dp319
g283
(iTimba.LSM.LSM
SpH
p320
(dp321
g286
F1.085150850852681
sg287
Nsg288
g0
sg289
Nsg290
Nsg291
Nsg292
F4.3694895963992764
sg293
Nsg294
Nsg295
Nsbsg107
g77
sg288
g0
sg296
(lp322
g77
asg298
I1
sg299
Nsg300
(dp323
g302
S'stokesI:q=J164124+621028'
p324
sg304
g77
sg305
g306
sg307
g306
sg308
S'ra:q=J164124+621028'
p325
sg310
g306
sg311
S'dec:q=J164124+621028'
p326
sg313
S'sixpack:q=J164124+621028'
p327
ssg315
I0
sg316
I0
sg317
F0.0028999999999999998
sbsg41
(iTimba.LSM.LSM
PUnit
p328
(dp329
g283
(iTimba.LSM.LSM
SpH
p330
(dp331
g286
F1.0924132628329657
sg287
Nsg288
g0
sg289
Nsg290
Nsg291
Nsg292
F4.3587078976671334
sg293
Nsg294
Nsg295
Nsbsg107
g41
sg288
g0
sg296
(lp332
g41
asg298
I1
sg299
Nsg300
(dp333
g302
S'stokesI:q=J163856+623526'
p334
sg304
g41
sg305
g306
sg307
g306
sg308
S'ra:q=J163856+623526'
p335
sg310
g306
sg311
S'dec:q=J163856+623526'
p336
sg313
S'sixpack:q=J163856+623526'
p337
ssg315
I0
sg316
I0
sg317
F0.0048999999999999998
sbsg46
(iTimba.LSM.LSM
PUnit
p338
(dp339
g283
(iTimba.LSM.LSM
SpH
p340
(dp341
g286
F1.0882046922299899
sg287
Nsg288
g0
sg289
Nsg290
Nsg291
Nsg292
F4.3427153002870043
sg293
Nsg294
Nsg295
Nsbsg107
g46
sg288
g0
sg296
(lp342
g46
asg298
I1
sg299
Nsg300
(dp343
g302
S'stokesI:q=J163516+622058'
p344
sg304
g46
sg305
g306
sg307
g306
sg308
S'ra:q=J163516+622058'
p345
sg310
g306
sg311
S'dec:q=J163516+622058'
p346
sg313
S'sixpack:q=J163516+622058'
p347
ssg315
I0
sg316
I0
sg317
F0.0043
sbsg34
(iTimba.LSM.LSM
PUnit
p348
(dp349
g283
(iTimba.LSM.LSM
SpH
p350
(dp351
g286
F1.0895853931124218
sg287
Nsg288
g0
sg289
Nsg290
Nsg291
Nsg292
F4.3668943645236125
sg293
Nsg294
Nsg295
Nsbsg107
g34
sg288
g0
sg296
(lp352
g34
asg298
I1
sg299
Nsg300
(dp353
g302
S'stokesI:q=J164049+622543'
p354
sg304
g34
sg305
g306
sg307
g306
sg308
S'ra:q=J164049+622543'
p355
sg310
g306
sg311
S'dec:q=J164049+622543'
p356
sg313
S'sixpack:q=J164049+622543'
p357
ssg315
I0
sg316
I0
sg317
F0.0061000000000000004
sbsg87
(iTimba.LSM.LSM
PUnit
p358
(dp359
g283
(iTimba.LSM.LSM
SpH
p360
(dp361
g286
F1.0945128939231148
sg287
Nsg288
g0
sg289
Nsg290
Nsg291
Nsg292
F4.3478137706423414
sg293
Nsg294
Nsg295
Nsbsg107
g87
sg288
g0
sg296
(lp362
g87
asg298
I1
sg299
Nsg300
(dp363
g302
S'stokesI:q=J163626+624239'
p364
sg304
g87
sg305
g306
sg307
g306
sg308
S'ra:q=J163626+624239'
p365
sg310
g306
sg311
S'dec:q=J163626+624239'
p366
sg313
S'sixpack:q=J163626+624239'
p367
ssg315
I0
sg316
I0
sg317
F0.0023999999999999998
sbsg63
(iTimba.LSM.LSM
PUnit
p368
(dp369
g283
(iTimba.LSM.LSM
SpH
p370
(dp371
g286
F1.0972757016476538
sg287
Nsg288
g0
sg289
Nsg290
Nsg291
Nsg292
F4.3408131822905389
sg293
Nsg294
Nsg295
Nsbsg107
g63
sg288
g0
sg296
(lp372
g63
asg298
I1
sg299
Nsg300
(dp373
g302
S'stokesI:q=J163450+625209'
p374
sg304
g63
sg305
g306
sg307
g306
sg308
S'ra:q=J163450+625209'
p375
sg310
g306
sg311
S'dec:q=J163450+625209'
p376
sg313
S'sixpack:q=J163450+625209'
p377
ssg315
I0
sg316
I0
sg317
F0.0033
sbsg73
(iTimba.LSM.LSM
PUnit
p378
(dp379
g283
(iTimba.LSM.LSM
SpH
p380
(dp381
g286
F1.0928925496381103
sg287
Nsg288
g0
sg289
Nsg290
Nsg291
Nsg292
F4.3674013826713161
sg293
Nsg294
Nsg295
Nsbsg107
g73
sg288
g0
sg296
(lp382
g73
asg298
I1
sg299
Nsg300
(dp383
g302
S'stokesI:q=J164056+623705'
p384
sg304
g73
sg305
g306
sg307
g306
sg308
S'ra:q=J164056+623705'
p385
sg310
g306
sg311
S'dec:q=J164056+623705'
p386
sg313
S'sixpack:q=J164056+623705'
p387
ssg315
I0
sg316
I0
sg317
F0.0030999999999999999
sbsg69
(iTimba.LSM.LSM
PUnit
p388
(dp389
g283
(iTimba.LSM.LSM
SpH
p390
(dp391
g286
F1.0933104590312268
sg287
Nsg288
g0
sg289
Nsg290
Nsg291
Nsg292
F4.3428082390696741
sg293
Nsg294
Nsg295
Nsbsg107
g69
sg288
g0
sg296
(lp392
g69
asg298
I1
sg299
Nsg300
(dp393
g302
S'stokesI:q=J163517+623831'
p394
sg304
g69
sg305
g306
sg307
g306
sg308
S'ra:q=J163517+623831'
p395
sg310
g306
sg311
S'dec:q=J163517+623831'
p396
sg313
S'sixpack:q=J163517+623831'
p397
ssg315
I0
sg316
I0
sg317
F0.0030999999999999999
sbsg82
(iTimba.LSM.LSM
PUnit
p398
(dp399
g283
(iTimba.LSM.LSM
SpH
p400
(dp401
g286
F1.097864895714306
sg287
Nsg288
g0
sg289
Nsg290
Nsg291
Nsg292
F4.366708196070066
sg293
Nsg294
Nsg295
Nsbsg107
g82
sg288
g0
sg296
(lp402
g82
asg298
I1
sg299
Nsg300
(dp403
g302
S'stokesI:q=J164046+625410'
p404
sg304
g82
sg305
g306
sg307
g306
sg308
S'ra:q=J164046+625410'
p405
sg310
g306
sg311
S'dec:q=J164046+625410'
p406
sg313
S'sixpack:q=J164046+625410'
p407
ssg315
I0
sg316
I0
sg317
F0.0027000000000000001
sbsg83
(iTimba.LSM.LSM
PUnit
p408
(dp409
g283
(iTimba.LSM.LSM
SpH
p410
(dp411
g286
F1.0959669471154985
sg287
Nsg288
g0
sg289
Nsg290
Nsg291
Nsg292
F4.3457742806893336
sg293
Nsg294
Nsg295
Nsbsg107
g83
sg288
g0
sg296
(lp412
g83
asg298
I1
sg299
Nsg300
(dp413
g302
S'stokesI:q=J163558+624739'
p414
sg304
g83
sg305
g306
sg307
g306
sg308
S'ra:q=J163558+624739'
p415
sg310
g306
sg311
S'dec:q=J163558+624739'
p416
sg313
S'sixpack:q=J163558+624739'
p417
ssg315
I0
sg316
I0
sg317
F0.0025999999999999999
sbsg11
(iTimba.LSM.LSM
PUnit
p418
(dp419
g283
(iTimba.LSM.LSM
SpH
p420
(dp421
g286
F1.0956520606296178
sg287
Nsg288
g0
sg289
Nsg290
Nsg291
Nsg292
F4.369585516786084
sg293
Nsg294
Nsg295
Nsbsg107
g11
sg288
g0
sg296
(lp422
g11
asg298
I1
sg299
Nsg300
(dp423
g302
S'stokesI:q=J164126+624634'
p424
sg304
g11
sg305
g306
sg307
g306
sg308
S'ra:q=J164126+624634'
p425
sg310
g306
sg311
S'dec:q=J164126+624634'
p426
sg313
S'sixpack:q=J164126+624634'
p427
ssg315
I0
sg316
I0
sg317
F0.1162
sbsg64
(iTimba.LSM.LSM
PUnit
p428
(dp429
g283
(iTimba.LSM.LSM
SpH
p430
(dp431
g286
F1.0957964866252203
sg287
Nsg288
g0
sg289
Nsg290
Nsg291
Nsg292
F4.3573701027954792
sg293
Nsg294
Nsg295
Nsbsg107
g64
sg288
g0
sg296
(lp432
g64
asg298
I1
sg299
Nsg300
(dp433
g302
S'stokesI:q=J163838+624704'
p434
sg304
g64
sg305
g306
sg307
g306
sg308
S'ra:q=J163838+624704'
p435
sg310
g306
sg311
S'dec:q=J163838+624704'
p436
sg313
S'sixpack:q=J163838+624704'
p437
ssg315
I0
sg316
I0
sg317
F0.0033
sbsg86
(iTimba.LSM.LSM
PUnit
p438
(dp439
g283
(iTimba.LSM.LSM
SpH
p440
(dp441
g286
F1.0870369215163014
sg287
Nsg288
g0
sg289
Nsg290
Nsg291
Nsg292
F4.3472166498720028
sg293
Nsg294
Nsg295
Nsbsg107
g86
sg288
g0
sg296
(lp442
g86
asg298
I1
sg299
Nsg300
(dp443
g302
S'stokesI:q=J163618+621657'
p444
sg304
g86
sg305
g306
sg307
g306
sg308
S'ra:q=J163618+621657'
p445
sg310
g306
sg311
S'dec:q=J163618+621657'
p446
sg313
S'sixpack:q=J163618+621657'
p447
ssg315
I0
sg316
I0
sg317
F0.0023999999999999998
sbsg42
(iTimba.LSM.LSM
PUnit
p448
(dp449
g283
(iTimba.LSM.LSM
SpH
p450
(dp451
g286
F1.0956587995397853
sg287
Nsg288
g0
sg289
Nsg290
Nsg291
Nsg292
F4.3417392249028275
sg293
Nsg294
Nsg295
Nsbsg107
g42
sg288
g0
sg296
(lp452
g42
asg298
I1
sg299
Nsg300
(dp453
g302
S'stokesI:q=J163503+624635'
p454
sg304
g42
sg305
g306
sg307
g306
sg308
S'ra:q=J163503+624635'
p455
sg310
g306
sg311
S'dec:q=J163503+624635'
p456
sg313
S'sixpack:q=J163503+624635'
p457
ssg315
I0
sg316
I0
sg317
F0.0047000000000000002
sbsg56
(iTimba.LSM.LSM
PUnit
p458
(dp459
g283
(iTimba.LSM.LSM
SpH
p460
(dp461
g286
F1.0906195006942283
sg287
Nsg288
g0
sg289
Nsg290
Nsg291
Nsg292
F4.3452090121778442
sg293
Nsg294
Nsg295
Nsbsg107
g56
sg288
g0
sg296
(lp462
g56
asg298
I1
sg299
Nsg300
(dp463
g302
S'stokesI:q=J163550+622916'
p464
sg304
g56
sg305
g306
sg307
g306
sg308
S'ra:q=J163550+622916'
p465
sg310
g306
sg311
S'dec:q=J163550+622916'
p466
sg313
S'sixpack:q=J163550+622916'
p467
ssg315
I0
sg316
I0
sg317
F0.0035999999999999999
sbsg31
(iTimba.LSM.LSM
PUnit
p468
(dp469
g283
(iTimba.LSM.LSM
SpH
p470
(dp471
g286
F1.0834306834307361
sg287
Nsg288
g0
sg289
Nsg290
Nsg291
Nsg292
F4.3493935845036047
sg293
Nsg294
Nsg295
Nsbsg107
g31
sg288
g0
sg296
(lp472
g31
asg298
I1
sg299
Nsg300
(dp473
g302
S'stokesI:q=J163648+620433'
p474
sg304
g31
sg305
g306
sg307
g306
sg308
S'ra:q=J163648+620433'
p475
sg310
g306
sg311
S'dec:q=J163648+620433'
p476
sg313
S'sixpack:q=J163648+620433'
p477
ssg315
I0
sg316
I0
sg317
F0.0071000000000000004
sbsg8
(iTimba.LSM.LSM
PUnit
p478
(dp479
g283
(iTimba.LSM.LSM
SpH
p480
(dp481
g286
F1.0953666508155486
sg287
Nsg288
g0
sg289
Nsg290
Nsg291
Nsg292
F4.3396060689466296
sg293
Nsg294
Nsg295
Nsbsg107
g8
sg288
g0
sg296
(lp482
g8
asg298
I1
sg299
Nsg300
(dp483
g302
S'stokesI:q=J163433+624535'
p484
sg304
g8
sg305
g306
sg307
g306
sg308
S'ra:q=J163433+624535'
p485
sg310
g306
sg311
S'dec:q=J163433+624535'
p486
sg313
S'sixpack:q=J163433+624535'
p487
ssg315
I0
sg316
I0
sg317
F5.0025000000000004
sbsg71
(iTimba.LSM.LSM
PUnit
p488
(dp489
g283
(iTimba.LSM.LSM
SpH
p490
(dp491
g286
F1.0846941078837076
sg287
Nsg288
g0
sg289
Nsg290
Nsg291
Nsg292
F4.3557899253239549
sg293
Nsg294
Nsg295
Nsbsg107
g71
sg288
g0
sg296
(lp492
g71
asg298
I1
sg299
Nsg300
(dp493
g302
S'stokesI:q=J163816+620854'
p494
sg304
g71
sg305
g306
sg307
g306
sg308
S'ra:q=J163816+620854'
p495
sg310
g306
sg311
S'dec:q=J163816+620854'
p496
sg313
S'sixpack:q=J163816+620854'
p497
ssg315
I0
sg316
I0
sg317
F0.0030999999999999999
sbsg32
(iTimba.LSM.LSM
PUnit
p498
(dp499
g283
(iTimba.LSM.LSM
SpH
p500
(dp501
g286
F1.0918398252109491
sg287
Nsg288
g0
sg289
Nsg290
Nsg291
Nsg292
F4.3495891341018806
sg293
Nsg294
Nsg295
Nsbsg107
g32
sg288
g0
sg296
(lp502
g32
asg298
I1
sg299
Nsg300
(dp503
g302
S'stokesI:q=J163651+623328'
p504
sg304
g32
sg305
g306
sg307
g306
sg308
S'ra:q=J163651+623328'
p505
sg310
g306
sg311
S'dec:q=J163651+623328'
p506
sg313
S'sixpack:q=J163651+623328'
p507
ssg315
I0
sg316
I0
sg317
F0.0068999999999999999
sbsg33
(iTimba.LSM.LSM
PUnit
p508
(dp509
g283
(iTimba.LSM.LSM
SpH
p510
(dp511
g286
F1.091546561415246
sg287
Nsg288
g0
sg289
Nsg290
Nsg291
Nsg292
F4.3413325631871125
sg293
Nsg294
Nsg295
Nsbsg107
g33
sg288
g0
sg296
(lp512
g33
asg298
I1
sg299
Nsg300
(dp513
g302
S'stokesI:q=J163457+623227'
p514
sg304
g33
sg305
g306
sg307
g306
sg308
S'ra:q=J163457+623227'
p515
sg310
g306
sg311
S'dec:q=J163457+623227'
p516
sg313
S'sixpack:q=J163457+623227'
p517
ssg315
I0
sg316
I0
sg317
F0.0064999999999999997
sbsg48
(iTimba.LSM.LSM
PUnit
p518
(dp519
g283
(iTimba.LSM.LSM
SpH
p520
(dp521
g286
F1.0821422910731875
sg287
Nsg288
g0
sg289
Nsg290
Nsg291
Nsg292
F4.3384586604075475
sg293
Nsg294
Nsg295
Nsbsg107
g48
sg288
g0
sg296
(lp522
g48
asg298
I1
sg299
Nsg300
(dp523
g302
S'stokesI:q=J163418+620007'
p524
sg304
g48
sg305
g306
sg307
g306
sg308
S'ra:q=J163418+620007'
p525
sg310
g306
sg311
S'dec:q=J163418+620007'
p526
sg313
S'sixpack:q=J163418+620007'
p527
ssg315
I0
sg316
I0
sg317
F0.0040000000000000001
sbsg62
(iTimba.LSM.LSM
PUnit
p528
(dp529
g283
(iTimba.LSM.LSM
SpH
p530
(dp531
g286
F1.0990835718645111
sg287
Nsg288
g0
sg289
Nsg290
Nsg291
Nsg292
F4.3644841375486605
sg293
Nsg294
Nsg295
Nsbsg107
g62
sg288
g0
sg296
(lp532
g62
asg298
I1
sg299
Nsg300
(dp533
g302
S'stokesI:q=J164015+625822'
p534
sg304
g62
sg305
g306
sg307
g306
sg308
S'ra:q=J164015+625822'
p535
sg310
g306
sg311
S'dec:q=J164015+625822'
p536
sg313
S'sixpack:q=J164015+625822'
p537
ssg315
I0
sg316
I0
sg317
F0.0033999999999999998
sbsg67
(iTimba.LSM.LSM
PUnit
p538
(dp539
g283
(iTimba.LSM.LSM
SpH
p540
(dp541
g286
F1.0982170158908959
sg287
Nsg288
g0
sg289
Nsg290
Nsg291
Nsg292
F4.3705239948692913
sg293
Nsg294
Nsg295
Nsbsg107
g67
sg288
g0
sg296
(lp542
g67
asg298
I1
sg299
Nsg300
(dp543
g302
S'stokesI:q=J164139+625523'
p544
sg304
g67
sg305
g306
sg307
g306
sg308
S'ra:q=J164139+625523'
p545
sg310
g306
sg311
S'dec:q=J164139+625523'
p546
sg313
S'sixpack:q=J164139+625523'
p547
ssg315
I0
sg316
I0
sg317
F0.0033
sbsg21
(iTimba.LSM.LSM
PUnit
p548
(dp549
g283
(iTimba.LSM.LSM
SpH
p550
(dp551
g286
F1.0948866367898822
sg287
Nsg288
g0
sg289
Nsg290
Nsg291
Nsg292
F4.3752692542172547
sg293
Nsg294
Nsg295
Nsbsg107
g21
sg288
g0
sg296
(lp552
g21
asg298
I1
sg299
Nsg300
(dp553
g302
S'stokesI:q=J164244+624356'
p554
sg304
g21
sg305
g306
sg307
g306
sg308
S'ra:q=J164244+624356'
p555
sg310
g306
sg311
S'dec:q=J164244+624356'
p556
sg313
S'sixpack:q=J164244+624356'
p557
ssg315
I0
sg316
I0
sg317
F0.012
sbsg58
(iTimba.LSM.LSM
PUnit
p558
(dp559
g283
(iTimba.LSM.LSM
SpH
p560
(dp561
g286
F1.0922266580471065
sg287
Nsg288
g0
sg289
Nsg290
Nsg291
Nsg292
F4.347549862315029
sg293
Nsg294
Nsg295
Nsbsg107
g58
sg288
g0
sg296
(lp562
g58
asg298
I1
sg299
Nsg300
(dp563
g302
S'stokesI:q=J163623+623447'
p564
sg304
g58
sg305
g306
sg307
g306
sg308
S'ra:q=J163623+623447'
p565
sg310
g306
sg311
S'dec:q=J163623+623447'
p566
sg313
S'sixpack:q=J163623+623447'
p567
ssg315
I0
sg316
I0
sg317
F0.0035999999999999999
sbsg57
(iTimba.LSM.LSM
PUnit
p568
(dp569
g283
(iTimba.LSM.LSM
SpH
p570
(dp571
g286
F1.0917020411627778
sg287
Nsg288
g0
sg289
Nsg290
Nsg291
Nsg292
F4.3456859961180037
sg293
Nsg294
Nsg295
Nsbsg107
g57
sg288
g0
sg296
(lp572
g57
asg298
I1
sg299
Nsg300
(dp573
g302
S'stokesI:q=J163557+623259'
p574
sg304
g57
sg305
g306
sg307
g306
sg308
S'ra:q=J163557+623259'
p575
sg310
g306
sg311
S'dec:q=J163557+623259'
p576
sg313
S'sixpack:q=J163557+623259'
p577
ssg315
I0
sg316
I0
sg317
F0.0035999999999999999
sbsg80
(iTimba.LSM.LSM
PUnit
p578
(dp579
g283
(iTimba.LSM.LSM
SpH
p580
(dp581
g286
F1.0832050026621798
sg287
Nsg288
g0
sg289
Nsg290
Nsg291
Nsg292
F4.3642683712198824
sg293
Nsg294
Nsg295
Nsbsg107
g80
sg288
g0
sg296
(lp582
g80
asg298
I1
sg299
Nsg300
(dp583
g302
S'stokesI:q=J164012+620347'
p584
sg304
g80
sg305
g306
sg307
g306
sg308
S'ra:q=J164012+620347'
p585
sg310
g306
sg311
S'dec:q=J164012+620347'
p586
sg313
S'sixpack:q=J164012+620347'
p587
ssg315
I0
sg316
I0
sg317
F0.0028
sbsg53
(iTimba.LSM.LSM
PUnit
p588
(dp589
g283
(iTimba.LSM.LSM
SpH
p590
(dp591
g286
F1.0948500818383264
sg287
Nsg288
g0
sg289
Nsg290
Nsg291
Nsg292
F4.3391067593364552
sg293
Nsg294
Nsg295
Nsbsg107
g53
sg288
g0
sg296
(lp592
g53
asg298
I1
sg299
Nsg300
(dp593
g302
S'stokesI:q=J163427+624349'
p594
sg304
g53
sg305
g306
sg307
g306
sg308
S'ra:q=J163427+624349'
p595
sg310
g306
sg311
S'dec:q=J163427+624349'
p596
sg313
S'sixpack:q=J163427+624349'
p597
ssg315
I0
sg316
I0
sg317
F0.0038
sbsg9
(iTimba.LSM.LSM
PUnit
p598
(dp599
g283
(iTimba.LSM.LSM
SpH
p600
(dp601
g286
F1.0922064413166042
sg287
Nsg288
g0
sg289
Nsg290
Nsg291
Nsg292
F4.3566487000379892
sg293
Nsg294
Nsg295
Nsbsg107
g9
sg288
g0
sg296
(lp602
g9
asg298
I1
sg299
Nsg300
(dp603
g302
S'stokesI:q=J163828+623443'
p604
sg304
g9
sg305
g306
sg307
g306
sg308
S'ra:q=J163828+623443'
p605
sg310
g306
sg311
S'dec:q=J163828+623443'
p606
sg313
S'sixpack:q=J163828+623443'
p607
ssg315
I0
sg316
I0
sg317
F4.6113
sbsg36
(iTimba.LSM.LSM
PUnit
p608
(dp609
g283
(iTimba.LSM.LSM
SpH
p610
(dp611
g286
F1.098385682570554
sg287
Nsg288
g0
sg289
Nsg290
Nsg291
Nsg292
F4.3531002275025275
sg293
Nsg294
Nsg295
Nsbsg107
g36
sg288
g0
sg296
(lp612
g36
asg298
I1
sg299
Nsg300
(dp613
g302
S'stokesI:q=J163739+625558'
p614
sg304
g36
sg305
g306
sg307
g306
sg308
S'ra:q=J163739+625558'
p615
sg310
g306
sg311
S'dec:q=J163739+625558'
p616
sg313
S'sixpack:q=J163739+625558'
p617
ssg315
I0
sg316
I0
sg317
F0.0060000000000000001
sbsg20
(iTimba.LSM.LSM
PUnit
p618
(dp619
g283
(iTimba.LSM.LSM
SpH
p620
(dp621
g286
F1.0965517293776528
sg287
Nsg288
g0
sg289
Nsg290
Nsg291
Nsg292
F4.3755191999105518
sg293
Nsg294
Nsg295
Nsbsg107
g20
sg288
g0
sg296
(lp622
g20
asg298
I1
sg299
Nsg300
(dp623
g302
S'stokesI:q=J164247+624940'
p624
sg304
g20
sg305
g306
sg307
g306
sg308
S'ra:q=J164247+624940'
p625
sg310
g306
sg311
S'dec:q=J164247+624940'
p626
sg313
S'sixpack:q=J164247+624940'
p627
ssg315
I0
sg316
I0
sg317
F0.012699999999999999
sbsg16
(iTimba.LSM.LSM
PUnit
p628
(dp629
g283
(iTimba.LSM.LSM
SpH
p630
(dp631
g286
F1.0947472528565632
sg287
Nsg288
g0
sg289
Nsg290
Nsg291
Nsg292
F4.3577224411382263
sg293
Nsg294
Nsg295
Nsbsg107
g16
sg288
g0
sg296
(lp632
g16
asg298
I1
sg299
Nsg300
(dp633
g302
S'stokesI:q=J163842+624327'
p634
sg304
g16
sg305
g306
sg307
g306
sg308
S'ra:q=J163842+624327'
p635
sg310
g306
sg311
S'dec:q=J163842+624327'
p636
sg313
S'sixpack:q=J163842+624327'
p637
ssg315
I0
sg316
I0
sg317
F0.0276
sbsg12
(iTimba.LSM.LSM
PUnit
p638
(dp639
g283
(iTimba.LSM.LSM
SpH
p640
(dp641
g286
F1.0904900554413721
sg287
Nsg288
g0
sg289
Nsg290
Nsg291
Nsg292
F4.3687591761073161
sg293
Nsg294
Nsg295
Nsbsg107
g12
sg288
g0
sg296
(lp642
g12
asg298
I1
sg299
Nsg300
(dp643
g302
S'stokesI:q=J164114+622849'
p644
sg304
g12
sg305
g306
sg307
g306
sg308
S'ra:q=J164114+622849'
p645
sg310
g306
sg311
S'dec:q=J164114+622849'
p646
sg313
S'sixpack:q=J164114+622849'
p647
ssg315
I0
sg316
I0
sg317
F0.0521
sbsg93
(iTimba.LSM.LSM
PUnit
p648
(dp649
g283
(iTimba.LSM.LSM
SpH
p650
(dp651
g286
F1.0951719981225831
sg287
Nsg288
g0
sg289
Nsg290
Nsg291
Nsg292
F4.3680522450382071
sg293
Nsg294
Nsg295
Nsbsg107
g93
sg288
g0
sg296
(lp652
g93
asg298
I1
sg299
Nsg300
(dp653
g302
S'stokesI:q=J164105+624455'
p654
sg304
g93
sg305
g306
sg307
g306
sg308
S'ra:q=J164105+624455'
p655
sg310
g306
sg311
S'dec:q=J164105+624455'
p656
sg313
S'sixpack:q=J164105+624455'
p657
ssg315
I0
sg316
I0
sg317
F0.0023
sbsg54
(iTimba.LSM.LSM
PUnit
p658
(dp659
g283
(iTimba.LSM.LSM
SpH
p660
(dp661
g286
F1.0916023149885736
sg287
Nsg288
g0
sg289
Nsg290
Nsg291
Nsg292
F4.3437342089599085
sg293
Nsg294
Nsg295
Nsbsg107
g54
sg288
g0
sg296
(lp662
g54
asg298
I1
sg299
Nsg300
(dp663
g302
S'stokesI:q=J163530+623239'
p664
sg304
g54
sg305
g306
sg307
g306
sg308
S'ra:q=J163530+623239'
p665
sg310
g306
sg311
S'dec:q=J163530+623239'
p666
sg313
S'sixpack:q=J163530+623239'
p667
ssg315
I0
sg316
I0
sg317
F0.0037000000000000002
sbsg52
(iTimba.LSM.LSM
PUnit
p668
(dp669
g283
(iTimba.LSM.LSM
SpH
p670
(dp671
g286
F1.0960703578736792
sg287
Nsg288
g0
sg289
Nsg290
Nsg291
Nsg292
F4.3676880530009576
sg293
Nsg294
Nsg295
Nsbsg107
g52
sg288
g0
sg296
(lp672
g52
asg298
I1
sg299
Nsg300
(dp673
g302
S'stokesI:q=J164100+624800'
p674
sg304
g52
sg305
g306
sg307
g306
sg308
S'ra:q=J164100+624800'
p675
sg310
g306
sg311
S'dec:q=J164100+624800'
p676
sg313
S'sixpack:q=J164100+624800'
p677
ssg315
I0
sg316
I0
sg317
F0.0038999999999999998
sbsg35
(iTimba.LSM.LSM
PUnit
p678
(dp679
g283
(iTimba.LSM.LSM
SpH
p680
(dp681
g286
F1.0928539584690942
sg287
Nsg288
g0
sg289
Nsg290
Nsg291
Nsg292
F4.3429976072935155
sg293
Nsg294
Nsg295
Nsbsg107
g35
sg288
g0
sg296
(lp682
g35
asg298
I1
sg299
Nsg300
(dp683
g302
S'stokesI:q=J163520+623657'
p684
sg304
g35
sg305
g306
sg307
g306
sg308
S'ra:q=J163520+623657'
p685
sg310
g306
sg311
S'dec:q=J163520+623657'
p686
sg313
S'sixpack:q=J163520+623657'
p687
ssg315
I0
sg316
I0
sg317
F0.0060000000000000001
sbsg72
(iTimba.LSM.LSM
PUnit
p688
(dp689
g283
(iTimba.LSM.LSM
SpH
p690
(dp691
g286
F1.0913658228749283
sg287
Nsg288
g0
sg289
Nsg290
Nsg291
Nsg292
F4.3587177151441763
sg293
Nsg294
Nsg295
Nsbsg107
g72
sg288
g0
sg296
(lp692
g72
asg298
I1
sg299
Nsg300
(dp693
g302
S'stokesI:q=J163856+623150'
p694
sg304
g72
sg305
g306
sg307
g306
sg308
S'ra:q=J163856+623150'
p695
sg310
g306
sg311
S'dec:q=J163856+623150'
p696
sg313
S'sixpack:q=J163856+623150'
p697
ssg315
I0
sg316
I0
sg317
F0.0030999999999999999
sbsg85
(iTimba.LSM.LSM
PUnit
p698
(dp699
g283
(iTimba.LSM.LSM
SpH
p700
(dp701
g286
F1.0896529761395684
sg287
Nsg288
g0
sg289
Nsg290
Nsg291
Nsg292
F4.3400551276187569
sg293
Nsg294
Nsg295
Nsbsg107
g85
sg288
g0
sg296
(lp702
g85
asg298
I1
sg299
Nsg300
(dp703
g302
S'stokesI:q=J163440+622557'
p704
sg304
g85
sg305
g306
sg307
g306
sg308
S'ra:q=J163440+622557'
p705
sg310
g306
sg311
S'dec:q=J163440+622557'
p706
sg313
S'sixpack:q=J163440+622557'
p707
ssg315
I0
sg316
I0
sg317
F0.0025000000000000001
sbsg88
(iTimba.LSM.LSM
PUnit
p708
(dp709
g283
(iTimba.LSM.LSM
SpH
p710
(dp711
g286
F1.0965172106435579
sg287
Nsg288
g0
sg289
Nsg290
Nsg291
Nsg292
F4.3406938454029342
sg293
Nsg294
Nsg295
Nsbsg107
g88
sg288
g0
sg296
(lp712
g88
asg298
I1
sg299
Nsg300
(dp713
g302
S'stokesI:q=J163448+624932'
p714
sg304
g88
sg305
g306
sg307
g306
sg308
S'ra:q=J163448+624932'
p715
sg310
g306
sg311
S'dec:q=J163448+624932'
p716
sg313
S'sixpack:q=J163448+624932'
p717
ssg315
I0
sg316
I0
sg317
F0.0023
sbsg59
(iTimba.LSM.LSM
PUnit
p718
(dp719
g283
(iTimba.LSM.LSM
SpH
p720
(dp721
g286
F1.0827797725824786
sg287
Nsg288
g0
sg289
Nsg290
Nsg291
Nsg292
F4.349508412623976
sg293
Nsg294
Nsg295
Nsbsg107
g59
sg288
g0
sg296
(lp722
g59
asg298
I1
sg299
Nsg300
(dp723
g302
S'stokesI:q=J163650+620219'
p724
sg304
g59
sg305
g306
sg307
g306
sg308
S'ra:q=J163650+620219'
p725
sg310
g306
sg311
S'dec:q=J163650+620219'
p726
sg313
S'sixpack:q=J163650+620219'
p727
ssg315
I0
sg316
I0
sg317
F0.0035000000000000001
sbsg84
(iTimba.LSM.LSM
PUnit
p728
(dp729
g283
(iTimba.LSM.LSM
SpH
p730
(dp731
g286
F1.0935262496006888
sg287
Nsg288
g0
sg289
Nsg290
Nsg291
Nsg292
F4.3549797289407692
sg293
Nsg294
Nsg295
Nsbsg107
g84
sg288
g0
sg296
(lp732
g84
asg298
I1
sg299
Nsg300
(dp733
g302
S'stokesI:q=J163805+623915'
p734
sg304
g84
sg305
g306
sg307
g306
sg308
S'ra:q=J163805+623915'
p735
sg310
g306
sg311
S'dec:q=J163805+623915'
p736
sg313
S'sixpack:q=J163805+623915'
p737
ssg315
I0
sg316
I0
sg317
F0.0025999999999999999
sbsg26
(iTimba.LSM.LSM
PUnit
p738
(dp739
g283
(iTimba.LSM.LSM
SpH
p740
(dp741
g286
F1.0835259008377061
sg287
Nsg288
g0
sg289
Nsg290
Nsg291
Nsg292
F4.3635413688643743
sg293
Nsg294
Nsg295
Nsbsg107
g26
sg288
g0
sg296
(lp742
g26
asg298
I1
sg299
Nsg300
(dp743
g302
S'stokesI:q=J164003+620453'
p744
sg304
g26
sg305
g306
sg307
g306
sg308
S'ra:q=J164003+620453'
p745
sg310
g306
sg311
S'dec:q=J164003+620453'
p746
sg313
S'sixpack:q=J164003+620453'
p747
ssg315
I0
sg316
I0
sg317
F0.0083999999999999995
sbsg47
(iTimba.LSM.LSM
PUnit
p748
(dp749
g283
(iTimba.LSM.LSM
SpH
p750
(dp751
g286
F1.0967489515831281
sg287
Nsg288
g0
sg289
Nsg290
Nsg291
Nsg292
F4.3623805067456418
sg293
Nsg294
Nsg295
Nsbsg107
g47
sg288
g0
sg296
(lp752
g47
asg298
I1
sg299
Nsg300
(dp753
g302
S'stokesI:q=J163947+625020'
p754
sg304
g47
sg305
g306
sg307
g306
sg308
S'ra:q=J163947+625020'
p755
sg310
g306
sg311
S'dec:q=J163947+625020'
p756
sg313
S'sixpack:q=J163947+625020'
p757
ssg315
I0
sg316
I0
sg317
F0.0043
sbsg37
(iTimba.LSM.LSM
PUnit
p758
(dp759
g283
(iTimba.LSM.LSM
SpH
p760
(dp761
g286
F1.0837802825761844
sg287
Nsg288
g0
sg289
Nsg290
Nsg291
Nsg292
F4.3729921085977672
sg293
Nsg294
Nsg295
Nsbsg107
g37
sg288
g0
sg296
(lp762
g37
asg298
I1
sg299
Nsg300
(dp763
g302
S'stokesI:q=J164212+620545'
p764
sg304
g37
sg305
g306
sg307
g306
sg308
S'ra:q=J164212+620545'
p765
sg310
g306
sg311
S'dec:q=J164212+620545'
p766
sg313
S'sixpack:q=J164212+620545'
p767
ssg315
I0
sg316
I0
sg317
F0.0057999999999999996
sbsg10
(iTimba.LSM.LSM
PUnit
p768
(dp769
g283
(iTimba.LSM.LSM
SpH
p770
(dp771
g286
F1.0837207474561441
sg287
Nsg288
g0
sg289
Nsg290
Nsg291
Nsg292
F4.345614364896619
sg293
Nsg294
Nsg295
Nsbsg107
g10
sg288
g0
sg296
(lp772
g10
asg298
I1
sg299
Nsg300
(dp773
g302
S'stokesI:q=J163556+620533'
p774
sg304
g10
sg305
g306
sg307
g306
sg308
S'ra:q=J163556+620533'
p775
sg310
g306
sg311
S'dec:q=J163556+620533'
p776
sg313
S'sixpack:q=J163556+620533'
p777
ssg315
I0
sg316
I0
sg317
F0.186
sbsg13
(iTimba.LSM.LSM
PUnit
p778
(dp779
g283
(iTimba.LSM.LSM
SpH
p780
(dp781
g286
F1.0860320481994656
sg287
Nsg288
g0
sg289
Nsg290
Nsg291
Nsg292
F4.3620299864541998
sg293
Nsg294
Nsg295
Nsbsg107
g13
sg288
g0
sg296
(lp782
g13
asg298
I1
sg299
Nsg300
(dp783
g302
S'stokesI:q=J163942+621330'
p784
sg304
g13
sg305
g306
sg307
g306
sg308
S'ra:q=J163942+621330'
p785
sg310
g306
sg311
S'dec:q=J163942+621330'
p786
sg313
S'sixpack:q=J163942+621330'
p787
ssg315
I0
sg316
I0
sg317
F0.045100000000000001
sbsg75
(iTimba.LSM.LSM
PUnit
p788
(dp789
g283
(iTimba.LSM.LSM
SpH
p790
(dp791
g286
F1.082120183569329
sg287
Nsg288
g0
sg289
Nsg290
Nsg291
Nsg292
F4.3395495639120956
sg293
Nsg294
Nsg295
Nsbsg107
g75
sg288
g0
sg296
(lp792
g75
asg298
I1
sg299
Nsg300
(dp793
g302
S'stokesI:q=J163433+620003'
p794
sg304
g75
sg305
g306
sg307
g306
sg308
S'ra:q=J163433+620003'
p795
sg310
g306
sg311
S'dec:q=J163433+620003'
p796
sg313
S'sixpack:q=J163433+620003'
p797
ssg315
I0
sg316
I0
sg317
F0.0030000000000000001
sbsg89
(iTimba.LSM.LSM
PUnit
p798
(dp799
g283
(iTimba.LSM.LSM
SpH
p800
(dp801
g286
F1.0880341832583438
sg287
Nsg288
g0
sg289
Nsg290
Nsg291
Nsg292
F4.3435326234313028
sg293
Nsg294
Nsg295
Nsbsg107
g89
sg288
g0
sg296
(lp802
g89
asg298
I1
sg299
Nsg300
(dp803
g302
S'stokesI:q=J163527+622023'
p804
sg304
g89
sg305
g306
sg307
g306
sg308
S'ra:q=J163527+622023'
p805
sg310
g306
sg311
S'dec:q=J163527+622023'
p806
sg313
S'sixpack:q=J163527+622023'
p807
ssg315
I0
sg316
I0
sg317
F0.0023
sbsg27
(iTimba.LSM.LSM
PUnit
p808
(dp809
g283
(iTimba.LSM.LSM
SpH
p810
(dp811
g286
F1.0934407769487091
sg287
Nsg288
g0
sg289
Nsg290
Nsg291
Nsg292
F4.3434689189136053
sg293
Nsg294
Nsg295
Nsbsg107
g27
sg288
g0
sg296
(lp812
g27
asg298
I1
sg299
Nsg300
(dp813
g302
S'stokesI:q=J163526+623858'
p814
sg304
g27
sg305
g306
sg307
g306
sg308
S'ra:q=J163526+623858'
p815
sg310
g306
sg311
S'dec:q=J163526+623858'
p816
sg313
S'sixpack:q=J163526+623858'
p817
ssg315
I0
sg316
I0
sg317
F0.0082000000000000007
sbsg17
(iTimba.LSM.LSM
PUnit
p818
(dp819
g283
(iTimba.LSM.LSM
SpH
p820
(dp821
g286
F1.0934389831380891
sg287
Nsg288
g0
sg289
Nsg290
Nsg291
Nsg292
F4.3759561139999672
sg293
Nsg294
Nsg295
Nsbsg107
g17
sg288
g0
sg296
(lp822
g17
asg298
I1
sg299
Nsg300
(dp823
g302
S'stokesI:q=J164253+623857'
p824
sg304
g17
sg305
g306
sg307
g306
sg308
S'ra:q=J164253+623857'
p825
sg310
g306
sg311
S'dec:q=J164253+623857'
p826
sg313
S'sixpack:q=J164253+623857'
p827
ssg315
I0
sg316
I0
sg317
F0.018599999999999998
sbsg70
(iTimba.LSM.LSM
PUnit
p828
(dp829
g283
(iTimba.LSM.LSM
SpH
p830
(dp831
g286
F1.0896736292023839
sg287
Nsg288
g0
sg289
Nsg290
Nsg291
Nsg292
F4.3541871312942071
sg293
Nsg294
Nsg295
Nsbsg107
g70
sg288
g0
sg296
(lp832
g70
asg298
I1
sg299
Nsg300
(dp833
g302
S'stokesI:q=J163754+622601'
p834
sg304
g70
sg305
g306
sg307
g306
sg308
S'ra:q=J163754+622601'
p835
sg310
g306
sg311
S'dec:q=J163754+622601'
p836
sg313
S'sixpack:q=J163754+622601'
p837
ssg315
I0
sg316
I0
sg317
F0.0030999999999999999
sbsg43
(iTimba.LSM.LSM
PUnit
p838
(dp839
g283
(iTimba.LSM.LSM
SpH
p840
(dp841
g286
F1.0894962358764657
sg287
Nsg288
g0
sg289
Nsg290
Nsg291
Nsg292
F4.3489715784348828
sg293
Nsg294
Nsg295
Nsbsg107
g43
sg288
g0
sg296
(lp842
g43
asg298
I1
sg299
Nsg300
(dp843
g302
S'stokesI:q=J163642+622524'
p844
sg304
g43
sg305
g306
sg307
g306
sg308
S'ra:q=J163642+622524'
p845
sg310
g306
sg311
S'dec:q=J163642+622524'
p846
sg313
S'sixpack:q=J163642+622524'
p847
ssg315
I0
sg316
I0
sg317
F0.0047000000000000002
sbsg49
(iTimba.LSM.LSM
PUnit
p848
(dp849
g283
(iTimba.LSM.LSM
SpH
p850
(dp851
g286
F1.0861683293252256
sg287
Nsg288
g0
sg289
Nsg290
Nsg291
Nsg292
F4.3516067347171852
sg293
Nsg294
Nsg295
Nsbsg107
g49
sg288
g0
sg296
(lp852
g49
asg298
I1
sg299
Nsg300
(dp853
g302
S'stokesI:q=J163718+621358'
p854
sg304
g49
sg305
g306
sg307
g306
sg308
S'ra:q=J163718+621358'
p855
sg310
g306
sg311
S'dec:q=J163718+621358'
p856
sg313
S'sixpack:q=J163718+621358'
p857
ssg315
I0
sg316
I0
sg317
F0.0040000000000000001
sbsg28
(iTimba.LSM.LSM
PUnit
p858
(dp859
g283
(iTimba.LSM.LSM
SpH
p860
(dp861
g286
F1.082228054613376
sg287
Nsg288
g0
sg289
Nsg290
Nsg291
Nsg292
F4.3583486507294307
sg293
Nsg294
Nsg295
Nsbsg107
g28
sg288
g0
sg296
(lp862
g28
asg298
I1
sg299
Nsg300
(dp863
g302
S'stokesI:q=J163851+620025'
p864
sg304
g28
sg305
g306
sg307
g306
sg308
S'ra:q=J163851+620025'
p865
sg310
g306
sg311
S'dec:q=J163851+620025'
p866
sg313
S'sixpack:q=J163851+620025'
p867
ssg315
I0
sg316
I0
sg317
F0.0082000000000000007
sbsg25
(iTimba.LSM.LSM
PUnit
p868
(dp869
g283
(iTimba.LSM.LSM
SpH
p870
(dp871
g286
F1.0869696293773634
sg287
Nsg288
g0
sg289
Nsg290
Nsg291
Nsg292
F4.3522599969117968
sg293
Nsg294
Nsg295
Nsbsg107
g25
sg288
g0
sg296
(lp872
g25
asg298
I1
sg299
Nsg300
(dp873
g302
S'stokesI:q=J163727+621643'
p874
sg304
g25
sg305
g306
sg307
g306
sg308
S'ra:q=J163727+621643'
p875
sg310
g306
sg311
S'dec:q=J163727+621643'
p876
sg313
S'sixpack:q=J163727+621643'
p877
ssg315
I0
sg316
I0
sg317
F0.0088000000000000005
sbsg92
(iTimba.LSM.LSM
PUnit
p878
(dp879
g283
(iTimba.LSM.LSM
SpH
p880
(dp881
g286
F1.0962452301684553
sg287
Nsg288
g0
sg289
Nsg290
Nsg291
Nsg292
F4.3603271268806703
sg293
Nsg294
Nsg295
Nsbsg107
g92
sg288
g0
sg296
(lp882
g92
asg298
I1
sg299
Nsg300
(dp883
g302
S'stokesI:q=J163918+624836'
p884
sg304
g92
sg305
g306
sg307
g306
sg308
S'ra:q=J163918+624836'
p885
sg310
g306
sg311
S'dec:q=J163918+624836'
p886
sg313
S'sixpack:q=J163918+624836'
p887
ssg315
I0
sg316
I0
sg317
F0.0023
sbsg19
(iTimba.LSM.LSM
PUnit
p888
(dp889
g283
(iTimba.LSM.LSM
SpH
p890
(dp891
g286
F1.0851641832289116
sg287
Nsg288
g0
sg289
Nsg290
Nsg291
Nsg292
F4.3755802137123192
sg293
Nsg294
Nsg295
Nsbsg107
g19
sg288
g0
sg296
(lp892
g19
asg298
I1
sg299
Nsg300
(dp893
g302
S'stokesI:q=J164248+621031'
p894
sg304
g19
sg305
g306
sg307
g306
sg308
S'ra:q=J164248+621031'
p895
sg310
g306
sg311
S'dec:q=J164248+621031'
p896
sg313
S'sixpack:q=J164248+621031'
p897
ssg315
I0
sg316
I0
sg317
F0.013599999999999999
sbsg61
(iTimba.LSM.LSM
PUnit
p898
(dp899
g283
(iTimba.LSM.LSM
SpH
p900
(dp901
g286
F1.0964179208016667
sg287
Nsg288
g0
sg289
Nsg290
Nsg291
Nsg292
F4.3539448941384409
sg293
Nsg294
Nsg295
Nsbsg107
g61
sg288
g0
sg296
(lp902
g61
asg298
I1
sg299
Nsg300
(dp903
g302
S'stokesI:q=J163751+624912'
p904
sg304
g61
sg305
g306
sg307
g306
sg308
S'ra:q=J163751+624912'
p905
sg310
g306
sg311
S'dec:q=J163751+624912'
p906
sg313
S'sixpack:q=J163751+624912'
p907
ssg315
I0
sg316
I0
sg317
F0.0035000000000000001
sbsg39
(iTimba.LSM.LSM
PUnit
p908
(dp909
g283
(iTimba.LSM.LSM
SpH
p910
(dp911
g286
F1.0948666139848522
sg287
Nsg288
g0
sg289
Nsg290
Nsg291
Nsg292
F4.3448356571620215
sg293
Nsg294
Nsg295
Nsbsg107
g39
sg288
g0
sg296
(lp912
g39
asg298
I1
sg299
Nsg300
(dp913
g302
S'stokesI:q=J163545+624352'
p914
sg304
g39
sg305
g306
sg307
g306
sg308
S'ra:q=J163545+624352'
p915
sg310
g306
sg311
S'dec:q=J163545+624352'
p916
sg313
S'sixpack:q=J163545+624352'
p917
ssg315
I0
sg316
I0
sg317
F0.0051000000000000004
sbsg91
(iTimba.LSM.LSM
PUnit
p918
(dp919
g283
(iTimba.LSM.LSM
SpH
p920
(dp921
g286
F1.0920831531974982
sg287
Nsg288
g0
sg289
Nsg290
Nsg291
Nsg292
F4.3545889206324269
sg293
Nsg294
Nsg295
Nsbsg107
g91
sg288
g0
sg296
(lp922
g91
asg298
I1
sg299
Nsg300
(dp923
g302
S'stokesI:q=J163759+623418'
p924
sg304
g91
sg305
g306
sg307
g306
sg308
S'ra:q=J163759+623418'
p925
sg310
g306
sg311
S'dec:q=J163759+623418'
p926
sg313
S'sixpack:q=J163759+623418'
p927
ssg315
I0
sg316
I0
sg317
F0.0023
sbsg50
(iTimba.LSM.LSM
PUnit
p928
(dp929
g283
(iTimba.LSM.LSM
SpH
p930
(dp931
g286
F1.0938022540293444
sg287
Nsg288
g0
sg289
Nsg290
Nsg291
Nsg292
F4.3512097450344092
sg293
Nsg294
Nsg295
Nsbsg107
g50
sg288
g0
sg296
(lp932
g50
asg298
I1
sg299
Nsg300
(dp933
g302
S'stokesI:q=J163713+624012'
p934
sg304
g50
sg305
g306
sg307
g306
sg308
S'ra:q=J163713+624012'
p935
sg310
g306
sg311
S'dec:q=J163713+624012'
p936
sg313
S'sixpack:q=J163713+624012'
p937
ssg315
I0
sg316
I0
sg317
F0.0038999999999999998
sbsg44
(iTimba.LSM.LSM
PUnit
p938
(dp939
g283
(iTimba.LSM.LSM
SpH
p940
(dp941
g286
F1.0991137272754761
sg287
Nsg288
g0
sg289
Nsg290
Nsg291
Nsg292
F4.3745265438984795
sg293
Nsg294
Nsg295
Nsbsg107
g44
sg288
g0
sg296
(lp942
g44
asg298
I1
sg299
Nsg300
(dp943
g302
S'stokesI:q=J164234+625828'
p944
sg304
g44
sg305
g306
sg307
g306
sg308
S'ra:q=J164234+625828'
p945
sg310
g306
sg311
S'dec:q=J164234+625828'
p946
sg313
S'sixpack:q=J164234+625828'
p947
ssg315
I0
sg316
I0
sg317
F0.0045999999999999999
sbsg51
(iTimba.LSM.LSM
PUnit
p948
(dp949
g283
(iTimba.LSM.LSM
SpH
p950
(dp951
g286
F1.0919154561452022
sg287
Nsg288
g0
sg289
Nsg290
Nsg291
Nsg292
F4.3513714061563746
sg293
Nsg294
Nsg295
Nsbsg107
g51
sg288
g0
sg296
(lp952
g51
asg298
I1
sg299
Nsg300
(dp953
g302
S'stokesI:q=J163715+623343'
p954
sg304
g51
sg305
g306
sg307
g306
sg308
S'ra:q=J163715+623343'
p955
sg310
g306
sg311
S'dec:q=J163715+623343'
p956
sg313
S'sixpack:q=J163715+623343'
p957
ssg315
I0
sg316
I0
sg317
F0.0038999999999999998
sbsg79
(iTimba.LSM.LSM
PUnit
p958
(dp959
g283
(iTimba.LSM.LSM
SpH
p960
(dp961
g286
F1.0950042525889192
sg287
Nsg288
g0
sg289
Nsg290
Nsg291
Nsg292
F4.3401722828447973
sg293
Nsg294
Nsg295
Nsbsg107
g79
sg288
g0
sg296
(lp962
g79
asg298
I1
sg299
Nsg300
(dp963
g302
S'stokesI:q=J163441+624420'
p964
sg304
g79
sg305
g306
sg307
g306
sg308
S'ra:q=J163441+624420'
p965
sg310
g306
sg311
S'dec:q=J163441+624420'
p966
sg313
S'sixpack:q=J163441+624420'
p967
ssg315
I0
sg316
I0
sg317
F0.0028
sbsg15
(iTimba.LSM.LSM
PUnit
p968
(dp969
g283
(iTimba.LSM.LSM
SpH
p970
(dp971
g286
F1.0910401735253272
sg287
Nsg288
g0
sg289
Nsg290
Nsg291
Nsg292
F4.3555113998641577
sg293
Nsg294
Nsg295
Nsbsg107
g15
sg288
g0
sg296
(lp972
g15
asg298
I1
sg299
Nsg300
(dp973
g302
S'stokesI:q=J163812+623043'
p974
sg304
g15
sg305
g306
sg307
g306
sg308
S'ra:q=J163812+623043'
p975
sg310
g306
sg311
S'dec:q=J163812+623043'
p976
sg313
S'sixpack:q=J163812+623043'
p977
ssg315
I0
sg316
I0
sg317
F0.034000000000000002
sbsg78
(iTimba.LSM.LSM
PUnit
p978
(dp979
g283
(iTimba.LSM.LSM
SpH
p980
(dp981
g286
F1.0930151590180632
sg287
Nsg288
g0
sg289
Nsg290
Nsg291
Nsg292
F4.3710345763975518
sg293
Nsg294
Nsg295
Nsbsg107
g78
sg288
g0
sg296
(lp982
g78
asg298
I1
sg299
Nsg300
(dp983
g302
S'stokesI:q=J164146+623730'
p984
sg304
g78
sg305
g306
sg307
g306
sg308
S'ra:q=J164146+623730'
p985
sg310
g306
sg311
S'dec:q=J164146+623730'
p986
sg313
S'sixpack:q=J164146+623730'
p987
ssg315
I0
sg316
I0
sg317
F0.0028999999999999998
sbsg14
(iTimba.LSM.LSM
PUnit
p988
(dp989
g283
(iTimba.LSM.LSM
SpH
p990
(dp991
g286
F1.0903504775825807
sg287
Nsg288
g0
sg289
Nsg290
Nsg291
Nsg292
F4.3728092126365699
sg293
Nsg294
Nsg295
Nsbsg107
g14
sg288
g0
sg296
(lp992
g14
asg298
I1
sg299
Nsg300
(dp993
g302
S'stokesI:q=J164210+622820'
p994
sg304
g14
sg305
g306
sg307
g306
sg308
S'ra:q=J164210+622820'
p995
sg310
g306
sg311
S'dec:q=J164210+622820'
p996
sg313
S'sixpack:q=J164210+622820'
p997
ssg315
I0
sg316
I0
sg317
F0.034099999999999998
sbsg66
(iTimba.LSM.LSM
PUnit
p998
(dp999
g283
(iTimba.LSM.LSM
SpH
p1000
(dp1001
g286
F1.0916306765889185
sg287
Nsg288
g0
sg289
Nsg290
Nsg291
Nsg292
F4.3608902137305954
sg293
Nsg294
Nsg295
Nsbsg107
g66
sg288
g0
sg296
(lp1002
g66
asg298
I1
sg299
Nsg300
(dp1003
g302
S'stokesI:q=J163926+623244'
p1004
sg304
g66
sg305
g306
sg307
g306
sg308
S'ra:q=J163926+623244'
p1005
sg310
g306
sg311
S'dec:q=J163926+623244'
p1006
sg313
S'sixpack:q=J163926+623244'
p1007
ssg315
I0
sg316
I0
sg317
F0.0033
sbsg65
(iTimba.LSM.LSM
PUnit
p1008
(dp1009
g283
(iTimba.LSM.LSM
SpH
p1010
(dp1011
g286
F1.0863634668318722
sg287
Nsg288
g0
sg289
Nsg290
Nsg291
Nsg292
F4.3601016157969026
sg293
Nsg294
Nsg295
Nsbsg107
g65
sg288
g0
sg296
(lp1012
g65
asg298
I1
sg299
Nsg300
(dp1013
g302
S'stokesI:q=J163915+621438'
p1014
sg304
g65
sg305
g306
sg307
g306
sg308
S'ra:q=J163915+621438'
p1015
sg310
g306
sg311
S'dec:q=J163915+621438'
p1016
sg313
S'sixpack:q=J163915+621438'
p1017
ssg315
I0
sg316
I0
sg317
F0.0033
sbsg18
(iTimba.LSM.LSM
PUnit
p1018
(dp1019
g283
(iTimba.LSM.LSM
SpH
p1020
(dp1021
g286
F1.0822014383422831
sg287
Nsg288
g0
sg289
Nsg290
Nsg291
Nsg292
F4.3593485789467197
sg293
Nsg294
Nsg295
Nsbsg107
g18
sg288
g0
sg296
(lp1022
g18
asg298
I1
sg299
Nsg300
(dp1023
g302
S'stokesI:q=J163905+620020'
p1024
sg304
g18
sg305
g306
sg307
g306
sg308
S'ra:q=J163905+620020'
p1025
sg310
g306
sg311
S'dec:q=J163905+620020'
p1026
sg313
S'sixpack:q=J163905+620020'
p1027
ssg315
I0
sg316
I0
sg317
F0.0146
sbsg74
(iTimba.LSM.LSM
PUnit
p1028
(dp1029
g283
(iTimba.LSM.LSM
SpH
p1030
(dp1031
g286
F1.0966181003705966
sg287
Nsg288
g0
sg289
Nsg290
Nsg291
Nsg292
F4.3380062565210196
sg293
Nsg294
Nsg295
Nsbsg107
g74
sg288
g0
sg296
(lp1032
g74
asg298
I1
sg299
Nsg300
(dp1033
g302
S'stokesI:q=J163411+624953'
p1034
sg304
g74
sg305
g306
sg307
g306
sg308
S'ra:q=J163411+624953'
p1035
sg310
g306
sg311
S'dec:q=J163411+624953'
p1036
sg313
S'sixpack:q=J163411+624953'
p1037
ssg315
I0
sg316
I0
sg317
F0.0030000000000000001
sbsg90
(iTimba.LSM.LSM
PUnit
p1038
(dp1039
g283
(iTimba.LSM.LSM
SpH
p1040
(dp1041
g286
F1.0915046735131981
sg287
Nsg288
g0
sg289
Nsg290
Nsg291
Nsg292
F4.3513530074771776
sg293
Nsg294
Nsg295
Nsbsg107
g90
sg288
g0
sg296
(lp1042
g90
asg298
I1
sg299
Nsg300
(dp1043
g302
S'stokesI:q=J163715+623219'
p1044
sg304
g90
sg305
g306
sg307
g306
sg308
S'ra:q=J163715+623219'
p1045
sg310
g306
sg311
S'dec:q=J163715+623219'
p1046
sg313
S'sixpack:q=J163715+623219'
p1047
ssg315
I0
sg316
I0
sg317
F0.0023
sbsg23
(iTimba.LSM.LSM
PUnit
p1048
(dp1049
g283
(iTimba.LSM.LSM
SpH
p1050
(dp1051
g286
F1.0888413010746549
sg287
Nsg288
g0
sg289
Nsg290
Nsg291
Nsg292
F4.3569663499618514
sg293
Nsg294
Nsg295
Nsbsg107
g23
sg288
g0
sg296
(lp1052
g23
asg298
I1
sg299
Nsg300
(dp1053
g302
S'stokesI:q=J163832+622309'
p1054
sg304
g23
sg305
g306
sg307
g306
sg308
S'ra:q=J163832+622309'
p1055
sg310
g306
sg311
S'dec:q=J163832+622309'
p1056
sg313
S'sixpack:q=J163832+622309'
p1057
ssg315
I0
sg316
I0
sg317
F0.010200000000000001
sbsg76
(iTimba.LSM.LSM
PUnit
p1058
(dp1059
g283
(iTimba.LSM.LSM
SpH
p1060
(dp1061
g286
F1.0969924250137812
sg287
Nsg288
g0
sg289
Nsg290
Nsg291
Nsg292
F4.3656879784002243
sg293
Nsg294
Nsg295
Nsbsg107
g76
sg288
g0
sg296
(lp1062
g76
asg298
I1
sg299
Nsg300
(dp1063
g302
S'stokesI:q=J164032+625110'
p1064
sg304
g76
sg305
g306
sg307
g306
sg308
S'ra:q=J164032+625110'
p1065
sg310
g306
sg311
S'dec:q=J164032+625110'
p1066
sg313
S'sixpack:q=J164032+625110'
p1067
ssg315
I0
sg316
I0
sg317
F0.0028999999999999998
sbsg68
(iTimba.LSM.LSM
PUnit
p1068
(dp1069
g283
(iTimba.LSM.LSM
SpH
p1070
(dp1071
g286
F1.0906717636090522
sg287
Nsg288
g0
sg289
Nsg290
Nsg291
Nsg292
F4.3581763721878488
sg293
Nsg294
Nsg295
Nsbsg107
g68
sg288
g0
sg296
(lp1072
g68
asg298
I1
sg299
Nsg300
(dp1073
g302
S'stokesI:q=J163849+622927'
p1074
sg304
g68
sg305
g306
sg307
g306
sg308
S'ra:q=J163849+622927'
p1075
sg310
g306
sg311
S'dec:q=J163849+622927'
p1076
sg313
S'sixpack:q=J163849+622927'
p1077
ssg315
I0
sg316
I0
sg317
F0.0032000000000000002
sbsg55
(iTimba.LSM.LSM
PUnit
p1078
(dp1079
g283
(iTimba.LSM.LSM
SpH
p1080
(dp1081
g286
F1.0991861099580658
sg287
Nsg288
g0
sg289
Nsg290
Nsg291
Nsg292
F4.3553765731794405
sg293
Nsg294
Nsg295
Nsbsg107
g55
sg288
g0
sg296
(lp1082
g55
asg298
I1
sg299
Nsg300
(dp1083
g302
S'stokesI:q=J163810+625843'
p1084
sg304
g55
sg305
g306
sg307
g306
sg308
S'ra:q=J163810+625843'
p1085
sg310
g306
sg311
S'dec:q=J163810+625843'
p1086
sg313
S'sixpack:q=J163810+625843'
p1087
ssg315
I0
sg316
I0
sg317
F0.0037000000000000002
sbsg24
(iTimba.LSM.LSM
PUnit
p1088
(dp1089
g283
(iTimba.LSM.LSM
SpH
p1090
(dp1091
g286
F1.091032271062325
sg287
Nsg288
g0
sg289
Nsg290
Nsg291
Nsg292
F4.3487323956053077
sg293
Nsg294
Nsg295
Nsbsg107
g24
sg288
g0
sg296
(lp1092
g24
asg298
I1
sg299
Nsg300
(dp1093
g302
S'stokesI:q=J163639+623041'
p1094
sg304
g24
sg305
g306
sg307
g306
sg308
S'ra:q=J163639+623041'
p1095
sg310
g306
sg311
S'dec:q=J163639+623041'
p1096
sg313
S'sixpack:q=J163639+623041'
p1097
ssg315
I0
sg316
I0
sg317
F0.0099000000000000008
sbsg81
(iTimba.LSM.LSM
PUnit
p1098
(dp1099
g283
(iTimba.LSM.LSM
SpH
p1100
(dp1101
g286
F1.0964631539181142
sg287
Nsg288
g0
sg289
Nsg290
Nsg291
Nsg292
F4.3603603608585111
sg293
Nsg294
Nsg295
Nsbsg107
g81
sg288
g0
sg296
(lp1102
g81
asg298
I1
sg299
Nsg300
(dp1103
g302
S'stokesI:q=J163919+624921'
p1104
sg304
g81
sg305
g306
sg307
g306
sg308
S'ra:q=J163919+624921'
p1105
sg310
g306
sg311
S'dec:q=J163919+624921'
p1106
sg313
S'sixpack:q=J163919+624921'
p1107
ssg315
I0
sg316
I0
sg317
F0.0027000000000000001
sbsg30
(iTimba.LSM.LSM
PUnit
p1108
(dp1109
g283
(iTimba.LSM.LSM
SpH
p1110
(dp1111
g286
F1.0955660062012209
sg287
Nsg288
g0
sg289
Nsg290
Nsg291
Nsg292
F4.3429728090737267
sg293
Nsg294
Nsg295
Nsbsg107
g30
sg288
g0
sg296
(lp1112
g30
asg298
I1
sg299
Nsg300
(dp1113
g302
S'stokesI:q=J163520+624616'
p1114
sg304
g30
sg305
g306
sg307
g306
sg308
S'ra:q=J163520+624616'
p1115
sg310
g306
sg311
S'dec:q=J163520+624616'
p1116
sg313
S'sixpack:q=J163520+624616'
p1117
ssg315
I0
sg316
I0
sg317
F0.0077999999999999996
sbsg40
(iTimba.LSM.LSM
PUnit
p1118
(dp1119
g283
(iTimba.LSM.LSM
SpH
p1120
(dp1121
g286
F1.0881775426638478
sg287
Nsg288
g0
sg289
Nsg290
Nsg291
Nsg292
F4.3536414250147502
sg293
Nsg294
Nsg295
Nsbsg107
g40
sg288
g0
sg296
(lp1122
g40
asg298
I1
sg299
Nsg300
(dp1123
g302
S'stokesI:q=J163746+622052'
p1124
sg304
g40
sg305
g306
sg307
g306
sg308
S'ra:q=J163746+622052'
p1125
sg310
g306
sg311
S'dec:q=J163746+622052'
p1126
sg313
S'sixpack:q=J163746+622052'
p1127
ssg315
I0
sg316
I0
sg317
F0.0051000000000000004
sbsg60
(iTimba.LSM.LSM
PUnit
p1128
(dp1129
g283
(iTimba.LSM.LSM
SpH
p1130
(dp1131
g286
F1.0844857349635668
sg287
Nsg288
g0
sg289
Nsg290
Nsg291
Nsg292
F4.3505868806576036
sg293
Nsg294
Nsg295
Nsbsg107
g60
sg288
g0
sg296
(lp1132
g60
asg298
I1
sg299
Nsg300
(dp1133
g302
S'stokesI:q=J163704+620811'
p1134
sg304
g60
sg305
g306
sg307
g306
sg308
S'ra:q=J163704+620811'
p1135
sg310
g306
sg311
S'dec:q=J163704+620811'
p1136
sg313
S'sixpack:q=J163704+620811'
p1137
ssg315
I0
sg316
I0
sg317
F0.0035000000000000001
sbsg29
(iTimba.LSM.LSM
PUnit
p1138
(dp1139
g283
(iTimba.LSM.LSM
SpH
p1140
(dp1141
g286
F1.0911940049063431
sg287
Nsg288
g0
sg289
Nsg290
Nsg291
Nsg292
F4.3390698892560051
sg293
Nsg294
Nsg295
Nsbsg107
g29
sg288
g0
sg296
(lp1142
g29
asg298
I1
sg299
Nsg300
(dp1143
g302
S'stokesI:q=J163426+623114'
p1144
sg304
g29
sg305
g306
sg307
g306
sg308
S'ra:q=J163426+623114'
p1145
sg310
g306
sg311
S'dec:q=J163426+623114'
p1146
sg313
S'sixpack:q=J163426+623114'
p1147
ssg315
I0
sg316
I0
sg317
F0.0077999999999999996
sbsg38
(iTimba.LSM.LSM
PUnit
p1148
(dp1149
g283
(iTimba.LSM.LSM
SpH
p1150
(dp1151
g286
F1.0952631915759998
sg287
Nsg288
g0
sg289
Nsg290
Nsg291
Nsg292
F4.3451781053056733
sg293
Nsg294
Nsg295
Nsbsg107
g38
sg288
g0
sg296
(lp1152
g38
asg298
I1
sg299
Nsg300
(dp1153
g302
S'stokesI:q=J163550+624514'
p1154
sg304
g38
sg305
g306
sg307
g306
sg308
S'ra:q=J163550+624514'
p1155
sg310
g306
sg311
S'dec:q=J163550+624514'
p1156
sg313
S'sixpack:q=J163550+624514'
p1157
ssg315
I0
sg316
I0
sg317
F0.0054999999999999997
sbsg45
(iTimba.LSM.LSM
PUnit
p1158
(dp1159
g283
(iTimba.LSM.LSM
SpH
p1160
(dp1161
g286
F1.0902782403440954
sg287
Nsg288
g0
sg289
Nsg290
Nsg291
Nsg292
F4.3429714273547342
sg293
Nsg294
Nsg295
Nsbsg107
g45
sg288
g0
sg296
(lp1162
g45
asg298
I1
sg299
Nsg300
(dp1163
g302
S'stokesI:q=J163520+622806'
p1164
sg304
g45
sg305
g306
sg307
g306
sg308
S'ra:q=J163520+622806'
p1165
sg310
g306
sg311
S'dec:q=J163520+622806'
p1166
sg313
S'sixpack:q=J163520+622806'
p1167
ssg315
I0
sg316
I0
sg317
F0.0044999999999999997
sbssb.