(dp0
S'add_to_existing'
p1
I00
sS'polrep'
p2
S'linear'
p3
sS'./MG_JEN_exec.stream_control()'
p4
(dp5
S'channel_start_index'
p6
I0
sS'data_column_name'
p7
S'CORRECTED_DATA'
p8
sS'predict_column'
p9
g8
sS'ms_name'
p10
S'@@ms_name'
p11
sS'_JEN_inarg_CTRL_record:'
p12
(dp13
S'localscope'
p14
g4
sS'help'
p15
(dp16
g6
S'(inputrec.sel) index of first selected freq channel'
p17
sg7
S'(inputrec) MS input column'
p18
sg9
S'MS output column to be associated with the VisTile predict-column'
p19
sg10
S'name of the (AIPS++) Measurement Set'
p20
sS'tile_size'
p21
S'(inputrec) size (in time-slots) of the input data-tile'
p22
sS'channel_increment'
p23
S'(inputrec.sel) take every nth channel (1=all)'
p24
sS'channel_end_index'
p25
S'(inputrec.sel) index of last selected freq channel'
p26
sS'write_flags'
p27
S'(outputrec) if True, write flags to MS'
p28
ssS'target_dir'
p29
S'.'
p30
sS'target_module'
p31
S'MG_JEN_exec'
p32
sS'JEN_inargGUI_ident'
p33
(dp34
g6
I21
sg7
I20
sg9
I25
sg27
I24
sg25
I22
sg23
I23
ssS'hide'
p35
(dp36
g10
I01
sg21
I01
ssS'browse'
p37
(dp38
g10
S'*.MS'
p39
ssS'version'
p40
S'20jan2006'
p41
sS'mutable'
p42
(dp43
g10
I00
sg21
I00
ssS'description'
p44
S'** Description of script: MG_JEN_exec::stream_control()  version=20jan2006  defined=2006-03-28 14:55'
p45
sS'editable'
p46
(dp47
g27
I00
ssS'oneliner'
p48
S'MG_JEN_exec::stream_control()  version=20jan2006  defined=2006-03-28 14:55'
p49
sS'choice'
p50
(dp51
g6
(lp52
I0
aI5
aI10
aI20
aS'@@channel_start_index'
p53
asg7
(lp54
S'DATA'
p55
ag8
aS'@@data_column_name'
p56
asg9
(lp57
g55
ag8
aS'MODEL_DATA'
p58
aS'@@predict_column'
p59
asg10
(lp60
S'D1.MS'
p61
ag11
asg21
(lp62
I1
aI2
aI3
aI5
aI10
aI20
aI50
aI100
aS'@@tile_size'
p63
asg23
(lp64
I1
aI2
aI3
aI5
aI10
aS'@@channel_increment'
p65
asg25
(lp66
I-1
aI25
aI50
aI100
aS'@@channel_end_index'
p67
asg27
(lp68
I01
aI00
aS'@@write_flags'
p69
assS'qual'
p70
NsS'last_edited'
p71
S'2006-03-28 14:55'
p72
sS'target_definition'
p73
S'MG_JEN_exec::stream_control()'
p74
sS'inarg_specific'
p75
S'** Specific description of inarg record for: MG_JEN_exec::stream_control()  version=20jan2006  defined=2006-03-28 14:55'
p76
sS'barescope'
p77
S'MG_JEN_execstream_control'
p78
sS'target_function'
p79
S'stream_control'
p80
sS'protected'
p81
I00
sS'datetime_defined'
p82
g72
sS'MESSAGE'
p83
(dp84
S'1'
p85
S'.modify( channel_start_index ): 10  ->  0'
p86
sS'0'
p87
S'.modify( data_column_name ): DATA  ->  CORRECTED_DATA'
p88
sS'2'
p89
S'.modify( channel_end_index ): 50  ->  -1'
p90
ssS'order'
p91
(lp92
g12
ag10
ag21
ag7
ag6
ag25
ag23
ag27
ag9
assg21
g63
sg23
I1
sg25
I-1
sg27
I00
ssS'script_name'
p93
S'MG_JEN_simul'
p94
sg10
g61
sS'parmtable'
p95
S'simul_DJones'
p96
sS'_JEN_inarg_separator_record:_3'
p97
(dp98
S'txt'
p99
S'solver-branch (ParmSet)'
p100
ssS'[solve_uvp]./MG_JEN_Cohset.Jones()'
p101
(dp102
S'@Jsequence_KJones'
p103
Nsg2
S'@@polrep'
p104
sS'stations'
p105
S'@@stations'
p106
sS'[solve_uvp]./MG_JEN_Joneset.KJones()'
p107
(dp108
g2
S'@@polrep'
p109
sg105
S'@@stations'
p110
sg12
(dp111
g73
S'MG_JEN_Joneset::KJones()'
p112
sg14
g107
sg33
(dp113
sg35
(dp114
g103
I01
sS'@Jsequence_simul'
p115
I01
sS'@Jsequence'
p116
I01
sg2
I01
sg105
I01
ssg44
S'defines diagonal KJones matrices for DFT Fourier kernel'
p117
sg29
g30
sg48
S'MG_JEN_Joneset::KJones()  version=12dec2005  defined=2006-03-28 14:55'
p118
sg79
S'KJones'
p119
sg50
(dp120
g103
(lp121
S'KJones'
p122
aS'@@@Jsequence_KJones'
p123
asg115
(lp124
g122
aS'@@@Jsequence_simul'
p125
asg116
(lp126
g122
aS'@@@Jsequence'
p127
asg2
(lp128
g3
aS'circular'
p129
ag109
asg105
(lp130
(lp131
I0
aI1
aI2
aI3
aI4
aa(lp132
I0
aI1
aI2
aI3
aI4
aI5
aI6
aa(lp133
I0
aI1
aI2
aI3
aI4
aI5
aI6
aI7
aI8
aI9
aI10
aI11
aI12
aI13
aa(lp134
I0
aI1
aI2
aI3
aI4
aI5
aI6
aI7
aI8
aI9
aI10
aI11
aI12
aI13
aI14
aaS'range(5)'
p135
ag110
assg70
S'solve_uvp'
p136
sg81
I00
sg82
S'2006-03-28 14:55'
p137
sg40
S'12dec2005'
p138
sg31
S'MG_JEN_Joneset'
p139
sg75
S'** Specific description of inarg record for: MG_JEN_Joneset::KJones()  version=12dec2005  defined=2006-03-28 14:55'
p140
sg42
(dp141
g2
I00
sg105
I00
ssg71
g137
sg91
(lp142
g12
ag105
ag2
ag116
ag115
ag103
asg15
(dp143
g103
S'list membership indication (used in JEN_inargGui)'
p144
sg115
g144
sg116
g144
sg2
S'polarisation representation'
p145
sg105
S'the (subset of) stations to be used'
p146
ssg77
S'MG_JEN_JonesetKJones'
p147
ssg103
g122
sg115
g122
sg116
g122
ssS'Jsequence_solve_uvp'
p148
(lp149
S'DJones_WSRT'
p150
asS'uvplane_effect'
p151
S'@@uvplane_effect'
p152
sg95
g96
sS'[solve_uvp]./MG_JEN_Joneset.BJones()'
p153
(dp154
S'reset_funklet'
p155
I00
sg2
S'@@polrep'
p156
sS'color'
p157
S'red'
p158
sS'subtile_size_Bimag'
p159
S'@subtile_size_Breal'
p160
sS'save_all'
p161
I00
sS'subtile_size_Breal'
p162
NsS'auto_save'
p163
I01
sS'size'
p164
I10
sS'style'
p165
S'circle'
p166
sS'fdeg_Breal'
p167
I5
sS'condeq_corrs'
p168
S'*'
p169
sS'funklet_shape'
p170
Nsg12
(dp171
g14
g153
sg15
(dp172
g155
S'if True, do NOT use any MeqParm table values when solvable'
p173
sg2
g145
sg157
S'plot_color'
p174
sg159
S'sub-tile size (None=entire tile)'
p175
sg161
S'if True, save the update result even if not converged'
p176
sg162
g175
sg163
S'if True, save the result of every iteration (slow!)'
p177
sg164
S'size of plotted symbol'
p178
sg165
S'plot_style'
p179
sg167
S'degree of freq polynomial'
p180
sg168
S'correlations to be used for solving'
p181
sg170
S'shape [time,freq] of default funklet'
p182
sg103
g144
sS'tdeg_Bimag'
p183
S'degree of time polynomial'
p184
sg116
g144
sS'c00_default'
p185
S'default value of c[0,0] coefficient'
p186
sS'fdeg_Bimag'
p187
g180
sg151
S'if True, the Joneset reprsents uv-plane effects (q=uvp)'
p188
sg95
S'name of the MeqParm table to be used'
p189
sg105
g146
sS'tdeg_Breal'
p190
g184
sS'use_previous'
p191
S'if True, start with the previous solution'
p192
sS'subtile_size'
p193
S'size (time-slots) of a domain sub-tile'
p194
sS'tfdeg'
p195
S'(time,freq) polynomial degree'
p196
sg115
g144
ssg29
g30
sg31
S'MG_JEN_Joneset'
p197
sg33
(dp198
g155
I434
sg191
I431
sg161
I433
sg167
I427
sg159
I430
sg190
I425
sg187
I428
sg162
I429
sg183
I426
sg163
I432
ssg35
(dp199
g165
I01
sg2
I01
sg185
I01
sg105
I01
sg157
I01
sg193
I01
sg168
I01
sg151
I01
sg170
I01
sg195
I01
sg95
I01
sg103
I01
sg115
I01
sg164
I01
sg116
I01
ssg40
S'16dec2005'
p200
sg42
(dp201
g151
I00
sg95
I00
sg2
I00
sg105
I00
ssg44
S'Defines diagonal 2x2 Jones matrices that represent the IF bandpass:\n    Bjones(station,source) matrix elements:\n    - B_11 = (Breal_X,Bimag_X)\n    - B_12 = 0\n    - B_21 = 0\n    - B_22 = (Breal_Y,Bimag_Y)\n    For circular polarisation, R and L are used rather than X and Y\n    NB: The main differences with Gjones are:\n      - the higher-order (~5) freq-polynomial\n      - solving for real/imag rather than gain/phase \n    '
p202
sg46
(dp203
g155
I00
sg161
I00
sg163
I00
sg191
I00
ssg48
S'MG_JEN_Joneset::BJones()  version=16dec2005  defined=2006-03-28 14:55'
p204
sg50
(dp205
g155
(lp206
I01
aI00
aS'@@reset_funklet'
p207
asg2
(lp208
g3
ag129
ag156
asg157
(lp209
g158
aS'@@color'
p210
asg159
(lp211
g160
aNaI1
aI2
aI5
aI10
aI20
aI50
aI100
aI200
aI500
aS'@@subtile_size_Bimag'
p212
asg161
(lp213
I01
aI00
aS'@@save_all'
p214
asg162
(lp215
NaI1
aI2
aI5
aI10
aI20
aI50
aI100
aI200
aI500
aS'@@subtile_size_Breal'
p216
asg163
(lp217
I01
aI00
aS'@@auto_save'
p218
asg164
(lp219
I10
aS'@@size'
p220
asg165
(lp221
g166
aS'@@style'
p222
asg167
(lp223
I3
aI4
aI5
aI6
aS'@@fdeg_Breal'
p224
asg168
(lp225
g169
aS'@@condeq_corrs'
p226
asg170
(lp227
NaS'@@funklet_shape'
p228
asg103
(lp229
S'BJones'
p230
aS'@@@Jsequence_KJones'
p231
asg183
(lp232
I0
aI1
aI2
aI3
aS'@tdeg_Breal'
p233
aS'@@tdeg_Bimag'
p234
asg116
(lp235
g230
aS'@@@Jsequence'
p236
asg185
(lp237
F1.0
aS'@@c00_default'
p238
asg187
(lp239
I3
aI4
aI5
aI6
aS'@fdeg_Breal'
p240
aS'@@fdeg_Bimag'
p241
asg151
(lp242
I00
aS'@@uvplane_effect'
p243
asg95
(lp244
NaS'test'
p245
aS'@@parmtable'
p246
asg105
(lp247
(lp248
I0
aI1
aI2
aI3
aI4
aa(lp249
I0
aI1
aI2
aI3
aI4
aI5
aI6
aa(lp250
I0
aI1
aI2
aI3
aI4
aI5
aI6
aI7
aI8
aI9
aI10
aI11
aI12
aI13
aa(lp251
I0
aI1
aI2
aI3
aI4
aI5
aI6
aI7
aI8
aI9
aI10
aI11
aI12
aI13
aI14
aag135
aS'@@stations'
p252
asg190
(lp253
I0
aI1
aI2
aI3
aS'@@tdeg_Breal'
p254
asg191
(lp255
I01
aI00
aS'@@use_previous'
p256
asg193
(lp257
NaS'@@subtile_size'
p258
asg195
(lp259
NaS'@@tfdeg'
p260
asg115
(lp261
g230
aS'@@@Jsequence_simul'
p262
assg70
g136
sg71
S'2006-03-28 14:55'
p263
sg73
S'MG_JEN_Joneset::BJones()'
p264
sg75
S'** Specific description of inarg record for: MG_JEN_Joneset::BJones()  version=16dec2005  defined=2006-03-28 14:55'
p265
sg77
S'MG_JEN_JonesetBJones'
p266
sg79
S'BJones'
p267
sg81
I00
sg82
g263
sg83
(dp268
g87
S'.modify( parmtable ): @@parmtable  ->  simul_DJones'
p269
ssg91
(lp270
g12
ag105
ag2
ag116
ag115
ag103
ag95
ag151
ag190
ag183
ag167
ag187
ag162
ag159
ag191
ag163
ag161
ag155
ag157
ag165
ag164
ag185
ag195
ag170
ag193
ag168
assg103
g230
sg183
g233
sg116
g230
sg185
F1.0
sg187
g240
sg151
g243
sg105
g252
sg195
Nsg190
I0
sg191
I01
sg193
Nsg95
g96
sg115
g230
ssg12
(dp271
g73
S'MG_JEN_Cohset::Jones()'
p272
sg14
g101
sg33
(dp273
g148
I369
ssg35
(dp274
g2
I01
sg105
I01
sg151
I01
sg95
I01
sg103
I01
sg115
I01
sg116
I01
ssg77
S'MG_JEN_CohsetJones'
p275
sg29
g30
sg44
S'Make a Joneset by creating and multiplying a sequence of one ore more Jonesets'
p276
sg48
S'MG_JEN_Cohset::Jones()  version=25dec2005  defined=2006-03-28 14:55'
p277
sg79
S'Jones'
p278
sg50
(dp279
g2
(lp280
g3
ag129
ag104
asg105
(lp281
(lp282
I0
aI1
aI2
aI3
aI4
aa(lp283
I0
aI1
aI2
aI3
aI4
aI5
aI6
aa(lp284
I0
aI1
aI2
aI3
aI4
aI5
aI6
aI7
aI8
aI9
aI10
aI11
aI12
aI13
aa(lp285
I0
aI1
aI2
aI3
aI4
aI5
aI6
aI7
aI8
aI9
aI10
aI11
aI12
aI13
aI14
aag135
ag106
asg148
(lp286
(lp287
S'GJones'
p288
aa(lp289
g230
aa(lp290
S'FJones'
p291
aa(lp292
g122
aa(lp293
g150
aa(lp294
g288
ag150
aa(lp295
S'JJones'
p296
aa(lp297
aS'@@Jsequence_solve_uvp'
p298
asg151
(lp299
I00
ag152
asg95
(lp300
Nag245
aS'@@parmtable'
p301
asg103
(lp302
NaS'@@@Jsequence_KJones'
p303
asg115
(lp304
NaS'@@@Jsequence_simul'
p305
asg116
(lp306
NaS'@@@Jsequence'
p307
assg70
g136
sg81
I00
sg82
S'2006-03-28 14:55'
p308
sg40
S'25dec2005'
p309
sg31
S'MG_JEN_Cohset'
p310
sg75
S'** Specific description of inarg record for: MG_JEN_Cohset::Jones()  version=25dec2005  defined=2006-03-28 14:55'
p311
sg83
(dp312
g85
S'** JEN_inarg.attach(): attached: [solve_uvp]./MG_JEN_Joneset.FJones()'
p313
sg87
S'** JEN_inarg.attach(): attached: [solve_uvp]./MG_JEN_Joneset.GJones()'
p314
sS'3'
p315
S'** JEN_inarg.attach(): attached: [solve_uvp]./MG_JEN_Joneset.KJones()'
p316
sg89
S'** JEN_inarg.attach(): attached: [solve_uvp]./MG_JEN_Joneset.BJones()'
p317
sS'5'
p318
S'** JEN_inarg.attach(): attached: [solve_uvp]./MG_JEN_Joneset.JJones()'
p319
sS'4'
p320
S'** JEN_inarg.attach(): attached: [solve_uvp]./MG_JEN_Joneset.DJones_WSRT()'
p321
sS'7'
p322
S'.modify( parmtable ): @@parmtable  ->  simul_DJones'
p323
sS'6'
p324
S".modify( Jsequence_solve_uvp ): []  ->  ['DJones_WSRT']"
p325
ssg71
g308
sg42
(dp326
g151
I00
sg95
I00
sg2
I00
sg105
I00
ssg91
(lp327
g12
ag105
ag2
ag116
ag115
ag103
ag95
ag151
ag148
aS'[solve_uvp]./MG_JEN_Joneset.GJones()'
p328
aS'[solve_uvp]./MG_JEN_Joneset.FJones()'
p329
ag153
ag107
aS'[solve_uvp]./MG_JEN_Joneset.DJones_WSRT()'
p330
aS'[solve_uvp]./MG_JEN_Joneset.JJones()'
p331
asg15
(dp332
g2
g145
sg105
g146
sg148
S'sequence of Jones matrices to be used'
p333
sg151
g188
sg95
g189
sg103
g144
sg115
g144
sg116
g144
sssg328
(dp334
g155
I00
sg2
S'@@polrep'
p335
sS'fdeg_Ggain'
p336
I0
sg157
g158
sg161
I00
sg95
g96
sg163
I01
sg164
I10
sg165
g166
sS'subtile_size_Ggain'
p337
I1
sg168
g169
sg170
Nsg12
(dp338
g14
g328
sg15
(dp339
g155
g173
sg2
g145
sg336
S'degree of freq polynomial'
p340
sg157
g174
sg161
g176
sg95
g189
sg163
g177
sg164
g178
sg165
g179
sg337
S'sub-tile size (None=entire tile)'
p341
sg168
g181
sg170
g182
sg103
g144
sg116
g144
sg185
g186
sS'tdeg_Gphase'
p342
S'degree of time polynomial'
p343
sS'tdeg_Ggain'
p344
g343
sS'fdeg_Gphase'
p345
g340
sS'subtile_size_Gphase'
p346
g341
sS'Gpolar'
p347
S'obsolete, kept only for upward compatibility'
p348
sg151
g188
sg105
g146
sg191
g192
sg193
g194
sg195
g196
sg115
g144
ssg29
g30
sg31
S'MG_JEN_Joneset'
p349
sg33
(dp350
g155
I387
sg336
I380
sg337
I382
sg342
I379
sg191
I384
sg344
I378
sg345
I381
sg346
I383
sg161
I386
sg163
I385
ssg35
(dp351
g164
I01
sg165
I01
sg2
I01
sg185
I01
sg105
I01
sg157
I01
sg193
I01
sg168
I01
sg151
I01
sg170
I01
sg195
I01
sg95
I01
sg103
I01
sg115
I01
sg347
I01
sg116
I01
ssg40
S'15dec2005'
p352
sg42
(dp353
g151
I00
sg95
I00
sg2
I00
sg105
I00
ssg44
S'Defines diagonal 2x2 Jones matrices that represent complex gain:\n    Gjones(station,source) matrix elements:\n    - G_11 = Ggain_X*exp(iGphase_X)\n    - G_12 = 0\n    - G_21 = 0\n    - G_22 = Ggain_Y*exp(iGphase_Y)\n    For circular polarisation, R and L are used rather than X and Y\n    '
p354
sg46
(dp355
g155
I00
sg347
I00
sg161
I00
sg163
I00
sg191
I00
ssg48
S'MG_JEN_Joneset::GJones()  version=15dec2005  defined=2006-03-28 14:55'
p356
sg50
(dp357
g155
(lp358
I01
aI00
aS'@@reset_funklet'
p359
asg2
(lp360
g3
ag129
ag335
asg336
(lp361
I0
aI1
aI2
aI3
aS'@@fdeg_Ggain'
p362
asg157
(lp363
g158
aS'@@color'
p364
asg161
(lp365
I01
aI00
aS'@@save_all'
p366
asg95
(lp367
Nag245
aS'@@parmtable'
p368
asg163
(lp369
I01
aI00
aS'@@auto_save'
p370
asg164
(lp371
I10
aS'@@size'
p372
asg165
(lp373
g166
aS'@@style'
p374
asg337
(lp375
NaI1
aI2
aI5
aI10
aI20
aI50
aI100
aI200
aI500
aS'@@subtile_size_Ggain'
p376
asg168
(lp377
g169
aS'@@condeq_corrs'
p378
asg170
(lp379
NaS'@@funklet_shape'
p380
asg103
(lp381
g288
aS'@@@Jsequence_KJones'
p382
asg116
(lp383
g288
aS'@@@Jsequence'
p384
asg185
(lp385
F1.0
aS'@@c00_default'
p386
asg342
(lp387
I0
aI1
aI2
aI3
aS'@tdeg_Ggain'
p388
aS'@@tdeg_Gphase'
p389
asg344
(lp390
I0
aI1
aI2
aI3
aS'@@tdeg_Ggain'
p391
asg345
(lp392
I0
aI1
aI2
aI3
aS'@fdeg_Ggain'
p393
aS'@@fdeg_Gphase'
p394
asg346
(lp395
S'@subtile_size_Ggain'
p396
aNaI1
aI2
aI5
aI10
aI20
aI50
aI100
aI200
aI500
aS'@@subtile_size_Gphase'
p397
asg347
(lp398
I01
aI00
aS'@@Gpolar'
p399
asg151
(lp400
I00
aS'@@uvplane_effect'
p401
asg105
(lp402
(lp403
I0
aI1
aI2
aI3
aI4
aa(lp404
I0
aI1
aI2
aI3
aI4
aI5
aI6
aa(lp405
I0
aI1
aI2
aI3
aI4
aI5
aI6
aI7
aI8
aI9
aI10
aI11
aI12
aI13
aa(lp406
I0
aI1
aI2
aI3
aI4
aI5
aI6
aI7
aI8
aI9
aI10
aI11
aI12
aI13
aI14
aag135
aS'@@stations'
p407
asg191
(lp408
I01
aI00
aS'@@use_previous'
p409
asg193
(lp410
NaS'@@subtile_size'
p411
asg195
(lp412
NaS'@@tfdeg'
p413
asg115
(lp414
g288
aS'@@@Jsequence_simul'
p415
assg70
g136
sg71
S'2006-03-28 14:55'
p416
sg73
S'MG_JEN_Joneset::GJones()'
p417
sg75
S'** Specific description of inarg record for: MG_JEN_Joneset::GJones()  version=15dec2005  defined=2006-03-28 14:55'
p418
sg77
S'MG_JEN_JonesetGJones'
p419
sg79
S'GJones'
p420
sg81
I00
sg82
g416
sg83
(dp421
g87
S'.modify( parmtable ): @@parmtable  ->  simul_DJones'
p422
ssg91
(lp423
g12
ag105
ag2
ag116
ag115
ag103
ag347
ag95
ag151
ag344
ag342
ag336
ag345
ag337
ag346
ag191
ag163
ag161
ag155
ag157
ag165
ag164
ag185
ag195
ag170
ag193
ag168
assg103
g288
sg116
g288
sg185
F1.0
sg342
g388
sg344
I0
sg345
g393
sg346
g396
sg347
I01
sg151
g401
sg105
g407
sg191
I01
sg193
Nsg195
Nsg115
g288
ssg330
(dp424
g155
I00
sg2
S'@@polrep'
p425
sg157
g158
sS'fdeg_Dell'
p426
S'@fdeg_Dang'
p427
sS'coupled_XY_Dell'
p428
I01
sg161
I00
sg95
g96
sS'subtile_size_Dang'
p429
Nsg163
I01
sg164
I10
sg165
g166
sg168
g169
sg170
Nsg12
(dp430
g14
g330
sg15
(dp431
g155
g173
sg2
g145
sg157
g174
sg426
S'degree of freq polynomial'
p432
sg428
S'if True, XDell = -YDell per station'
p433
sg161
g176
sg95
g189
sg429
S'sub-tile size (None=entire tile)'
p434
sg163
g177
sg164
g178
sg165
g179
sg168
g181
sg170
g182
sg103
g144
sS'subtile_size_Dell'
p435
g434
sg116
g144
sS'fdeg_Dang'
p436
g432
sg185
g186
sg151
g188
sS'tdeg_Dell'
p437
S'degree of time polynomial'
p438
sS'coupled_XY_Dang'
p439
S'if True, XDang = YDang per station'
p440
sS'tdeg_Dang'
p441
g438
sg105
g146
sg191
g192
sg193
g194
sg195
g196
sg115
g144
ssg29
g30
sg31
S'MG_JEN_Joneset'
p442
sg33
(dp443
g436
I459
sg155
I466
sg426
I460
sg428
I454
sg191
I463
sg163
I464
sg437
I458
sg439
I453
sg161
I465
sg429
I461
sg435
I462
sg441
I457
ssg35
(dp444
g165
I01
sg2
I01
sg185
I01
sg105
I01
sg157
I01
sg193
I01
sg168
I01
sg151
I01
sg170
I01
sg195
I01
sg95
I01
sg103
I01
sg115
I01
sg164
I01
sg116
I01
ssg40
g200
sg42
(dp445
g151
I00
sg95
I00
sg2
I00
sg105
I00
ssg44
S'defines 2x2 DJones_WSRT (polarisation leakage) matrices'
p446
sg46
(dp447
g155
I00
sg428
I00
sg161
I00
sg439
I00
sg191
I00
sg163
I00
ssg48
S'MG_JEN_Joneset::DJones_WSRT()  version=16dec2005  defined=2006-03-28 14:55'
p448
sg50
(dp449
g155
(lp450
I01
aI00
aS'@@reset_funklet'
p451
asg2
(lp452
g3
ag129
ag425
asg157
(lp453
g158
aS'@@color'
p454
asg426
(lp455
I0
aI1
aI2
aI3
ag427
aS'@@fdeg_Dell'
p456
asg428
(lp457
I01
aI00
aS'@@coupled_XY_Dell'
p458
asg161
(lp459
I01
aI00
aS'@@save_all'
p460
asg95
(lp461
Nag245
aS'@@parmtable'
p462
asg429
(lp463
NaI1
aI2
aI5
aI10
aI20
aI50
aI100
aI200
aI500
aS'@@subtile_size_Dang'
p464
asg163
(lp465
I01
aI00
aS'@@auto_save'
p466
asg164
(lp467
I10
aS'@@size'
p468
asg165
(lp469
g166
aS'@@style'
p470
asg168
(lp471
g169
aS'@@condeq_corrs'
p472
asg170
(lp473
NaS'@@funklet_shape'
p474
asg103
(lp475
g150
aS'@@@Jsequence_KJones'
p476
asg435
(lp477
S'@subtile_size_Dang'
p478
aNaI1
aI2
aI5
aI10
aI20
aI50
aI100
aI200
aI500
aS'@@subtile_size_Dell'
p479
asg116
(lp480
g150
aS'@@@Jsequence'
p481
asg436
(lp482
I0
aI1
aI2
aI3
aS'@@fdeg_Dang'
p483
asg185
(lp484
F1.0
aS'@@c00_default'
p485
asg151
(lp486
I00
aS'@@uvplane_effect'
p487
asg437
(lp488
I0
aI1
aI2
aI3
aS'@tdeg_Dang'
p489
aS'@@tdeg_Dell'
p490
asg439
(lp491
I01
aI00
aS'@@coupled_XY_Dang'
p492
asg441
(lp493
I0
aI1
aI2
aI3
aS'@@tdeg_Dang'
p494
asg105
(lp495
(lp496
I0
aI1
aI2
aI3
aI4
aa(lp497
I0
aI1
aI2
aI3
aI4
aI5
aI6
aa(lp498
I0
aI1
aI2
aI3
aI4
aI5
aI6
aI7
aI8
aI9
aI10
aI11
aI12
aI13
aa(lp499
I0
aI1
aI2
aI3
aI4
aI5
aI6
aI7
aI8
aI9
aI10
aI11
aI12
aI13
aI14
aag135
aS'@@stations'
p500
asg191
(lp501
I01
aI00
aS'@@use_previous'
p502
asg193
(lp503
NaS'@@subtile_size'
p504
asg195
(lp505
NaS'@@tfdeg'
p506
asg115
(lp507
g150
aS'@@@Jsequence_simul'
p508
assg70
g136
sg71
S'2006-03-28 14:55'
p509
sg73
S'MG_JEN_Joneset::DJones_WSRT()'
p510
sg75
S'** Specific description of inarg record for: MG_JEN_Joneset::DJones_WSRT()  version=16dec2005  defined=2006-03-28 14:55'
p511
sg77
S'MG_JEN_JonesetDJones_WSRT'
p512
sg79
S'DJones_WSRT'
p513
sg81
I00
sg82
g509
sg83
(dp514
g87
S'.modify( parmtable ): @@parmtable  ->  simul_DJones'
p515
ssg91
(lp516
g12
ag105
ag2
ag116
ag115
ag103
ag439
ag428
ag95
ag151
ag441
ag437
ag436
ag426
ag429
ag435
ag191
ag163
ag161
ag155
ag157
ag165
ag164
ag185
ag195
ag170
ag193
ag168
assg103
g150
sg435
g478
sg116
g150
sg436
I0
sg185
F1.0
sg151
g487
sg437
g489
sg439
I01
sg441
I0
sg105
g500
sg191
I01
sg193
Nsg195
Nsg115
g150
ssg331
(dp517
g155
I00
sg2
S'@@polrep'
p518
sS'tdeg_Jreal'
p519
I0
sg157
g158
sg161
I00
sS'all4_always'
p520
Nsg95
g96
sS'subtile_size_Jreal'
p521
Nsg163
I01
sg164
I10
sg165
g166
sS'tdeg_Jimag'
p522
S'@tdeg_Jreal'
p523
sg168
g169
sg170
Nsg12
(dp524
g14
g331
sg15
(dp525
g155
g173
sg2
g145
sg519
S'degree of time polynomial'
p526
sg157
g174
sg161
g176
sg520
S'stations for which all 4 elements will always be solved for'
p527
sg95
g189
sg521
S'sub-tile size (None=entire tile)'
p528
sg163
g177
sg164
g178
sg165
g179
sg522
g526
sg168
g181
sg170
g182
sg103
g144
sS'fdeg_Jreal'
p529
S'degree of freq polynomial'
p530
sg185
g186
sg151
g188
sS'fdeg_Jimag'
p531
g530
sS'subtile_size_Jimag'
p532
g528
sg105
g146
sS'diagonal_only'
p533
S'if True, solve for diagonal (11,22) elements only'
p534
sg191
g192
sg193
g194
sg195
g196
sg115
g144
sg116
g144
ssg29
g30
sg31
S'MG_JEN_Joneset'
p535
sg33
(dp536
g155
I493
sg532
I489
sg522
I485
sg161
I492
sg519
I484
sg533
I480
sg191
I490
sg520
I481
sg531
I487
sg521
I488
sg163
I491
sg529
I486
ssg35
(dp537
g165
I01
sg2
I01
sg185
I01
sg105
I01
sg157
I01
sg193
I01
sg168
I01
sg151
I01
sg170
I01
sg195
I01
sg95
I01
sg103
I01
sg115
I01
sg164
I01
sg116
I01
ssg40
S'14feb2006'
p538
sg42
(dp539
g151
I00
sg95
I00
sg2
I00
sg105
I00
ssg44
S'Defines diagonal 2x2 Jones matrices for full polarisation:\n    Jjones(station,source) matrix elements:\n    - J_11 = (Jreal_11,Jimag_11)\n    - J_12 = (Jreal_12,Jimag_12)\n    - J_21 = (Jreal_21,Jimag_21)\n    - J_22 = (Jreal_22,Jimag_22)\n    For circular polarisation, R and L are used rather than X and Y\n    '
p540
sg46
(dp541
g155
I00
sg533
I00
sg161
I00
sg163
I00
sg191
I00
ssg48
S'MG_JEN_Joneset::JJones()  version=14feb2006  defined=2006-03-28 14:55'
p542
sg50
(dp543
g155
(lp544
I01
aI00
aS'@@reset_funklet'
p545
asg2
(lp546
g3
ag129
ag518
asg519
(lp547
I0
aI1
aI2
aI3
aS'@@tdeg_Jreal'
p548
asg157
(lp549
g158
aS'@@color'
p550
asg161
(lp551
I01
aI00
aS'@@save_all'
p552
asg520
(lp553
Na(lp554
I14
aa(lp555
I1
aaS'WSRT/WHAT'
p556
aS'@@all4_always'
p557
asg95
(lp558
Nag245
aS'@@parmtable'
p559
asg521
(lp560
NaI1
aI2
aI5
aI10
aI20
aI50
aI100
aI200
aI500
aS'@@subtile_size_Jreal'
p561
asg163
(lp562
I01
aI00
aS'@@auto_save'
p563
asg164
(lp564
I10
aS'@@size'
p565
asg165
(lp566
g166
aS'@@style'
p567
asg522
(lp568
I0
aI1
aI2
aI3
ag523
aS'@@tdeg_Jimag'
p569
asg168
(lp570
g169
aS'@@condeq_corrs'
p571
asg170
(lp572
NaS'@@funklet_shape'
p573
asg103
(lp574
g296
aS'@@@Jsequence_KJones'
p575
asg529
(lp576
I0
aI1
aI2
aI3
aS'@@fdeg_Jreal'
p577
asg185
(lp578
F1.0
aS'@@c00_default'
p579
asg151
(lp580
I00
aS'@@uvplane_effect'
p581
asg531
(lp582
I0
aI1
aI2
aI3
aS'@fdeg_Jreal'
p583
aS'@@fdeg_Jimag'
p584
asg532
(lp585
S'@subtile_size_Jreal'
p586
aNaI1
aI2
aI5
aI10
aI20
aI50
aI100
aI200
aI500
aS'@@subtile_size_Jimag'
p587
asg105
(lp588
(lp589
I0
aI1
aI2
aI3
aI4
aa(lp590
I0
aI1
aI2
aI3
aI4
aI5
aI6
aa(lp591
I0
aI1
aI2
aI3
aI4
aI5
aI6
aI7
aI8
aI9
aI10
aI11
aI12
aI13
aa(lp592
I0
aI1
aI2
aI3
aI4
aI5
aI6
aI7
aI8
aI9
aI10
aI11
aI12
aI13
aI14
aag135
aS'@@stations'
p593
asg533
(lp594
I01
aI00
aS'@@diagonal_only'
p595
asg191
(lp596
I01
aI00
aS'@@use_previous'
p597
asg193
(lp598
NaS'@@subtile_size'
p599
asg195
(lp600
NaS'@@tfdeg'
p601
asg115
(lp602
g296
aS'@@@Jsequence_simul'
p603
asg116
(lp604
g296
aS'@@@Jsequence'
p605
assg70
g136
sg71
S'2006-03-28 14:55'
p606
sg73
S'MG_JEN_Joneset::JJones()'
p607
sg75
S'** Specific description of inarg record for: MG_JEN_Joneset::JJones()  version=14feb2006  defined=2006-03-28 14:55'
p608
sg77
S'MG_JEN_JonesetJJones'
p609
sg79
S'JJones'
p610
sg81
I00
sg82
g606
sg83
(dp611
g87
S'.modify( parmtable ): @@parmtable  ->  simul_DJones'
p612
ssg91
(lp613
g12
ag105
ag2
ag116
ag115
ag103
ag533
ag520
ag95
ag151
ag519
ag522
ag529
ag531
ag521
ag532
ag191
ag163
ag161
ag155
ag157
ag165
ag164
ag185
ag195
ag170
ag193
ag168
assg103
g296
sg529
I0
sg185
F1.0
sg151
g581
sg531
g583
sg532
g586
sg105
g593
sg533
I00
sg191
I01
sg193
Nsg195
Nsg115
g296
sg116
g296
ssg115
Nsg116
Nsg329
(dp614
g155
I00
sg2
S'@@polrep'
p615
sg157
g158
sg161
I00
sg195
Nsg163
I01
sg164
I10
sg165
g166
sg168
g169
sg170
Nsg12
(dp616
g14
g329
sg15
(dp617
g155
g173
sg2
g145
sg157
g174
sg161
g176
sg195
g196
sg163
g177
sg164
g178
sg165
g179
sg168
g181
sg170
g182
sg103
g144
sg116
g144
sg185
g186
sg151
g188
sg105
g146
sS'tdeg_RM'
p618
S'degree of time polynomial'
p619
sg191
g192
sS'fdeg_RM'
p620
S'degree of freq polynomial'
p621
sg193
g194
sg95
g189
sS'subtile_size_RM'
p622
S'sub-tile size (None=entire tile)'
p623
sg115
g144
ssg29
g30
sg31
S'MG_JEN_Joneset'
p624
sg33
(dp625
g155
I409
sg618
I403
sg191
I406
sg620
I404
sg622
I405
sg161
I408
sg163
I407
ssg35
(dp626
g165
I01
sg2
I01
sg185
I01
sg105
I01
sg157
I01
sg193
I01
sg168
I01
sg151
I01
sg170
I01
sg195
I01
sg95
I01
sg103
I01
sg115
I01
sg164
I01
sg116
I01
ssg40
g200
sg42
(dp627
g151
I00
sg95
I00
sg2
I00
sg105
I00
ssg44
S'defines diagonal FJones Faraday rotation matrices'
p628
sg46
(dp629
g155
I00
sg161
I00
sg163
I00
sg191
I00
ssg48
S'MG_JEN_Joneset::FJones()  version=16dec2005  defined=2006-03-28 14:55'
p630
sg50
(dp631
g155
(lp632
I01
aI00
aS'@@reset_funklet'
p633
asg2
(lp634
g3
ag129
ag615
asg157
(lp635
g158
aS'@@color'
p636
asg161
(lp637
I01
aI00
aS'@@save_all'
p638
asg195
(lp639
NaS'@@tfdeg'
p640
asg163
(lp641
I01
aI00
aS'@@auto_save'
p642
asg164
(lp643
I10
aS'@@size'
p644
asg165
(lp645
g166
aS'@@style'
p646
asg168
(lp647
g169
aS'@@condeq_corrs'
p648
asg170
(lp649
NaS'@@funklet_shape'
p650
asg103
(lp651
g291
aS'@@@Jsequence_KJones'
p652
asg116
(lp653
g291
aS'@@@Jsequence'
p654
asg185
(lp655
F1.0
aS'@@c00_default'
p656
asg151
(lp657
I00
aS'@@uvplane_effect'
p658
asg105
(lp659
(lp660
I0
aI1
aI2
aI3
aI4
aa(lp661
I0
aI1
aI2
aI3
aI4
aI5
aI6
aa(lp662
I0
aI1
aI2
aI3
aI4
aI5
aI6
aI7
aI8
aI9
aI10
aI11
aI12
aI13
aa(lp663
I0
aI1
aI2
aI3
aI4
aI5
aI6
aI7
aI8
aI9
aI10
aI11
aI12
aI13
aI14
aag135
aS'@@stations'
p664
asg618
(lp665
I0
aI1
aI2
aI3
aS'@@tdeg_RM'
p666
asg191
(lp667
I01
aI00
aS'@@use_previous'
p668
asg620
(lp669
I0
aI1
aI2
aI3
aS'@@fdeg_RM'
p670
asg193
(lp671
NaS'@@subtile_size'
p672
asg95
(lp673
Nag245
aS'@@parmtable'
p674
asg622
(lp675
NaI1
aI2
aI5
aI10
aI20
aI50
aI100
aI200
aI500
aS'@@subtile_size_RM'
p676
asg115
(lp677
g291
aS'@@@Jsequence_simul'
p678
assg70
g136
sg71
S'2006-03-28 14:55'
p679
sg73
S'MG_JEN_Joneset::FJones()'
p680
sg75
S'** Specific description of inarg record for: MG_JEN_Joneset::FJones()  version=16dec2005  defined=2006-03-28 14:55'
p681
sg77
S'MG_JEN_JonesetFJones'
p682
sg79
S'FJones'
p683
sg81
I00
sg82
g679
sg83
(dp684
g87
S'.modify( parmtable ): @@parmtable  ->  simul_DJones'
p685
ssg91
(lp686
g12
ag105
ag2
ag116
ag115
ag103
ag95
ag151
ag618
ag620
ag622
ag191
ag163
ag161
ag155
ag157
ag165
ag164
ag185
ag195
ag170
ag193
ag168
assg103
g291
sg116
g291
sg185
F1.0
sg151
g658
sg105
g664
sg618
I0
sg191
I01
sg620
I2
sg193
Nsg95
g96
sg622
I1
sg115
g291
sssS'LSM_solve'
p687
NsS'[simul_uvp]./MG_JEN_Cohset.Jones()'
p688
(dp689
S'[simul_uvp]./MG_JEN_Joneset.JJones()'
p690
(dp691
S'unop'
p692
S'Cos'
p693
sg533
I00
sg2
S'@@polrep'
p694
sg157
S'yellow'
p695
sS'stddev_period'
p696
F0.10000000000000001
sg520
NsS'fdeg'
p697
I0
sg164
I5
sS'mean_period_s'
p698
I500
sS'mean_tampl'
p699
F0.20000000000000001
sg12
(dp700
g73
S'MG_JEN_Joneset::JJones()'
p701
sg14
g690
sg33
(dp702
g692
I168
sg698
I176
sS'stddev_period_s'
p703
I178
sg696
I167
sg699
I177
sg533
I162
sS'mean_period'
p704
I166
sg520
I163
sS'stddev_c00'
p705
I165
sS'mean_c00'
p706
I164
sS'stddev_tampl'
p707
I179
ssg35
(dp708
g692
I00
sg165
I01
sg2
I01
sg185
I01
sg105
I01
sg157
I01
sS'timescale_min'
p709
I01
sg697
I01
sS'c00_scale'
p710
I01
sg103
I01
sg115
I01
sg164
I01
sg116
I01
ssg44
g540
sg29
g30
sg48
S'MG_JEN_Joneset::JJones()  version=14feb2006  defined=2006-03-28 14:55'
p711
sg79
S'JJones'
p712
sg50
(dp713
g692
(lp714
g693
aS'Sin'
p715
a(lp716
g693
ag715
aaNaS'@@unop'
p717
asg165
(lp718
S'triangle'
p719
aS'@@style'
p720
asg709
(lp721
I20
aS'@@timescale_min'
p722
asg2
(lp723
g3
ag129
ag694
asg185
(lp724
F1.0
aS'@@c00_default'
p725
asg105
(lp726
(lp727
I0
aI1
aI2
aI3
aI4
aa(lp728
I0
aI1
aI2
aI3
aI4
aI5
aI6
aa(lp729
I0
aI1
aI2
aI3
aI4
aI5
aI6
aI7
aI8
aI9
aI10
aI11
aI12
aI13
aa(lp730
I0
aI1
aI2
aI3
aI4
aI5
aI6
aI7
aI8
aI9
aI10
aI11
aI12
aI13
aI14
aag135
aS'@@stations'
p731
asg157
(lp732
g695
aS'@@color'
p733
asg696
(lp734
I0
aF0.01
aF0.10000000000000001
aF0.20000000000000001
aF0.5
aS'@@stddev_period'
p735
asg533
(lp736
I01
aI00
aS'@@diagonal_only'
p737
asg704
(lp738
F0.29999999999999999
aF0.5
aI1
aI2
aI3
aS'@@mean_period'
p739
asg710
(lp740
F1.0
aS'@@c00_scale'
p741
asg520
(lp742
Na(lp743
I14
aa(lp744
I1
aag556
aS'@@all4_always'
p745
asg705
(lp746
I0
aF0.0001
aF0.001
aF0.01
aF0.10000000000000001
aI1
aS'@@stddev_c00'
p747
asg697
(lp748
I0
aS'@@fdeg'
p749
asg706
(lp750
I0
aF0.10000000000000001
aF0.20000000000000001
aF0.5
aF-0.10000000000000001
aS'@@mean_c00'
p751
asg103
(lp752
g296
aS'@@@Jsequence_KJones'
p753
asg115
(lp754
g296
aS'@@@Jsequence_simul'
p755
asg164
(lp756
I5
aS'@@size'
p757
asg116
(lp758
g296
aS'@@@Jsequence'
p759
assg70
S'simul_uvp'
p760
sg81
I00
sg82
S'2006-03-28 14:55'
p761
sg40
g538
sg31
S'MG_JEN_Joneset'
p762
sg46
(dp763
g533
I00
ssg75
S'** Specific description of inarg record for: MG_JEN_Joneset::JJones()  version=14feb2006  defined=2006-03-28 14:55'
p764
sg42
(dp765
g2
I00
sg105
I00
ssg71
g761
sg91
(lp766
g12
ag105
ag2
ag116
ag115
ag103
ag533
ag520
ag706
ag705
ag704
ag696
ag692
ag709
ag697
ag157
ag165
ag164
ag185
ag710
ag698
ag699
ag703
ag707
asg15
(dp767
g692
S'time-variability function'
p768
sg165
g179
sg709
S'group timescale in minutes'
p769
sg2
g145
sg185
S'default value of c00'
p770
sg105
g146
sg157
g174
sg696
S'scatter in period T (fraction of timescale_min)'
p771
sg533
g534
sg704
S'mean time-period T (fraction of timescale_min)'
p772
sg710
S'scale of c00'
p773
sg520
g527
sg705
S'scatter in EXTRA c00 (fraction of c00_scale'
p774
sg697
S'degree of freq polynomial'
p775
sg706
S'mean of EXTRA c00 (fraction of c00_scale)'
p776
sg103
g144
sg115
g144
sg164
S'size of plotted symbol'
p777
sg116
g144
ssg77
S'MG_JEN_JonesetJJones'
p778
ssg103
g296
sg116
g296
sg703
I50
sg185
F1.0
sg165
g719
sg706
F0.10000000000000001
sg105
g731
sg709
I20
sg704
F1.0
sg705
F0.01
sg710
F1.0
sg115
g296
sg707
F0.02
ssg2
S'@@polrep'
p779
sg151
S'@@uvplane_effect'
p780
sS'[simul_uvp]./MG_JEN_Joneset.BJones()'
p781
(dp782
g692
g693
sg2
S'@@polrep'
p783
sg157
g695
sg696
F0.10000000000000001
sg697
I0
sg164
I5
sg165
g719
sg699
F0.20000000000000001
sg12
(dp784
g73
S'MG_JEN_Joneset::BJones()'
p785
sg14
g781
sg33
(dp786
g692
I117
sg698
I127
sg703
I126
sg696
I116
sg699
I125
sg704
I115
sg705
I114
sg706
I113
sg707
I128
ssg35
(dp787
g692
I00
sg165
I01
sg2
I01
sg185
I01
sg105
I01
sg157
I01
sg709
I01
sg697
I01
sg710
I01
sg103
I01
sg115
I01
sg164
I01
sg116
I01
ssg44
g202
sg29
g30
sg48
S'MG_JEN_Joneset::BJones()  version=16dec2005  defined=2006-03-28 14:55'
p788
sg79
S'BJones'
p789
sg50
(dp790
g692
(lp791
g693
ag715
a(lp792
g693
ag715
aaNaS'@@unop'
p793
asg165
(lp794
g719
aS'@@style'
p795
asg2
(lp796
g3
ag129
ag783
asg185
(lp797
F1.0
aS'@@c00_default'
p798
asg105
(lp799
(lp800
I0
aI1
aI2
aI3
aI4
aa(lp801
I0
aI1
aI2
aI3
aI4
aI5
aI6
aa(lp802
I0
aI1
aI2
aI3
aI4
aI5
aI6
aI7
aI8
aI9
aI10
aI11
aI12
aI13
aa(lp803
I0
aI1
aI2
aI3
aI4
aI5
aI6
aI7
aI8
aI9
aI10
aI11
aI12
aI13
aI14
aag135
aS'@@stations'
p804
asg157
(lp805
g695
aS'@@color'
p806
asg696
(lp807
I0
aF0.01
aF0.10000000000000001
aF0.20000000000000001
aF0.5
aS'@@stddev_period'
p808
asg709
(lp809
I20
aS'@@timescale_min'
p810
asg710
(lp811
F1.0
aS'@@c00_scale'
p812
asg704
(lp813
F0.29999999999999999
aF0.5
aI1
aI2
aI3
aS'@@mean_period'
p814
asg705
(lp815
I0
aF0.0001
aF0.001
aF0.01
aF0.10000000000000001
aI1
aS'@@stddev_c00'
p816
asg697
(lp817
I0
aS'@@fdeg'
p818
asg103
(lp819
g230
aS'@@@Jsequence_KJones'
p820
asg706
(lp821
I0
aF0.10000000000000001
aF0.20000000000000001
aF0.5
aF-0.10000000000000001
aS'@@mean_c00'
p822
asg115
(lp823
g230
aS'@@@Jsequence_simul'
p824
asg164
(lp825
I5
aS'@@size'
p826
asg116
(lp827
g230
aS'@@@Jsequence'
p828
assg70
g760
sg81
I00
sg82
S'2006-03-28 14:55'
p829
sg40
g200
sg31
S'MG_JEN_Joneset'
p830
sg75
S'** Specific description of inarg record for: MG_JEN_Joneset::BJones()  version=16dec2005  defined=2006-03-28 14:55'
p831
sg42
(dp832
g2
I00
sg105
I00
ssg71
g829
sg91
(lp833
g12
ag105
ag2
ag116
ag115
ag103
ag706
ag705
ag704
ag696
ag692
ag709
ag697
ag157
ag165
ag164
ag185
ag710
ag699
ag703
ag698
ag707
asg15
(dp834
g692
g768
sg165
g179
sg2
g145
sg185
g770
sg105
g146
sg157
g174
sg696
g771
sg709
g769
sg710
g773
sg704
g772
sg705
g774
sg697
g775
sg103
g144
sg706
g776
sg115
g144
sg164
g777
sg116
g144
ssg77
S'MG_JEN_JonesetBJones'
p835
ssg103
g230
sg116
g230
sg703
I100
sg185
F1.0
sg698
I5000
sg706
F0.10000000000000001
sg105
g804
sg709
I20
sg704
F1.0
sg705
F0.01
sg710
F1.0
sg115
g230
sg707
F0.02
ssg105
S'@@stations'
p836
sS'[simul_uvp]./MG_JEN_Joneset.KJones()'
p837
(dp838
g2
S'@@polrep'
p839
sg105
S'@@stations'
p840
sg12
(dp841
g73
S'MG_JEN_Joneset::KJones()'
p842
sg14
g837
sg33
(dp843
sg35
(dp844
g103
I01
sg115
I01
sg116
I01
sg2
I01
sg105
I01
ssg44
g117
sg29
g30
sg48
S'MG_JEN_Joneset::KJones()  version=12dec2005  defined=2006-03-28 14:55'
p845
sg79
S'KJones'
p846
sg50
(dp847
g103
(lp848
g122
aS'@@@Jsequence_KJones'
p849
asg115
(lp850
g122
aS'@@@Jsequence_simul'
p851
asg116
(lp852
g122
aS'@@@Jsequence'
p853
asg2
(lp854
g3
ag129
ag839
asg105
(lp855
(lp856
I0
aI1
aI2
aI3
aI4
aa(lp857
I0
aI1
aI2
aI3
aI4
aI5
aI6
aa(lp858
I0
aI1
aI2
aI3
aI4
aI5
aI6
aI7
aI8
aI9
aI10
aI11
aI12
aI13
aa(lp859
I0
aI1
aI2
aI3
aI4
aI5
aI6
aI7
aI8
aI9
aI10
aI11
aI12
aI13
aI14
aag135
ag840
assg70
g760
sg81
I00
sg82
S'2006-03-28 14:55'
p860
sg40
g138
sg31
S'MG_JEN_Joneset'
p861
sg75
S'** Specific description of inarg record for: MG_JEN_Joneset::KJones()  version=12dec2005  defined=2006-03-28 14:55'
p862
sg42
(dp863
g2
I00
sg105
I00
ssg71
g860
sg91
(lp864
g12
ag105
ag2
ag116
ag115
ag103
asg15
(dp865
g103
g144
sg115
g144
sg116
g144
sg2
g145
sg105
g146
ssg77
S'MG_JEN_JonesetKJones'
p866
ssg103
g122
sg115
g122
sg116
g122
ssg95
g96
sS'[simul_uvp]./MG_JEN_Joneset.DJones_WSRT()'
p867
(dp868
g692
g693
sg2
S'@@polrep'
p869
sg157
g695
sg696
F0.10000000000000001
sg428
I01
sg697
I0
sg164
I5
sg165
g719
sg699
F0.002
sg12
(dp870
g73
S'MG_JEN_Joneset::DJones_WSRT()'
p871
sg14
g867
sg33
(dp872
g692
I145
sg698
I155
sg703
I154
sg696
I144
sg699
I153
sg428
I140
sg704
I143
sg705
I142
sg706
I141
sg439
I139
sg707
I156
ssg35
(dp873
g692
I00
sg165
I01
sg2
I01
sg185
I01
sg105
I01
sg157
I01
sg709
I01
sg697
I01
sg710
I01
sg103
I01
sg115
I01
sg164
I01
sg116
I01
ssg44
g446
sg29
g30
sg48
S'MG_JEN_Joneset::DJones_WSRT()  version=16dec2005  defined=2006-03-28 14:55'
p874
sg79
S'DJones_WSRT'
p875
sg50
(dp876
g692
(lp877
g693
ag715
a(lp878
g693
ag715
aaNaS'@@unop'
p879
asg165
(lp880
g719
aS'@@style'
p881
asg709
(lp882
I20
aS'@@timescale_min'
p883
asg2
(lp884
g3
ag129
ag869
asg185
(lp885
F1.0
aS'@@c00_default'
p886
asg105
(lp887
(lp888
I0
aI1
aI2
aI3
aI4
aa(lp889
I0
aI1
aI2
aI3
aI4
aI5
aI6
aa(lp890
I0
aI1
aI2
aI3
aI4
aI5
aI6
aI7
aI8
aI9
aI10
aI11
aI12
aI13
aa(lp891
I0
aI1
aI2
aI3
aI4
aI5
aI6
aI7
aI8
aI9
aI10
aI11
aI12
aI13
aI14
aag135
aS'@@stations'
p892
asg157
(lp893
g695
aS'@@color'
p894
asg696
(lp895
I0
aF0.01
aF0.10000000000000001
aF0.20000000000000001
aF0.5
aS'@@stddev_period'
p896
asg428
(lp897
I01
aI00
aS'@@coupled_XY_Dell'
p898
asg710
(lp899
F1.0
aS'@@c00_scale'
p900
asg704
(lp901
F0.29999999999999999
aF0.5
aI1
aI2
aI3
aS'@@mean_period'
p902
asg705
(lp903
I0
aF0.0001
aF0.001
aF0.01
aF0.10000000000000001
aI1
aS'@@stddev_c00'
p904
asg697
(lp905
I0
aS'@@fdeg'
p906
asg706
(lp907
I0
aF0.10000000000000001
aF0.20000000000000001
aF0.5
aF-0.10000000000000001
aS'@@mean_c00'
p908
asg103
(lp909
g150
aS'@@@Jsequence_KJones'
p910
asg115
(lp911
g150
aS'@@@Jsequence_simul'
p912
asg164
(lp913
I5
aS'@@size'
p914
asg439
(lp915
I01
aI00
aS'@@coupled_XY_Dang'
p916
asg116
(lp917
g150
aS'@@@Jsequence'
p918
assg70
g760
sg81
I00
sg82
S'2006-03-28 14:55'
p919
sg40
g200
sg31
S'MG_JEN_Joneset'
p920
sg46
(dp921
g439
I00
sg428
I00
ssg75
S'** Specific description of inarg record for: MG_JEN_Joneset::DJones_WSRT()  version=16dec2005  defined=2006-03-28 14:55'
p922
sg42
(dp923
g2
I00
sg105
I00
ssg71
g919
sg91
(lp924
g12
ag105
ag2
ag116
ag115
ag103
ag439
ag428
ag706
ag705
ag704
ag696
ag692
ag709
ag697
ag157
ag165
ag164
ag185
ag710
ag699
ag703
ag698
ag707
asg15
(dp925
g692
g768
sg165
g179
sg709
g769
sg2
g145
sg185
g770
sg105
g146
sg157
g174
sg696
g771
sg428
g433
sg710
g773
sg704
g772
sg705
g774
sg697
g775
sg706
g776
sg103
g144
sg115
g144
sg164
g777
sg439
g440
sg116
g144
ssg77
S'MG_JEN_JonesetDJones_WSRT'
p926
ssg103
g150
sg116
g150
sg703
I100
sg185
F1.0
sg698
I3000
sg706
F0.10000000000000001
sg439
I01
sg105
g892
sg709
I20
sg704
F1.0
sg705
F0.01
sg710
F1.0
sg115
g150
sg707
F0.00020000000000000001
ssg12
(dp927
g73
g272
sg14
g688
sg33
(dp928
S'Jsequence_simul_uvp'
p929
I68
ssg35
(dp930
g2
I01
sg105
I01
sg151
I01
sg95
I01
sg103
I01
sg115
I01
sg116
I01
ssg77
S'MG_JEN_CohsetJones'
p931
sg29
g30
sg44
g276
sg48
S'MG_JEN_Cohset::Jones()  version=25dec2005  defined=2006-03-28 14:55'
p932
sg79
S'Jones'
p933
sg50
(dp934
g2
(lp935
g3
ag129
ag779
asg105
(lp936
(lp937
I0
aI1
aI2
aI3
aI4
aa(lp938
I0
aI1
aI2
aI3
aI4
aI5
aI6
aa(lp939
I0
aI1
aI2
aI3
aI4
aI5
aI6
aI7
aI8
aI9
aI10
aI11
aI12
aI13
aa(lp940
I0
aI1
aI2
aI3
aI4
aI5
aI6
aI7
aI8
aI9
aI10
aI11
aI12
aI13
aI14
aag135
ag836
asg151
(lp941
I00
ag780
asg95
(lp942
Nag245
aS'@@parmtable'
p943
asg103
(lp944
NaS'@@@Jsequence_KJones'
p945
asg115
(lp946
NaS'@@@Jsequence_simul'
p947
asg116
(lp948
NaS'@@@Jsequence'
p949
asg929
(lp950
(lp951
g288
aa(lp952
g230
aa(lp953
g291
aa(lp954
g122
aa(lp955
g150
aa(lp956
g288
ag150
aa(lp957
g296
aa(lp958
aS'@@Jsequence_simul_uvp'
p959
assg70
g760
sg81
I00
sg82
S'2006-03-28 14:55'
p960
sg40
g309
sg31
S'MG_JEN_Cohset'
p961
sg75
S'** Specific description of inarg record for: MG_JEN_Cohset::Jones()  version=25dec2005  defined=2006-03-28 14:55'
p962
sg83
(dp963
g85
S'** JEN_inarg.attach(): attached: [simul_uvp]./MG_JEN_Joneset.FJones()'
p964
sg87
S'** JEN_inarg.attach(): attached: [simul_uvp]./MG_JEN_Joneset.GJones()'
p965
sg315
S'** JEN_inarg.attach(): attached: [simul_uvp]./MG_JEN_Joneset.KJones()'
p966
sg89
S'** JEN_inarg.attach(): attached: [simul_uvp]./MG_JEN_Joneset.BJones()'
p967
sg318
S'** JEN_inarg.attach(): attached: [simul_uvp]./MG_JEN_Joneset.JJones()'
p968
sg320
S'** JEN_inarg.attach(): attached: [simul_uvp]./MG_JEN_Joneset.DJones_WSRT()'
p969
sg322
S".modify( Jsequence_simul_uvp ): []  ->  ['DJones_WSRT']"
p970
sg324
S'.modify( parmtable ): @@parmtable  ->  simul_DJones'
p971
ssg71
g960
sg42
(dp972
g151
I00
sg95
I00
sg2
I00
sg105
I00
ssg91
(lp973
g12
ag105
ag2
ag116
ag115
ag103
ag95
ag151
ag929
aS'[simul_uvp]./MG_JEN_Joneset.GJones()'
p974
aS'[simul_uvp]./MG_JEN_Joneset.FJones()'
p975
ag781
ag837
ag867
ag690
asg15
(dp976
g2
g145
sg105
g146
sg151
g188
sg95
g189
sg103
g144
sg115
g144
sg116
g144
sg929
g333
sssg103
Nsg115
Nsg116
Nsg974
(dp977
g692
g693
sg164
I5
sg165
g719
sg2
S'@@polrep'
p978
sg185
F1.0
sg105
S'@@stations'
p979
sg157
g695
sg696
F0.10000000000000001
sg706
F0.10000000000000001
sg709
I20
sg704
F1.0
sg705
F0.01
sg12
(dp980
g73
S'MG_JEN_Joneset::GJones()'
p981
sg14
g974
sg33
(dp982
g692
I79
sg706
I75
sg704
I77
sg705
I76
sg696
I78
ssg35
(dp983
g692
I00
sg165
I01
sg2
I01
sg185
I01
sg105
I01
sg157
I01
sg709
I01
sg164
I01
sg697
I01
sg710
I01
sg103
I01
sg115
I01
sg347
I01
sg116
I01
ssg44
g354
sg29
g30
sg48
S'MG_JEN_Joneset::GJones()  version=15dec2005  defined=2006-03-28 14:55'
p984
sg79
S'GJones'
p985
sg50
(dp986
g692
(lp987
g693
ag715
a(lp988
g693
ag715
aaNaS'@@unop'
p989
asg165
(lp990
g719
aS'@@style'
p991
asg2
(lp992
g3
ag129
ag978
asg185
(lp993
F1.0
aS'@@c00_default'
p994
asg105
(lp995
(lp996
I0
aI1
aI2
aI3
aI4
aa(lp997
I0
aI1
aI2
aI3
aI4
aI5
aI6
aa(lp998
I0
aI1
aI2
aI3
aI4
aI5
aI6
aI7
aI8
aI9
aI10
aI11
aI12
aI13
aa(lp999
I0
aI1
aI2
aI3
aI4
aI5
aI6
aI7
aI8
aI9
aI10
aI11
aI12
aI13
aI14
aag135
ag979
asg157
(lp1000
g695
aS'@@color'
p1001
asg696
(lp1002
I0
aF0.01
aF0.10000000000000001
aF0.20000000000000001
aF0.5
aS'@@stddev_period'
p1003
asg709
(lp1004
I20
aS'@@timescale_min'
p1005
asg710
(lp1006
F1.0
aS'@@c00_scale'
p1007
asg704
(lp1008
F0.29999999999999999
aF0.5
aI1
aI2
aI3
aS'@@mean_period'
p1009
asg705
(lp1010
I0
aF0.0001
aF0.001
aF0.01
aF0.10000000000000001
aI1
aS'@@stddev_c00'
p1011
asg164
(lp1012
I5
aS'@@size'
p1013
asg697
(lp1014
I0
aS'@@fdeg'
p1015
asg706
(lp1016
I0
aF0.10000000000000001
aF0.20000000000000001
aF0.5
aF-0.10000000000000001
aS'@@mean_c00'
p1017
asg103
(lp1018
g288
aS'@@@Jsequence_KJones'
p1019
asg115
(lp1020
g288
aS'@@@Jsequence_simul'
p1021
asg347
(lp1022
I01
aI00
aS'@@Gpolar'
p1023
asg116
(lp1024
g288
aS'@@@Jsequence'
p1025
assg70
g760
sg81
I00
sg82
S'2006-03-28 14:55'
p1026
sg40
g352
sg31
S'MG_JEN_Joneset'
p1027
sg46
(dp1028
g347
I00
ssg75
S'** Specific description of inarg record for: MG_JEN_Joneset::GJones()  version=15dec2005  defined=2006-03-28 14:55'
p1029
sg42
(dp1030
g2
I00
sg105
I00
ssg71
g1026
sg91
(lp1031
g12
ag105
ag2
ag116
ag115
ag103
ag347
ag706
ag705
ag704
ag696
ag692
ag709
ag697
ag157
ag165
ag164
ag185
ag710
asg15
(dp1032
g692
g768
sg165
g179
sg2
g145
sg185
g770
sg105
g146
sg157
g174
sg696
g771
sg709
g769
sg710
g773
sg704
g772
sg705
g774
sg164
g777
sg697
g775
sg706
g776
sg103
g144
sg115
g144
sg347
g348
sg116
g144
ssg77
S'MG_JEN_JonesetGJones'
p1033
ssg697
I0
sg710
F1.0
sg103
g288
sg115
g288
sg347
I01
sg116
g288
ssg975
(dp1034
g692
g693
sg2
S'@@polrep'
p1035
sg157
g695
sg696
F0.10000000000000001
sg697
I0
sg164
I5
sg165
g719
sg699
F0.20000000000000001
sg12
(dp1036
g73
S'MG_JEN_Joneset::FJones()'
p1037
sg14
g975
sg33
(dp1038
g692
I96
sg698
I106
sg703
I105
sg696
I95
sg699
I104
sg704
I94
sg705
I93
sg706
I92
sg707
I107
ssg35
(dp1039
g692
I00
sg165
I01
sg2
I01
sg185
I01
sg105
I01
sg157
I01
sg709
I01
sg697
I01
sg710
I01
sg103
I01
sg115
I01
sg164
I01
sg116
I01
ssg44
g628
sg29
g30
sg48
S'MG_JEN_Joneset::FJones()  version=16dec2005  defined=2006-03-28 14:55'
p1040
sg79
S'FJones'
p1041
sg50
(dp1042
g692
(lp1043
g693
ag715
a(lp1044
g693
ag715
aaNaS'@@unop'
p1045
asg165
(lp1046
g719
aS'@@style'
p1047
asg2
(lp1048
g3
ag129
ag1035
asg185
(lp1049
F1.0
aS'@@c00_default'
p1050
asg105
(lp1051
(lp1052
I0
aI1
aI2
aI3
aI4
aa(lp1053
I0
aI1
aI2
aI3
aI4
aI5
aI6
aa(lp1054
I0
aI1
aI2
aI3
aI4
aI5
aI6
aI7
aI8
aI9
aI10
aI11
aI12
aI13
aa(lp1055
I0
aI1
aI2
aI3
aI4
aI5
aI6
aI7
aI8
aI9
aI10
aI11
aI12
aI13
aI14
aag135
aS'@@stations'
p1056
asg157
(lp1057
g695
aS'@@color'
p1058
asg696
(lp1059
I0
aF0.01
aF0.10000000000000001
aF0.20000000000000001
aF0.5
aS'@@stddev_period'
p1060
asg709
(lp1061
I20
aS'@@timescale_min'
p1062
asg710
(lp1063
F1.0
aS'@@c00_scale'
p1064
asg704
(lp1065
F0.29999999999999999
aF0.5
aI1
aI2
aI3
aS'@@mean_period'
p1066
asg705
(lp1067
I0
aF0.0001
aF0.001
aF0.01
aF0.10000000000000001
aI1
aS'@@stddev_c00'
p1068
asg697
(lp1069
I0
aS'@@fdeg'
p1070
asg103
(lp1071
g291
aS'@@@Jsequence_KJones'
p1072
asg706
(lp1073
I0
aF0.10000000000000001
aF0.20000000000000001
aF0.5
aF-0.10000000000000001
aS'@@mean_c00'
p1074
asg115
(lp1075
g291
aS'@@@Jsequence_simul'
p1076
asg164
(lp1077
I5
aS'@@size'
p1078
asg116
(lp1079
g291
aS'@@@Jsequence'
p1080
assg70
g760
sg81
I00
sg82
S'2006-03-28 14:55'
p1081
sg40
g200
sg31
S'MG_JEN_Joneset'
p1082
sg75
S'** Specific description of inarg record for: MG_JEN_Joneset::FJones()  version=16dec2005  defined=2006-03-28 14:55'
p1083
sg42
(dp1084
g2
I00
sg105
I00
ssg71
g1081
sg91
(lp1085
g12
ag105
ag2
ag116
ag115
ag103
ag706
ag705
ag704
ag696
ag692
ag709
ag697
ag157
ag165
ag164
ag185
ag710
ag699
ag703
ag698
ag707
asg15
(dp1086
g692
g768
sg165
g179
sg2
g145
sg185
g770
sg105
g146
sg157
g174
sg696
g771
sg709
g769
sg710
g773
sg704
g772
sg705
g774
sg697
g775
sg103
g144
sg706
g776
sg115
g144
sg164
g777
sg116
g144
ssg77
S'MG_JEN_JonesetFJones'
p1087
ssg103
g291
sg116
g291
sg703
I50
sg185
F1.0
sg698
I500
sg706
F0.10000000000000001
sg105
g1056
sg709
I20
sg704
F1.0
sg705
F0.01
sg710
F1.0
sg115
g291
sg707
F0.02
ssg929
(lp1088
g150
assS'[solve]./MG_JEN_Sixpack.newstar_source()'
p1089
(dp1090
S'f0'
p1091
F1000000.0
sg155
I00
sS'major'
p1092
F0.0
sS'unsolvable'
p1093
I00
sg157
g158
sg161
I00
sS'shape'
p1094
S'point'
p1095
sg95
g96
sS'Upct'
p1096
I-10
sg163
I01
sg164
I10
sg165
g166
sS'I0'
p1097
F1.0
sS'SI'
p1098
Nsg168
g169
sS'Vpct'
p1099
Nsg170
NsS'pa'
p1100
F0.0
sS'RA'
p1101
F1.4950000000000001
sS'RM'
p1102
NsS'minor'
p1103
F0.0
sg12
(dp1104
g14
g1089
sg15
(dp1105
g1091
S'reference freq (Hz): I=I0 @ f=f0'
p1106
sg155
g173
sg1092
S'major axis (arcsec)'
p1107
sg1093
S'if True, do NOT store solvegroup/parmgroup info'
p1108
sg157
g174
sg161
g176
sg1094
S'source shape'
p1109
sg95
S'name of the MeqParm table (AIPS++)'
p1110
sg1096
S'Stokes U (percentage of I)'
p1111
sg163
g177
sg164
g178
sg165
g179
sg1097
S'Stokes I: Total intensity @ f=f0 (usually 1 MHz)'
p1112
sg1098
S'Spectral Index (generalised)\n   A scalar represents the classical SI: I(f)=I0*(f/f0)^SI\n   A vector represents a freq-dependent SI (....)'
p1113
sg168
g181
sg1099
S'Stokes V (percentage of I)'
p1114
sg170
g182
sg1100
S'position angle (rad)'
p1115
sg1101
S'Right Ascension (rad, J2000)'
p1116
sg1102
S'Intrinsic Rotation Measure (rad/m2)'
p1117
sg1103
S'minor axis (arcsec)'
p1118
sg185
g186
sS'Qpct'
p1119
S'Stokes Q (percentage of I)'
p1120
sS'punit'
p1121
S'name of calibrator source/patch \n- unpol:   unpolarised, I=1Jy \n- unpol2:  idem, I=2Jy \n- unpol10: idem, I=10Jy \n- RMtest:  Rotation Measure \n- SItest:  Spectral Index \n- QUV:     non-zero Q,U,V \n- QU:      non-zero Q,U \n- QU2:     stronger version of QU \n- Qonly:   non-zero Q \n- Uonly:   non-zero U \n- Vonly:   non-zero V \n- 3c286:   \n- 3c48:    \n- 3c295:   \n- 3c147:   \n- D1:      cps in D1.MS \n'
p1122
sS'Dec'
p1123
S'Declination (rad, J2000)'
p1124
sS'fsr_trace'
p1125
S'If True, attach to forest state record'
p1126
sg191
g192
sg193
g194
sg195
g196
ssg29
g30
sg31
S'MG_JEN_Sixpack'
p1127
sg33
(dp1128
g155
I353
sg191
I350
sg1123
I344
sg161
I352
sg1097
I336
sg1119
I337
sg1099
I339
sg1098
I341
sg95
I334
sg1101
I343
sg1102
I340
sg1096
I338
sg1121
I332
sg163
I351
ssg35
(dp1129
g1091
I01
sg1092
I01
sg1093
I01
sS'name'
p1130
I01
sg185
I01
sg157
I01
sg193
I01
sg1094
I01
sg1125
I01
sg1121
I00
sg170
I01
sg1100
I01
sg168
I01
sg195
I01
sg165
I01
sg1103
I01
sg164
I01
ssg40
S'10feb2006'
p1131
sg44
S'Make a Sixpack (I,Q,U,V,Ra,Dec) for a source with NEWSTAR parametrisation'
p1132
sg46
(dp1133
g155
I00
sg1093
I00
sg1125
I00
sg191
I00
sg161
I00
sg163
I00
ssg48
S'MG_JEN_Sixpack::newstar_source()  version=10feb2006  defined=2006-03-28 14:55'
p1134
sg50
(dp1135
g1091
(lp1136
F1000000.0
aS'@@f0'
p1137
asg155
(lp1138
I01
aI00
aS'@@reset_funklet'
p1139
asg1092
(lp1140
F0.0
aF1.0
aF10.0
aF100.0
aS'@@major'
p1141
asg1093
(lp1142
I01
aI00
aS'@@unsolvable'
p1143
asg157
(lp1144
g158
aS'@@color'
p1145
asg161
(lp1146
I01
aI00
aS'@@save_all'
p1147
asg1094
(lp1148
g1095
aS'ell.gauss'
p1149
aS'@@shape'
p1150
asg95
(lp1151
NaS'@@parmtable'
p1152
asg1096
(lp1153
NaF-0.10000000000000001
aF0.050000000000000003
aF-0.01
aS'@@Upct'
p1154
asg163
(lp1155
I01
aI00
aS'@@auto_save'
p1156
asg164
(lp1157
I10
aS'@@size'
p1158
asg165
(lp1159
g166
aS'@@style'
p1160
asg1097
(lp1161
F1.0
aF10.0
aS'@@I0'
p1162
asg1098
(lp1163
NaF-0.69999999999999996
a(lp1164
F0.44700000000000001
aF-0.184
aaS'@@SI'
p1165
asg168
(lp1166
g169
aS'@@condeq_corrs'
p1167
asg1099
(lp1168
NaF0.01
aF-0.0050000000000000001
aF0.001
aS'@@Vpct'
p1169
asg170
(lp1170
NaS'@@funklet_shape'
p1171
asg1100
(lp1172
F0.0
aF1.0
aF-0.5
aS'@@pa'
p1173
asg1101
(lp1174
F0.0
aF0.5
aF1.0
aF1.4950000000000001
aF4.3570000000000002
aS'@@RA'
p1175
asg1102
(lp1176
NaF1.0
aF3.0
aF10.0
aF-10.0
aF60.0
aS'@@RM'
p1177
asg1103
(lp1178
F0.0
aF0.5
aF5.0
aF50.0
aS'@@minor'
p1179
asg185
(lp1180
F1.0
aS'@@c00_default'
p1181
asg1119
(lp1182
NaF0.10000000000000001
aF-0.050000000000000003
aF0.01
aS'@@Qpct'
p1183
asg1121
(lp1184
S'unpol'
p1185
aS'unpol2'
p1186
aS'unpol10'
p1187
aS'QUV'
p1188
aS'QU'
p1189
aS'Qonly'
p1190
aS'Uonly'
p1191
aS'Vonly'
p1192
aS'3c147'
p1193
aS'3c286'
p1194
aS'3c48'
p1195
aS'3c295'
p1196
aS'D1'
p1197
aS'RMtest'
p1198
aS'SItest'
p1199
aS'@@punit'
p1200
asg1123
(lp1201
F0.5
aF1.0
aF0.87
aF1.0920000000000001
aS'@@Dec'
p1202
asg1130
(lp1203
NaS'@@name'
p1204
asg1125
(lp1205
I01
aI00
aS'@@fsr_trace'
p1206
asg191
(lp1207
I01
aI00
aS'@@use_previous'
p1208
asg193
(lp1209
NaS'@@subtile_size'
p1210
asg195
(lp1211
NaS'@@tfdeg'
p1212
assg70
S'solve'
p1213
sg71
S'2006-03-28 14:55'
p1214
sg73
S'MG_JEN_Sixpack::newstar_source()'
p1215
sg75
S'** Specific description of inarg record for: MG_JEN_Sixpack::newstar_source()  version=10feb2006  defined=2006-03-28 14:55'
p1216
sg77
S'MG_JEN_Sixpacknewstar_source'
p1217
sg79
S'newstar_source'
p1218
sS'callback'
p1219
(dp1220
g1121
I01
ssg81
I00
sg82
g1214
sg83
(dp1221
g85
S'.modify( Qpct ): None  ->  10'
p1222
sg87
S'.modify( parmtable ): None  ->  simul_DJones'
p1223
sg315
S'.modify( punit ): unpol  ->  QU'
p1224
sg89
S'.modify( Upct ): None  ->  -10'
p1225
ssg91
(lp1226
g12
ag1121
ag1130
ag95
ag1093
ag1097
ag1119
ag1096
ag1099
ag1102
ag1098
ag1091
ag1101
ag1123
ag1125
ag1094
ag1092
ag1103
ag1100
ag191
ag163
ag161
ag155
ag157
ag165
ag164
ag185
ag195
ag170
ag193
ag168
assg185
F1.0
sg1119
I10
sg1121
g1189
sg1123
F0.87
sg1130
Nsg1125
I01
sg191
I01
sg193
Nsg195
NssS'[simul]./MG_JEN_Cohset.predict_lsm()'
p1227
(dp1228
g2
S'@@polrep'
p1229
sg105
S'@@stations'
p1230
sg12
(dp1231
g73
S'MG_JEN_Cohset::predict_lsm()'
p1232
sg14
g1227
sg33
(dp1233
S'nr_lsm_sources'
p1234
I185
ssg35
(dp1235
g103
I01
sg115
I01
sg105
I01
sg2
I01
sg116
I01
ssg77
S'MG_JEN_Cohsetpredict_lsm'
p1236
sg29
g30
sg44
S'Obsolete (upward compatibility) version of .predict_cps()'
p1237
sg48
S'MG_JEN_Cohset::predict_lsm()  version=20mar2006  defined=2006-03-28 14:55'
p1238
sg79
S'predict_lsm'
p1239
sg50
(dp1240
g2
(lp1241
g3
ag129
ag1229
asg105
(lp1242
(lp1243
I0
aI1
aI2
aI3
aI4
aa(lp1244
I0
aI1
aI2
aI3
aI4
aI5
aI6
aa(lp1245
I0
aI1
aI2
aI3
aI4
aI5
aI6
aI7
aI8
aI9
aI10
aI11
aI12
aI13
aa(lp1246
I0
aI1
aI2
aI3
aI4
aI5
aI6
aI7
aI8
aI9
aI10
aI11
aI12
aI13
aI14
aag135
ag1230
asg1234
(lp1247
I1
aI2
aI3
aI5
aI10
aI20
aI100
aS'@@nr_lsm_sources'
p1248
asg103
(lp1249
NaS'@@@Jsequence_KJones'
p1250
asg115
(lp1251
NaS'@@@Jsequence_simul'
p1252
asg116
(lp1253
NaS'@@@Jsequence'
p1254
assg70
S'simul'
p1255
sg81
I00
sg82
S'2006-03-28 14:55'
p1256
sg40
S'20mar2006'
p1257
sg31
S'MG_JEN_Cohset'
p1258
sg75
S'** Specific description of inarg record for: MG_JEN_Cohset::predict_lsm()  version=20mar2006  defined=2006-03-28 14:55'
p1259
sg83
(dp1260
g87
S'** JEN_inarg.attach(): attached: [simul_imp]./MG_JEN_Cohset.Jones()'
p1261
ssg71
g1256
sg42
(dp1262
g2
I00
sg105
I00
ssg91
(lp1263
g12
ag1234
ag105
ag2
ag116
ag115
ag103
aS'[simul_imp]./MG_JEN_Cohset.Jones()'
p1264
asg15
(dp1265
g2
g145
sg105
g146
sg1234
S'nr of lsm sources to be included (in order of brightness'
p1266
sg103
g144
sg115
g144
sg116
g144
sssg1234
I1
sg103
Nsg115
Nsg116
Nsg1264
(dp1267
S'[simul_imp]./MG_JEN_Joneset.DJones_WSRT()'
p1268
(dp1269
g155
I00
sg2
S'@@polrep'
p1270
sg157
g158
sg426
g427
sg428
I01
sg161
I00
sg95
g96
sg429
Nsg163
I01
sg164
I10
sg165
g166
sg168
g169
sg170
Nsg12
(dp1271
g14
g1268
sg15
(dp1272
g155
g173
sg2
g145
sg157
g174
sg426
g432
sg428
g433
sg161
g176
sg95
g189
sg429
g434
sg163
g177
sg164
g178
sg165
g179
sg168
g181
sg170
g182
sg103
g144
sg435
g434
sg116
g144
sg436
g432
sg185
g186
sg151
g188
sg437
g438
sg439
g440
sg441
g438
sg105
g146
sg191
g192
sg193
g194
sg195
g196
sg115
g144
ssg29
g30
sg31
S'MG_JEN_Joneset'
p1273
sg33
(dp1274
g436
I288
sg155
I295
sg426
I289
sg428
I283
sg191
I292
sg163
I293
sg437
I287
sg439
I282
sg161
I294
sg429
I290
sg435
I291
sg441
I286
ssg35
(dp1275
g165
I01
sg2
I01
sg185
I01
sg105
I01
sg157
I01
sg170
I01
sg168
I01
sg151
I01
sg193
I01
sg195
I01
sg95
I01
sg103
I01
sg115
I01
sg116
I01
sg164
I01
ssg40
g200
sg42
(dp1276
g151
I00
sg95
I00
sg2
I00
sg105
I00
ssg44
g446
sg46
(dp1277
g155
I00
sg428
I00
sg191
I00
sg439
I00
sg161
I00
sg163
I00
ssg48
S'MG_JEN_Joneset::DJones_WSRT()  version=16dec2005  defined=2006-03-28 14:55'
p1278
sg50
(dp1279
g155
(lp1280
I01
aI00
aS'@@reset_funklet'
p1281
asg2
(lp1282
g3
ag129
ag1270
asg157
(lp1283
g158
aS'@@color'
p1284
asg426
(lp1285
I0
aI1
aI2
aI3
ag427
aS'@@fdeg_Dell'
p1286
asg428
(lp1287
I01
aI00
aS'@@coupled_XY_Dell'
p1288
asg161
(lp1289
I01
aI00
aS'@@save_all'
p1290
asg95
(lp1291
Nag245
aS'@@parmtable'
p1292
asg429
(lp1293
NaI1
aI2
aI5
aI10
aI20
aI50
aI100
aI200
aI500
aS'@@subtile_size_Dang'
p1294
asg163
(lp1295
I01
aI00
aS'@@auto_save'
p1296
asg164
(lp1297
I10
aS'@@size'
p1298
asg165
(lp1299
g166
aS'@@style'
p1300
asg168
(lp1301
g169
aS'@@condeq_corrs'
p1302
asg170
(lp1303
NaS'@@funklet_shape'
p1304
asg103
(lp1305
g150
aS'@@@Jsequence_KJones'
p1306
asg435
(lp1307
g478
aNaI1
aI2
aI5
aI10
aI20
aI50
aI100
aI200
aI500
aS'@@subtile_size_Dell'
p1308
asg116
(lp1309
g150
aS'@@@Jsequence'
p1310
asg436
(lp1311
I0
aI1
aI2
aI3
aS'@@fdeg_Dang'
p1312
asg185
(lp1313
F1.0
aS'@@c00_default'
p1314
asg151
(lp1315
I00
aS'@@uvplane_effect'
p1316
asg437
(lp1317
I0
aI1
aI2
aI3
ag489
aS'@@tdeg_Dell'
p1318
asg439
(lp1319
I01
aI00
aS'@@coupled_XY_Dang'
p1320
asg441
(lp1321
I0
aI1
aI2
aI3
aS'@@tdeg_Dang'
p1322
asg105
(lp1323
(lp1324
I0
aI1
aI2
aI3
aI4
aa(lp1325
I0
aI1
aI2
aI3
aI4
aI5
aI6
aa(lp1326
I0
aI1
aI2
aI3
aI4
aI5
aI6
aI7
aI8
aI9
aI10
aI11
aI12
aI13
aa(lp1327
I0
aI1
aI2
aI3
aI4
aI5
aI6
aI7
aI8
aI9
aI10
aI11
aI12
aI13
aI14
aag135
aS'@@stations'
p1328
asg191
(lp1329
I01
aI00
aS'@@use_previous'
p1330
asg193
(lp1331
NaS'@@subtile_size'
p1332
asg195
(lp1333
NaS'@@tfdeg'
p1334
asg115
(lp1335
g150
aS'@@@Jsequence_simul'
p1336
assg70
S'simul_imp'
p1337
sg71
S'2006-03-28 14:55'
p1338
sg73
S'MG_JEN_Joneset::DJones_WSRT()'
p1339
sg75
S'** Specific description of inarg record for: MG_JEN_Joneset::DJones_WSRT()  version=16dec2005  defined=2006-03-28 14:55'
p1340
sg77
S'MG_JEN_JonesetDJones_WSRT'
p1341
sg79
S'DJones_WSRT'
p1342
sg81
I00
sg82
g1338
sg83
(dp1343
g87
S'.modify( parmtable ): @@parmtable  ->  simul_DJones'
p1344
ssg91
(lp1345
g12
ag105
ag2
ag116
ag115
ag103
ag439
ag428
ag95
ag151
ag441
ag437
ag436
ag426
ag429
ag435
ag191
ag163
ag161
ag155
ag157
ag165
ag164
ag185
ag195
ag170
ag193
ag168
assg103
g150
sg435
g478
sg116
g150
sg436
I0
sg185
F1.0
sg151
g1316
sg437
g489
sg439
I01
sg441
I0
sg105
g1328
sg191
I01
sg193
Nsg195
Nsg115
g150
ssg2
S'@@polrep'
p1346
sg105
S'@@stations'
p1347
sS'[simul_imp]./MG_JEN_Joneset.GJones()'
p1348
(dp1349
g155
I00
sg2
S'@@polrep'
p1350
sg336
I0
sg157
g158
sg161
I00
sg95
g96
sg163
I01
sg164
I10
sg165
g166
sg337
I1
sg168
g169
sg170
Nsg12
(dp1351
g14
g1348
sg15
(dp1352
g155
g173
sg2
g145
sg336
g340
sg157
g174
sg161
g176
sg95
g189
sg163
g177
sg164
g178
sg165
g179
sg337
g341
sg168
g181
sg170
g182
sg103
g144
sg116
g144
sg185
g186
sg342
g343
sg344
g343
sg345
g340
sg346
g341
sg347
g348
sg151
g188
sg105
g146
sg191
g192
sg193
g194
sg195
g196
sg115
g144
ssg29
g30
sg31
S'MG_JEN_Joneset'
p1353
sg33
(dp1354
g155
I216
sg336
I209
sg337
I211
sg342
I208
sg191
I213
sg344
I207
sg345
I210
sg346
I212
sg161
I215
sg163
I214
ssg35
(dp1355
g165
I01
sg2
I01
sg185
I01
sg105
I01
sg157
I01
sg116
I01
sg170
I01
sg168
I01
sg151
I01
sg193
I01
sg195
I01
sg95
I01
sg103
I01
sg115
I01
sg347
I01
sg164
I01
ssg40
g352
sg42
(dp1356
g151
I00
sg95
I00
sg2
I00
sg105
I00
ssg44
g354
sg46
(dp1357
g155
I00
sg191
I00
sg347
I00
sg163
I00
sg161
I00
ssg48
S'MG_JEN_Joneset::GJones()  version=15dec2005  defined=2006-03-28 14:55'
p1358
sg50
(dp1359
g155
(lp1360
I01
aI00
aS'@@reset_funklet'
p1361
asg2
(lp1362
g3
ag129
ag1350
asg336
(lp1363
I0
aI1
aI2
aI3
aS'@@fdeg_Ggain'
p1364
asg157
(lp1365
g158
aS'@@color'
p1366
asg161
(lp1367
I01
aI00
aS'@@save_all'
p1368
asg95
(lp1369
Nag245
aS'@@parmtable'
p1370
asg163
(lp1371
I01
aI00
aS'@@auto_save'
p1372
asg164
(lp1373
I10
aS'@@size'
p1374
asg165
(lp1375
g166
aS'@@style'
p1376
asg337
(lp1377
NaI1
aI2
aI5
aI10
aI20
aI50
aI100
aI200
aI500
aS'@@subtile_size_Ggain'
p1378
asg168
(lp1379
g169
aS'@@condeq_corrs'
p1380
asg170
(lp1381
NaS'@@funklet_shape'
p1382
asg103
(lp1383
g288
aS'@@@Jsequence_KJones'
p1384
asg116
(lp1385
g288
aS'@@@Jsequence'
p1386
asg185
(lp1387
F1.0
aS'@@c00_default'
p1388
asg342
(lp1389
I0
aI1
aI2
aI3
ag388
aS'@@tdeg_Gphase'
p1390
asg344
(lp1391
I0
aI1
aI2
aI3
aS'@@tdeg_Ggain'
p1392
asg345
(lp1393
I0
aI1
aI2
aI3
ag393
aS'@@fdeg_Gphase'
p1394
asg346
(lp1395
g396
aNaI1
aI2
aI5
aI10
aI20
aI50
aI100
aI200
aI500
aS'@@subtile_size_Gphase'
p1396
asg347
(lp1397
I01
aI00
aS'@@Gpolar'
p1398
asg151
(lp1399
I00
aS'@@uvplane_effect'
p1400
asg105
(lp1401
(lp1402
I0
aI1
aI2
aI3
aI4
aa(lp1403
I0
aI1
aI2
aI3
aI4
aI5
aI6
aa(lp1404
I0
aI1
aI2
aI3
aI4
aI5
aI6
aI7
aI8
aI9
aI10
aI11
aI12
aI13
aa(lp1405
I0
aI1
aI2
aI3
aI4
aI5
aI6
aI7
aI8
aI9
aI10
aI11
aI12
aI13
aI14
aag135
aS'@@stations'
p1406
asg191
(lp1407
I01
aI00
aS'@@use_previous'
p1408
asg193
(lp1409
NaS'@@subtile_size'
p1410
asg195
(lp1411
NaS'@@tfdeg'
p1412
asg115
(lp1413
g288
aS'@@@Jsequence_simul'
p1414
assg70
g1337
sg71
S'2006-03-28 14:55'
p1415
sg73
S'MG_JEN_Joneset::GJones()'
p1416
sg75
S'** Specific description of inarg record for: MG_JEN_Joneset::GJones()  version=15dec2005  defined=2006-03-28 14:55'
p1417
sg77
S'MG_JEN_JonesetGJones'
p1418
sg79
S'GJones'
p1419
sg81
I00
sg82
g1415
sg83
(dp1420
g87
S'.modify( parmtable ): @@parmtable  ->  simul_DJones'
p1421
ssg91
(lp1422
g12
ag105
ag2
ag116
ag115
ag103
ag347
ag95
ag151
ag344
ag342
ag336
ag345
ag337
ag346
ag191
ag163
ag161
ag155
ag157
ag165
ag164
ag185
ag195
ag170
ag193
ag168
assg103
g288
sg116
g288
sg185
F1.0
sg342
g388
sg344
I0
sg345
g393
sg346
g396
sg347
I01
sg151
g1400
sg105
g1406
sg191
I01
sg193
Nsg195
Nsg115
g288
ssS'[simul_imp]./MG_JEN_Joneset.BJones()'
p1423
(dp1424
g155
I00
sg2
S'@@polrep'
p1425
sg157
g158
sg159
g160
sg161
I00
sg162
Nsg163
I01
sg164
I10
sg165
g166
sg167
I5
sg168
g169
sg170
Nsg12
(dp1426
g14
g1423
sg15
(dp1427
g155
g173
sg2
g145
sg157
g174
sg159
g175
sg161
g176
sg162
g175
sg163
g177
sg164
g178
sg165
g179
sg167
g180
sg168
g181
sg170
g182
sg103
g144
sg183
g184
sg116
g144
sg185
g186
sg187
g180
sg151
g188
sg105
g146
sg195
g196
sg190
g184
sg191
g192
sg193
g194
sg95
g189
sg115
g144
ssg29
g30
sg31
S'MG_JEN_Joneset'
p1428
sg33
(dp1429
g155
I263
sg191
I260
sg161
I262
sg167
I256
sg159
I259
sg190
I254
sg187
I257
sg162
I258
sg183
I255
sg163
I261
ssg35
(dp1430
g165
I01
sg2
I01
sg185
I01
sg105
I01
sg157
I01
sg170
I01
sg168
I01
sg151
I01
sg193
I01
sg195
I01
sg95
I01
sg103
I01
sg115
I01
sg116
I01
sg164
I01
ssg40
g200
sg42
(dp1431
g151
I00
sg95
I00
sg2
I00
sg105
I00
ssg44
g202
sg46
(dp1432
g155
I00
sg191
I00
sg163
I00
sg161
I00
ssg48
S'MG_JEN_Joneset::BJones()  version=16dec2005  defined=2006-03-28 14:55'
p1433
sg50
(dp1434
g155
(lp1435
I01
aI00
aS'@@reset_funklet'
p1436
asg2
(lp1437
g3
ag129
ag1425
asg157
(lp1438
g158
aS'@@color'
p1439
asg159
(lp1440
g160
aNaI1
aI2
aI5
aI10
aI20
aI50
aI100
aI200
aI500
aS'@@subtile_size_Bimag'
p1441
asg161
(lp1442
I01
aI00
aS'@@save_all'
p1443
asg162
(lp1444
NaI1
aI2
aI5
aI10
aI20
aI50
aI100
aI200
aI500
aS'@@subtile_size_Breal'
p1445
asg163
(lp1446
I01
aI00
aS'@@auto_save'
p1447
asg164
(lp1448
I10
aS'@@size'
p1449
asg165
(lp1450
g166
aS'@@style'
p1451
asg167
(lp1452
I3
aI4
aI5
aI6
aS'@@fdeg_Breal'
p1453
asg168
(lp1454
g169
aS'@@condeq_corrs'
p1455
asg170
(lp1456
NaS'@@funklet_shape'
p1457
asg103
(lp1458
g230
aS'@@@Jsequence_KJones'
p1459
asg183
(lp1460
I0
aI1
aI2
aI3
ag233
aS'@@tdeg_Bimag'
p1461
asg116
(lp1462
g230
aS'@@@Jsequence'
p1463
asg185
(lp1464
F1.0
aS'@@c00_default'
p1465
asg187
(lp1466
I3
aI4
aI5
aI6
ag240
aS'@@fdeg_Bimag'
p1467
asg151
(lp1468
I00
aS'@@uvplane_effect'
p1469
asg105
(lp1470
(lp1471
I0
aI1
aI2
aI3
aI4
aa(lp1472
I0
aI1
aI2
aI3
aI4
aI5
aI6
aa(lp1473
I0
aI1
aI2
aI3
aI4
aI5
aI6
aI7
aI8
aI9
aI10
aI11
aI12
aI13
aa(lp1474
I0
aI1
aI2
aI3
aI4
aI5
aI6
aI7
aI8
aI9
aI10
aI11
aI12
aI13
aI14
aag135
aS'@@stations'
p1475
asg195
(lp1476
NaS'@@tfdeg'
p1477
asg190
(lp1478
I0
aI1
aI2
aI3
aS'@@tdeg_Breal'
p1479
asg191
(lp1480
I01
aI00
aS'@@use_previous'
p1481
asg193
(lp1482
NaS'@@subtile_size'
p1483
asg95
(lp1484
Nag245
aS'@@parmtable'
p1485
asg115
(lp1486
g230
aS'@@@Jsequence_simul'
p1487
assg70
g1337
sg71
S'2006-03-28 14:55'
p1488
sg73
S'MG_JEN_Joneset::BJones()'
p1489
sg75
S'** Specific description of inarg record for: MG_JEN_Joneset::BJones()  version=16dec2005  defined=2006-03-28 14:55'
p1490
sg77
S'MG_JEN_JonesetBJones'
p1491
sg79
S'BJones'
p1492
sg81
I00
sg82
g1488
sg83
(dp1493
g87
S'.modify( parmtable ): @@parmtable  ->  simul_DJones'
p1494
ssg91
(lp1495
g12
ag105
ag2
ag116
ag115
ag103
ag95
ag151
ag190
ag183
ag167
ag187
ag162
ag159
ag191
ag163
ag161
ag155
ag157
ag165
ag164
ag185
ag195
ag170
ag193
ag168
assg103
g230
sg183
g233
sg116
g230
sg185
F1.0
sg187
g240
sg151
g1469
sg95
g96
sg105
g1475
sg190
I0
sg191
I01
sg193
Nsg195
Nsg115
g230
ssg151
S'@@uvplane_effect'
p1496
sg95
g96
sg12
(dp1497
g73
g272
sg14
g1264
sg33
(dp1498
S'Jsequence_simul_imp'
p1499
I198
ssg35
(dp1500
g2
I01
sg105
I01
sg151
I01
sg95
I01
sg103
I01
sg115
I01
sg116
I01
ssg44
g276
sg29
g30
sg48
S'MG_JEN_Cohset::Jones()  version=25dec2005  defined=2006-03-28 14:55'
p1501
sg79
S'Jones'
p1502
sg50
(dp1503
g2
(lp1504
g3
ag129
ag1346
asg105
(lp1505
(lp1506
I0
aI1
aI2
aI3
aI4
aa(lp1507
I0
aI1
aI2
aI3
aI4
aI5
aI6
aa(lp1508
I0
aI1
aI2
aI3
aI4
aI5
aI6
aI7
aI8
aI9
aI10
aI11
aI12
aI13
aa(lp1509
I0
aI1
aI2
aI3
aI4
aI5
aI6
aI7
aI8
aI9
aI10
aI11
aI12
aI13
aI14
aag135
ag1347
asg151
(lp1510
I00
ag1496
asg95
(lp1511
Nag245
aS'@@parmtable'
p1512
asg103
(lp1513
NaS'@@@Jsequence_KJones'
p1514
asg115
(lp1515
NaS'@@@Jsequence_simul'
p1516
asg1499
(lp1517
(lp1518
g288
aa(lp1519
g230
aa(lp1520
g291
aa(lp1521
g122
aa(lp1522
g150
aa(lp1523
g288
ag150
aa(lp1524
g296
aa(lp1525
aS'@@Jsequence_simul_imp'
p1526
asg116
(lp1527
NaS'@@@Jsequence'
p1528
assg70
g1337
sg81
I00
sg82
S'2006-03-28 14:55'
p1529
sg40
g309
sg31
S'MG_JEN_Cohset'
p1530
sg75
S'** Specific description of inarg record for: MG_JEN_Cohset::Jones()  version=25dec2005  defined=2006-03-28 14:55'
p1531
sg83
(dp1532
g85
S'** JEN_inarg.attach(): attached: [simul_imp]./MG_JEN_Joneset.FJones()'
p1533
sg87
S'** JEN_inarg.attach(): attached: [simul_imp]./MG_JEN_Joneset.GJones()'
p1534
sg315
S'** JEN_inarg.attach(): attached: [simul_imp]./MG_JEN_Joneset.KJones()'
p1535
sg89
S'** JEN_inarg.attach(): attached: [simul_imp]./MG_JEN_Joneset.BJones()'
p1536
sg318
S'** JEN_inarg.attach(): attached: [simul_imp]./MG_JEN_Joneset.JJones()'
p1537
sg320
S'** JEN_inarg.attach(): attached: [simul_imp]./MG_JEN_Joneset.DJones_WSRT()'
p1538
sg324
S'.modify( parmtable ): @@parmtable  ->  simul_DJones'
p1539
ssg71
g1529
sg42
(dp1540
g151
I00
sg95
I00
sg2
I00
sg105
I00
ssg91
(lp1541
g12
ag105
ag2
ag116
ag115
ag103
ag95
ag151
ag1499
ag1348
aS'[simul_imp]./MG_JEN_Joneset.FJones()'
p1542
ag1423
aS'[simul_imp]./MG_JEN_Joneset.KJones()'
p1543
ag1268
aS'[simul_imp]./MG_JEN_Joneset.JJones()'
p1544
asg15
(dp1545
g2
g145
sg105
g146
sg151
g188
sg95
g189
sg103
g144
sg115
g144
sg1499
g333
sg116
g144
ssg77
S'MG_JEN_CohsetJones'
p1546
ssg1544
(dp1547
g155
I00
sg2
S'@@polrep'
p1548
sg519
I0
sg157
g158
sg161
I00
sg520
Nsg95
g96
sg521
Nsg163
I01
sg164
I10
sg165
g166
sg522
g523
sg168
g169
sg170
Nsg12
(dp1549
g14
g1544
sg15
(dp1550
g155
g173
sg2
g145
sg519
g526
sg157
g174
sg161
g176
sg520
g527
sg95
g189
sg521
g528
sg163
g177
sg164
g178
sg165
g179
sg522
g526
sg168
g181
sg170
g182
sg103
g144
sg529
g530
sg185
g186
sg151
g188
sg531
g530
sg532
g528
sg105
g146
sg533
g534
sg191
g192
sg193
g194
sg195
g196
sg115
g144
sg116
g144
ssg29
g30
sg31
S'MG_JEN_Joneset'
p1551
sg33
(dp1552
g155
I322
sg532
I318
sg522
I314
sg161
I321
sg519
I313
sg533
I309
sg191
I319
sg520
I310
sg531
I316
sg521
I317
sg163
I320
sg529
I315
ssg35
(dp1553
g165
I01
sg2
I01
sg185
I01
sg105
I01
sg157
I01
sg170
I01
sg168
I01
sg151
I01
sg193
I01
sg195
I01
sg95
I01
sg103
I01
sg115
I01
sg116
I01
sg164
I01
ssg40
g538
sg42
(dp1554
g151
I00
sg95
I00
sg2
I00
sg105
I00
ssg44
g540
sg46
(dp1555
g155
I00
sg191
I00
sg533
I00
sg163
I00
sg161
I00
ssg48
S'MG_JEN_Joneset::JJones()  version=14feb2006  defined=2006-03-28 14:55'
p1556
sg50
(dp1557
g155
(lp1558
I01
aI00
aS'@@reset_funklet'
p1559
asg2
(lp1560
g3
ag129
ag1548
asg519
(lp1561
I0
aI1
aI2
aI3
aS'@@tdeg_Jreal'
p1562
asg157
(lp1563
g158
aS'@@color'
p1564
asg161
(lp1565
I01
aI00
aS'@@save_all'
p1566
asg520
(lp1567
Na(lp1568
I14
aa(lp1569
I1
aag556
aS'@@all4_always'
p1570
asg95
(lp1571
Nag245
aS'@@parmtable'
p1572
asg521
(lp1573
NaI1
aI2
aI5
aI10
aI20
aI50
aI100
aI200
aI500
aS'@@subtile_size_Jreal'
p1574
asg163
(lp1575
I01
aI00
aS'@@auto_save'
p1576
asg164
(lp1577
I10
aS'@@size'
p1578
asg165
(lp1579
g166
aS'@@style'
p1580
asg522
(lp1581
I0
aI1
aI2
aI3
ag523
aS'@@tdeg_Jimag'
p1582
asg168
(lp1583
g169
aS'@@condeq_corrs'
p1584
asg170
(lp1585
NaS'@@funklet_shape'
p1586
asg103
(lp1587
g296
aS'@@@Jsequence_KJones'
p1588
asg529
(lp1589
I0
aI1
aI2
aI3
aS'@@fdeg_Jreal'
p1590
asg185
(lp1591
F1.0
aS'@@c00_default'
p1592
asg151
(lp1593
I00
aS'@@uvplane_effect'
p1594
asg531
(lp1595
I0
aI1
aI2
aI3
ag583
aS'@@fdeg_Jimag'
p1596
asg532
(lp1597
g586
aNaI1
aI2
aI5
aI10
aI20
aI50
aI100
aI200
aI500
aS'@@subtile_size_Jimag'
p1598
asg105
(lp1599
(lp1600
I0
aI1
aI2
aI3
aI4
aa(lp1601
I0
aI1
aI2
aI3
aI4
aI5
aI6
aa(lp1602
I0
aI1
aI2
aI3
aI4
aI5
aI6
aI7
aI8
aI9
aI10
aI11
aI12
aI13
aa(lp1603
I0
aI1
aI2
aI3
aI4
aI5
aI6
aI7
aI8
aI9
aI10
aI11
aI12
aI13
aI14
aag135
aS'@@stations'
p1604
asg533
(lp1605
I01
aI00
aS'@@diagonal_only'
p1606
asg191
(lp1607
I01
aI00
aS'@@use_previous'
p1608
asg193
(lp1609
NaS'@@subtile_size'
p1610
asg195
(lp1611
NaS'@@tfdeg'
p1612
asg115
(lp1613
g296
aS'@@@Jsequence_simul'
p1614
asg116
(lp1615
g296
aS'@@@Jsequence'
p1616
assg70
g1337
sg71
S'2006-03-28 14:55'
p1617
sg73
S'MG_JEN_Joneset::JJones()'
p1618
sg75
S'** Specific description of inarg record for: MG_JEN_Joneset::JJones()  version=14feb2006  defined=2006-03-28 14:55'
p1619
sg77
S'MG_JEN_JonesetJJones'
p1620
sg79
S'JJones'
p1621
sg81
I00
sg82
g1617
sg83
(dp1622
g87
S'.modify( parmtable ): @@parmtable  ->  simul_DJones'
p1623
ssg91
(lp1624
g12
ag105
ag2
ag116
ag115
ag103
ag533
ag520
ag95
ag151
ag519
ag522
ag529
ag531
ag521
ag532
ag191
ag163
ag161
ag155
ag157
ag165
ag164
ag185
ag195
ag170
ag193
ag168
assg103
g296
sg529
I0
sg185
F1.0
sg151
g1594
sg531
g583
sg532
g586
sg105
g1604
sg533
I00
sg191
I01
sg193
Nsg195
Nsg115
g296
sg116
g296
ssg103
Nsg115
Nsg1542
(dp1625
g155
I00
sg2
S'@@polrep'
p1626
sg157
g158
sg161
I00
sg195
Nsg163
I01
sg164
I10
sg165
g166
sg168
g169
sg170
Nsg12
(dp1627
g14
g1542
sg15
(dp1628
g155
g173
sg2
g145
sg157
g174
sg161
g176
sg195
g196
sg163
g177
sg164
g178
sg165
g179
sg168
g181
sg170
g182
sg103
g144
sg116
g144
sg185
g186
sg151
g188
sg105
g146
sg618
g619
sg191
g192
sg620
g621
sg193
g194
sg95
g189
sg622
g623
sg115
g144
ssg29
g30
sg31
S'MG_JEN_Joneset'
p1629
sg33
(dp1630
g155
I238
sg618
I232
sg191
I235
sg620
I233
sg622
I234
sg161
I237
sg163
I236
ssg35
(dp1631
g165
I01
sg2
I01
sg185
I01
sg105
I01
sg157
I01
sg170
I01
sg168
I01
sg151
I01
sg193
I01
sg195
I01
sg95
I01
sg103
I01
sg115
I01
sg116
I01
sg164
I01
ssg40
g200
sg42
(dp1632
g151
I00
sg95
I00
sg2
I00
sg105
I00
ssg44
g628
sg46
(dp1633
g155
I00
sg191
I00
sg163
I00
sg161
I00
ssg48
S'MG_JEN_Joneset::FJones()  version=16dec2005  defined=2006-03-28 14:55'
p1634
sg50
(dp1635
g155
(lp1636
I01
aI00
aS'@@reset_funklet'
p1637
asg2
(lp1638
g3
ag129
ag1626
asg157
(lp1639
g158
aS'@@color'
p1640
asg161
(lp1641
I01
aI00
aS'@@save_all'
p1642
asg195
(lp1643
NaS'@@tfdeg'
p1644
asg163
(lp1645
I01
aI00
aS'@@auto_save'
p1646
asg164
(lp1647
I10
aS'@@size'
p1648
asg165
(lp1649
g166
aS'@@style'
p1650
asg168
(lp1651
g169
aS'@@condeq_corrs'
p1652
asg170
(lp1653
NaS'@@funklet_shape'
p1654
asg103
(lp1655
g291
aS'@@@Jsequence_KJones'
p1656
asg116
(lp1657
g291
aS'@@@Jsequence'
p1658
asg185
(lp1659
F1.0
aS'@@c00_default'
p1660
asg151
(lp1661
I00
aS'@@uvplane_effect'
p1662
asg105
(lp1663
(lp1664
I0
aI1
aI2
aI3
aI4
aa(lp1665
I0
aI1
aI2
aI3
aI4
aI5
aI6
aa(lp1666
I0
aI1
aI2
aI3
aI4
aI5
aI6
aI7
aI8
aI9
aI10
aI11
aI12
aI13
aa(lp1667
I0
aI1
aI2
aI3
aI4
aI5
aI6
aI7
aI8
aI9
aI10
aI11
aI12
aI13
aI14
aag135
aS'@@stations'
p1668
asg618
(lp1669
I0
aI1
aI2
aI3
aS'@@tdeg_RM'
p1670
asg191
(lp1671
I01
aI00
aS'@@use_previous'
p1672
asg620
(lp1673
I0
aI1
aI2
aI3
aS'@@fdeg_RM'
p1674
asg193
(lp1675
NaS'@@subtile_size'
p1676
asg95
(lp1677
Nag245
aS'@@parmtable'
p1678
asg622
(lp1679
NaI1
aI2
aI5
aI10
aI20
aI50
aI100
aI200
aI500
aS'@@subtile_size_RM'
p1680
asg115
(lp1681
g291
aS'@@@Jsequence_simul'
p1682
assg70
g1337
sg71
S'2006-03-28 14:55'
p1683
sg73
S'MG_JEN_Joneset::FJones()'
p1684
sg75
S'** Specific description of inarg record for: MG_JEN_Joneset::FJones()  version=16dec2005  defined=2006-03-28 14:55'
p1685
sg77
S'MG_JEN_JonesetFJones'
p1686
sg79
S'FJones'
p1687
sg81
I00
sg82
g1683
sg83
(dp1688
g87
S'.modify( parmtable ): @@parmtable  ->  simul_DJones'
p1689
ssg91
(lp1690
g12
ag105
ag2
ag116
ag115
ag103
ag95
ag151
ag618
ag620
ag622
ag191
ag163
ag161
ag155
ag157
ag165
ag164
ag185
ag195
ag170
ag193
ag168
assg103
g291
sg116
g291
sg185
F1.0
sg151
g1662
sg105
g1668
sg618
I0
sg191
I01
sg620
I2
sg193
Nsg95
g96
sg622
I1
sg115
g291
ssg1543
(dp1691
g2
S'@@polrep'
p1692
sg105
S'@@stations'
p1693
sg12
(dp1694
g73
S'MG_JEN_Joneset::KJones()'
p1695
sg14
g1543
sg77
S'MG_JEN_JonesetKJones'
p1696
sg35
(dp1697
g103
I01
sg115
I01
sg105
I01
sg2
I01
sg116
I01
ssg44
g117
sg29
g30
sg48
S'MG_JEN_Joneset::KJones()  version=12dec2005  defined=2006-03-28 14:55'
p1698
sg79
S'KJones'
p1699
sg50
(dp1700
g103
(lp1701
g122
aS'@@@Jsequence_KJones'
p1702
asg115
(lp1703
g122
aS'@@@Jsequence_simul'
p1704
asg105
(lp1705
(lp1706
I0
aI1
aI2
aI3
aI4
aa(lp1707
I0
aI1
aI2
aI3
aI4
aI5
aI6
aa(lp1708
I0
aI1
aI2
aI3
aI4
aI5
aI6
aI7
aI8
aI9
aI10
aI11
aI12
aI13
aa(lp1709
I0
aI1
aI2
aI3
aI4
aI5
aI6
aI7
aI8
aI9
aI10
aI11
aI12
aI13
aI14
aag135
ag1693
asg2
(lp1710
g3
ag129
ag1692
asg116
(lp1711
g122
aS'@@@Jsequence'
p1712
assg70
g1337
sg81
I00
sg33
(dp1713
sg82
S'2006-03-28 14:55'
p1714
sg40
g138
sg31
S'MG_JEN_Joneset'
p1715
sg75
S'** Specific description of inarg record for: MG_JEN_Joneset::KJones()  version=12dec2005  defined=2006-03-28 14:55'
p1716
sg42
(dp1717
g2
I00
sg105
I00
ssg71
g1714
sg91
(lp1718
g12
ag105
ag2
ag116
ag115
ag103
asg15
(dp1719
g103
g144
sg115
g144
sg105
g146
sg2
g145
sg116
g144
sssg103
g122
sg115
g122
sg116
g122
ssg1499
(lp1720
sg116
NsssS'[solve]./MG_JEN_Cohset.predict_cps()'
p1721
(dp1722
g2
S'@@polrep'
p1723
sg105
S'@@stations'
p1724
sg12
(dp1725
g73
S'MG_JEN_Cohset::predict_cps()'
p1726
sg14
g1721
sg33
(dp1727
sg35
(dp1728
g103
I01
sg115
I01
sg105
I01
sg2
I01
sg116
I01
ssg77
S'MG_JEN_Cohsetpredict_cps'
p1729
sg29
g30
sg44
g1237
sg48
S'MG_JEN_Cohset::predict_cps()  version=20mar2006  defined=2006-03-28 14:55'
p1730
sg79
S'predict_cps'
p1731
sg50
(dp1732
g103
(lp1733
NaS'@@@Jsequence_KJones'
p1734
asg115
(lp1735
NaS'@@@Jsequence_simul'
p1736
asg105
(lp1737
(lp1738
I0
aI1
aI2
aI3
aI4
aa(lp1739
I0
aI1
aI2
aI3
aI4
aI5
aI6
aa(lp1740
I0
aI1
aI2
aI3
aI4
aI5
aI6
aI7
aI8
aI9
aI10
aI11
aI12
aI13
aa(lp1741
I0
aI1
aI2
aI3
aI4
aI5
aI6
aI7
aI8
aI9
aI10
aI11
aI12
aI13
aI14
aag135
ag1724
asg2
(lp1742
g3
ag129
ag1723
asg116
(lp1743
NaS'@@@Jsequence'
p1744
assg70
g1213
sg81
I00
sg82
S'2006-03-28 14:55'
p1745
sg40
g1257
sg31
S'MG_JEN_Cohset'
p1746
sg75
S'** Specific description of inarg record for: MG_JEN_Cohset::predict_cps()  version=20mar2006  defined=2006-03-28 14:55'
p1747
sg42
(dp1748
g2
I00
sg105
I00
ssg71
g1745
sg91
(lp1749
g12
ag105
ag2
ag116
ag115
ag103
asg15
(dp1750
g103
g144
sg115
g144
sg105
g146
sg2
g145
sg116
g144
sssg103
Nsg115
Nsg116
Nssg12
(dp1751
g14
S'./MG_JEN_simul.'
p1752
sg15
(dp1753
g687
S'(file)name of a Local Sky Model to be used for solving(instead of a predefined punit)'
p1754
sg1
S'if True, add to existing uv-data (from MS column)'
p1755
sS'rms_noise_Jy'
p1756
S'rms noise, to be added'
p1757
sg2
g145
sS'master_reqseq'
p1758
S'if True, use a master reqseq for solver(s)'
p1759
sS'LSM_simul'
p1760
S'(file)name of a Local Sky Model to be used for simulation(instead of a predefined punit)'
p1761
sg105
g146
sS'redun'
p1762
S'if True, redundant spacing calibration'
p1763
sS'insert_solver'
p1764
S'if True, insert a solver'
p1765
sg10
g20
sS'chain_solvers'
p1766
S'if True, chain the solvers (recommended)'
p1767
sS'num_cells'
p1768
S'if defined, ModRes argument [ntime,nfreq]'
p1769
sg95
g189
sg103
g144
sg115
g144
sg21
g22
sg151
g188
sg116
g144
ssS'reference'
p1770
I00
sg29
g30
sg31
S'MG_JEN_simul'
p1771
sg33
(dp1772
g687
I331
sg1
I15
sg1756
I16
sg2
I5
sg1760
I30
sg105
I4
sg1762
I13
sg93
I0
sg10
I2
sg95
I9
sg1764
I17
sg1768
I14
sg21
I3
sg151
I10
ssg35
(dp1773
g687
I00
sg2
I00
sg1758
I01
sg1760
I00
sg105
I00
sS'last_changed'
p1774
I01
sg1762
I00
sg151
I00
sg1766
I01
sg1768
I00
sg103
I01
sg115
I01
sg116
I01
ssg37
(dp1775
g10
g39
sg1760
S'*.lsm'
p1776
sg687
g1776
ssg40
g352
sg44
S"\n    -------------------------------------------------------------\n    General description of the MeqTree TDL script MG_JEN_simul.py\n    -------------------------------------------------------------\n\n    The MG_JEN_simul.py script is used to put simulated visibilities into the\n    CORRECTED_DATA column of an existing Measurement Set (MS). The original DATA\n    in the MS are untouched. The advantage of this approach is that it is not\n    necessary to specify pointing centre, uv-coverage, spectral-window etc.\n\n    * The input source model is either an existing Local Sky Model (LSM),\n    or a 'punit' point source in the centre of the field.\n\n    * The nominal source visibilities may be corrupted by:\n      - various (uv-plane) Jones matrices\n      - image-plane effects from EJones and IJones (MIM)\n      - ifr-based errors (additive, multiplicative)\n      - noise\n\n    * Optionally, the simulated visibilities may be added to the existing uv-data,\n    either from the DATA column or the CORRECTED_DATA column of the MS\n\n    * Optionally, a parallel solver branch may be inserted, which uses the simulated\n    uv-data to solve for instrumental parameters. The latter may be compared with\n    the simulated instrumental parameters.\n\n    Different types of simulations may be specified by loading (and editing) socalled\n    'inarg' records from files (like this one). These contain input arguments\n    for generating a suitable MeqTree forest for the desired operation.\n    "
p1777
sg46
(dp1778
g1774
I00
sg1
I00
sg1758
I00
sg1764
I00
sg1762
I00
ssg48
S'** Top-level CTRL-record of: MG_JEN_simul.inarg'
p1779
sg50
(dp1780
g687
(lp1781
NaS'@@LSM_solve'
p1782
asg1
(lp1783
I01
aI00
aS'@@add_to_existing'
p1784
asg1756
(lp1785
I0
aF0.01
aF0.10000000000000001
aI1
aS'@@rms_noise_Jy'
p1786
asg2
(lp1787
g3
ag129
aS'@@polrep'
p1788
asg1758
(lp1789
I01
aI00
aS'@@master_reqseq'
p1790
asg1760
(lp1791
NaS'@@LSM_simul'
p1792
asg105
(lp1793
(lp1794
I0
aI1
aI2
aI3
aI4
aa(lp1795
I0
aI1
aI2
aI3
aI4
aI5
aI6
aa(lp1796
I0
aI1
aI2
aI3
aI4
aI5
aI6
aI7
aI8
aI9
aI10
aI11
aI12
aI13
aa(lp1797
I0
aI1
aI2
aI3
aI4
aI5
aI6
aI7
aI8
aI9
aI10
aI11
aI12
aI13
aI14
aag135
aS'@@stations'
p1798
asg1774
(lp1799
S'd30jan2006'
p1800
aS'@@last_changed'
p1801
asg1764
(lp1802
I01
aI00
aS'@@insert_solver'
p1803
asg1762
(lp1804
I01
aI00
aS'@@redun'
p1805
asg10
(lp1806
g61
aS'@@ms_name'
p1807
asg1766
(lp1808
I01
aS'@@chain_solvers'
p1809
asg1768
(lp1810
Na(lp1811
I5
aI2
aa(lp1812
I2
aI2
aa(lp1813
I3
aI3
aaS'@@num_cells'
p1814
asg95
(lp1815
Nag245
aS'@@parmtable'
p1816
asg103
(lp1817
NaS'@@@Jsequence_KJones'
p1818
asg115
(lp1819
NaS'@@@Jsequence_simul'
p1820
asg21
(lp1821
I1
aI2
aI3
aI5
aI10
aI20
aI50
aI100
aS'@@tile_size'
p1822
asg151
(lp1823
I00
aS'@@uvplane_effect'
p1824
asg116
(lp1825
NaS'@@@Jsequence'
p1826
assg70
Nsg71
S'2006-03-28 14:55'
p1827
sS'HISTORY'
p1828
(dp1829
g85
S'2006-03-28 14:55: Derived from: MG_JEN_simul_DJones.inarg'
p1830
sg87
S'2006-03-28 14:55: Derived from: MG_JEN_simul.inarg'
p1831
ssg73
g94
sg75
S'Modify MG_JEN_simul inarg for DJones corruption'
p1832
sS'save_file'
p1833
S'MG_JEN_simul_DJones_protected.inarg'
p1834
sS'file_filter'
p1835
S'MG_JEN_simul*.inarg'
p1836
sg79
S''
p1837
sg81
I01
sg82
g1827
sg83
(dp1838
S'20'
p1839
S".modify():   ** OK ** (['Jsequence_solve_uvp', 'parmtable', 'solvegroup', 'num_iter', 'Jsequence_simul_uvp'])"
p1840
sS'21'
p1841
S".modify():   ** OK ** (['I0', 'Qpct', 'Vpct', 'SI', 'RM', 'Upct', 'punit'])"
p1842
sg85
S'.modify( tile_size ): 10  ->  1'
p1843
sg87
S'.modify( uvplane_effect ): False  ->  True'
p1844
sg315
S'** JEN_inarg.separator(): : uv-data (MS) stream_control'
p1845
sg89
S".modify():   ** OK ** (['uvplane_effect', 'tile_size'])"
p1846
sg318
S'** JEN_inarg.attach(): attached: ./MG_JEN_Cohset.make_spigots()'
p1847
sg320
S'** JEN_inarg.attach(): attached: ./MG_JEN_exec.stream_control()'
p1848
sg322
S'** JEN_inarg.attach(): attached: [simul]./MG_JEN_Sixpack.newstar_source()'
p1849
sg324
S'** JEN_inarg.separator(): : uv-data simulation (LeafSet)'
p1850
sS'9'
p1851
S'** JEN_inarg.attach(): attached: [simul]./MG_JEN_Cohset.predict_cps()'
p1852
sS'8'
p1853
S'** JEN_inarg.attach(): attached: [simul_uvp]./MG_JEN_Cohset.Jones()'
p1854
sS'11'
p1855
S'** JEN_inarg.separator(): : solver-branch (ParmSet)'
p1856
sS'10'
p1857
S'** JEN_inarg.attach(): attached: [simul]./MG_JEN_Cohset.predict_lsm()'
p1858
sS'13'
p1859
S'** JEN_inarg.attach(): attached: [solve_uvp]./MG_JEN_Cohset.Jones()'
p1860
sS'12'
p1861
S'** JEN_inarg.attach(): attached: [solve]./MG_JEN_Sixpack.newstar_source()'
p1862
sS'15'
p1863
S'** JEN_inarg.attach(): attached: [solve]./MG_JEN_Cohset.predict_lsm()'
p1864
sS'14'
p1865
S'** JEN_inarg.attach(): attached: [solve]./MG_JEN_Cohset.predict_cps()'
p1866
sS'17'
p1867
S'** JEN_inarg.separator(): : finishing touches'
p1868
sS'16'
p1869
S'** JEN_inarg.attach(): attached: ./MG_JEN_Cohset.insert_solver()'
p1870
sS'19'
p1871
S'.modify( parmtable ): None  ->  simul_DJones'
p1872
sS'18'
p1873
S'** JEN_inarg.attach(): attached: ./MG_JEN_Cohset.make_sinks()'
p1874
ssg91
(lp1875
g12
ag93
ag1774
ag10
ag21
ag105
ag2
ag116
ag115
ag103
ag95
ag151
ag1766
ag1758
ag1762
ag1768
ag1
ag1756
ag1764
aS'_JEN_inarg_separator_record:_1'
p1876
ag4
aS'./MG_JEN_Cohset.make_spigots()'
p1877
aS'_JEN_inarg_separator_record:_2'
p1878
ag1760
aS'[simul]./MG_JEN_Sixpack.newstar_source()'
p1879
ag688
aS'[simul]./MG_JEN_Cohset.predict_cps()'
p1880
ag1227
ag97
ag687
ag1089
ag101
ag1721
aS'[solve]./MG_JEN_Cohset.predict_lsm()'
p1881
aS'./MG_JEN_Cohset.insert_solver()'
p1882
aS'_JEN_inarg_separator_record:_4'
p1883
aS'./MG_JEN_Cohset.make_sinks()'
p1884
assg1884
(dp1885
S'fullDomainMux'
p1886
I01
sS'output_col'
p1887
S'PREDICT'
p1888
sS'visu'
p1889
I01
sS'flag'
p1890
I00
sg12
(dp1891
g73
S'MG_JEN_Cohset::make_sinks()'
p1892
sg14
g1884
sg33
(dp1893
g1890
I681
sg1889
I680
sg1886
I682
sg1887
I678
sS'visu_array_config'
p1894
I679
ssg75
S'** Specific description of inarg record for: MG_JEN_Cohset::make_sinks()  version=25dec2005  defined=2006-03-28 14:55'
p1895
sg77
S'MG_JEN_Cohsetmake_sinks'
p1896
sg29
g30
sg44
S'Make sink nodes in the given Cohset object'
p1897
sg48
S'MG_JEN_Cohset::make_sinks()  version=25dec2005  defined=2006-03-28 14:55'
p1898
sg79
S'make_sinks'
p1899
sg50
(dp1900
g1890
(lp1901
I01
aI00
aS'@@flag'
p1902
asg1894
(lp1903
I01
aI00
aS'@@visu_array_config'
p1904
asg1887
(lp1905
g1888
aS'RESIDUALS'
p1906
ag55
aS'@@output_col'
p1907
asg1886
(lp1908
I01
aI00
aS'@@fullDomainMux'
p1909
asg1889
(lp1910
I01
aI00
aS'@@visu'
p1911
assg70
Nsg40
g309
sg82
S'2006-03-28 14:55'
p1912
sg31
S'MG_JEN_Cohset'
p1913
sg46
(dp1914
g1890
I00
sg1894
I00
sg1886
I00
sg1889
I00
ssg81
I00
sg71
g1912
sg91
(lp1915
g12
ag1887
ag1894
ag1889
ag1890
ag1886
asg15
(dp1916
g1890
S'if True, insert a flagger for the output uv-data'
p1917
sg1894
S'if True, visualise the array config (from MS)'
p1918
sg1887
S'name of the logical (VisTile) output column'
p1919
sg1886
S'if True, attach an extra VisDataMux'
p1920
sg1889
S'if True, visualise the output uv-data'
p1921
sssg1894
I01
ssg103
Nsg1877
(dp1922
S'MS_corr_index'
p1923
(lp1924
I0
aI1
aI2
aI3
asg1890
I00
sg12
(dp1925
g73
S'MG_JEN_Cohset::make_spigots()'
p1926
sg14
g1877
sg33
(dp1927
g1890
I29
sg1923
I27
sg1889
I28
ssg35
(dp1928
S'input_col'
p1929
I01
ssg77
S'MG_JEN_Cohsetmake_spigots'
p1930
sg29
g30
sg44
S'Make spigot nodes in the given Cohset object'
p1931
sg48
S'MG_JEN_Cohset::make_spigots()  version=25dec2005  defined=2006-03-28 14:55'
p1932
sg79
S'make_spigots'
p1933
sg50
(dp1934
g1890
(lp1935
I01
aI00
aS'@@flag'
p1936
asg1923
(lp1937
(lp1938
I0
aI1
aI2
aI3
aa(lp1939
I0
aI-1
aI-1
aI1
aa(lp1940
I0
aI-1
aI-1
aI3
aaS'@@MS_corr_index'
p1941
asg1929
(lp1942
g55
ag1888
ag1906
aS'@@input_col'
p1943
asg1889
(lp1944
I01
aI00
aS'@@visu'
p1945
assg70
Nsg40
g309
sg82
S'2006-03-28 14:55'
p1946
sg31
S'MG_JEN_Cohset'
p1947
sg46
(dp1948
g1890
I00
sg1889
I00
ssg75
S'** Specific description of inarg record for: MG_JEN_Cohset::make_spigots()  version=25dec2005  defined=2006-03-28 14:55'
p1949
sg81
I00
sg71
g1946
sg91
(lp1950
g12
ag1929
ag1923
ag1889
ag1890
asg15
(dp1951
g1890
S'if True, insert a flagger for the input uv-data'
p1952
sg1923
S'correlations to be used: \n- [0,1,2,3]:   all corrs available, use all \n- [0,-1,-1,1]: only XX/YY (or RR/LL) available \n- [0,-1,-1,3]: all available, but use only XX/YY or RR/LL'
p1953
sg1929
S'name of the logical (VisTile) input column'
p1954
sg1889
S'if True, visualise the input uv-data'
p1955
sssg1929
g55
sg1889
I01
ssg1881
(dp1956
S'[solve_imp]./MG_JEN_Cohset.Jones()'
p1957
(dp1958
S'[solve_imp]./MG_JEN_Joneset.FJones()'
p1959
(dp1960
g155
I00
sg2
S'@@polrep'
p1961
sg157
g158
sg161
I00
sg195
Nsg163
I01
sg164
I10
sg165
g166
sg168
g169
sg170
Nsg12
(dp1962
g14
g1959
sg15
(dp1963
g155
g173
sg2
g145
sg157
g174
sg161
g176
sg195
g196
sg163
g177
sg164
g178
sg165
g179
sg168
g181
sg170
g182
sg103
g144
sg116
g144
sg185
g186
sg151
g188
sg105
g146
sg618
g619
sg191
g192
sg620
g621
sg193
g194
sg95
g189
sg622
g623
sg115
g144
ssg29
g30
sg31
S'MG_JEN_Joneset'
p1964
sg33
(dp1965
g155
I560
sg618
I554
sg191
I557
sg620
I555
sg622
I556
sg161
I559
sg163
I558
ssg35
(dp1966
g165
I01
sg2
I01
sg185
I01
sg105
I01
sg157
I01
sg170
I01
sg168
I01
sg151
I01
sg193
I01
sg195
I01
sg95
I01
sg103
I01
sg115
I01
sg116
I01
sg164
I01
ssg40
g200
sg42
(dp1967
g151
I00
sg95
I00
sg2
I00
sg105
I00
ssg44
g628
sg46
(dp1968
g155
I00
sg191
I00
sg163
I00
sg161
I00
ssg48
S'MG_JEN_Joneset::FJones()  version=16dec2005  defined=2006-03-28 14:55'
p1969
sg50
(dp1970
g155
(lp1971
I01
aI00
aS'@@reset_funklet'
p1972
asg2
(lp1973
g3
ag129
ag1961
asg157
(lp1974
g158
aS'@@color'
p1975
asg161
(lp1976
I01
aI00
aS'@@save_all'
p1977
asg195
(lp1978
NaS'@@tfdeg'
p1979
asg163
(lp1980
I01
aI00
aS'@@auto_save'
p1981
asg164
(lp1982
I10
aS'@@size'
p1983
asg165
(lp1984
g166
aS'@@style'
p1985
asg168
(lp1986
g169
aS'@@condeq_corrs'
p1987
asg170
(lp1988
NaS'@@funklet_shape'
p1989
asg103
(lp1990
g291
aS'@@@Jsequence_KJones'
p1991
asg116
(lp1992
g291
aS'@@@Jsequence'
p1993
asg185
(lp1994
F1.0
aS'@@c00_default'
p1995
asg151
(lp1996
I00
aS'@@uvplane_effect'
p1997
asg105
(lp1998
(lp1999
I0
aI1
aI2
aI3
aI4
aa(lp2000
I0
aI1
aI2
aI3
aI4
aI5
aI6
aa(lp2001
I0
aI1
aI2
aI3
aI4
aI5
aI6
aI7
aI8
aI9
aI10
aI11
aI12
aI13
aa(lp2002
I0
aI1
aI2
aI3
aI4
aI5
aI6
aI7
aI8
aI9
aI10
aI11
aI12
aI13
aI14
aag135
aS'@@stations'
p2003
asg618
(lp2004
I0
aI1
aI2
aI3
aS'@@tdeg_RM'
p2005
asg191
(lp2006
I01
aI00
aS'@@use_previous'
p2007
asg620
(lp2008
I0
aI1
aI2
aI3
aS'@@fdeg_RM'
p2009
asg193
(lp2010
NaS'@@subtile_size'
p2011
asg95
(lp2012
Nag245
aS'@@parmtable'
p2013
asg622
(lp2014
NaI1
aI2
aI5
aI10
aI20
aI50
aI100
aI200
aI500
aS'@@subtile_size_RM'
p2015
asg115
(lp2016
g291
aS'@@@Jsequence_simul'
p2017
assg70
S'solve_imp'
p2018
sg71
S'2006-03-28 14:55'
p2019
sg73
S'MG_JEN_Joneset::FJones()'
p2020
sg75
S'** Specific description of inarg record for: MG_JEN_Joneset::FJones()  version=16dec2005  defined=2006-03-28 14:55'
p2021
sg77
S'MG_JEN_JonesetFJones'
p2022
sg79
S'FJones'
p2023
sg81
I00
sg82
g2019
sg83
(dp2024
g87
S'.modify( parmtable ): @@parmtable  ->  simul_DJones'
p2025
ssg91
(lp2026
g12
ag105
ag2
ag116
ag115
ag103
ag95
ag151
ag618
ag620
ag622
ag191
ag163
ag161
ag155
ag157
ag165
ag164
ag185
ag195
ag170
ag193
ag168
assg103
g291
sg116
g291
sg185
F1.0
sg151
g1997
sg105
g2003
sg618
I0
sg191
I01
sg620
I2
sg193
Nsg95
g96
sg622
I1
sg115
g291
ssg2
S'@@polrep'
p2027
sS'[solve_imp]./MG_JEN_Joneset.JJones()'
p2028
(dp2029
g155
I00
sg2
S'@@polrep'
p2030
sg519
I0
sg157
g158
sg161
I00
sg520
Nsg95
g96
sg521
Nsg163
I01
sg164
I10
sg165
g166
sg522
g523
sg168
g169
sg170
Nsg12
(dp2031
g14
g2028
sg15
(dp2032
g155
g173
sg2
g145
sg519
g526
sg157
g174
sg161
g176
sg520
g527
sg95
g189
sg521
g528
sg163
g177
sg164
g178
sg165
g179
sg522
g526
sg168
g181
sg170
g182
sg103
g144
sg529
g530
sg185
g186
sg151
g188
sg531
g530
sg532
g528
sg105
g146
sg533
g534
sg191
g192
sg193
g194
sg195
g196
sg115
g144
sg116
g144
ssg29
g30
sg31
S'MG_JEN_Joneset'
p2033
sg33
(dp2034
g155
I644
sg532
I640
sg522
I636
sg161
I643
sg519
I635
sg533
I631
sg191
I641
sg520
I632
sg531
I638
sg521
I639
sg163
I642
sg529
I637
ssg35
(dp2035
g165
I01
sg2
I01
sg185
I01
sg105
I01
sg157
I01
sg170
I01
sg168
I01
sg151
I01
sg193
I01
sg195
I01
sg95
I01
sg103
I01
sg115
I01
sg116
I01
sg164
I01
ssg40
g538
sg42
(dp2036
g151
I00
sg95
I00
sg2
I00
sg105
I00
ssg44
g540
sg46
(dp2037
g155
I00
sg191
I00
sg533
I00
sg163
I00
sg161
I00
ssg48
S'MG_JEN_Joneset::JJones()  version=14feb2006  defined=2006-03-28 14:55'
p2038
sg50
(dp2039
g155
(lp2040
I01
aI00
aS'@@reset_funklet'
p2041
asg2
(lp2042
g3
ag129
ag2030
asg519
(lp2043
I0
aI1
aI2
aI3
aS'@@tdeg_Jreal'
p2044
asg157
(lp2045
g158
aS'@@color'
p2046
asg161
(lp2047
I01
aI00
aS'@@save_all'
p2048
asg520
(lp2049
Na(lp2050
I14
aa(lp2051
I1
aag556
aS'@@all4_always'
p2052
asg95
(lp2053
Nag245
aS'@@parmtable'
p2054
asg521
(lp2055
NaI1
aI2
aI5
aI10
aI20
aI50
aI100
aI200
aI500
aS'@@subtile_size_Jreal'
p2056
asg163
(lp2057
I01
aI00
aS'@@auto_save'
p2058
asg164
(lp2059
I10
aS'@@size'
p2060
asg165
(lp2061
g166
aS'@@style'
p2062
asg522
(lp2063
I0
aI1
aI2
aI3
ag523
aS'@@tdeg_Jimag'
p2064
asg168
(lp2065
g169
aS'@@condeq_corrs'
p2066
asg170
(lp2067
NaS'@@funklet_shape'
p2068
asg103
(lp2069
g296
aS'@@@Jsequence_KJones'
p2070
asg529
(lp2071
I0
aI1
aI2
aI3
aS'@@fdeg_Jreal'
p2072
asg185
(lp2073
F1.0
aS'@@c00_default'
p2074
asg151
(lp2075
I00
aS'@@uvplane_effect'
p2076
asg531
(lp2077
I0
aI1
aI2
aI3
ag583
aS'@@fdeg_Jimag'
p2078
asg532
(lp2079
g586
aNaI1
aI2
aI5
aI10
aI20
aI50
aI100
aI200
aI500
aS'@@subtile_size_Jimag'
p2080
asg105
(lp2081
(lp2082
I0
aI1
aI2
aI3
aI4
aa(lp2083
I0
aI1
aI2
aI3
aI4
aI5
aI6
aa(lp2084
I0
aI1
aI2
aI3
aI4
aI5
aI6
aI7
aI8
aI9
aI10
aI11
aI12
aI13
aa(lp2085
I0
aI1
aI2
aI3
aI4
aI5
aI6
aI7
aI8
aI9
aI10
aI11
aI12
aI13
aI14
aag135
aS'@@stations'
p2086
asg533
(lp2087
I01
aI00
aS'@@diagonal_only'
p2088
asg191
(lp2089
I01
aI00
aS'@@use_previous'
p2090
asg193
(lp2091
NaS'@@subtile_size'
p2092
asg195
(lp2093
NaS'@@tfdeg'
p2094
asg115
(lp2095
g296
aS'@@@Jsequence_simul'
p2096
asg116
(lp2097
g296
aS'@@@Jsequence'
p2098
assg70
g2018
sg71
S'2006-03-28 14:55'
p2099
sg73
S'MG_JEN_Joneset::JJones()'
p2100
sg75
S'** Specific description of inarg record for: MG_JEN_Joneset::JJones()  version=14feb2006  defined=2006-03-28 14:55'
p2101
sg77
S'MG_JEN_JonesetJJones'
p2102
sg79
S'JJones'
p2103
sg81
I00
sg82
g2099
sg83
(dp2104
g87
S'.modify( parmtable ): @@parmtable  ->  simul_DJones'
p2105
ssg91
(lp2106
g12
ag105
ag2
ag116
ag115
ag103
ag533
ag520
ag95
ag151
ag519
ag522
ag529
ag531
ag521
ag532
ag191
ag163
ag161
ag155
ag157
ag165
ag164
ag185
ag195
ag170
ag193
ag168
assg103
g296
sg529
I0
sg185
F1.0
sg151
g2076
sg531
g583
sg532
g586
sg105
g2086
sg533
I00
sg191
I01
sg193
Nsg195
Nsg115
g296
sg116
g296
ssg105
S'@@stations'
p2107
sS'[solve_imp]./MG_JEN_Joneset.BJones()'
p2108
(dp2109
g155
I00
sg2
S'@@polrep'
p2110
sg157
g158
sg159
g160
sg161
I00
sg162
Nsg163
I01
sg164
I10
sg165
g166
sg167
I5
sg168
g169
sg170
Nsg12
(dp2111
g14
g2108
sg15
(dp2112
g155
g173
sg2
g145
sg157
g174
sg159
g175
sg161
g176
sg162
g175
sg163
g177
sg164
g178
sg165
g179
sg167
g180
sg168
g181
sg170
g182
sg103
g144
sg183
g184
sg116
g144
sg185
g186
sg187
g180
sg151
g188
sg105
g146
sg195
g196
sg190
g184
sg191
g192
sg193
g194
sg95
g189
sg115
g144
ssg29
g30
sg31
S'MG_JEN_Joneset'
p2113
sg33
(dp2114
g155
I585
sg191
I582
sg161
I584
sg167
I578
sg159
I581
sg190
I576
sg187
I579
sg162
I580
sg183
I577
sg163
I583
ssg35
(dp2115
g165
I01
sg2
I01
sg185
I01
sg105
I01
sg157
I01
sg170
I01
sg168
I01
sg151
I01
sg193
I01
sg195
I01
sg95
I01
sg103
I01
sg115
I01
sg116
I01
sg164
I01
ssg40
g200
sg42
(dp2116
g151
I00
sg95
I00
sg2
I00
sg105
I00
ssg44
g202
sg46
(dp2117
g155
I00
sg191
I00
sg163
I00
sg161
I00
ssg48
S'MG_JEN_Joneset::BJones()  version=16dec2005  defined=2006-03-28 14:55'
p2118
sg50
(dp2119
g155
(lp2120
I01
aI00
aS'@@reset_funklet'
p2121
asg2
(lp2122
g3
ag129
ag2110
asg157
(lp2123
g158
aS'@@color'
p2124
asg159
(lp2125
g160
aNaI1
aI2
aI5
aI10
aI20
aI50
aI100
aI200
aI500
aS'@@subtile_size_Bimag'
p2126
asg161
(lp2127
I01
aI00
aS'@@save_all'
p2128
asg162
(lp2129
NaI1
aI2
aI5
aI10
aI20
aI50
aI100
aI200
aI500
aS'@@subtile_size_Breal'
p2130
asg163
(lp2131
I01
aI00
aS'@@auto_save'
p2132
asg164
(lp2133
I10
aS'@@size'
p2134
asg165
(lp2135
g166
aS'@@style'
p2136
asg167
(lp2137
I3
aI4
aI5
aI6
aS'@@fdeg_Breal'
p2138
asg168
(lp2139
g169
aS'@@condeq_corrs'
p2140
asg170
(lp2141
NaS'@@funklet_shape'
p2142
asg103
(lp2143
g230
aS'@@@Jsequence_KJones'
p2144
asg183
(lp2145
I0
aI1
aI2
aI3
ag233
aS'@@tdeg_Bimag'
p2146
asg116
(lp2147
g230
aS'@@@Jsequence'
p2148
asg185
(lp2149
F1.0
aS'@@c00_default'
p2150
asg187
(lp2151
I3
aI4
aI5
aI6
ag240
aS'@@fdeg_Bimag'
p2152
asg151
(lp2153
I00
aS'@@uvplane_effect'
p2154
asg105
(lp2155
(lp2156
I0
aI1
aI2
aI3
aI4
aa(lp2157
I0
aI1
aI2
aI3
aI4
aI5
aI6
aa(lp2158
I0
aI1
aI2
aI3
aI4
aI5
aI6
aI7
aI8
aI9
aI10
aI11
aI12
aI13
aa(lp2159
I0
aI1
aI2
aI3
aI4
aI5
aI6
aI7
aI8
aI9
aI10
aI11
aI12
aI13
aI14
aag135
aS'@@stations'
p2160
asg195
(lp2161
NaS'@@tfdeg'
p2162
asg190
(lp2163
I0
aI1
aI2
aI3
aS'@@tdeg_Breal'
p2164
asg191
(lp2165
I01
aI00
aS'@@use_previous'
p2166
asg193
(lp2167
NaS'@@subtile_size'
p2168
asg95
(lp2169
Nag245
aS'@@parmtable'
p2170
asg115
(lp2171
g230
aS'@@@Jsequence_simul'
p2172
assg70
g2018
sg71
S'2006-03-28 14:55'
p2173
sg73
S'MG_JEN_Joneset::BJones()'
p2174
sg75
S'** Specific description of inarg record for: MG_JEN_Joneset::BJones()  version=16dec2005  defined=2006-03-28 14:55'
p2175
sg77
S'MG_JEN_JonesetBJones'
p2176
sg79
S'BJones'
p2177
sg81
I00
sg82
g2173
sg83
(dp2178
g87
S'.modify( parmtable ): @@parmtable  ->  simul_DJones'
p2179
ssg91
(lp2180
g12
ag105
ag2
ag116
ag115
ag103
ag95
ag151
ag190
ag183
ag167
ag187
ag162
ag159
ag191
ag163
ag161
ag155
ag157
ag165
ag164
ag185
ag195
ag170
ag193
ag168
assg103
g230
sg183
g233
sg116
g230
sg185
F1.0
sg187
g240
sg151
g2154
sg95
g96
sg105
g2160
sg190
I0
sg191
I01
sg193
Nsg195
Nsg115
g230
ssS'[solve_imp]./MG_JEN_Joneset.DJones_WSRT()'
p2181
(dp2182
g155
I00
sg2
S'@@polrep'
p2183
sg157
g158
sg426
g427
sg428
I01
sg161
I00
sg95
g96
sg429
Nsg163
I01
sg164
I10
sg165
g166
sg168
g169
sg170
Nsg12
(dp2184
g14
g2181
sg15
(dp2185
g155
g173
sg2
g145
sg157
g174
sg426
g432
sg428
g433
sg161
g176
sg95
g189
sg429
g434
sg163
g177
sg164
g178
sg165
g179
sg168
g181
sg170
g182
sg103
g144
sg435
g434
sg116
g144
sg436
g432
sg185
g186
sg151
g188
sg437
g438
sg439
g440
sg441
g438
sg105
g146
sg191
g192
sg193
g194
sg195
g196
sg115
g144
ssg29
g30
sg31
S'MG_JEN_Joneset'
p2186
sg33
(dp2187
g436
I610
sg155
I617
sg426
I611
sg428
I605
sg191
I614
sg163
I615
sg437
I609
sg439
I604
sg161
I616
sg429
I612
sg435
I613
sg441
I608
ssg35
(dp2188
g165
I01
sg2
I01
sg185
I01
sg105
I01
sg157
I01
sg170
I01
sg168
I01
sg151
I01
sg193
I01
sg195
I01
sg95
I01
sg103
I01
sg115
I01
sg116
I01
sg164
I01
ssg40
g200
sg42
(dp2189
g151
I00
sg95
I00
sg2
I00
sg105
I00
ssg44
g446
sg46
(dp2190
g155
I00
sg428
I00
sg191
I00
sg439
I00
sg161
I00
sg163
I00
ssg48
S'MG_JEN_Joneset::DJones_WSRT()  version=16dec2005  defined=2006-03-28 14:55'
p2191
sg50
(dp2192
g155
(lp2193
I01
aI00
aS'@@reset_funklet'
p2194
asg2
(lp2195
g3
ag129
ag2183
asg157
(lp2196
g158
aS'@@color'
p2197
asg426
(lp2198
I0
aI1
aI2
aI3
ag427
aS'@@fdeg_Dell'
p2199
asg428
(lp2200
I01
aI00
aS'@@coupled_XY_Dell'
p2201
asg161
(lp2202
I01
aI00
aS'@@save_all'
p2203
asg95
(lp2204
Nag245
aS'@@parmtable'
p2205
asg429
(lp2206
NaI1
aI2
aI5
aI10
aI20
aI50
aI100
aI200
aI500
aS'@@subtile_size_Dang'
p2207
asg163
(lp2208
I01
aI00
aS'@@auto_save'
p2209
asg164
(lp2210
I10
aS'@@size'
p2211
asg165
(lp2212
g166
aS'@@style'
p2213
asg168
(lp2214
g169
aS'@@condeq_corrs'
p2215
asg170
(lp2216
NaS'@@funklet_shape'
p2217
asg103
(lp2218
g150
aS'@@@Jsequence_KJones'
p2219
asg435
(lp2220
g478
aNaI1
aI2
aI5
aI10
aI20
aI50
aI100
aI200
aI500
aS'@@subtile_size_Dell'
p2221
asg116
(lp2222
g150
aS'@@@Jsequence'
p2223
asg436
(lp2224
I0
aI1
aI2
aI3
aS'@@fdeg_Dang'
p2225
asg185
(lp2226
F1.0
aS'@@c00_default'
p2227
asg151
(lp2228
I00
aS'@@uvplane_effect'
p2229
asg437
(lp2230
I0
aI1
aI2
aI3
ag489
aS'@@tdeg_Dell'
p2231
asg439
(lp2232
I01
aI00
aS'@@coupled_XY_Dang'
p2233
asg441
(lp2234
I0
aI1
aI2
aI3
aS'@@tdeg_Dang'
p2235
asg105
(lp2236
(lp2237
I0
aI1
aI2
aI3
aI4
aa(lp2238
I0
aI1
aI2
aI3
aI4
aI5
aI6
aa(lp2239
I0
aI1
aI2
aI3
aI4
aI5
aI6
aI7
aI8
aI9
aI10
aI11
aI12
aI13
aa(lp2240
I0
aI1
aI2
aI3
aI4
aI5
aI6
aI7
aI8
aI9
aI10
aI11
aI12
aI13
aI14
aag135
aS'@@stations'
p2241
asg191
(lp2242
I01
aI00
aS'@@use_previous'
p2243
asg193
(lp2244
NaS'@@subtile_size'
p2245
asg195
(lp2246
NaS'@@tfdeg'
p2247
asg115
(lp2248
g150
aS'@@@Jsequence_simul'
p2249
assg70
g2018
sg71
S'2006-03-28 14:55'
p2250
sg73
S'MG_JEN_Joneset::DJones_WSRT()'
p2251
sg75
S'** Specific description of inarg record for: MG_JEN_Joneset::DJones_WSRT()  version=16dec2005  defined=2006-03-28 14:55'
p2252
sg77
S'MG_JEN_JonesetDJones_WSRT'
p2253
sg79
S'DJones_WSRT'
p2254
sg81
I00
sg82
g2250
sg83
(dp2255
g87
S'.modify( parmtable ): @@parmtable  ->  simul_DJones'
p2256
ssg91
(lp2257
g12
ag105
ag2
ag116
ag115
ag103
ag439
ag428
ag95
ag151
ag441
ag437
ag436
ag426
ag429
ag435
ag191
ag163
ag161
ag155
ag157
ag165
ag164
ag185
ag195
ag170
ag193
ag168
assg103
g150
sg435
g478
sg116
g150
sg436
I0
sg185
F1.0
sg151
g2229
sg437
g489
sg439
I01
sg441
I0
sg105
g2241
sg191
I01
sg193
Nsg195
Nsg115
g150
ssg151
S'@@uvplane_effect'
p2258
sg95
g96
sg12
(dp2259
g73
g272
sg14
g1957
sg33
(dp2260
S'Jsequence_solve_imp'
p2261
I520
ssg35
(dp2262
g2
I01
sg105
I01
sg151
I01
sg95
I01
sg103
I01
sg115
I01
sg116
I01
ssg44
g276
sg29
g30
sg48
S'MG_JEN_Cohset::Jones()  version=25dec2005  defined=2006-03-28 14:55'
p2263
sg79
S'Jones'
p2264
sg50
(dp2265
g2
(lp2266
g3
ag129
ag2027
asg105
(lp2267
(lp2268
I0
aI1
aI2
aI3
aI4
aa(lp2269
I0
aI1
aI2
aI3
aI4
aI5
aI6
aa(lp2270
I0
aI1
aI2
aI3
aI4
aI5
aI6
aI7
aI8
aI9
aI10
aI11
aI12
aI13
aa(lp2271
I0
aI1
aI2
aI3
aI4
aI5
aI6
aI7
aI8
aI9
aI10
aI11
aI12
aI13
aI14
aag135
ag2107
asg151
(lp2272
I00
ag2258
asg95
(lp2273
Nag245
aS'@@parmtable'
p2274
asg103
(lp2275
NaS'@@@Jsequence_KJones'
p2276
asg115
(lp2277
NaS'@@@Jsequence_simul'
p2278
asg2261
(lp2279
(lp2280
g288
aa(lp2281
g230
aa(lp2282
g291
aa(lp2283
g122
aa(lp2284
g150
aa(lp2285
g288
ag150
aa(lp2286
g296
aa(lp2287
aS'@@Jsequence_solve_imp'
p2288
asg116
(lp2289
NaS'@@@Jsequence'
p2290
assg70
g2018
sg81
I00
sg82
S'2006-03-28 14:55'
p2291
sg40
g309
sg31
S'MG_JEN_Cohset'
p2292
sg75
S'** Specific description of inarg record for: MG_JEN_Cohset::Jones()  version=25dec2005  defined=2006-03-28 14:55'
p2293
sg83
(dp2294
g85
S'** JEN_inarg.attach(): attached: [solve_imp]./MG_JEN_Joneset.FJones()'
p2295
sg87
S'** JEN_inarg.attach(): attached: [solve_imp]./MG_JEN_Joneset.GJones()'
p2296
sg315
S'** JEN_inarg.attach(): attached: [solve_imp]./MG_JEN_Joneset.KJones()'
p2297
sg89
S'** JEN_inarg.attach(): attached: [solve_imp]./MG_JEN_Joneset.BJones()'
p2298
sg318
S'** JEN_inarg.attach(): attached: [solve_imp]./MG_JEN_Joneset.JJones()'
p2299
sg320
S'** JEN_inarg.attach(): attached: [solve_imp]./MG_JEN_Joneset.DJones_WSRT()'
p2300
sg324
S'.modify( parmtable ): @@parmtable  ->  simul_DJones'
p2301
ssg71
g2291
sg42
(dp2302
g151
I00
sg95
I00
sg2
I00
sg105
I00
ssg91
(lp2303
g12
ag105
ag2
ag116
ag115
ag103
ag95
ag151
ag2261
aS'[solve_imp]./MG_JEN_Joneset.GJones()'
p2304
ag1959
ag2108
aS'[solve_imp]./MG_JEN_Joneset.KJones()'
p2305
ag2181
ag2028
asg15
(dp2306
g2
g145
sg105
g146
sg151
g188
sg95
g189
sg103
g144
sg115
g144
sg2261
g333
sg116
g144
ssg77
S'MG_JEN_CohsetJones'
p2307
ssg2304
(dp2308
g155
I00
sg2
S'@@polrep'
p2309
sg336
I0
sg157
g158
sg161
I00
sg95
g96
sg163
I01
sg164
I10
sg165
g166
sg337
I1
sg168
g169
sg170
Nsg12
(dp2310
g14
g2304
sg15
(dp2311
g155
g173
sg2
g145
sg336
g340
sg157
g174
sg161
g176
sg95
g189
sg163
g177
sg164
g178
sg165
g179
sg337
g341
sg168
g181
sg170
g182
sg103
g144
sg116
g144
sg185
g186
sg342
g343
sg344
g343
sg345
g340
sg346
g341
sg347
g348
sg151
g188
sg105
g146
sg191
g192
sg193
g194
sg195
g196
sg115
g144
ssg29
g30
sg31
S'MG_JEN_Joneset'
p2312
sg33
(dp2313
g155
I538
sg336
I531
sg337
I533
sg342
I530
sg191
I535
sg344
I529
sg345
I532
sg346
I534
sg161
I537
sg163
I536
ssg35
(dp2314
g165
I01
sg2
I01
sg185
I01
sg105
I01
sg157
I01
sg116
I01
sg170
I01
sg168
I01
sg151
I01
sg193
I01
sg195
I01
sg95
I01
sg103
I01
sg115
I01
sg347
I01
sg164
I01
ssg40
g352
sg42
(dp2315
g151
I00
sg95
I00
sg2
I00
sg105
I00
ssg44
g354
sg46
(dp2316
g155
I00
sg191
I00
sg347
I00
sg163
I00
sg161
I00
ssg48
S'MG_JEN_Joneset::GJones()  version=15dec2005  defined=2006-03-28 14:55'
p2317
sg50
(dp2318
g155
(lp2319
I01
aI00
aS'@@reset_funklet'
p2320
asg2
(lp2321
g3
ag129
ag2309
asg336
(lp2322
I0
aI1
aI2
aI3
aS'@@fdeg_Ggain'
p2323
asg157
(lp2324
g158
aS'@@color'
p2325
asg161
(lp2326
I01
aI00
aS'@@save_all'
p2327
asg95
(lp2328
Nag245
aS'@@parmtable'
p2329
asg163
(lp2330
I01
aI00
aS'@@auto_save'
p2331
asg164
(lp2332
I10
aS'@@size'
p2333
asg165
(lp2334
g166
aS'@@style'
p2335
asg337
(lp2336
NaI1
aI2
aI5
aI10
aI20
aI50
aI100
aI200
aI500
aS'@@subtile_size_Ggain'
p2337
asg168
(lp2338
g169
aS'@@condeq_corrs'
p2339
asg170
(lp2340
NaS'@@funklet_shape'
p2341
asg103
(lp2342
g288
aS'@@@Jsequence_KJones'
p2343
asg116
(lp2344
g288
aS'@@@Jsequence'
p2345
asg185
(lp2346
F1.0
aS'@@c00_default'
p2347
asg342
(lp2348
I0
aI1
aI2
aI3
ag388
aS'@@tdeg_Gphase'
p2349
asg344
(lp2350
I0
aI1
aI2
aI3
aS'@@tdeg_Ggain'
p2351
asg345
(lp2352
I0
aI1
aI2
aI3
ag393
aS'@@fdeg_Gphase'
p2353
asg346
(lp2354
g396
aNaI1
aI2
aI5
aI10
aI20
aI50
aI100
aI200
aI500
aS'@@subtile_size_Gphase'
p2355
asg347
(lp2356
I01
aI00
aS'@@Gpolar'
p2357
asg151
(lp2358
I00
aS'@@uvplane_effect'
p2359
asg105
(lp2360
(lp2361
I0
aI1
aI2
aI3
aI4
aa(lp2362
I0
aI1
aI2
aI3
aI4
aI5
aI6
aa(lp2363
I0
aI1
aI2
aI3
aI4
aI5
aI6
aI7
aI8
aI9
aI10
aI11
aI12
aI13
aa(lp2364
I0
aI1
aI2
aI3
aI4
aI5
aI6
aI7
aI8
aI9
aI10
aI11
aI12
aI13
aI14
aag135
aS'@@stations'
p2365
asg191
(lp2366
I01
aI00
aS'@@use_previous'
p2367
asg193
(lp2368
NaS'@@subtile_size'
p2369
asg195
(lp2370
NaS'@@tfdeg'
p2371
asg115
(lp2372
g288
aS'@@@Jsequence_simul'
p2373
assg70
g2018
sg71
S'2006-03-28 14:55'
p2374
sg73
S'MG_JEN_Joneset::GJones()'
p2375
sg75
S'** Specific description of inarg record for: MG_JEN_Joneset::GJones()  version=15dec2005  defined=2006-03-28 14:55'
p2376
sg77
S'MG_JEN_JonesetGJones'
p2377
sg79
S'GJones'
p2378
sg81
I00
sg82
g2374
sg83
(dp2379
g87
S'.modify( parmtable ): @@parmtable  ->  simul_DJones'
p2380
ssg91
(lp2381
g12
ag105
ag2
ag116
ag115
ag103
ag347
ag95
ag151
ag344
ag342
ag336
ag345
ag337
ag346
ag191
ag163
ag161
ag155
ag157
ag165
ag164
ag185
ag195
ag170
ag193
ag168
assg103
g288
sg116
g288
sg185
F1.0
sg342
g388
sg344
I0
sg345
g393
sg346
g396
sg347
I01
sg151
g2359
sg105
g2365
sg191
I01
sg193
Nsg195
Nsg115
g288
ssg103
Nsg115
Nsg2305
(dp2382
g2
S'@@polrep'
p2383
sg105
S'@@stations'
p2384
sg12
(dp2385
g73
S'MG_JEN_Joneset::KJones()'
p2386
sg14
g2305
sg77
S'MG_JEN_JonesetKJones'
p2387
sg35
(dp2388
g103
I01
sg115
I01
sg105
I01
sg2
I01
sg116
I01
ssg44
g117
sg29
g30
sg48
S'MG_JEN_Joneset::KJones()  version=12dec2005  defined=2006-03-28 14:55'
p2389
sg79
S'KJones'
p2390
sg50
(dp2391
g103
(lp2392
g122
aS'@@@Jsequence_KJones'
p2393
asg115
(lp2394
g122
aS'@@@Jsequence_simul'
p2395
asg105
(lp2396
(lp2397
I0
aI1
aI2
aI3
aI4
aa(lp2398
I0
aI1
aI2
aI3
aI4
aI5
aI6
aa(lp2399
I0
aI1
aI2
aI3
aI4
aI5
aI6
aI7
aI8
aI9
aI10
aI11
aI12
aI13
aa(lp2400
I0
aI1
aI2
aI3
aI4
aI5
aI6
aI7
aI8
aI9
aI10
aI11
aI12
aI13
aI14
aag135
ag2384
asg2
(lp2401
g3
ag129
ag2383
asg116
(lp2402
g122
aS'@@@Jsequence'
p2403
assg70
g2018
sg81
I00
sg33
(dp2404
sg82
S'2006-03-28 14:55'
p2405
sg40
g138
sg31
S'MG_JEN_Joneset'
p2406
sg75
S'** Specific description of inarg record for: MG_JEN_Joneset::KJones()  version=12dec2005  defined=2006-03-28 14:55'
p2407
sg42
(dp2408
g2
I00
sg105
I00
ssg71
g2405
sg91
(lp2409
g12
ag105
ag2
ag116
ag115
ag103
asg15
(dp2410
g103
g144
sg115
g144
sg105
g146
sg2
g145
sg116
g144
sssg103
g122
sg115
g122
sg116
g122
ssg2261
(lp2411
sg116
Nssg2
S'@@polrep'
p2412
sg105
S'@@stations'
p2413
sg12
(dp2414
g73
g1232
sg14
g1881
sg33
(dp2415
g1234
I507
ssg35
(dp2416
g103
I01
sg115
I01
sg105
I01
sg2
I01
sg116
I01
ssg77
S'MG_JEN_Cohsetpredict_lsm'
p2417
sg29
g30
sg44
g1237
sg48
S'MG_JEN_Cohset::predict_lsm()  version=20mar2006  defined=2006-03-28 14:55'
p2418
sg79
S'predict_lsm'
p2419
sg50
(dp2420
g2
(lp2421
g3
ag129
ag2412
asg105
(lp2422
(lp2423
I0
aI1
aI2
aI3
aI4
aa(lp2424
I0
aI1
aI2
aI3
aI4
aI5
aI6
aa(lp2425
I0
aI1
aI2
aI3
aI4
aI5
aI6
aI7
aI8
aI9
aI10
aI11
aI12
aI13
aa(lp2426
I0
aI1
aI2
aI3
aI4
aI5
aI6
aI7
aI8
aI9
aI10
aI11
aI12
aI13
aI14
aag135
ag2413
asg1234
(lp2427
I1
aI2
aI3
aI5
aI10
aI20
aI100
aS'@@nr_lsm_sources'
p2428
asg103
(lp2429
NaS'@@@Jsequence_KJones'
p2430
asg115
(lp2431
NaS'@@@Jsequence_simul'
p2432
asg116
(lp2433
NaS'@@@Jsequence'
p2434
assg70
g1213
sg81
I00
sg82
S'2006-03-28 14:55'
p2435
sg40
g1257
sg31
S'MG_JEN_Cohset'
p2436
sg75
S'** Specific description of inarg record for: MG_JEN_Cohset::predict_lsm()  version=20mar2006  defined=2006-03-28 14:55'
p2437
sg83
(dp2438
g87
S'** JEN_inarg.attach(): attached: [solve_imp]./MG_JEN_Cohset.Jones()'
p2439
ssg71
g2435
sg42
(dp2440
g2
I00
sg105
I00
ssg91
(lp2441
g12
ag1234
ag105
ag2
ag116
ag115
ag103
ag1957
asg15
(dp2442
g2
g145
sg105
g146
sg1234
g1266
sg103
g144
sg115
g144
sg116
g144
sssg1234
I1
sg103
Nsg115
Nsg116
Nssg116
Nsg1760
Nsg1774
g1800
sg151
I01
sg1768
Nsg1880
(dp2443
g2
S'@@polrep'
p2444
sg105
S'@@stations'
p2445
sg12
(dp2446
g73
g1726
sg14
g1880
sg33
(dp2447
sg35
(dp2448
g103
I01
sg115
I01
sg105
I01
sg2
I01
sg116
I01
ssg77
S'MG_JEN_Cohsetpredict_cps'
p2449
sg29
g30
sg44
g1237
sg48
S'MG_JEN_Cohset::predict_cps()  version=20mar2006  defined=2006-03-28 14:55'
p2450
sg79
S'predict_cps'
p2451
sg50
(dp2452
g103
(lp2453
NaS'@@@Jsequence_KJones'
p2454
asg115
(lp2455
NaS'@@@Jsequence_simul'
p2456
asg105
(lp2457
(lp2458
I0
aI1
aI2
aI3
aI4
aa(lp2459
I0
aI1
aI2
aI3
aI4
aI5
aI6
aa(lp2460
I0
aI1
aI2
aI3
aI4
aI5
aI6
aI7
aI8
aI9
aI10
aI11
aI12
aI13
aa(lp2461
I0
aI1
aI2
aI3
aI4
aI5
aI6
aI7
aI8
aI9
aI10
aI11
aI12
aI13
aI14
aag135
ag2445
asg2
(lp2462
g3
ag129
ag2444
asg116
(lp2463
NaS'@@@Jsequence'
p2464
assg70
g1255
sg81
I00
sg82
S'2006-03-28 14:55'
p2465
sg40
g1257
sg31
S'MG_JEN_Cohset'
p2466
sg75
S'** Specific description of inarg record for: MG_JEN_Cohset::predict_cps()  version=20mar2006  defined=2006-03-28 14:55'
p2467
sg42
(dp2468
g2
I00
sg105
I00
ssg71
g2465
sg91
(lp2469
g12
ag105
ag2
ag116
ag115
ag103
asg15
(dp2470
g103
g144
sg115
g144
sg105
g146
sg2
g145
sg116
g144
sssg103
Nsg115
Nsg116
Nssg1756
F0.0
sg1758
I00
sg21
I1
sg105
g1794
sg1883
(dp2471
g99
S'finishing touches'
p2472
ssg1876
(dp2473
g99
S'uv-data (MS) stream_control'
p2474
ssg1762
I00
sg1764
I01
sg1878
(dp2475
g99
S'uv-data simulation (LeafSet)'
p2476
ssg1766
I01
sg115
Nsg1879
(dp2477
g1091
F1000000.0
sg155
I00
sg1092
F0.0
sg1093
I00
sg157
g158
sg161
I00
sg1094
g1095
sg95
g96
sg1096
I-10
sg163
I01
sg164
I10
sg165
g166
sg1097
F1.0
sg1098
Nsg168
g169
sg1099
Nsg170
Nsg1100
F0.0
sg1101
F1.4950000000000001
sg1102
Nsg1103
F0.0
sg12
(dp2478
g14
g1879
sg15
(dp2479
g1091
g1106
sg155
g173
sg1092
g1107
sg1093
g1108
sg157
g174
sg161
g176
sg1094
g1109
sg95
g1110
sg1096
g1111
sg163
g177
sg164
g178
sg165
g179
sg1097
g1112
sg1098
g1113
sg168
g181
sg1099
g1114
sg170
g182
sg1100
g1115
sg1101
g1116
sg1102
g1117
sg1103
g1118
sg185
g186
sg1119
g1120
sg1121
S'name of calibrator source/patch \n- unpol:   unpolarised, I=1Jy \n- unpol2:  idem, I=2Jy \n- unpol10: idem, I=10Jy \n- RMtest:  Rotation Measure \n- SItest:  Spectral Index \n- QUV:     non-zero Q,U,V \n- QU:      non-zero Q,U \n- QU2:     stronger version of QU \n- Qonly:   non-zero Q \n- Uonly:   non-zero U \n- Vonly:   non-zero V \n- 3c286:   \n- 3c48:    \n- 3c295:   \n- 3c147:   \n- D1:      cps in D1.MS \n'
p2480
sg1123
g1124
sg1125
g1126
sg191
g192
sg193
g194
sg195
g196
ssg29
g30
sg31
S'MG_JEN_Sixpack'
p2481
sg33
(dp2482
g155
I52
sg191
I49
sg1123
I43
sg161
I51
sg1097
I35
sg1119
I36
sg1099
I38
sg1098
I40
sg95
I33
sg1101
I42
sg1102
I39
sg1096
I37
sg1121
I31
sg163
I50
ssg35
(dp2483
g1091
I01
sg1092
I01
sg1093
I01
sg1130
I01
sg185
I01
sg157
I01
sg193
I01
sg1094
I01
sg1125
I01
sg1121
I00
sg170
I01
sg1100
I01
sg168
I01
sg195
I01
sg165
I01
sg1103
I01
sg164
I01
ssg40
g1131
sg44
g1132
sg46
(dp2484
g155
I00
sg1093
I00
sg1125
I00
sg191
I00
sg161
I00
sg163
I00
ssg48
S'MG_JEN_Sixpack::newstar_source()  version=10feb2006  defined=2006-03-28 14:55'
p2485
sg50
(dp2486
g1091
(lp2487
F1000000.0
aS'@@f0'
p2488
asg155
(lp2489
I01
aI00
aS'@@reset_funklet'
p2490
asg1092
(lp2491
F0.0
aF1.0
aF10.0
aF100.0
aS'@@major'
p2492
asg1093
(lp2493
I01
aI00
aS'@@unsolvable'
p2494
asg157
(lp2495
g158
aS'@@color'
p2496
asg161
(lp2497
I01
aI00
aS'@@save_all'
p2498
asg1094
(lp2499
g1095
ag1149
aS'@@shape'
p2500
asg95
(lp2501
NaS'@@parmtable'
p2502
asg1096
(lp2503
NaF-0.10000000000000001
aF0.050000000000000003
aF-0.01
aS'@@Upct'
p2504
asg163
(lp2505
I01
aI00
aS'@@auto_save'
p2506
asg164
(lp2507
I10
aS'@@size'
p2508
asg165
(lp2509
g166
aS'@@style'
p2510
asg1097
(lp2511
F1.0
aF10.0
aS'@@I0'
p2512
asg1098
(lp2513
NaF-0.69999999999999996
a(lp2514
F0.44700000000000001
aF-0.184
aaS'@@SI'
p2515
asg168
(lp2516
g169
aS'@@condeq_corrs'
p2517
asg1099
(lp2518
NaF0.01
aF-0.0050000000000000001
aF0.001
aS'@@Vpct'
p2519
asg170
(lp2520
NaS'@@funklet_shape'
p2521
asg1100
(lp2522
F0.0
aF1.0
aF-0.5
aS'@@pa'
p2523
asg1101
(lp2524
F0.0
aF0.5
aF1.0
aF1.4950000000000001
aF4.3570000000000002
aS'@@RA'
p2525
asg1102
(lp2526
NaF1.0
aF3.0
aF10.0
aF-10.0
aF60.0
aS'@@RM'
p2527
asg1103
(lp2528
F0.0
aF0.5
aF5.0
aF50.0
aS'@@minor'
p2529
asg185
(lp2530
F1.0
aS'@@c00_default'
p2531
asg1119
(lp2532
NaF0.10000000000000001
aF-0.050000000000000003
aF0.01
aS'@@Qpct'
p2533
asg1121
(lp2534
g1185
ag1186
ag1187
ag1188
ag1189
ag1190
ag1191
ag1192
ag1193
ag1194
ag1195
ag1196
ag1197
ag1198
ag1199
aS'@@punit'
p2535
asg1123
(lp2536
F0.5
aF1.0
aF0.87
aF1.0920000000000001
aS'@@Dec'
p2537
asg1130
(lp2538
NaS'@@name'
p2539
asg1125
(lp2540
I01
aI00
aS'@@fsr_trace'
p2541
asg191
(lp2542
I01
aI00
aS'@@use_previous'
p2543
asg193
(lp2544
NaS'@@subtile_size'
p2545
asg195
(lp2546
NaS'@@tfdeg'
p2547
assg70
g1255
sg71
S'2006-03-28 14:55'
p2548
sg73
g1215
sg75
S'** Specific description of inarg record for: MG_JEN_Sixpack::newstar_source()  version=10feb2006  defined=2006-03-28 14:55'
p2549
sg77
S'MG_JEN_Sixpacknewstar_source'
p2550
sg79
S'newstar_source'
p2551
sg1219
(dp2552
g1121
I01
ssg81
I00
sg82
g2548
sg83
(dp2553
g85
S'.modify( Qpct ): None  ->  10'
p2554
sg87
S'.modify( parmtable ): None  ->  simul_DJones'
p2555
sg315
S'.modify( punit ): unpol  ->  QU'
p2556
sg89
S'.modify( Upct ): None  ->  -10'
p2557
ssg91
(lp2558
g12
ag1121
ag1130
ag95
ag1093
ag1097
ag1119
ag1096
ag1099
ag1102
ag1098
ag1091
ag1101
ag1123
ag1125
ag1094
ag1092
ag1103
ag1100
ag191
ag163
ag161
ag155
ag157
ag165
ag164
ag185
ag195
ag170
ag193
ag168
assg185
F1.0
sg1119
I10
sg1121
g1189
sg1123
F0.87
sg1130
Nsg1125
I01
sg191
I01
sg193
Nsg195
Nssg1882
(dp2559
S'correct_after'
p2560
I01
sg1758
S'@@master_reqseq'
p2561
sS'condeq_unop'
p2562
Nsg1889
I01
sg1762
S'@@redun'
p2563
sS'solver_subtree'
p2564
NsS'subtract_after'
p2565
I00
sg1766
S'@@chain_solvers'
p2566
sg12
(dp2567
g14
g1882
sg15
(dp2568
g2560
S'if True, correct measured with predicted.Joneset'
p2569
sg1758
g1759
sg2562
S'Optional unary operation on Condeq inputs'
p2570
sg1889
S'if True, include full visualisation'
p2571
sg1762
g1763
sg2564
S'solver subtree qualifier(s)'
p2572
sg2565
S'if True, subtract predicted from measured'
p2573
sg1766
g1767
sS'flag_residuals'
p2574
S'if True, flag the residuals'
p2575
sg1768
g1769
ssg29
g30
sg31
S'MG_JEN_Cohset'
p2576
sg33
(dp2577
g2565
I660
sg2560
I661
sg2562
I658
sg1889
I659
ssg35
(dp2578
g1758
I01
sg1762
I01
sg2564
I01
sg1766
I01
sg2574
I01
sg1768
I01
ssg40
g309
sg42
(dp2579
g1768
I00
sg1766
I00
sg1762
I00
sg1758
I00
ssg44
S'insert one or more solver subtrees in the data stream'
p2580
sg46
(dp2581
g2560
I00
sg1758
I00
sg1889
I00
sg1762
I00
sg2565
I00
sg2574
I00
ssg48
S'MG_JEN_Cohset::insert_solver()  version=25dec2005  defined=2006-03-28 14:55'
p2582
sg50
(dp2583
g2560
(lp2584
I01
aI00
aS'@@correct_after'
p2585
asg1758
(lp2586
I01
aI00
ag2561
asg2562
(lp2587
NaS'Abs'
p2588
aS'Arg'
p2589
aS'@@condeq_unop'
p2590
asg1889
(lp2591
I01
aI00
aS'@@visu'
p2592
asg1762
(lp2593
I01
aI00
ag2563
asg2564
(lp2594
NaS'@@solver_subtree'
p2595
asg2565
(lp2596
I01
aI00
aS'@@subtract_after'
p2597
asg1766
(lp2598
I01
ag2566
asg2574
(lp2599
I01
aI00
aS'@@flag_residuals'
p2600
asg1768
(lp2601
Na(lp2602
I5
aI2
aa(lp2603
I2
aI2
aa(lp2604
I3
aI3
aaS'@@num_cells'
p2605
assg70
Nsg71
S'2006-03-28 14:55'
p2606
sg73
S'MG_JEN_Cohset::insert_solver()'
p2607
sg75
S'** Specific description of inarg record for: MG_JEN_Cohset::insert_solver()  version=25dec2005  defined=2006-03-28 14:55'
p2608
sg77
S'MG_JEN_Cohsetinsert_solver'
p2609
sg79
S'insert_solver'
p2610
sg81
I00
sg82
g2606
sg83
(dp2611
g87
S'** JEN_inarg.attach(): attached: ./MG_JEN_Cohset.solver_subtree()'
p2612
ssg91
(lp2613
g12
ag2564
ag1762
ag1768
ag1766
ag1758
ag2562
ag1889
ag2565
ag2560
ag2574
aS'./MG_JEN_Cohset.solver_subtree()'
p2614
assg1768
g2605
sg2614
(dp2615
S'rmin'
p2616
Nsg1889
I01
sS'epsilon'
p2617
F0.0001
sS'colin_factor'
p2618
F0.0
sS'rmax'
p2619
NsS'derivative_eps'
p2620
F1e-08
sS'usesvd'
p2621
I01
sS'debug_level'
p2622
I10
sS'history'
p2623
I01
sS'solvegroup'
p2624
(lp2625
S'DJones'
p2626
asg12
(dp2627
g73
S'MG_JEN_Cohset::solver_subtree()'
p2628
sg14
g2614
sg71
S'2006-03-28 14:55'
p2629
sg35
(dp2630
g2622
I01
sg2620
I01
sS'setBalanced'
p2631
I01
sS'epsval'
p2632
I01
sg1768
I00
ssg44
S'Make a solver-subtree for the given Condeq Cohset'
p2633
sg29
g30
sg48
S'MG_JEN_Cohset::solver_subtree()  version=20dec2005  defined=2006-03-28 14:55'
p2634
sg79
S'solver_subtree'
p2635
sg50
(dp2636
g2616
(lp2637
NaI100
aI200
aI500
aS'@@rmin'
p2638
asg1889
(lp2639
I01
aI00
aS'@@visu'
p2640
asg2617
(lp2641
F0.001
aF0.0001
aF1.0000000000000001e-05
aS'@@epsilon'
p2642
asg2619
(lp2643
NaI500
aI1000
aI2000
aS'@@rmax'
p2644
asg2620
(lp2645
F1e-08
aF0.001
aF0.0001
aF1.0000000000000001e-05
aS'@@derivative_eps'
p2646
asg2621
(lp2647
I01
aI00
aS'@@usesvd'
p2648
asg2622
(lp2649
I10
aS'@@debug_level'
p2650
asg2623
(lp2651
I01
aI00
aS'@@history'
p2652
asg2624
(lp2653
(lp2654
a(lp2655
g288
aa(lp2656
S'Ggain'
p2657
aa(lp2658
S'Gphase'
p2659
aa(lp2660
S'Gpol1'
p2661
aa(lp2662
S'Gpol2'
p2663
aa(lp2664
g296
aa(lp2665
g296
aS'stokesU'
p2666
aa(lp2667
g296
aS'stokesQ'
p2668
aa(lp2669
g296
aS'stokesV'
p2670
aa(lp2671
S'stokesQU'
p2672
ag296
aa(lp2673
S'stokesQUV'
p2674
ag296
aa(lp2675
g288
aS'stokesI'
p2676
aa(lp2677
g2676
aa(lp2678
S'stokesIQU'
p2679
aa(lp2680
S'stokesIQUV'
p2681
aa(lp2682
S'stokesIV'
p2683
aa(lp2684
g2672
aa(lp2685
g2674
aa(lp2686
g288
ag2626
aa(lp2687
g2626
aa(lp2688
S'Dang'
p2689
aa(lp2690
S'Dell'
p2691
aa(lp2692
S'Dreal'
p2693
aa(lp2694
S'Dimag'
p2695
aa(lp2696
g288
ag2626
ag291
aa(lp2697
g291
aa(lp2698
g288
ag230
aa(lp2699
g230
aa(lp2700
S'Breal'
p2701
aa(lp2702
S'Bimag'
p2703
aa(lp2704
S'Bpol1'
p2705
aa(lp2706
S'Bpol2'
p2707
aaS'@@solvegroup'
p2708
asg2632
(lp2709
F1e-08
aF0.001
aF0.0001
aF1.0000000000000001e-05
aS'@@epsval'
p2710
asg1768
(lp2711
Na(lp2712
I5
aI2
aa(lp2713
I2
aI2
aa(lp2714
I3
aI3
aaS'@@num_cells'
p2715
asg2631
(lp2716
I01
aI00
aS'@@setBalanced'
p2717
asS'num_iter'
p2718
(lp2719
I1
aI3
aI5
aI10
aI20
aS'@@num_iter'
p2720
asS'condition'
p2721
(lp2722
NaS'Gphase_X_sum=0.0'
p2723
aS'Gphase_Y_sum=0.0'
p2724
a(lp2725
g2723
ag2724
aa(lp2726
S'Gphase_X_first=0.0'
p2727
aS'Gphase_Y_first=0.0'
p2728
aa(lp2729
S'Gphase_X_last=0.0'
p2730
aS'Gphase_Y_last=0.0'
p2731
aaS'Dang_sum=0.0'
p2732
a(lp2733
S'Bimag_X_sum=0.0'
p2734
aS'Bimag_Y_sum=0.0'
p2735
aa(lp2736
S'Breal_X_product=1.0'
p2737
aS'Breal_Y_product=1.0'
p2738
aaS'@@condition'
p2739
asg2618
(lp2740
F1e-08
aF0.0
aS'@@colin_factor'
p2741
assg70
Nsg40
S'20dec2005'
p2742
sg33
(dp2743
g2616
I665
sg1889
I676
sg2617
I669
sg2619
I666
sg2621
I673
sg2624
I663
sg1768
I667
sg2623
I677
sg2718
I668
sg2721
I664
sg2618
I672
ssg82
g2629
sg31
S'MG_JEN_Cohset'
p2744
sg46
(dp2745
g2621
I00
sg2631
I00
sg2623
I00
sg1889
I00
ssg75
S'** Specific description of inarg record for: MG_JEN_Cohset::solver_subtree()  version=20dec2005  defined=2006-03-28 14:55'
p2746
sg83
(dp2747
g85
S'.modify( num_iter ): 5  ->  2'
p2748
sg87
S".modify( solvegroup ): []  ->  ['DJones']"
p2749
ssg81
I00
sg91
(lp2750
g12
ag2624
ag2721
ag2616
ag2619
ag1768
ag2718
ag2617
ag2632
ag2620
ag2618
ag2621
ag2631
ag2622
ag1889
ag2623
asg15
(dp2751
g2616
S'if specified, only use baselines>=rmin'
p2752
sg1889
S'if True, include visualisation'
p2753
sg2617
S'iteration control criterion...'
p2754
sg2619
S'if specified, only use baselines<=rmax'
p2755
sg2620
S'NEW: also iteration control...'
p2756
sg2621
S'if True, use Singular Value Decomposition (SVD)'
p2757
sg2622
S'solver debug_level'
p2758
sg2623
S'if True, include history collection of metrics'
p2759
sg2624
S'group (list) of parmgroups, to be solved for:\n- [GJones]:  all GJones MeqParms\n- [Ggain]:   GJones station gains (both pols)\n- [Gphase]:  GJones station phases (both pols)\n- [Gpol1]:   All GJones MeqParms for pol1 (X or R)\n- [Gpol2]:   All GJones MeqParms for pol2 (Y or L)\n- [JJones,stokesU]:     actually solves for U!\n- [JJones,stokesQ]:     -> zero Q(?), but better freq sol(?)\n- [JJones,stokesV]:     -> punit V(?)...\n- [stokesI]:    stokes I (incl SI(f), if relevant)\n- [stokesIQU]:  stokes I,Q,U (incl RM and SI(f))\n- [stokesIQUV]: stokes I,Q,U,V (incl RM and SI(f))'
p2760
sg2632
S'NEW: WNB version of epsilon....'
p2761
sg1768
g1769
sg2631
S'NEW: if True, add (..) to diagonal, otherwise multiply (1+lambda)'
p2762
sg2718
S'max number of iterations (now also in fitter)'
p2763
sg2721
S'(list of) extra condition equations:\n- [...phase_sum=0.0]:   sum of phases = zero\n- [...phase_first=0.0]: phase of first station = zero\n- [...phase_last=0.0]:  phase of last station = zero\n- [Dang_sum=0.0]:   sum of dipole pos.angle errors = zero\n- [...imag_sum=0.0]:   sum of imag.parts = zero\n- [...real_product=1.0]:   product of real.parts = unity'
p2764
sg2618
S'colinearity factor'
p2765
ssg77
S'MG_JEN_Cohsetsolver_subtree'
p2766
ssg1768
Nsg2631
I00
sg2718
I2
sg2721
Nsg2632
F1e-08
ssg2574
I00
ss.