(dp0
S'add_to_existing'
p1
I00
sS'polrep'
p2
S'linear'
p3
sS'_JEN_inarg_separator_record:_1'
p4
(dp5
S'txt'
p6
S'uv-data (MS) stream_control'
p7
ssS'script_name'
p8
S'MG_JEN_simul'
p9
sS'ms_name'
p10
S'D1.MS'
p11
sS'parmtable'
p12
S'simul_EJones'
p13
sS'insert_solver'
p14
I00
sS'[solve_uvp]./MG_JEN_Cohset.Jones()'
p15
(dp16
g2
S'@@polrep'
p17
sS'_JEN_inarg_CTRL_record:'
p18
(dp19
S'target_definition'
p20
S'MG_JEN_Cohset::Jones()'
p21
sS'localscope'
p22
g15
sS'hide'
p23
(dp24
g2
I01
sS'stations'
p25
I01
sS'uvplane_effect'
p26
I01
sg12
I01
sS'@Jsequence_KJones'
p27
I01
sS'@Jsequence_simul'
p28
I01
sS'@Jsequence'
p29
I01
ssS'barescope'
p30
S'MG_JEN_CohsetJones'
p31
sS'target_dir'
p32
S'.'
p33
sS'oneliner'
p34
S'MG_JEN_Cohset::Jones()  version=25dec2005  defined=2006-03-31 11:27'
p35
sS'target_function'
p36
S'Jones'
p37
sS'choice'
p38
(dp39
g2
(lp40
g3
aS'circular'
p41
ag17
asg25
(lp42
(lp43
I0
aI1
aI2
aI3
aI4
aa(lp44
I0
aI1
aI2
aI3
aI4
aI5
aI6
aa(lp45
I0
aI1
aI2
aI3
aI4
aI5
aI6
aI7
aI8
aI9
aI10
aI11
aI12
aI13
aa(lp46
I0
aI1
aI2
aI3
aI4
aI5
aI6
aI7
aI8
aI9
aI10
aI11
aI12
aI13
aI14
aaS'range(5)'
p47
aS'@@stations'
p48
asS'Jsequence_solve_uvp'
p49
(lp50
(lp51
S'GJones'
p52
aa(lp53
S'BJones'
p54
aa(lp55
S'FJones'
p56
aa(lp57
S'KJones'
p58
aa(lp59
S'DJones_WSRT'
p60
aa(lp61
g52
ag60
aa(lp62
S'EJones_WSRT'
p63
aa(lp64
g52
ag63
aa(lp65
S'JJones'
p66
aa(lp67
aS'@@Jsequence_solve_uvp'
p68
asg26
(lp69
I00
aS'@@uvplane_effect'
p70
asg12
(lp71
NaS'test'
p72
aS'@@parmtable'
p73
asg27
(lp74
NaS'@@@Jsequence_KJones'
p75
asg28
(lp76
NaS'@@@Jsequence_simul'
p77
asg29
(lp78
NaS'@@@Jsequence'
p79
assS'qual'
p80
S'solve_uvp'
p81
sS'protected'
p82
I00
sS'datetime_defined'
p83
S'2006-03-31 11:27'
p84
sS'version'
p85
S'25dec2005'
p86
sS'target_module'
p87
S'MG_JEN_Cohset'
p88
sS'inarg_specific'
p89
S'** Specific description of inarg record for: MG_JEN_Cohset::Jones()  version=25dec2005  defined=2006-03-31 11:27'
p90
sS'MESSAGE'
p91
(dp92
S'1'
p93
S'** JEN_inarg.attach(): attached: [solve_uvp]./MG_JEN_Joneset.FJones()'
p94
sS'0'
p95
S'** JEN_inarg.attach(): attached: [solve_uvp]./MG_JEN_Joneset.GJones()'
p96
sS'3'
p97
S'** JEN_inarg.attach(): attached: [solve_uvp]./MG_JEN_Joneset.KJones()'
p98
sS'2'
p99
S'** JEN_inarg.attach(): attached: [solve_uvp]./MG_JEN_Joneset.BJones()'
p100
sS'5'
p101
S'** JEN_inarg.attach(): attached: [solve_uvp]./MG_JEN_Joneset.JJones()'
p102
sS'4'
p103
S'** JEN_inarg.attach(): attached: [solve_uvp]./MG_JEN_Joneset.DJones_WSRT()'
p104
ssS'last_edited'
p105
g84
sS'mutable'
p106
(dp107
g26
I00
sg12
I00
sg2
I00
sg25
I00
ssS'order'
p108
(lp109
g18
ag25
ag2
ag29
ag28
ag27
ag12
ag26
ag49
aS'[solve_uvp]./MG_JEN_Joneset.GJones()'
p110
aS'[solve_uvp]./MG_JEN_Joneset.FJones()'
p111
aS'[solve_uvp]./MG_JEN_Joneset.BJones()'
p112
aS'[solve_uvp]./MG_JEN_Joneset.KJones()'
p113
aS'[solve_uvp]./MG_JEN_Joneset.DJones_WSRT()'
p114
aS'[solve_uvp]./MG_JEN_Joneset.JJones()'
p115
asS'help'
p116
(dp117
g2
S'polarisation representation'
p118
sg25
S'the (subset of) stations to be used'
p119
sg49
S'sequence of Jones matrices to be used'
p120
sg26
S'if True, the Joneset reprsents uv-plane effects (q=uvp)'
p121
sg12
S'name of the MeqParm table to be used'
p122
sg27
S'list membership indication (used in JEN_inargGui)'
p123
sg28
g123
sg29
g123
ssS'description'
p124
S'Make a Joneset by creating and multiplying a sequence of one ore more Jonesets'
p125
ssg25
g48
sg115
(dp126
S'reset_funklet'
p127
I00
sg2
S'@@polrep'
p128
sS'tdeg_Jreal'
p129
I0
sS'color'
p130
S'red'
p131
sS'save_all'
p132
I00
sS'all4_always'
p133
Nsg12
S'@@parmtable'
p134
sS'subtile_size_Jreal'
p135
NsS'auto_save'
p136
I01
sS'size'
p137
I10
sS'style'
p138
S'circle'
p139
sS'tdeg_Jimag'
p140
S'@tdeg_Jreal'
p141
sS'condeq_corrs'
p142
S'*'
p143
sS'funklet_shape'
p144
Nsg18
(dp145
g20
S'MG_JEN_Joneset::JJones()'
p146
sg22
g115
sg23
(dp147
g138
I01
sg2
I01
sS'c00_default'
p148
I01
sg25
I01
sg130
I01
sg144
I01
sg142
I01
sg26
I01
sS'subtile_size'
p149
I01
sS'tfdeg'
p150
I01
sg12
I01
sg27
I01
sg28
I01
sg29
I01
sg137
I01
ssg30
S'MG_JEN_JonesetJJones'
p151
sg32
g33
sg124
S'Defines diagonal 2x2 Jones matrices for full polarisation:\n    Jjones(station,source) matrix elements:\n    - J_11 = (Jreal_11,Jimag_11)\n    - J_12 = (Jreal_12,Jimag_12)\n    - J_21 = (Jreal_21,Jimag_21)\n    - J_22 = (Jreal_22,Jimag_22)\n    For circular polarisation, R and L are used rather than X and Y\n    '
p152
sg34
S'MG_JEN_Joneset::JJones()  version=14feb2006  defined=2006-03-31 11:27'
p153
sg36
S'JJones'
p154
sg38
(dp155
g127
(lp156
I01
aI00
aS'@@reset_funklet'
p157
asg2
(lp158
g3
ag41
ag128
asg129
(lp159
I0
aI1
aI2
aI3
aS'@@tdeg_Jreal'
p160
asg130
(lp161
g131
aS'@@color'
p162
asg132
(lp163
I01
aI00
aS'@@save_all'
p164
asg133
(lp165
Na(lp166
I14
aa(lp167
I1
aaS'WSRT/WHAT'
p168
aS'@@all4_always'
p169
asg12
(lp170
Nag72
ag134
asg135
(lp171
NaI1
aI2
aI5
aI10
aI20
aI50
aI100
aI200
aI500
aS'@@subtile_size_Jreal'
p172
asg136
(lp173
I01
aI00
aS'@@auto_save'
p174
asg137
(lp175
I10
aS'@@size'
p176
asg138
(lp177
g139
aS'@@style'
p178
asg140
(lp179
I0
aI1
aI2
aI3
ag141
aS'@@tdeg_Jimag'
p180
asg142
(lp181
g143
aS'@@condeq_corrs'
p182
asg144
(lp183
NaS'@@funklet_shape'
p184
asg27
(lp185
g66
aS'@@@Jsequence_KJones'
p186
asS'fdeg_Jreal'
p187
(lp188
I0
aI1
aI2
aI3
aS'@@fdeg_Jreal'
p189
asg148
(lp190
F1.0
aS'@@c00_default'
p191
asg26
(lp192
I00
aS'@@uvplane_effect'
p193
asS'fdeg_Jimag'
p194
(lp195
I0
aI1
aI2
aI3
aS'@fdeg_Jreal'
p196
aS'@@fdeg_Jimag'
p197
asS'subtile_size_Jimag'
p198
(lp199
S'@subtile_size_Jreal'
p200
aNaI1
aI2
aI5
aI10
aI20
aI50
aI100
aI200
aI500
aS'@@subtile_size_Jimag'
p201
asg25
(lp202
(lp203
I0
aI1
aI2
aI3
aI4
aa(lp204
I0
aI1
aI2
aI3
aI4
aI5
aI6
aa(lp205
I0
aI1
aI2
aI3
aI4
aI5
aI6
aI7
aI8
aI9
aI10
aI11
aI12
aI13
aa(lp206
I0
aI1
aI2
aI3
aI4
aI5
aI6
aI7
aI8
aI9
aI10
aI11
aI12
aI13
aI14
aag47
aS'@@stations'
p207
asS'diagonal_only'
p208
(lp209
I01
aI00
aS'@@diagonal_only'
p210
asS'use_previous'
p211
(lp212
I01
aI00
aS'@@use_previous'
p213
asg149
(lp214
NaS'@@subtile_size'
p215
asg150
(lp216
NaS'@@tfdeg'
p217
asg28
(lp218
g66
aS'@@@Jsequence_simul'
p219
asg29
(lp220
g66
aS'@@@Jsequence'
p221
assg80
g81
sg82
I00
sg83
S'2006-03-31 11:27'
p222
sg85
S'14feb2006'
p223
sg87
S'MG_JEN_Joneset'
p224
sS'editable'
p225
(dp226
g127
I00
sg211
I00
sg208
I00
sg136
I00
sg132
I00
ssg89
S'** Specific description of inarg record for: MG_JEN_Joneset::JJones()  version=14feb2006  defined=2006-03-31 11:27'
p227
sg106
(dp228
g26
I00
sg12
I00
sg2
I00
sg25
I00
ssg105
g222
sg108
(lp229
g18
ag25
ag2
ag29
ag28
ag27
ag208
ag133
ag12
ag26
ag129
ag140
ag187
ag194
ag135
ag198
ag211
ag136
ag132
ag127
ag130
ag138
ag137
ag148
ag150
ag144
ag149
ag142
asg116
(dp230
g127
S'if True, do NOT use any MeqParm table values when solvable'
p231
sg2
g118
sg129
S'degree of time polynomial'
p232
sg130
S'plot_color'
p233
sg132
S'if True, save the update result even if not converged'
p234
sg133
S'stations for which all 4 elements will always be solved for'
p235
sg12
g122
sg135
S'sub-tile size (None=entire tile)'
p236
sg136
S'if True, save the result of every iteration (slow!)'
p237
sg137
S'size of plotted symbol'
p238
sg138
S'plot_style'
p239
sg140
g232
sg142
S'correlations to be used for solving'
p240
sg144
S'shape [time,freq] of default funklet'
p241
sg27
g123
sg187
S'degree of freq polynomial'
p242
sg148
S'default value of c[0,0] coefficient'
p243
sg26
g121
sg194
g242
sg198
g236
sg25
g119
sg208
S'if True, solve for diagonal (11,22) elements only'
p244
sg211
S'if True, start with the previous solution'
p245
sg149
S'size (time-slots) of a domain sub-tile'
p246
sg150
S'(time,freq) polynomial degree'
p247
sg28
g123
sg29
g123
sssg27
g66
sg187
I0
sg148
F1.0
sg26
g193
sg194
g196
sg198
g200
sg25
g207
sg208
I00
sg211
I01
sg149
Nsg150
Nsg28
g66
sg29
g66
ssg113
(dp248
g2
S'@@polrep'
p249
sg25
S'@@stations'
p250
sg18
(dp251
g20
S'MG_JEN_Joneset::KJones()'
p252
sg22
g113
sg23
(dp253
g27
I01
sg28
I01
sg25
I01
sg2
I01
sg29
I01
ssg30
S'MG_JEN_JonesetKJones'
p254
sg32
g33
sg124
S'defines diagonal KJones matrices for DFT Fourier kernel'
p255
sg34
S'MG_JEN_Joneset::KJones()  version=12dec2005  defined=2006-03-31 11:27'
p256
sg36
S'KJones'
p257
sg38
(dp258
g27
(lp259
g58
aS'@@@Jsequence_KJones'
p260
asg28
(lp261
g58
aS'@@@Jsequence_simul'
p262
asg25
(lp263
(lp264
I0
aI1
aI2
aI3
aI4
aa(lp265
I0
aI1
aI2
aI3
aI4
aI5
aI6
aa(lp266
I0
aI1
aI2
aI3
aI4
aI5
aI6
aI7
aI8
aI9
aI10
aI11
aI12
aI13
aa(lp267
I0
aI1
aI2
aI3
aI4
aI5
aI6
aI7
aI8
aI9
aI10
aI11
aI12
aI13
aI14
aag47
ag250
asg2
(lp268
g3
ag41
ag249
asg29
(lp269
g58
aS'@@@Jsequence'
p270
assg80
g81
sg82
I00
sg83
S'2006-03-31 11:27'
p271
sg85
S'12dec2005'
p272
sg87
S'MG_JEN_Joneset'
p273
sg89
S'** Specific description of inarg record for: MG_JEN_Joneset::KJones()  version=12dec2005  defined=2006-03-31 11:27'
p274
sg106
(dp275
g2
I00
sg25
I00
ssg105
g271
sg108
(lp276
g18
ag25
ag2
ag29
ag28
ag27
asg116
(dp277
g27
g123
sg28
g123
sg25
g119
sg2
g118
sg29
g123
sssg27
g58
sg28
g58
sg29
g58
ssg49
(lp278
sg26
g70
sg12
g73
sg112
(dp279
g127
I00
sg2
S'@@polrep'
p280
sg130
g131
sS'subtile_size_Bimag'
p281
S'@subtile_size_Breal'
p282
sg132
I00
sS'subtile_size_Breal'
p283
Nsg136
I01
sg137
I10
sg138
g139
sS'fdeg_Breal'
p284
I5
sg142
g143
sg144
Nsg18
(dp285
g20
S'MG_JEN_Joneset::BJones()'
p286
sg22
g112
sg23
(dp287
g138
I01
sg2
I01
sg148
I01
sg25
I01
sg130
I01
sg144
I01
sg142
I01
sg26
I01
sg149
I01
sg150
I01
sg12
I01
sg27
I01
sg28
I01
sg29
I01
sg137
I01
ssg30
S'MG_JEN_JonesetBJones'
p288
sg32
g33
sg124
S'Defines diagonal 2x2 Jones matrices that represent the IF bandpass:\n    Bjones(station,source) matrix elements:\n    - B_11 = (Breal_X,Bimag_X)\n    - B_12 = 0\n    - B_21 = 0\n    - B_22 = (Breal_Y,Bimag_Y)\n    For circular polarisation, R and L are used rather than X and Y\n    NB: The main differences with Gjones are:\n      - the higher-order (~5) freq-polynomial\n      - solving for real/imag rather than gain/phase \n    '
p289
sg34
S'MG_JEN_Joneset::BJones()  version=16dec2005  defined=2006-03-31 11:27'
p290
sg36
S'BJones'
p291
sg38
(dp292
g127
(lp293
I01
aI00
aS'@@reset_funklet'
p294
asg2
(lp295
g3
ag41
ag280
asg130
(lp296
g131
aS'@@color'
p297
asg281
(lp298
g282
aNaI1
aI2
aI5
aI10
aI20
aI50
aI100
aI200
aI500
aS'@@subtile_size_Bimag'
p299
asg132
(lp300
I01
aI00
aS'@@save_all'
p301
asg283
(lp302
NaI1
aI2
aI5
aI10
aI20
aI50
aI100
aI200
aI500
aS'@@subtile_size_Breal'
p303
asg136
(lp304
I01
aI00
aS'@@auto_save'
p305
asg137
(lp306
I10
aS'@@size'
p307
asg138
(lp308
g139
aS'@@style'
p309
asg284
(lp310
I3
aI4
aI5
aI6
aS'@@fdeg_Breal'
p311
asg142
(lp312
g143
aS'@@condeq_corrs'
p313
asg144
(lp314
NaS'@@funklet_shape'
p315
asg27
(lp316
g54
aS'@@@Jsequence_KJones'
p317
asS'tdeg_Bimag'
p318
(lp319
I0
aI1
aI2
aI3
aS'@tdeg_Breal'
p320
aS'@@tdeg_Bimag'
p321
asg29
(lp322
g54
aS'@@@Jsequence'
p323
asg148
(lp324
F1.0
aS'@@c00_default'
p325
asS'fdeg_Bimag'
p326
(lp327
I3
aI4
aI5
aI6
aS'@fdeg_Breal'
p328
aS'@@fdeg_Bimag'
p329
asg26
(lp330
I00
aS'@@uvplane_effect'
p331
asg25
(lp332
(lp333
I0
aI1
aI2
aI3
aI4
aa(lp334
I0
aI1
aI2
aI3
aI4
aI5
aI6
aa(lp335
I0
aI1
aI2
aI3
aI4
aI5
aI6
aI7
aI8
aI9
aI10
aI11
aI12
aI13
aa(lp336
I0
aI1
aI2
aI3
aI4
aI5
aI6
aI7
aI8
aI9
aI10
aI11
aI12
aI13
aI14
aag47
aS'@@stations'
p337
asg150
(lp338
NaS'@@tfdeg'
p339
asS'tdeg_Breal'
p340
(lp341
I0
aI1
aI2
aI3
aS'@@tdeg_Breal'
p342
asg211
(lp343
I01
aI00
aS'@@use_previous'
p344
asg149
(lp345
NaS'@@subtile_size'
p346
asg12
(lp347
Nag72
aS'@@parmtable'
p348
asg28
(lp349
g54
aS'@@@Jsequence_simul'
p350
assg80
g81
sg82
I00
sg83
S'2006-03-31 11:27'
p351
sg85
S'16dec2005'
p352
sg87
S'MG_JEN_Joneset'
p353
sg225
(dp354
g127
I00
sg211
I00
sg136
I00
sg132
I00
ssg89
S'** Specific description of inarg record for: MG_JEN_Joneset::BJones()  version=16dec2005  defined=2006-03-31 11:27'
p355
sg106
(dp356
g26
I00
sg12
I00
sg2
I00
sg25
I00
ssg105
g351
sg108
(lp357
g18
ag25
ag2
ag29
ag28
ag27
ag12
ag26
ag340
ag318
ag284
ag326
ag283
ag281
ag211
ag136
ag132
ag127
ag130
ag138
ag137
ag148
ag150
ag144
ag149
ag142
asg116
(dp358
g127
g231
sg2
g118
sg130
g233
sg281
S'sub-tile size (None=entire tile)'
p359
sg132
g234
sg283
g359
sg136
g237
sg137
g238
sg138
g239
sg284
S'degree of freq polynomial'
p360
sg142
g240
sg144
g241
sg27
g123
sg318
S'degree of time polynomial'
p361
sg29
g123
sg148
g243
sg326
g360
sg26
g121
sg25
g119
sg150
g247
sg340
g361
sg211
g245
sg149
g246
sg12
g122
sg28
g123
sssg27
g54
sg318
g320
sg29
g54
sg148
F1.0
sg326
g328
sg26
g331
sg12
g348
sg25
g337
sg340
I0
sg211
I01
sg149
Nsg150
Nsg28
g54
ssg111
(dp362
g127
I00
sg2
S'@@polrep'
p363
sg130
g131
sg132
I00
sg150
Nsg136
I01
sg137
I10
sg138
g139
sg142
g143
sg144
Nsg18
(dp364
g20
S'MG_JEN_Joneset::FJones()'
p365
sg22
g111
sg23
(dp366
g138
I01
sg2
I01
sg148
I01
sg25
I01
sg130
I01
sg144
I01
sg142
I01
sg26
I01
sg149
I01
sg150
I01
sg12
I01
sg27
I01
sg28
I01
sg29
I01
sg137
I01
ssg30
S'MG_JEN_JonesetFJones'
p367
sg32
g33
sg124
S'defines diagonal FJones Faraday rotation matrices'
p368
sg34
S'MG_JEN_Joneset::FJones()  version=16dec2005  defined=2006-03-31 11:27'
p369
sg36
S'FJones'
p370
sg38
(dp371
g127
(lp372
I01
aI00
aS'@@reset_funklet'
p373
asg2
(lp374
g3
ag41
ag363
asg130
(lp375
g131
aS'@@color'
p376
asg132
(lp377
I01
aI00
aS'@@save_all'
p378
asg150
(lp379
NaS'@@tfdeg'
p380
asg136
(lp381
I01
aI00
aS'@@auto_save'
p382
asg137
(lp383
I10
aS'@@size'
p384
asg138
(lp385
g139
aS'@@style'
p386
asg142
(lp387
g143
aS'@@condeq_corrs'
p388
asg144
(lp389
NaS'@@funklet_shape'
p390
asg27
(lp391
g56
aS'@@@Jsequence_KJones'
p392
asg29
(lp393
g56
aS'@@@Jsequence'
p394
asg148
(lp395
F1.0
aS'@@c00_default'
p396
asg26
(lp397
I00
aS'@@uvplane_effect'
p398
asg25
(lp399
(lp400
I0
aI1
aI2
aI3
aI4
aa(lp401
I0
aI1
aI2
aI3
aI4
aI5
aI6
aa(lp402
I0
aI1
aI2
aI3
aI4
aI5
aI6
aI7
aI8
aI9
aI10
aI11
aI12
aI13
aa(lp403
I0
aI1
aI2
aI3
aI4
aI5
aI6
aI7
aI8
aI9
aI10
aI11
aI12
aI13
aI14
aag47
aS'@@stations'
p404
asS'tdeg_RM'
p405
(lp406
I0
aI1
aI2
aI3
aS'@@tdeg_RM'
p407
asg211
(lp408
I01
aI00
aS'@@use_previous'
p409
asS'fdeg_RM'
p410
(lp411
I0
aI1
aI2
aI3
aS'@@fdeg_RM'
p412
asg149
(lp413
NaS'@@subtile_size'
p414
asg12
(lp415
Nag72
aS'@@parmtable'
p416
asS'subtile_size_RM'
p417
(lp418
NaI1
aI2
aI5
aI10
aI20
aI50
aI100
aI200
aI500
aS'@@subtile_size_RM'
p419
asg28
(lp420
g56
aS'@@@Jsequence_simul'
p421
assg80
g81
sg82
I00
sg83
S'2006-03-31 11:27'
p422
sg85
g352
sg87
S'MG_JEN_Joneset'
p423
sg225
(dp424
g127
I00
sg211
I00
sg136
I00
sg132
I00
ssg89
S'** Specific description of inarg record for: MG_JEN_Joneset::FJones()  version=16dec2005  defined=2006-03-31 11:27'
p425
sg106
(dp426
g26
I00
sg12
I00
sg2
I00
sg25
I00
ssg105
g422
sg108
(lp427
g18
ag25
ag2
ag29
ag28
ag27
ag12
ag26
ag405
ag410
ag417
ag211
ag136
ag132
ag127
ag130
ag138
ag137
ag148
ag150
ag144
ag149
ag142
asg116
(dp428
g127
g231
sg2
g118
sg130
g233
sg132
g234
sg150
g247
sg136
g237
sg137
g238
sg138
g239
sg142
g240
sg144
g241
sg27
g123
sg29
g123
sg148
g243
sg26
g121
sg25
g119
sg405
S'degree of time polynomial'
p429
sg211
g245
sg410
S'degree of freq polynomial'
p430
sg149
g246
sg12
g122
sg417
S'sub-tile size (None=entire tile)'
p431
sg28
g123
sssg27
g56
sg29
g56
sg148
F1.0
sg26
g398
sg25
g404
sg405
I0
sg211
I01
sg410
I2
sg149
Nsg12
g416
sg417
I1
sg28
g56
ssg110
(dp432
g127
I00
sg2
S'@@polrep'
p433
sS'fdeg_Ggain'
p434
I0
sg130
g131
sg132
I00
sg12
S'@@parmtable'
p435
sg136
I01
sg137
I10
sg138
g139
sS'subtile_size_Ggain'
p436
I1
sg142
g143
sg144
Nsg18
(dp437
g20
S'MG_JEN_Joneset::GJones()'
p438
sg22
g110
sg23
(dp439
g138
I01
sg2
I01
sg148
I01
sg25
I01
sg130
I01
sg29
I01
sg144
I01
sg142
I01
sg26
I01
sg149
I01
sg150
I01
sg12
I01
sg27
I01
sg28
I01
sS'Gpolar'
p440
I01
sg137
I01
ssg30
S'MG_JEN_JonesetGJones'
p441
sg32
g33
sg124
S'Defines diagonal 2x2 Jones matrices that represent complex gain:\n    Gjones(station,source) matrix elements:\n    - G_11 = Ggain_X*exp(iGphase_X)\n    - G_12 = 0\n    - G_21 = 0\n    - G_22 = Ggain_Y*exp(iGphase_Y)\n    For circular polarisation, R and L are used rather than X and Y\n    '
p442
sg34
S'MG_JEN_Joneset::GJones()  version=15dec2005  defined=2006-03-31 11:27'
p443
sg36
S'GJones'
p444
sg38
(dp445
g127
(lp446
I01
aI00
aS'@@reset_funklet'
p447
asg2
(lp448
g3
ag41
ag433
asg434
(lp449
I0
aI1
aI2
aI3
aS'@@fdeg_Ggain'
p450
asg130
(lp451
g131
aS'@@color'
p452
asg132
(lp453
I01
aI00
aS'@@save_all'
p454
asg12
(lp455
Nag72
ag435
asg136
(lp456
I01
aI00
aS'@@auto_save'
p457
asg137
(lp458
I10
aS'@@size'
p459
asg138
(lp460
g139
aS'@@style'
p461
asg436
(lp462
NaI1
aI2
aI5
aI10
aI20
aI50
aI100
aI200
aI500
aS'@@subtile_size_Ggain'
p463
asg142
(lp464
g143
aS'@@condeq_corrs'
p465
asg144
(lp466
NaS'@@funklet_shape'
p467
asg27
(lp468
g52
aS'@@@Jsequence_KJones'
p469
asg29
(lp470
g52
aS'@@@Jsequence'
p471
asg148
(lp472
F1.0
aS'@@c00_default'
p473
asS'tdeg_Gphase'
p474
(lp475
I0
aI1
aI2
aI3
aS'@tdeg_Ggain'
p476
aS'@@tdeg_Gphase'
p477
asS'tdeg_Ggain'
p478
(lp479
I0
aI1
aI2
aI3
aS'@@tdeg_Ggain'
p480
asS'fdeg_Gphase'
p481
(lp482
I0
aI1
aI2
aI3
aS'@fdeg_Ggain'
p483
aS'@@fdeg_Gphase'
p484
asS'subtile_size_Gphase'
p485
(lp486
S'@subtile_size_Ggain'
p487
aNaI1
aI2
aI5
aI10
aI20
aI50
aI100
aI200
aI500
aS'@@subtile_size_Gphase'
p488
asg440
(lp489
I01
aI00
aS'@@Gpolar'
p490
asg26
(lp491
I00
aS'@@uvplane_effect'
p492
asg25
(lp493
(lp494
I0
aI1
aI2
aI3
aI4
aa(lp495
I0
aI1
aI2
aI3
aI4
aI5
aI6
aa(lp496
I0
aI1
aI2
aI3
aI4
aI5
aI6
aI7
aI8
aI9
aI10
aI11
aI12
aI13
aa(lp497
I0
aI1
aI2
aI3
aI4
aI5
aI6
aI7
aI8
aI9
aI10
aI11
aI12
aI13
aI14
aag47
aS'@@stations'
p498
asg211
(lp499
I01
aI00
aS'@@use_previous'
p500
asg149
(lp501
NaS'@@subtile_size'
p502
asg150
(lp503
NaS'@@tfdeg'
p504
asg28
(lp505
g52
aS'@@@Jsequence_simul'
p506
assg80
g81
sg82
I00
sg83
S'2006-03-31 11:27'
p507
sg85
S'15dec2005'
p508
sg87
S'MG_JEN_Joneset'
p509
sg225
(dp510
g127
I00
sg211
I00
sg440
I00
sg136
I00
sg132
I00
ssg89
S'** Specific description of inarg record for: MG_JEN_Joneset::GJones()  version=15dec2005  defined=2006-03-31 11:27'
p511
sg106
(dp512
g26
I00
sg12
I00
sg2
I00
sg25
I00
ssg105
g507
sg108
(lp513
g18
ag25
ag2
ag29
ag28
ag27
ag440
ag12
ag26
ag478
ag474
ag434
ag481
ag436
ag485
ag211
ag136
ag132
ag127
ag130
ag138
ag137
ag148
ag150
ag144
ag149
ag142
asg116
(dp514
g127
g231
sg2
g118
sg434
S'degree of freq polynomial'
p515
sg130
g233
sg132
g234
sg12
g122
sg136
g237
sg137
g238
sg138
g239
sg436
S'sub-tile size (None=entire tile)'
p516
sg142
g240
sg144
g241
sg27
g123
sg29
g123
sg148
g243
sg474
S'degree of time polynomial'
p517
sg478
g517
sg481
g515
sg485
g516
sg440
S'obsolete, kept only for upward compatibility'
p518
sg26
g121
sg25
g119
sg211
g245
sg149
g246
sg150
g247
sg28
g123
sssg27
g52
sg29
g52
sg148
F1.0
sg474
g476
sg478
I0
sg481
g483
sg485
g487
sg440
I01
sg26
g492
sg25
g498
sg211
I01
sg149
Nsg150
Nsg28
g52
ssg114
(dp519
g127
I00
sg2
S'@@polrep'
p520
sg130
g131
sS'fdeg_Dell'
p521
S'@fdeg_Dang'
p522
sS'coupled_XY_Dell'
p523
I01
sg132
I00
sg12
S'@@parmtable'
p524
sS'subtile_size_Dang'
p525
Nsg136
I01
sg137
I10
sg138
g139
sg142
g143
sg144
Nsg18
(dp526
g20
S'MG_JEN_Joneset::DJones_WSRT()'
p527
sg22
g114
sg23
(dp528
g138
I01
sg2
I01
sg148
I01
sg25
I01
sg130
I01
sg144
I01
sg142
I01
sg26
I01
sg149
I01
sg150
I01
sg12
I01
sg27
I01
sg28
I01
sg29
I01
sg137
I01
ssg30
S'MG_JEN_JonesetDJones_WSRT'
p529
sg32
g33
sg124
S'defines 2x2 DJones_WSRT (polarisation leakage) matrices'
p530
sg34
S'MG_JEN_Joneset::DJones_WSRT()  version=16dec2005  defined=2006-03-31 11:27'
p531
sg36
S'DJones_WSRT'
p532
sg38
(dp533
g127
(lp534
I01
aI00
aS'@@reset_funklet'
p535
asg2
(lp536
g3
ag41
ag520
asg130
(lp537
g131
aS'@@color'
p538
asg521
(lp539
I0
aI1
aI2
aI3
ag522
aS'@@fdeg_Dell'
p540
asg523
(lp541
I01
aI00
aS'@@coupled_XY_Dell'
p542
asg132
(lp543
I01
aI00
aS'@@save_all'
p544
asg12
(lp545
Nag72
ag524
asg525
(lp546
NaI1
aI2
aI5
aI10
aI20
aI50
aI100
aI200
aI500
aS'@@subtile_size_Dang'
p547
asg136
(lp548
I01
aI00
aS'@@auto_save'
p549
asg137
(lp550
I10
aS'@@size'
p551
asg138
(lp552
g139
aS'@@style'
p553
asg142
(lp554
g143
aS'@@condeq_corrs'
p555
asg144
(lp556
NaS'@@funklet_shape'
p557
asg27
(lp558
g60
aS'@@@Jsequence_KJones'
p559
asS'subtile_size_Dell'
p560
(lp561
S'@subtile_size_Dang'
p562
aNaI1
aI2
aI5
aI10
aI20
aI50
aI100
aI200
aI500
aS'@@subtile_size_Dell'
p563
asg29
(lp564
g60
aS'@@@Jsequence'
p565
asS'fdeg_Dang'
p566
(lp567
I0
aI1
aI2
aI3
aS'@@fdeg_Dang'
p568
asg148
(lp569
F1.0
aS'@@c00_default'
p570
asg26
(lp571
I00
aS'@@uvplane_effect'
p572
asS'tdeg_Dell'
p573
(lp574
I0
aI1
aI2
aI3
aS'@tdeg_Dang'
p575
aS'@@tdeg_Dell'
p576
asS'coupled_XY_Dang'
p577
(lp578
I01
aI00
aS'@@coupled_XY_Dang'
p579
asS'tdeg_Dang'
p580
(lp581
I0
aI1
aI2
aI3
aS'@@tdeg_Dang'
p582
asg25
(lp583
(lp584
I0
aI1
aI2
aI3
aI4
aa(lp585
I0
aI1
aI2
aI3
aI4
aI5
aI6
aa(lp586
I0
aI1
aI2
aI3
aI4
aI5
aI6
aI7
aI8
aI9
aI10
aI11
aI12
aI13
aa(lp587
I0
aI1
aI2
aI3
aI4
aI5
aI6
aI7
aI8
aI9
aI10
aI11
aI12
aI13
aI14
aag47
aS'@@stations'
p588
asg211
(lp589
I01
aI00
aS'@@use_previous'
p590
asg149
(lp591
NaS'@@subtile_size'
p592
asg150
(lp593
NaS'@@tfdeg'
p594
asg28
(lp595
g60
aS'@@@Jsequence_simul'
p596
assg80
g81
sg82
I00
sg83
S'2006-03-31 11:27'
p597
sg85
g352
sg87
S'MG_JEN_Joneset'
p598
sg225
(dp599
g127
I00
sg523
I00
sg211
I00
sg577
I00
sg132
I00
sg136
I00
ssg89
S'** Specific description of inarg record for: MG_JEN_Joneset::DJones_WSRT()  version=16dec2005  defined=2006-03-31 11:27'
p600
sg106
(dp601
g26
I00
sg12
I00
sg2
I00
sg25
I00
ssg105
g597
sg108
(lp602
g18
ag25
ag2
ag29
ag28
ag27
ag577
ag523
ag12
ag26
ag580
ag573
ag566
ag521
ag525
ag560
ag211
ag136
ag132
ag127
ag130
ag138
ag137
ag148
ag150
ag144
ag149
ag142
asg116
(dp603
g127
g231
sg2
g118
sg130
g233
sg521
S'degree of freq polynomial'
p604
sg523
S'if True, XDell = -YDell per station'
p605
sg132
g234
sg12
g122
sg525
S'sub-tile size (None=entire tile)'
p606
sg136
g237
sg137
g238
sg138
g239
sg142
g240
sg144
g241
sg27
g123
sg560
g606
sg29
g123
sg566
g604
sg148
g243
sg26
g121
sg573
S'degree of time polynomial'
p607
sg577
S'if True, XDang = YDang per station'
p608
sg580
g607
sg25
g119
sg211
g245
sg149
g246
sg150
g247
sg28
g123
sssg27
g60
sg560
g562
sg29
g60
sg566
I0
sg148
F1.0
sg26
g572
sg573
g575
sg577
I01
sg580
I0
sg25
g588
sg211
I01
sg149
Nsg150
Nsg28
g60
ssg27
Nsg28
Nsg29
NssS'LSM_solve'
p609
S'lsm_current.lsm'
p610
sS'[simul_uvp]./MG_JEN_Cohset.Jones()'
p611
(dp612
S'[simul_uvp]./MG_JEN_Joneset.JJones()'
p613
(dp614
S'unop'
p615
S'Cos'
p616
sg208
I00
sg2
S'@@polrep'
p617
sg130
S'yellow'
p618
sS'stddev_period'
p619
F0.10000000000000001
sg133
NsS'fdeg'
p620
I0
sg137
I5
sS'mean_period_s'
p621
I500
sS'mean_tampl'
p622
F0.20000000000000001
sg18
(dp623
g20
S'MG_JEN_Joneset::JJones()'
p624
sg22
g613
sg23
(dp625
g615
I00
sg138
I01
sg2
I01
sg148
I01
sg25
I01
sg130
I01
sS'timescale_min'
p626
I01
sg620
I01
sg27
I01
sS'c00_scale'
p627
I01
sg28
I01
sg29
I01
sg137
I01
ssg30
S'MG_JEN_JonesetJJones'
p628
sg32
g33
sg124
g152
sg34
S'MG_JEN_Joneset::JJones()  version=14feb2006  defined=2006-03-31 11:27'
p629
sg36
S'JJones'
p630
sg38
(dp631
g615
(lp632
g616
aS'Sin'
p633
a(lp634
g616
ag633
aaNaS'@@unop'
p635
asg27
(lp636
g66
aS'@@@Jsequence_KJones'
p637
asg138
(lp638
S'triangle'
p639
aS'@@style'
p640
asg208
(lp641
I01
aI00
aS'@@diagonal_only'
p642
asg2
(lp643
g3
ag41
ag617
asg148
(lp644
F1.0
aS'@@c00_default'
p645
asg25
(lp646
(lp647
I0
aI1
aI2
aI3
aI4
aa(lp648
I0
aI1
aI2
aI3
aI4
aI5
aI6
aa(lp649
I0
aI1
aI2
aI3
aI4
aI5
aI6
aI7
aI8
aI9
aI10
aI11
aI12
aI13
aa(lp650
I0
aI1
aI2
aI3
aI4
aI5
aI6
aI7
aI8
aI9
aI10
aI11
aI12
aI13
aI14
aag47
aS'@@stations'
p651
asg130
(lp652
g618
aS'@@color'
p653
asg619
(lp654
I0
aF0.01
aF0.10000000000000001
aF0.20000000000000001
aF0.5
aS'@@stddev_period'
p655
asg626
(lp656
I20
aS'@@timescale_min'
p657
asg133
(lp658
Na(lp659
I14
aa(lp660
I1
aag168
aS'@@all4_always'
p661
asS'mean_period'
p662
(lp663
F0.29999999999999999
aF0.5
aI1
aI2
aI3
aS'@@mean_period'
p664
asS'stddev_c00'
p665
(lp666
I0
aF0.0001
aF0.001
aF0.01
aF0.10000000000000001
aI1
aS'@@stddev_c00'
p667
asg620
(lp668
I0
aS'@@fdeg'
p669
asS'mean_c00'
p670
(lp671
I0
aF0.10000000000000001
aF0.20000000000000001
aF0.5
aF-0.10000000000000001
aS'@@mean_c00'
p672
asg627
(lp673
F1.0
aS'@@c00_scale'
p674
asg28
(lp675
g66
aS'@@@Jsequence_simul'
p676
asg29
(lp677
g66
aS'@@@Jsequence'
p678
asg137
(lp679
I5
aS'@@size'
p680
assg80
S'simul_uvp'
p681
sg82
I00
sg83
S'2006-03-31 11:27'
p682
sg85
g223
sg87
S'MG_JEN_Joneset'
p683
sg225
(dp684
g208
I00
ssg89
S'** Specific description of inarg record for: MG_JEN_Joneset::JJones()  version=14feb2006  defined=2006-03-31 11:27'
p685
sg106
(dp686
g2
I00
sg25
I00
ssg105
g682
sg108
(lp687
g18
ag25
ag2
ag29
ag28
ag27
ag208
ag133
ag670
ag665
ag662
ag619
ag615
ag626
ag620
ag130
ag138
ag137
ag148
ag627
asg116
(dp688
g615
S'time-variability function'
p689
sg27
g123
sg138
g239
sg208
g244
sg2
g118
sg148
S'default value of c00'
p690
sg25
g119
sg130
g233
sg619
S'scatter in period T (fraction of timescale_min)'
p691
sg626
S'group timescale in minutes'
p692
sg133
g235
sg662
S'mean time-period T (fraction of timescale_min)'
p693
sg665
S'scatter in EXTRA c00 (fraction of c00_scale'
p694
sg620
S'degree of freq polynomial'
p695
sg670
S'mean of EXTRA c00 (fraction of c00_scale)'
p696
sg627
S'scale of c00'
p697
sg28
g123
sg29
g123
sg137
S'size of plotted symbol'
p698
sssg27
g66
sg29
g66
sS'stddev_period_s'
p699
I50
sg148
F1.0
sg138
g639
sg670
F0.10000000000000001
sg25
g651
sg626
I20
sg662
F1.0
sg665
F0.01
sg627
F1.0
sg28
g66
sS'stddev_tampl'
p700
F0.02
ssg2
S'@@polrep'
p701
sS'[simul_uvp]./MG_JEN_Joneset.KJones()'
p702
(dp703
g2
S'@@polrep'
p704
sg25
S'@@stations'
p705
sg18
(dp706
g20
S'MG_JEN_Joneset::KJones()'
p707
sg22
g702
sg23
(dp708
g27
I01
sg28
I01
sg25
I01
sg2
I01
sg29
I01
ssg30
S'MG_JEN_JonesetKJones'
p709
sg32
g33
sg124
g255
sg34
S'MG_JEN_Joneset::KJones()  version=12dec2005  defined=2006-03-31 11:27'
p710
sg36
S'KJones'
p711
sg38
(dp712
g27
(lp713
g58
aS'@@@Jsequence_KJones'
p714
asg28
(lp715
g58
aS'@@@Jsequence_simul'
p716
asg25
(lp717
(lp718
I0
aI1
aI2
aI3
aI4
aa(lp719
I0
aI1
aI2
aI3
aI4
aI5
aI6
aa(lp720
I0
aI1
aI2
aI3
aI4
aI5
aI6
aI7
aI8
aI9
aI10
aI11
aI12
aI13
aa(lp721
I0
aI1
aI2
aI3
aI4
aI5
aI6
aI7
aI8
aI9
aI10
aI11
aI12
aI13
aI14
aag47
ag705
asg2
(lp722
g3
ag41
ag704
asg29
(lp723
g58
aS'@@@Jsequence'
p724
assg80
g681
sg82
I00
sg83
S'2006-03-31 11:27'
p725
sg85
g272
sg87
S'MG_JEN_Joneset'
p726
sg89
S'** Specific description of inarg record for: MG_JEN_Joneset::KJones()  version=12dec2005  defined=2006-03-31 11:27'
p727
sg106
(dp728
g2
I00
sg25
I00
ssg105
g725
sg108
(lp729
g18
ag25
ag2
ag29
ag28
ag27
asg116
(dp730
g27
g123
sg28
g123
sg25
g119
sg2
g118
sg29
g123
sssg27
g58
sg28
g58
sg29
g58
ssS'[simul_uvp]./MG_JEN_Joneset.BJones()'
p731
(dp732
g615
g616
sg2
S'@@polrep'
p733
sg130
g618
sg619
F0.10000000000000001
sg620
I0
sg137
I5
sg138
g639
sg622
F0.20000000000000001
sg18
(dp734
g20
S'MG_JEN_Joneset::BJones()'
p735
sg22
g731
sg23
(dp736
g615
I00
sg138
I01
sg2
I01
sg148
I01
sg25
I01
sg130
I01
sg626
I01
sg620
I01
sg27
I01
sg627
I01
sg28
I01
sg29
I01
sg137
I01
ssg30
S'MG_JEN_JonesetBJones'
p737
sg32
g33
sg124
g289
sg34
S'MG_JEN_Joneset::BJones()  version=16dec2005  defined=2006-03-31 11:27'
p738
sg36
S'BJones'
p739
sg38
(dp740
g615
(lp741
g616
ag633
a(lp742
g616
ag633
aaNaS'@@unop'
p743
asg138
(lp744
g639
aS'@@style'
p745
asg2
(lp746
g3
ag41
ag733
asg148
(lp747
F1.0
aS'@@c00_default'
p748
asg25
(lp749
(lp750
I0
aI1
aI2
aI3
aI4
aa(lp751
I0
aI1
aI2
aI3
aI4
aI5
aI6
aa(lp752
I0
aI1
aI2
aI3
aI4
aI5
aI6
aI7
aI8
aI9
aI10
aI11
aI12
aI13
aa(lp753
I0
aI1
aI2
aI3
aI4
aI5
aI6
aI7
aI8
aI9
aI10
aI11
aI12
aI13
aI14
aag47
aS'@@stations'
p754
asg130
(lp755
g618
aS'@@color'
p756
asg619
(lp757
I0
aF0.01
aF0.10000000000000001
aF0.20000000000000001
aF0.5
aS'@@stddev_period'
p758
asg670
(lp759
I0
aF0.10000000000000001
aF0.20000000000000001
aF0.5
aF-0.10000000000000001
aS'@@mean_c00'
p760
asg626
(lp761
I20
aS'@@timescale_min'
p762
asg662
(lp763
F0.29999999999999999
aF0.5
aI1
aI2
aI3
aS'@@mean_period'
p764
asg665
(lp765
I0
aF0.0001
aF0.001
aF0.01
aF0.10000000000000001
aI1
aS'@@stddev_c00'
p766
asg620
(lp767
I0
aS'@@fdeg'
p768
asg27
(lp769
g54
aS'@@@Jsequence_KJones'
p770
asg627
(lp771
F1.0
aS'@@c00_scale'
p772
asg28
(lp773
g54
aS'@@@Jsequence_simul'
p774
asg29
(lp775
g54
aS'@@@Jsequence'
p776
asg137
(lp777
I5
aS'@@size'
p778
assg80
g681
sg82
I00
sg83
S'2006-03-31 11:27'
p779
sg85
g352
sg87
S'MG_JEN_Joneset'
p780
sg89
S'** Specific description of inarg record for: MG_JEN_Joneset::BJones()  version=16dec2005  defined=2006-03-31 11:27'
p781
sg106
(dp782
g2
I00
sg25
I00
ssg105
g779
sg108
(lp783
g18
ag25
ag2
ag29
ag28
ag27
ag670
ag665
ag662
ag619
ag615
ag626
ag620
ag130
ag138
ag137
ag148
ag627
asg116
(dp784
g615
g689
sg138
g239
sg2
g118
sg148
g690
sg25
g119
sg130
g233
sg619
g691
sg670
g696
sg626
g692
sg662
g693
sg665
g694
sg620
g695
sg27
g123
sg627
g697
sg28
g123
sg29
g123
sg137
g698
sssg27
g54
sg29
g54
sg699
I100
sg148
F1.0
sg621
I5000
sg670
F0.10000000000000001
sg25
g754
sg626
I20
sg662
F1.0
sg665
F0.01
sg627
F1.0
sg28
g54
sg700
F0.02
ssg25
S'@@stations'
p785
sg26
S'@@uvplane_effect'
p786
sg12
S'@@parmtable'
p787
sS'[simul_uvp]./MG_JEN_Joneset.DJones_WSRT()'
p788
(dp789
g615
g616
sg2
S'@@polrep'
p790
sg130
g618
sg619
F0.10000000000000001
sg523
I01
sg620
I0
sg137
I5
sg138
g639
sg622
F0.002
sg18
(dp791
g20
S'MG_JEN_Joneset::DJones_WSRT()'
p792
sg22
g788
sg23
(dp793
g615
I00
sg138
I01
sg2
I01
sg148
I01
sg25
I01
sg130
I01
sg626
I01
sg620
I01
sg27
I01
sg627
I01
sg28
I01
sg29
I01
sg137
I01
ssg30
S'MG_JEN_JonesetDJones_WSRT'
p794
sg32
g33
sg124
g530
sg34
S'MG_JEN_Joneset::DJones_WSRT()  version=16dec2005  defined=2006-03-31 11:27'
p795
sg36
S'DJones_WSRT'
p796
sg38
(dp797
g615
(lp798
g616
ag633
a(lp799
g616
ag633
aaNaS'@@unop'
p800
asg27
(lp801
g60
aS'@@@Jsequence_KJones'
p802
asg138
(lp803
g639
aS'@@style'
p804
asg523
(lp805
I01
aI00
aS'@@coupled_XY_Dell'
p806
asg2
(lp807
g3
ag41
ag790
asg148
(lp808
F1.0
aS'@@c00_default'
p809
asg25
(lp810
(lp811
I0
aI1
aI2
aI3
aI4
aa(lp812
I0
aI1
aI2
aI3
aI4
aI5
aI6
aa(lp813
I0
aI1
aI2
aI3
aI4
aI5
aI6
aI7
aI8
aI9
aI10
aI11
aI12
aI13
aa(lp814
I0
aI1
aI2
aI3
aI4
aI5
aI6
aI7
aI8
aI9
aI10
aI11
aI12
aI13
aI14
aag47
aS'@@stations'
p815
asg130
(lp816
g618
aS'@@color'
p817
asg619
(lp818
I0
aF0.01
aF0.10000000000000001
aF0.20000000000000001
aF0.5
aS'@@stddev_period'
p819
asg626
(lp820
I20
aS'@@timescale_min'
p821
asg662
(lp822
F0.29999999999999999
aF0.5
aI1
aI2
aI3
aS'@@mean_period'
p823
asg665
(lp824
I0
aF0.0001
aF0.001
aF0.01
aF0.10000000000000001
aI1
aS'@@stddev_c00'
p825
asg620
(lp826
I0
aS'@@fdeg'
p827
asg670
(lp828
I0
aF0.10000000000000001
aF0.20000000000000001
aF0.5
aF-0.10000000000000001
aS'@@mean_c00'
p829
asg627
(lp830
F1.0
aS'@@c00_scale'
p831
asg28
(lp832
g60
aS'@@@Jsequence_simul'
p833
asg29
(lp834
g60
aS'@@@Jsequence'
p835
asg577
(lp836
I01
aI00
aS'@@coupled_XY_Dang'
p837
asg137
(lp838
I5
aS'@@size'
p839
assg80
g681
sg82
I00
sg83
S'2006-03-31 11:27'
p840
sg85
g352
sg87
S'MG_JEN_Joneset'
p841
sg225
(dp842
g577
I00
sg523
I00
ssg89
S'** Specific description of inarg record for: MG_JEN_Joneset::DJones_WSRT()  version=16dec2005  defined=2006-03-31 11:27'
p843
sg106
(dp844
g2
I00
sg25
I00
ssg105
g840
sg108
(lp845
g18
ag25
ag2
ag29
ag28
ag27
ag577
ag523
ag670
ag665
ag662
ag619
ag615
ag626
ag620
ag130
ag138
ag137
ag148
ag627
asg116
(dp846
g615
g689
sg27
g123
sg138
g239
sg523
g605
sg2
g118
sg148
g690
sg25
g119
sg130
g233
sg619
g691
sg626
g692
sg662
g693
sg665
g694
sg620
g695
sg670
g696
sg627
g697
sg28
g123
sg29
g123
sg577
g608
sg137
g698
sssg27
g60
sg29
g60
sg699
I100
sg148
F1.0
sg621
I3000
sg670
F0.10000000000000001
sg577
I01
sg25
g815
sg626
I20
sg662
F1.0
sg665
F0.01
sg627
F1.0
sg28
g60
sg700
F0.00020000000000000001
ssg18
(dp847
g20
g21
sg22
g611
sg23
(dp848
g2
I01
sg25
I01
sg26
I01
sg12
I01
sg27
I01
sg28
I01
sg29
I01
ssg30
S'MG_JEN_CohsetJones'
p849
sg32
g33
sg34
S'MG_JEN_Cohset::Jones()  version=25dec2005  defined=2006-03-31 11:27'
p850
sg36
S'Jones'
p851
sg38
(dp852
g2
(lp853
g3
ag41
ag701
asg25
(lp854
(lp855
I0
aI1
aI2
aI3
aI4
aa(lp856
I0
aI1
aI2
aI3
aI4
aI5
aI6
aa(lp857
I0
aI1
aI2
aI3
aI4
aI5
aI6
aI7
aI8
aI9
aI10
aI11
aI12
aI13
aa(lp858
I0
aI1
aI2
aI3
aI4
aI5
aI6
aI7
aI8
aI9
aI10
aI11
aI12
aI13
aI14
aag47
ag785
asg26
(lp859
I00
ag786
asg12
(lp860
Nag72
ag787
asg27
(lp861
NaS'@@@Jsequence_KJones'
p862
asg28
(lp863
NaS'@@@Jsequence_simul'
p864
asS'Jsequence_simul_uvp'
p865
(lp866
(lp867
g52
aa(lp868
g54
aa(lp869
g56
aa(lp870
g58
aa(lp871
g60
aa(lp872
g52
ag60
aa(lp873
g63
aa(lp874
g52
ag63
aa(lp875
g66
aa(lp876
aS'@@Jsequence_simul_uvp'
p877
asg29
(lp878
NaS'@@@Jsequence'
p879
assg80
g681
sg82
I00
sg83
S'2006-03-31 11:27'
p880
sg85
g86
sg87
S'MG_JEN_Cohset'
p881
sg89
S'** Specific description of inarg record for: MG_JEN_Cohset::Jones()  version=25dec2005  defined=2006-03-31 11:27'
p882
sg91
(dp883
g93
S'** JEN_inarg.attach(): attached: [simul_uvp]./MG_JEN_Joneset.FJones()'
p884
sg95
S'** JEN_inarg.attach(): attached: [simul_uvp]./MG_JEN_Joneset.GJones()'
p885
sg97
S'** JEN_inarg.attach(): attached: [simul_uvp]./MG_JEN_Joneset.KJones()'
p886
sg99
S'** JEN_inarg.attach(): attached: [simul_uvp]./MG_JEN_Joneset.BJones()'
p887
sg101
S'** JEN_inarg.attach(): attached: [simul_uvp]./MG_JEN_Joneset.JJones()'
p888
sg103
S'** JEN_inarg.attach(): attached: [simul_uvp]./MG_JEN_Joneset.DJones_WSRT()'
p889
ssg105
g880
sg106
(dp890
g26
I00
sg12
I00
sg2
I00
sg25
I00
ssg108
(lp891
g18
ag25
ag2
ag29
ag28
ag27
ag12
ag26
ag865
aS'[simul_uvp]./MG_JEN_Joneset.GJones()'
p892
aS'[simul_uvp]./MG_JEN_Joneset.FJones()'
p893
ag731
ag702
ag788
ag613
asg116
(dp894
g2
g118
sg25
g119
sg26
g121
sg12
g122
sg27
g123
sg28
g123
sg865
g120
sg29
g123
ssg124
g125
ssg27
Nsg28
Nsg865
(lp895
sg892
(dp896
g615
g616
sg27
g52
sg138
g639
sg2
S'@@polrep'
p897
sg148
F1.0
sg25
S'@@stations'
p898
sg130
g618
sg619
F0.10000000000000001
sg626
I20
sg29
g52
sg662
F1.0
sg665
F0.01
sg18
(dp899
g20
S'MG_JEN_Joneset::GJones()'
p900
sg22
g892
sg23
(dp901
g615
I00
sg138
I01
sg2
I01
sg148
I01
sg25
I01
sg130
I01
sg626
I01
sg29
I01
sg620
I01
sg27
I01
sg627
I01
sg28
I01
sg440
I01
sg137
I01
ssg30
S'MG_JEN_JonesetGJones'
p902
sg32
g33
sg124
g442
sg34
S'MG_JEN_Joneset::GJones()  version=15dec2005  defined=2006-03-31 11:27'
p903
sg36
S'GJones'
p904
sg38
(dp905
g615
(lp906
g616
ag633
a(lp907
g616
ag633
aaNaS'@@unop'
p908
asg27
(lp909
g52
aS'@@@Jsequence_KJones'
p910
asg138
(lp911
g639
aS'@@style'
p912
asg2
(lp913
g3
ag41
ag897
asg148
(lp914
F1.0
aS'@@c00_default'
p915
asg25
(lp916
(lp917
I0
aI1
aI2
aI3
aI4
aa(lp918
I0
aI1
aI2
aI3
aI4
aI5
aI6
aa(lp919
I0
aI1
aI2
aI3
aI4
aI5
aI6
aI7
aI8
aI9
aI10
aI11
aI12
aI13
aa(lp920
I0
aI1
aI2
aI3
aI4
aI5
aI6
aI7
aI8
aI9
aI10
aI11
aI12
aI13
aI14
aag47
ag898
asg130
(lp921
g618
aS'@@color'
p922
asg619
(lp923
I0
aF0.01
aF0.10000000000000001
aF0.20000000000000001
aF0.5
aS'@@stddev_period'
p924
asg626
(lp925
I20
aS'@@timescale_min'
p926
asg29
(lp927
g52
aS'@@@Jsequence'
p928
asg662
(lp929
F0.29999999999999999
aF0.5
aI1
aI2
aI3
aS'@@mean_period'
p930
asg665
(lp931
I0
aF0.0001
aF0.001
aF0.01
aF0.10000000000000001
aI1
aS'@@stddev_c00'
p932
asg620
(lp933
I0
aS'@@fdeg'
p934
asg670
(lp935
I0
aF0.10000000000000001
aF0.20000000000000001
aF0.5
aF-0.10000000000000001
aS'@@mean_c00'
p936
asg627
(lp937
F1.0
aS'@@c00_scale'
p938
asg28
(lp939
g52
aS'@@@Jsequence_simul'
p940
asg440
(lp941
I01
aI00
aS'@@Gpolar'
p942
asg137
(lp943
I5
aS'@@size'
p944
assg80
g681
sg82
I00
sg83
S'2006-03-31 11:27'
p945
sg85
g508
sg87
S'MG_JEN_Joneset'
p946
sg225
(dp947
g440
I00
ssg89
S'** Specific description of inarg record for: MG_JEN_Joneset::GJones()  version=15dec2005  defined=2006-03-31 11:27'
p948
sg106
(dp949
g2
I00
sg25
I00
ssg105
g945
sg108
(lp950
g18
ag25
ag2
ag29
ag28
ag27
ag440
ag670
ag665
ag662
ag619
ag615
ag626
ag620
ag130
ag138
ag137
ag148
ag627
asg116
(dp951
g615
g689
sg27
g123
sg138
g239
sg2
g118
sg148
g690
sg25
g119
sg130
g233
sg619
g691
sg626
g692
sg29
g123
sg662
g693
sg665
g694
sg620
g695
sg670
g696
sg627
g697
sg28
g123
sg440
g518
sg137
g698
sssg620
I0
sg627
F1.0
sg670
F0.10000000000000001
sg28
g52
sg440
I01
sg137
I5
ssg893
(dp952
g615
g616
sg2
S'@@polrep'
p953
sg130
g618
sg619
F0.10000000000000001
sg620
I0
sg137
I5
sg138
g639
sg622
F0.20000000000000001
sg18
(dp954
g20
S'MG_JEN_Joneset::FJones()'
p955
sg22
g893
sg23
(dp956
g615
I00
sg138
I01
sg2
I01
sg148
I01
sg25
I01
sg130
I01
sg626
I01
sg620
I01
sg27
I01
sg627
I01
sg28
I01
sg29
I01
sg137
I01
ssg30
S'MG_JEN_JonesetFJones'
p957
sg32
g33
sg124
g368
sg34
S'MG_JEN_Joneset::FJones()  version=16dec2005  defined=2006-03-31 11:27'
p958
sg36
S'FJones'
p959
sg38
(dp960
g615
(lp961
g616
ag633
a(lp962
g616
ag633
aaNaS'@@unop'
p963
asg138
(lp964
g639
aS'@@style'
p965
asg2
(lp966
g3
ag41
ag953
asg148
(lp967
F1.0
aS'@@c00_default'
p968
asg25
(lp969
(lp970
I0
aI1
aI2
aI3
aI4
aa(lp971
I0
aI1
aI2
aI3
aI4
aI5
aI6
aa(lp972
I0
aI1
aI2
aI3
aI4
aI5
aI6
aI7
aI8
aI9
aI10
aI11
aI12
aI13
aa(lp973
I0
aI1
aI2
aI3
aI4
aI5
aI6
aI7
aI8
aI9
aI10
aI11
aI12
aI13
aI14
aag47
aS'@@stations'
p974
asg130
(lp975
g618
aS'@@color'
p976
asg619
(lp977
I0
aF0.01
aF0.10000000000000001
aF0.20000000000000001
aF0.5
aS'@@stddev_period'
p978
asg670
(lp979
I0
aF0.10000000000000001
aF0.20000000000000001
aF0.5
aF-0.10000000000000001
aS'@@mean_c00'
p980
asg626
(lp981
I20
aS'@@timescale_min'
p982
asg662
(lp983
F0.29999999999999999
aF0.5
aI1
aI2
aI3
aS'@@mean_period'
p984
asg665
(lp985
I0
aF0.0001
aF0.001
aF0.01
aF0.10000000000000001
aI1
aS'@@stddev_c00'
p986
asg620
(lp987
I0
aS'@@fdeg'
p988
asg27
(lp989
g56
aS'@@@Jsequence_KJones'
p990
asg627
(lp991
F1.0
aS'@@c00_scale'
p992
asg28
(lp993
g56
aS'@@@Jsequence_simul'
p994
asg29
(lp995
g56
aS'@@@Jsequence'
p996
asg137
(lp997
I5
aS'@@size'
p998
assg80
g681
sg82
I00
sg83
S'2006-03-31 11:27'
p999
sg85
g352
sg87
S'MG_JEN_Joneset'
p1000
sg89
S'** Specific description of inarg record for: MG_JEN_Joneset::FJones()  version=16dec2005  defined=2006-03-31 11:27'
p1001
sg106
(dp1002
g2
I00
sg25
I00
ssg105
g999
sg108
(lp1003
g18
ag25
ag2
ag29
ag28
ag27
ag670
ag665
ag662
ag619
ag615
ag626
ag620
ag130
ag138
ag137
ag148
ag627
asg116
(dp1004
g615
g689
sg138
g239
sg2
g118
sg148
g690
sg25
g119
sg130
g233
sg619
g691
sg670
g696
sg626
g692
sg662
g693
sg665
g694
sg620
g695
sg27
g123
sg627
g697
sg28
g123
sg29
g123
sg137
g698
sssg27
g56
sg29
g56
sg699
I50
sg148
F1.0
sg621
I500
sg670
F0.10000000000000001
sg25
g974
sg626
I20
sg662
F1.0
sg665
F0.01
sg627
F1.0
sg28
g56
sg700
F0.02
ssg29
NssS'[solve]./MG_JEN_Sixpack.newstar_source()'
p1005
(dp1006
S'f0'
p1007
F1000000.0
sg127
I00
sS'major'
p1008
F0.0
sS'unsolvable'
p1009
I00
sg130
g131
sg132
I00
sS'shape'
p1010
S'point'
p1011
sg12
g13
sS'Upct'
p1012
Nsg136
I01
sg137
I10
sg138
g139
sS'I0'
p1013
F1.0
sg149
Nsg142
g143
sS'Vpct'
p1014
Nsg144
NsS'pa'
p1015
F0.0
sg18
(dp1016
g20
S'MG_JEN_Sixpack::newstar_source()'
p1017
sg22
g1005
sg105
S'2006-03-31 11:27'
p1018
sg23
(dp1019
g1007
I01
sg1008
I01
sg1009
I01
sS'name'
p1020
I01
sg148
I01
sg144
I01
sg130
I01
sg1010
I01
sS'fsr_trace'
p1021
I01
sS'punit'
p1022
I00
sg149
I01
sg1015
I01
sg142
I01
sg150
I01
sg138
I01
sS'minor'
p1023
I01
sg137
I01
ssg30
S'MG_JEN_Sixpacknewstar_source'
p1024
sg80
S'solve'
p1025
sg32
g33
sg34
S'MG_JEN_Sixpack::newstar_source()  version=10feb2006  defined=2006-03-31 11:27'
p1026
sg36
S'newstar_source'
p1027
sg38
(dp1028
g1007
(lp1029
F1000000.0
aS'@@f0'
p1030
asg127
(lp1031
I01
aI00
aS'@@reset_funklet'
p1032
asg1008
(lp1033
F0.0
aF1.0
aF10.0
aF100.0
aS'@@major'
p1034
asg1009
(lp1035
I01
aI00
aS'@@unsolvable'
p1036
asg130
(lp1037
g131
aS'@@color'
p1038
asg132
(lp1039
I01
aI00
aS'@@save_all'
p1040
asg1010
(lp1041
g1011
aS'ell.gauss'
p1042
aS'@@shape'
p1043
asg12
(lp1044
NaS'@@parmtable'
p1045
asg1012
(lp1046
NaF-0.10000000000000001
aF0.050000000000000003
aF-0.01
aS'@@Upct'
p1047
asg136
(lp1048
I01
aI00
aS'@@auto_save'
p1049
asg137
(lp1050
I10
aS'@@size'
p1051
asg138
(lp1052
g139
aS'@@style'
p1053
asg1013
(lp1054
F1.0
aF10.0
aS'@@I0'
p1055
asg149
(lp1056
NaS'@@subtile_size'
p1057
asg142
(lp1058
g143
aS'@@condeq_corrs'
p1059
asg1014
(lp1060
NaF0.01
aF-0.0050000000000000001
aF0.001
aS'@@Vpct'
p1061
asg144
(lp1062
NaS'@@funklet_shape'
p1063
asg1015
(lp1064
F0.0
aF1.0
aF-0.5
aS'@@pa'
p1065
asS'RA'
p1066
(lp1067
F0.0
aF0.5
aF1.0
aF1.4950000000000001
aF4.3570000000000002
aS'@@RA'
p1068
asS'RM'
p1069
(lp1070
NaF1.0
aF3.0
aF10.0
aF-10.0
aF60.0
aS'@@RM'
p1071
asg1023
(lp1072
F0.0
aF0.5
aF5.0
aF50.0
aS'@@minor'
p1073
asg148
(lp1074
F1.0
aS'@@c00_default'
p1075
asS'Qpct'
p1076
(lp1077
NaF0.10000000000000001
aF-0.050000000000000003
aF0.01
aS'@@Qpct'
p1078
asg1022
(lp1079
S'unpol'
p1080
aS'unpol2'
p1081
aS'unpol10'
p1082
aS'QUV'
p1083
aS'QU'
p1084
aS'Qonly'
p1085
aS'Uonly'
p1086
aS'Vonly'
p1087
aS'3c147'
p1088
aS'3c286'
p1089
aS'3c48'
p1090
aS'3c295'
p1091
aS'D1'
p1092
aS'RMtest'
p1093
aS'SItest'
p1094
aS'@@punit'
p1095
asS'Dec'
p1096
(lp1097
F0.5
aF1.0
aF0.87
aF1.0920000000000001
aS'@@Dec'
p1098
asg1020
(lp1099
NaS'@@name'
p1100
asg1021
(lp1101
I01
aI00
aS'@@fsr_trace'
p1102
asg211
(lp1103
I01
aI00
aS'@@use_previous'
p1104
asS'SI'
p1105
(lp1106
NaF-0.69999999999999996
a(lp1107
F0.44700000000000001
aF-0.184
aaS'@@SI'
p1108
asg150
(lp1109
NaS'@@tfdeg'
p1110
assS'callback'
p1111
(dp1112
g1022
I01
ssg85
S'10feb2006'
p1113
sg83
g1018
sg87
S'MG_JEN_Sixpack'
p1114
sg225
(dp1115
g127
I00
sg1009
I00
sg1021
I00
sg132
I00
sg211
I00
sg136
I00
ssg89
S'** Specific description of inarg record for: MG_JEN_Sixpack::newstar_source()  version=10feb2006  defined=2006-03-31 11:27'
p1116
sg91
(dp1117
g95
S'  1: ..[solve]./MG_JEN_Sixpack.newstar_source() (qual=None): .modify(parmtable):   None  ->  simul_EJones'
p1118
ssg82
I00
sg108
(lp1119
g18
ag1022
ag1020
ag12
ag1009
ag1013
ag1076
ag1012
ag1014
ag1069
ag1105
ag1007
ag1066
ag1096
ag1021
ag1010
ag1008
ag1023
ag1015
ag211
ag136
ag132
ag127
ag130
ag138
ag137
ag148
ag150
ag144
ag149
ag142
asg116
(dp1120
g1007
S'reference freq (Hz): I=I0 @ f=f0'
p1121
sg127
g231
sg1008
S'major axis (arcsec)'
p1122
sg1009
S'if True, do NOT store solvegroup/parmgroup info'
p1123
sg130
g233
sg132
g234
sg1010
S'source shape'
p1124
sg12
S'name of the MeqParm table (AIPS++)'
p1125
sg1012
S'Stokes U (percentage of I)'
p1126
sg136
g237
sg137
g238
sg138
g239
sg1013
S'Stokes I: Total intensity @ f=f0 (usually 1 MHz)'
p1127
sg149
g246
sg142
g240
sg1014
S'Stokes V (percentage of I)'
p1128
sg144
g241
sg1015
S'position angle (rad)'
p1129
sg1066
S'Right Ascension (rad, J2000)'
p1130
sg1069
S'Intrinsic Rotation Measure (rad/m2)'
p1131
sg1023
S'minor axis (arcsec)'
p1132
sg148
g243
sg1076
S'Stokes Q (percentage of I)'
p1133
sg1022
S'name of calibrator source/patch \n- unpol:   unpolarised, I=1Jy \n- unpol2:  idem, I=2Jy \n- unpol10: idem, I=10Jy \n- RMtest:  Rotation Measure \n- SItest:  Spectral Index \n- QUV:     non-zero Q,U,V \n- QU:      non-zero Q,U \n- QU2:     stronger version of QU \n- Qonly:   non-zero Q \n- Uonly:   non-zero U \n- Vonly:   non-zero V \n- 3c286:   \n- 3c48:    \n- 3c295:   \n- 3c147:   \n- D1:      cps in D1.MS \n'
p1134
sg1096
S'Declination (rad, J2000)'
p1135
sg1021
S'If True, attach to forest state record'
p1136
sg211
g245
sg1105
S'Spectral Index (generalised)\n   A scalar represents the classical SI: I(f)=I0*(f/f0)^SI\n   A vector represents a freq-dependent SI (....)'
p1137
sg150
g247
ssg124
S'Make a Sixpack (I,Q,U,V,Ra,Dec) for a source with NEWSTAR parametrisation'
p1138
ssg1069
Nsg1023
F0.0
sg1066
F1.4950000000000001
sg148
F1.0
sg1076
Nsg1022
g1080
sg1096
F0.87
sg1020
Nsg1021
I01
sg211
I01
sg1105
Nsg150
NssS'[simul]./MG_JEN_Cohset.predict_lsm()'
p1139
(dp1140
g2
S'@@polrep'
p1141
sg25
S'@@stations'
p1142
sg18
(dp1143
g20
S'MG_JEN_Cohset::predict_lsm()'
p1144
sg22
g1139
sg23
(dp1145
g27
I01
sg28
I01
sg29
I01
sg2
I01
sg25
I01
ssg30
S'MG_JEN_Cohsetpredict_lsm'
p1146
sg32
g33
sg34
S'MG_JEN_Cohset::predict_lsm()  version=20mar2006  defined=2006-03-31 11:27'
p1147
sg36
S'predict_lsm'
p1148
sg38
(dp1149
g2
(lp1150
g3
ag41
ag1141
asg25
(lp1151
(lp1152
I0
aI1
aI2
aI3
aI4
aa(lp1153
I0
aI1
aI2
aI3
aI4
aI5
aI6
aa(lp1154
I0
aI1
aI2
aI3
aI4
aI5
aI6
aI7
aI8
aI9
aI10
aI11
aI12
aI13
aa(lp1155
I0
aI1
aI2
aI3
aI4
aI5
aI6
aI7
aI8
aI9
aI10
aI11
aI12
aI13
aI14
aag47
ag1142
asS'nr_lsm_sources'
p1156
(lp1157
I1
aI2
aI3
aI5
aI10
aI20
aI100
aS'@@nr_lsm_sources'
p1158
asg27
(lp1159
NaS'@@@Jsequence_KJones'
p1160
asg28
(lp1161
NaS'@@@Jsequence_simul'
p1162
asg29
(lp1163
NaS'@@@Jsequence'
p1164
assg80
S'simul'
p1165
sg82
I00
sg83
S'2006-03-31 11:27'
p1166
sg85
S'20mar2006'
p1167
sg87
S'MG_JEN_Cohset'
p1168
sg89
S'** Specific description of inarg record for: MG_JEN_Cohset::predict_lsm()  version=20mar2006  defined=2006-03-31 11:27'
p1169
sg91
(dp1170
g95
S'** JEN_inarg.attach(): attached: [simul_imp]./MG_JEN_Cohset.Jones()'
p1171
ssg105
g1166
sg106
(dp1172
g2
I00
sg25
I00
ssg108
(lp1173
g18
ag1156
ag25
ag2
ag29
ag28
ag27
aS'[simul_imp]./MG_JEN_Cohset.Jones()'
p1174
asg116
(dp1175
g2
g118
sg25
g119
sg1156
S'nr of lsm sources to be included (in order of brightness'
p1176
sg27
g123
sg28
g123
sg29
g123
ssg124
S'Obsolete (upward compatibility) version of .predict_cps()'
p1177
ssg1156
I1
sg27
Nsg28
Nsg1174
(dp1178
S'[simul_imp]./MG_JEN_Joneset.BJones()'
p1179
(dp1180
g127
I00
sg2
S'@@polrep'
p1181
sg130
g131
sg281
g282
sg132
I00
sg283
Nsg136
I01
sg137
I10
sg138
g139
sg284
I5
sg142
g143
sg144
Nsg18
(dp1182
g20
S'MG_JEN_Joneset::BJones()'
p1183
sg22
g1179
sg23
(dp1184
g138
I01
sg2
I01
sg148
I01
sg25
I01
sg130
I01
sg149
I01
sg142
I01
sg26
I01
sg144
I01
sg150
I01
sg12
I01
sg27
I01
sg28
I01
sg137
I01
sg29
I01
ssg124
g289
sg32
g33
sg34
S'MG_JEN_Joneset::BJones()  version=16dec2005  defined=2006-03-31 11:27'
p1185
sg36
S'BJones'
p1186
sg38
(dp1187
g127
(lp1188
I01
aI00
aS'@@reset_funklet'
p1189
asg2
(lp1190
g3
ag41
ag1181
asg130
(lp1191
g131
aS'@@color'
p1192
asg281
(lp1193
g282
aNaI1
aI2
aI5
aI10
aI20
aI50
aI100
aI200
aI500
aS'@@subtile_size_Bimag'
p1194
asg132
(lp1195
I01
aI00
aS'@@save_all'
p1196
asg283
(lp1197
NaI1
aI2
aI5
aI10
aI20
aI50
aI100
aI200
aI500
aS'@@subtile_size_Breal'
p1198
asg136
(lp1199
I01
aI00
aS'@@auto_save'
p1200
asg137
(lp1201
I10
aS'@@size'
p1202
asg138
(lp1203
g139
aS'@@style'
p1204
asg284
(lp1205
I3
aI4
aI5
aI6
aS'@@fdeg_Breal'
p1206
asg142
(lp1207
g143
aS'@@condeq_corrs'
p1208
asg144
(lp1209
NaS'@@funklet_shape'
p1210
asg27
(lp1211
g54
aS'@@@Jsequence_KJones'
p1212
asg318
(lp1213
I0
aI1
aI2
aI3
ag320
aS'@@tdeg_Bimag'
p1214
asg29
(lp1215
g54
aS'@@@Jsequence'
p1216
asg148
(lp1217
F1.0
aS'@@c00_default'
p1218
asg326
(lp1219
I3
aI4
aI5
aI6
ag328
aS'@@fdeg_Bimag'
p1220
asg26
(lp1221
I00
aS'@@uvplane_effect'
p1222
asg12
(lp1223
Nag72
aS'@@parmtable'
p1224
asg25
(lp1225
(lp1226
I0
aI1
aI2
aI3
aI4
aa(lp1227
I0
aI1
aI2
aI3
aI4
aI5
aI6
aa(lp1228
I0
aI1
aI2
aI3
aI4
aI5
aI6
aI7
aI8
aI9
aI10
aI11
aI12
aI13
aa(lp1229
I0
aI1
aI2
aI3
aI4
aI5
aI6
aI7
aI8
aI9
aI10
aI11
aI12
aI13
aI14
aag47
aS'@@stations'
p1230
asg340
(lp1231
I0
aI1
aI2
aI3
aS'@@tdeg_Breal'
p1232
asg211
(lp1233
I01
aI00
aS'@@use_previous'
p1234
asg149
(lp1235
NaS'@@subtile_size'
p1236
asg150
(lp1237
NaS'@@tfdeg'
p1238
asg28
(lp1239
g54
aS'@@@Jsequence_simul'
p1240
assg80
S'simul_imp'
p1241
sg82
I00
sg83
S'2006-03-31 11:27'
p1242
sg85
g352
sg87
S'MG_JEN_Joneset'
p1243
sg225
(dp1244
g127
I00
sg132
I00
sg136
I00
sg211
I00
ssg89
S'** Specific description of inarg record for: MG_JEN_Joneset::BJones()  version=16dec2005  defined=2006-03-31 11:27'
p1245
sg106
(dp1246
g26
I00
sg12
I00
sg2
I00
sg25
I00
ssg105
g1242
sg108
(lp1247
g18
ag25
ag2
ag29
ag28
ag27
ag12
ag26
ag340
ag318
ag284
ag326
ag283
ag281
ag211
ag136
ag132
ag127
ag130
ag138
ag137
ag148
ag150
ag144
ag149
ag142
asg116
(dp1248
g127
g231
sg2
g118
sg130
g233
sg281
g359
sg132
g234
sg283
g359
sg136
g237
sg137
g238
sg138
g239
sg284
g360
sg142
g240
sg144
g241
sg27
g123
sg318
g361
sg29
g123
sg148
g243
sg326
g360
sg26
g121
sg12
g122
sg25
g119
sg340
g361
sg211
g245
sg149
g246
sg150
g247
sg28
g123
ssg30
S'MG_JEN_JonesetBJones'
p1249
ssg27
g54
sg318
g320
sg29
g54
sg148
F1.0
sg326
g328
sg26
g1222
sg25
g1230
sg150
Nsg340
I0
sg211
I01
sg149
Nsg12
g1224
sg28
g54
ssg2
S'@@polrep'
p1250
sg25
S'@@stations'
p1251
sS'[simul_imp]./MG_JEN_Joneset.GJones()'
p1252
(dp1253
g127
I00
sg2
S'@@polrep'
p1254
sg434
I0
sg130
g131
sg132
I00
sg12
S'@@parmtable'
p1255
sg136
I01
sg137
I10
sg138
g139
sg436
I1
sg142
g143
sg144
Nsg18
(dp1256
g20
S'MG_JEN_Joneset::GJones()'
p1257
sg22
g1252
sg23
(dp1258
g137
I01
sg138
I01
sg2
I01
sg148
I01
sg25
I01
sg130
I01
sg149
I01
sg142
I01
sg26
I01
sg144
I01
sg150
I01
sg12
I01
sg27
I01
sg28
I01
sg440
I01
sg29
I01
ssg124
g442
sg32
g33
sg34
S'MG_JEN_Joneset::GJones()  version=15dec2005  defined=2006-03-31 11:27'
p1259
sg36
S'GJones'
p1260
sg38
(dp1261
g127
(lp1262
I01
aI00
aS'@@reset_funklet'
p1263
asg2
(lp1264
g3
ag41
ag1254
asg434
(lp1265
I0
aI1
aI2
aI3
aS'@@fdeg_Ggain'
p1266
asg130
(lp1267
g131
aS'@@color'
p1268
asg132
(lp1269
I01
aI00
aS'@@save_all'
p1270
asg12
(lp1271
Nag72
ag1255
asg136
(lp1272
I01
aI00
aS'@@auto_save'
p1273
asg137
(lp1274
I10
aS'@@size'
p1275
asg138
(lp1276
g139
aS'@@style'
p1277
asg436
(lp1278
NaI1
aI2
aI5
aI10
aI20
aI50
aI100
aI200
aI500
aS'@@subtile_size_Ggain'
p1279
asg142
(lp1280
g143
aS'@@condeq_corrs'
p1281
asg144
(lp1282
NaS'@@funklet_shape'
p1283
asg27
(lp1284
g52
aS'@@@Jsequence_KJones'
p1285
asg29
(lp1286
g52
aS'@@@Jsequence'
p1287
asg148
(lp1288
F1.0
aS'@@c00_default'
p1289
asg474
(lp1290
I0
aI1
aI2
aI3
ag476
aS'@@tdeg_Gphase'
p1291
asg478
(lp1292
I0
aI1
aI2
aI3
aS'@@tdeg_Ggain'
p1293
asg481
(lp1294
I0
aI1
aI2
aI3
ag483
aS'@@fdeg_Gphase'
p1295
asg485
(lp1296
g487
aNaI1
aI2
aI5
aI10
aI20
aI50
aI100
aI200
aI500
aS'@@subtile_size_Gphase'
p1297
asg440
(lp1298
I01
aI00
aS'@@Gpolar'
p1299
asg26
(lp1300
I00
aS'@@uvplane_effect'
p1301
asg25
(lp1302
(lp1303
I0
aI1
aI2
aI3
aI4
aa(lp1304
I0
aI1
aI2
aI3
aI4
aI5
aI6
aa(lp1305
I0
aI1
aI2
aI3
aI4
aI5
aI6
aI7
aI8
aI9
aI10
aI11
aI12
aI13
aa(lp1306
I0
aI1
aI2
aI3
aI4
aI5
aI6
aI7
aI8
aI9
aI10
aI11
aI12
aI13
aI14
aag47
aS'@@stations'
p1307
asg211
(lp1308
I01
aI00
aS'@@use_previous'
p1309
asg149
(lp1310
NaS'@@subtile_size'
p1311
asg150
(lp1312
NaS'@@tfdeg'
p1313
asg28
(lp1314
g52
aS'@@@Jsequence_simul'
p1315
assg80
g1241
sg82
I00
sg83
S'2006-03-31 11:27'
p1316
sg85
g508
sg87
S'MG_JEN_Joneset'
p1317
sg225
(dp1318
g127
I00
sg440
I00
sg132
I00
sg136
I00
sg211
I00
ssg89
S'** Specific description of inarg record for: MG_JEN_Joneset::GJones()  version=15dec2005  defined=2006-03-31 11:27'
p1319
sg106
(dp1320
g26
I00
sg12
I00
sg2
I00
sg25
I00
ssg105
g1316
sg108
(lp1321
g18
ag25
ag2
ag29
ag28
ag27
ag440
ag12
ag26
ag478
ag474
ag434
ag481
ag436
ag485
ag211
ag136
ag132
ag127
ag130
ag138
ag137
ag148
ag150
ag144
ag149
ag142
asg116
(dp1322
g127
g231
sg2
g118
sg434
g515
sg130
g233
sg132
g234
sg12
g122
sg136
g237
sg137
g238
sg138
g239
sg436
g516
sg142
g240
sg144
g241
sg27
g123
sg29
g123
sg148
g243
sg474
g517
sg478
g517
sg481
g515
sg485
g516
sg440
g518
sg26
g121
sg25
g119
sg211
g245
sg149
g246
sg150
g247
sg28
g123
ssg30
S'MG_JEN_JonesetGJones'
p1323
ssg27
g52
sg29
g52
sg148
F1.0
sg474
g476
sg478
I0
sg481
g483
sg485
g487
sg440
I01
sg26
g1301
sg25
g1307
sg211
I01
sg149
Nsg150
Nsg28
g52
ssS'[simul_imp]./MG_JEN_Joneset.DJones_WSRT()'
p1324
(dp1325
g127
I00
sg2
S'@@polrep'
p1326
sg130
g131
sg521
g522
sg523
I01
sg132
I00
sg12
S'@@parmtable'
p1327
sg525
Nsg136
I01
sg137
I10
sg138
g139
sg142
g143
sg144
Nsg18
(dp1328
g20
S'MG_JEN_Joneset::DJones_WSRT()'
p1329
sg22
g1324
sg23
(dp1330
g138
I01
sg2
I01
sg148
I01
sg25
I01
sg130
I01
sg149
I01
sg142
I01
sg26
I01
sg144
I01
sg150
I01
sg12
I01
sg27
I01
sg28
I01
sg137
I01
sg29
I01
ssg124
g530
sg32
g33
sg34
S'MG_JEN_Joneset::DJones_WSRT()  version=16dec2005  defined=2006-03-31 11:27'
p1331
sg36
S'DJones_WSRT'
p1332
sg38
(dp1333
g127
(lp1334
I01
aI00
aS'@@reset_funklet'
p1335
asg2
(lp1336
g3
ag41
ag1326
asg130
(lp1337
g131
aS'@@color'
p1338
asg521
(lp1339
I0
aI1
aI2
aI3
ag522
aS'@@fdeg_Dell'
p1340
asg523
(lp1341
I01
aI00
aS'@@coupled_XY_Dell'
p1342
asg132
(lp1343
I01
aI00
aS'@@save_all'
p1344
asg12
(lp1345
Nag72
ag1327
asg525
(lp1346
NaI1
aI2
aI5
aI10
aI20
aI50
aI100
aI200
aI500
aS'@@subtile_size_Dang'
p1347
asg136
(lp1348
I01
aI00
aS'@@auto_save'
p1349
asg137
(lp1350
I10
aS'@@size'
p1351
asg138
(lp1352
g139
aS'@@style'
p1353
asg142
(lp1354
g143
aS'@@condeq_corrs'
p1355
asg144
(lp1356
NaS'@@funklet_shape'
p1357
asg27
(lp1358
g60
aS'@@@Jsequence_KJones'
p1359
asg560
(lp1360
g562
aNaI1
aI2
aI5
aI10
aI20
aI50
aI100
aI200
aI500
aS'@@subtile_size_Dell'
p1361
asg29
(lp1362
g60
aS'@@@Jsequence'
p1363
asg566
(lp1364
I0
aI1
aI2
aI3
aS'@@fdeg_Dang'
p1365
asg148
(lp1366
F1.0
aS'@@c00_default'
p1367
asg26
(lp1368
I00
aS'@@uvplane_effect'
p1369
asg573
(lp1370
I0
aI1
aI2
aI3
ag575
aS'@@tdeg_Dell'
p1371
asg577
(lp1372
I01
aI00
aS'@@coupled_XY_Dang'
p1373
asg580
(lp1374
I0
aI1
aI2
aI3
aS'@@tdeg_Dang'
p1375
asg25
(lp1376
(lp1377
I0
aI1
aI2
aI3
aI4
aa(lp1378
I0
aI1
aI2
aI3
aI4
aI5
aI6
aa(lp1379
I0
aI1
aI2
aI3
aI4
aI5
aI6
aI7
aI8
aI9
aI10
aI11
aI12
aI13
aa(lp1380
I0
aI1
aI2
aI3
aI4
aI5
aI6
aI7
aI8
aI9
aI10
aI11
aI12
aI13
aI14
aag47
aS'@@stations'
p1381
asg211
(lp1382
I01
aI00
aS'@@use_previous'
p1383
asg149
(lp1384
NaS'@@subtile_size'
p1385
asg150
(lp1386
NaS'@@tfdeg'
p1387
asg28
(lp1388
g60
aS'@@@Jsequence_simul'
p1389
assg80
g1241
sg82
I00
sg83
S'2006-03-31 11:27'
p1390
sg85
g352
sg87
S'MG_JEN_Joneset'
p1391
sg225
(dp1392
g127
I00
sg523
I00
sg132
I00
sg577
I00
sg211
I00
sg136
I00
ssg89
S'** Specific description of inarg record for: MG_JEN_Joneset::DJones_WSRT()  version=16dec2005  defined=2006-03-31 11:27'
p1393
sg106
(dp1394
g26
I00
sg12
I00
sg2
I00
sg25
I00
ssg105
g1390
sg108
(lp1395
g18
ag25
ag2
ag29
ag28
ag27
ag577
ag523
ag12
ag26
ag580
ag573
ag566
ag521
ag525
ag560
ag211
ag136
ag132
ag127
ag130
ag138
ag137
ag148
ag150
ag144
ag149
ag142
asg116
(dp1396
g127
g231
sg2
g118
sg130
g233
sg521
g604
sg523
g605
sg132
g234
sg12
g122
sg525
g606
sg136
g237
sg137
g238
sg138
g239
sg142
g240
sg144
g241
sg27
g123
sg560
g606
sg29
g123
sg566
g604
sg148
g243
sg26
g121
sg573
g607
sg577
g608
sg580
g607
sg25
g119
sg211
g245
sg149
g246
sg150
g247
sg28
g123
ssg30
S'MG_JEN_JonesetDJones_WSRT'
p1397
ssg27
g60
sg560
g562
sg29
g60
sg566
I0
sg148
F1.0
sg26
g1369
sg573
g575
sg577
I01
sg580
I0
sg25
g1381
sg211
I01
sg149
Nsg150
Nsg28
g60
ssg26
S'@@uvplane_effect'
p1398
sg12
S'@@parmtable'
p1399
sg18
(dp1400
g20
g21
sg22
g1174
sg23
(dp1401
g2
I01
sg25
I01
sg26
I01
sg12
I01
sg27
I01
sg28
I01
sg29
I01
ssg30
S'MG_JEN_CohsetJones'
p1402
sg32
g33
sg124
g125
sg34
S'MG_JEN_Cohset::Jones()  version=25dec2005  defined=2006-03-31 11:27'
p1403
sg36
S'Jones'
p1404
sg38
(dp1405
g2
(lp1406
g3
ag41
ag1250
asg25
(lp1407
(lp1408
I0
aI1
aI2
aI3
aI4
aa(lp1409
I0
aI1
aI2
aI3
aI4
aI5
aI6
aa(lp1410
I0
aI1
aI2
aI3
aI4
aI5
aI6
aI7
aI8
aI9
aI10
aI11
aI12
aI13
aa(lp1411
I0
aI1
aI2
aI3
aI4
aI5
aI6
aI7
aI8
aI9
aI10
aI11
aI12
aI13
aI14
aag47
ag1251
asg26
(lp1412
I00
ag1398
asg12
(lp1413
Nag72
ag1399
asg27
(lp1414
NaS'@@@Jsequence_KJones'
p1415
asg28
(lp1416
NaS'@@@Jsequence_simul'
p1417
asS'Jsequence_simul_imp'
p1418
(lp1419
(lp1420
g52
aa(lp1421
g54
aa(lp1422
g56
aa(lp1423
g58
aa(lp1424
g60
aa(lp1425
g52
ag60
aa(lp1426
g63
aa(lp1427
g52
ag63
aa(lp1428
g66
aa(lp1429
aS'@@Jsequence_simul_imp'
p1430
asg29
(lp1431
NaS'@@@Jsequence'
p1432
assg80
g1241
sg82
I00
sg83
S'2006-03-31 11:27'
p1433
sg85
g86
sg87
S'MG_JEN_Cohset'
p1434
sg89
S'** Specific description of inarg record for: MG_JEN_Cohset::Jones()  version=25dec2005  defined=2006-03-31 11:27'
p1435
sg91
(dp1436
g93
S'** JEN_inarg.attach(): attached: [simul_imp]./MG_JEN_Joneset.FJones()'
p1437
sg95
S'** JEN_inarg.attach(): attached: [simul_imp]./MG_JEN_Joneset.GJones()'
p1438
sg97
S'** JEN_inarg.attach(): attached: [simul_imp]./MG_JEN_Joneset.KJones()'
p1439
sg99
S'** JEN_inarg.attach(): attached: [simul_imp]./MG_JEN_Joneset.BJones()'
p1440
sg101
S'** JEN_inarg.attach(): attached: [simul_imp]./MG_JEN_Joneset.JJones()'
p1441
sg103
S'** JEN_inarg.attach(): attached: [simul_imp]./MG_JEN_Joneset.DJones_WSRT()'
p1442
sS'6'
p1443
S"  2: ....[simul_imp]./MG_JEN_Cohset.Jones() (qual=None): .modify(Jsequence_simul_imp):   []  ->  ['EJones_WSRT']"
p1444
ssg105
g1433
sg106
(dp1445
g26
I00
sg12
I00
sg2
I00
sg25
I00
ssg108
(lp1446
g18
ag25
ag2
ag29
ag28
ag27
ag12
ag26
ag1418
ag1252
aS'[simul_imp]./MG_JEN_Joneset.FJones()'
p1447
ag1179
aS'[simul_imp]./MG_JEN_Joneset.KJones()'
p1448
ag1324
aS'[simul_imp]./MG_JEN_Joneset.JJones()'
p1449
asg116
(dp1450
g2
g118
sg25
g119
sg26
g121
sg12
g122
sg27
g123
sg28
g123
sg1418
g120
sg29
g123
sssg1449
(dp1451
g127
I00
sg2
S'@@polrep'
p1452
sg129
I0
sg130
g131
sg132
I00
sg133
Nsg12
S'@@parmtable'
p1453
sg135
Nsg136
I01
sg137
I10
sg138
g139
sg140
g141
sg142
g143
sg144
Nsg18
(dp1454
g20
S'MG_JEN_Joneset::JJones()'
p1455
sg22
g1449
sg23
(dp1456
g138
I01
sg2
I01
sg148
I01
sg25
I01
sg130
I01
sg149
I01
sg142
I01
sg26
I01
sg144
I01
sg150
I01
sg12
I01
sg27
I01
sg28
I01
sg137
I01
sg29
I01
ssg124
g152
sg32
g33
sg34
S'MG_JEN_Joneset::JJones()  version=14feb2006  defined=2006-03-31 11:27'
p1457
sg36
S'JJones'
p1458
sg38
(dp1459
g127
(lp1460
I01
aI00
aS'@@reset_funklet'
p1461
asg2
(lp1462
g3
ag41
ag1452
asg129
(lp1463
I0
aI1
aI2
aI3
aS'@@tdeg_Jreal'
p1464
asg130
(lp1465
g131
aS'@@color'
p1466
asg132
(lp1467
I01
aI00
aS'@@save_all'
p1468
asg133
(lp1469
Na(lp1470
I14
aa(lp1471
I1
aag168
aS'@@all4_always'
p1472
asg12
(lp1473
Nag72
ag1453
asg135
(lp1474
NaI1
aI2
aI5
aI10
aI20
aI50
aI100
aI200
aI500
aS'@@subtile_size_Jreal'
p1475
asg136
(lp1476
I01
aI00
aS'@@auto_save'
p1477
asg137
(lp1478
I10
aS'@@size'
p1479
asg138
(lp1480
g139
aS'@@style'
p1481
asg140
(lp1482
I0
aI1
aI2
aI3
ag141
aS'@@tdeg_Jimag'
p1483
asg142
(lp1484
g143
aS'@@condeq_corrs'
p1485
asg144
(lp1486
NaS'@@funklet_shape'
p1487
asg27
(lp1488
g66
aS'@@@Jsequence_KJones'
p1489
asg187
(lp1490
I0
aI1
aI2
aI3
aS'@@fdeg_Jreal'
p1491
asg148
(lp1492
F1.0
aS'@@c00_default'
p1493
asg26
(lp1494
I00
aS'@@uvplane_effect'
p1495
asg194
(lp1496
I0
aI1
aI2
aI3
ag196
aS'@@fdeg_Jimag'
p1497
asg198
(lp1498
g200
aNaI1
aI2
aI5
aI10
aI20
aI50
aI100
aI200
aI500
aS'@@subtile_size_Jimag'
p1499
asg25
(lp1500
(lp1501
I0
aI1
aI2
aI3
aI4
aa(lp1502
I0
aI1
aI2
aI3
aI4
aI5
aI6
aa(lp1503
I0
aI1
aI2
aI3
aI4
aI5
aI6
aI7
aI8
aI9
aI10
aI11
aI12
aI13
aa(lp1504
I0
aI1
aI2
aI3
aI4
aI5
aI6
aI7
aI8
aI9
aI10
aI11
aI12
aI13
aI14
aag47
aS'@@stations'
p1505
asg208
(lp1506
I01
aI00
aS'@@diagonal_only'
p1507
asg211
(lp1508
I01
aI00
aS'@@use_previous'
p1509
asg149
(lp1510
NaS'@@subtile_size'
p1511
asg150
(lp1512
NaS'@@tfdeg'
p1513
asg28
(lp1514
g66
aS'@@@Jsequence_simul'
p1515
asg29
(lp1516
g66
aS'@@@Jsequence'
p1517
assg80
g1241
sg82
I00
sg83
S'2006-03-31 11:27'
p1518
sg85
g223
sg87
S'MG_JEN_Joneset'
p1519
sg225
(dp1520
g127
I00
sg208
I00
sg132
I00
sg136
I00
sg211
I00
ssg89
S'** Specific description of inarg record for: MG_JEN_Joneset::JJones()  version=14feb2006  defined=2006-03-31 11:27'
p1521
sg106
(dp1522
g26
I00
sg12
I00
sg2
I00
sg25
I00
ssg105
g1518
sg108
(lp1523
g18
ag25
ag2
ag29
ag28
ag27
ag208
ag133
ag12
ag26
ag129
ag140
ag187
ag194
ag135
ag198
ag211
ag136
ag132
ag127
ag130
ag138
ag137
ag148
ag150
ag144
ag149
ag142
asg116
(dp1524
g127
g231
sg2
g118
sg129
g232
sg130
g233
sg132
g234
sg133
g235
sg12
g122
sg135
g236
sg136
g237
sg137
g238
sg138
g239
sg140
g232
sg142
g240
sg144
g241
sg27
g123
sg187
g242
sg148
g243
sg26
g121
sg194
g242
sg198
g236
sg25
g119
sg208
g244
sg211
g245
sg149
g246
sg150
g247
sg28
g123
sg29
g123
ssg30
S'MG_JEN_JonesetJJones'
p1525
ssg27
g66
sg187
I0
sg148
F1.0
sg26
g1495
sg194
g196
sg198
g200
sg25
g1505
sg208
I00
sg211
I01
sg149
Nsg150
Nsg28
g66
sg29
g66
ssg27
Nsg28
Nsg29
Nsg1448
(dp1526
g2
S'@@polrep'
p1527
sg25
S'@@stations'
p1528
sg18
(dp1529
g20
S'MG_JEN_Joneset::KJones()'
p1530
sg22
g1448
sg23
(dp1531
g27
I01
sg28
I01
sg29
I01
sg2
I01
sg25
I01
ssg124
g255
sg32
g33
sg34
S'MG_JEN_Joneset::KJones()  version=12dec2005  defined=2006-03-31 11:27'
p1532
sg36
S'KJones'
p1533
sg38
(dp1534
g27
(lp1535
g58
aS'@@@Jsequence_KJones'
p1536
asg28
(lp1537
g58
aS'@@@Jsequence_simul'
p1538
asg29
(lp1539
g58
aS'@@@Jsequence'
p1540
asg2
(lp1541
g3
ag41
ag1527
asg25
(lp1542
(lp1543
I0
aI1
aI2
aI3
aI4
aa(lp1544
I0
aI1
aI2
aI3
aI4
aI5
aI6
aa(lp1545
I0
aI1
aI2
aI3
aI4
aI5
aI6
aI7
aI8
aI9
aI10
aI11
aI12
aI13
aa(lp1546
I0
aI1
aI2
aI3
aI4
aI5
aI6
aI7
aI8
aI9
aI10
aI11
aI12
aI13
aI14
aag47
ag1528
assg80
g1241
sg82
I00
sg83
S'2006-03-31 11:27'
p1547
sg85
g272
sg87
S'MG_JEN_Joneset'
p1548
sg89
S'** Specific description of inarg record for: MG_JEN_Joneset::KJones()  version=12dec2005  defined=2006-03-31 11:27'
p1549
sg106
(dp1550
g2
I00
sg25
I00
ssg105
g1547
sg108
(lp1551
g18
ag25
ag2
ag29
ag28
ag27
asg116
(dp1552
g27
g123
sg28
g123
sg29
g123
sg2
g118
sg25
g119
ssg30
S'MG_JEN_JonesetKJones'
p1553
ssg27
g58
sg28
g58
sg29
g58
ssg1418
(lp1554
g63
asg1447
(dp1555
g127
I00
sg2
S'@@polrep'
p1556
sg130
g131
sg132
I00
sg150
Nsg136
I01
sg137
I10
sg138
g139
sg142
g143
sg144
Nsg18
(dp1557
g20
S'MG_JEN_Joneset::FJones()'
p1558
sg22
g1447
sg23
(dp1559
g138
I01
sg2
I01
sg148
I01
sg25
I01
sg130
I01
sg149
I01
sg142
I01
sg26
I01
sg144
I01
sg150
I01
sg12
I01
sg27
I01
sg28
I01
sg137
I01
sg29
I01
ssg124
g368
sg32
g33
sg34
S'MG_JEN_Joneset::FJones()  version=16dec2005  defined=2006-03-31 11:27'
p1560
sg36
S'FJones'
p1561
sg38
(dp1562
g127
(lp1563
I01
aI00
aS'@@reset_funklet'
p1564
asg2
(lp1565
g3
ag41
ag1556
asg130
(lp1566
g131
aS'@@color'
p1567
asg132
(lp1568
I01
aI00
aS'@@save_all'
p1569
asg150
(lp1570
NaS'@@tfdeg'
p1571
asg136
(lp1572
I01
aI00
aS'@@auto_save'
p1573
asg137
(lp1574
I10
aS'@@size'
p1575
asg138
(lp1576
g139
aS'@@style'
p1577
asg142
(lp1578
g143
aS'@@condeq_corrs'
p1579
asg144
(lp1580
NaS'@@funklet_shape'
p1581
asg27
(lp1582
g56
aS'@@@Jsequence_KJones'
p1583
asg29
(lp1584
g56
aS'@@@Jsequence'
p1585
asg148
(lp1586
F1.0
aS'@@c00_default'
p1587
asg26
(lp1588
I00
aS'@@uvplane_effect'
p1589
asg25
(lp1590
(lp1591
I0
aI1
aI2
aI3
aI4
aa(lp1592
I0
aI1
aI2
aI3
aI4
aI5
aI6
aa(lp1593
I0
aI1
aI2
aI3
aI4
aI5
aI6
aI7
aI8
aI9
aI10
aI11
aI12
aI13
aa(lp1594
I0
aI1
aI2
aI3
aI4
aI5
aI6
aI7
aI8
aI9
aI10
aI11
aI12
aI13
aI14
aag47
aS'@@stations'
p1595
asg405
(lp1596
I0
aI1
aI2
aI3
aS'@@tdeg_RM'
p1597
asg211
(lp1598
I01
aI00
aS'@@use_previous'
p1599
asg410
(lp1600
I0
aI1
aI2
aI3
aS'@@fdeg_RM'
p1601
asg149
(lp1602
NaS'@@subtile_size'
p1603
asg12
(lp1604
Nag72
aS'@@parmtable'
p1605
asg417
(lp1606
NaI1
aI2
aI5
aI10
aI20
aI50
aI100
aI200
aI500
aS'@@subtile_size_RM'
p1607
asg28
(lp1608
g56
aS'@@@Jsequence_simul'
p1609
assg80
g1241
sg82
I00
sg83
S'2006-03-31 11:27'
p1610
sg85
g352
sg87
S'MG_JEN_Joneset'
p1611
sg225
(dp1612
g127
I00
sg132
I00
sg136
I00
sg211
I00
ssg89
S'** Specific description of inarg record for: MG_JEN_Joneset::FJones()  version=16dec2005  defined=2006-03-31 11:27'
p1613
sg106
(dp1614
g26
I00
sg12
I00
sg2
I00
sg25
I00
ssg105
g1610
sg108
(lp1615
g18
ag25
ag2
ag29
ag28
ag27
ag12
ag26
ag405
ag410
ag417
ag211
ag136
ag132
ag127
ag130
ag138
ag137
ag148
ag150
ag144
ag149
ag142
asg116
(dp1616
g127
g231
sg2
g118
sg130
g233
sg132
g234
sg150
g247
sg136
g237
sg137
g238
sg138
g239
sg142
g240
sg144
g241
sg27
g123
sg29
g123
sg148
g243
sg26
g121
sg25
g119
sg405
g429
sg211
g245
sg410
g430
sg149
g246
sg12
g122
sg417
g431
sg28
g123
ssg30
S'MG_JEN_JonesetFJones'
p1617
ssg27
g56
sg29
g56
sg148
F1.0
sg26
g1589
sg25
g1595
sg405
I0
sg211
I01
sg410
I2
sg149
Nsg12
g1605
sg417
I1
sg28
g56
sssg29
NssS'[solve]./MG_JEN_Cohset.predict_cps()'
p1618
(dp1619
g2
S'@@polrep'
p1620
sg25
S'@@stations'
p1621
sg18
(dp1622
g20
S'MG_JEN_Cohset::predict_cps()'
p1623
sg22
g1618
sg23
(dp1624
g27
I01
sg28
I01
sg29
I01
sg2
I01
sg25
I01
ssg30
S'MG_JEN_Cohsetpredict_cps'
p1625
sg32
g33
sg34
S'MG_JEN_Cohset::predict_cps()  version=20mar2006  defined=2006-03-31 11:27'
p1626
sg36
S'predict_cps'
p1627
sg38
(dp1628
g27
(lp1629
NaS'@@@Jsequence_KJones'
p1630
asg28
(lp1631
NaS'@@@Jsequence_simul'
p1632
asg29
(lp1633
NaS'@@@Jsequence'
p1634
asg2
(lp1635
g3
ag41
ag1620
asg25
(lp1636
(lp1637
I0
aI1
aI2
aI3
aI4
aa(lp1638
I0
aI1
aI2
aI3
aI4
aI5
aI6
aa(lp1639
I0
aI1
aI2
aI3
aI4
aI5
aI6
aI7
aI8
aI9
aI10
aI11
aI12
aI13
aa(lp1640
I0
aI1
aI2
aI3
aI4
aI5
aI6
aI7
aI8
aI9
aI10
aI11
aI12
aI13
aI14
aag47
ag1621
assg80
g1025
sg82
I00
sg83
S'2006-03-31 11:27'
p1641
sg85
g1167
sg87
S'MG_JEN_Cohset'
p1642
sg89
S'** Specific description of inarg record for: MG_JEN_Cohset::predict_cps()  version=20mar2006  defined=2006-03-31 11:27'
p1643
sg106
(dp1644
g2
I00
sg25
I00
ssg105
g1641
sg108
(lp1645
g18
ag25
ag2
ag29
ag28
ag27
asg116
(dp1646
g27
g123
sg28
g123
sg29
g123
sg2
g118
sg25
g119
ssg124
g1177
ssg27
Nsg28
Nsg29
Nssg18
(dp1647
g22
S'./MG_JEN_simul.'
p1648
sg116
(dp1649
g27
g123
sg1
S'if True, add to existing uv-data (from MS column)'
p1650
sS'rms_noise_Jy'
p1651
S'rms noise, to be added'
p1652
sg2
g118
sS'master_reqseq'
p1653
S'if True, use a master reqseq for solver(s)'
p1654
sS'LSM_simul'
p1655
S'(file)name of a Local Sky Model to be used for simulation(instead of a predefined punit)'
p1656
sg25
g119
sS'redun'
p1657
S'if True, redundant spacing calibration'
p1658
sg14
S'if True, insert a solver'
p1659
sg10
S'name of the (AIPS++) Measurement Set'
p1660
sS'chain_solvers'
p1661
S'if True, chain the solvers (recommended)'
p1662
sS'num_cells'
p1663
S'if defined, ModRes argument [ntime,nfreq]'
p1664
sg12
g122
sg609
S'(file)name of a Local Sky Model to be used for solving(instead of a predefined punit)'
p1665
sg28
g123
sS'tile_size'
p1666
S'(inputrec) size (in time-slots) of the input data-tile'
p1667
sg26
g121
sg29
g123
ssS'reference'
p1668
I00
sg32
g33
sg87
S'MG_JEN_simul'
p1669
sg23
(dp1670
g27
I01
sg2
I00
sg1653
I01
sg1655
I00
sg25
I00
sS'last_changed'
p1671
I01
sg1657
I00
sg26
I00
sg1661
I01
sg1663
I00
sg609
I00
sg28
I01
sg29
I01
ssS'browse'
p1672
(dp1673
g10
S'*.MS'
p1674
sg1655
S'*.lsm'
p1675
sg609
g1675
ssg85
g508
sg124
S"\n    -------------------------------------------------------------\n    General description of the MeqTree TDL script MG_JEN_simul.py\n    -------------------------------------------------------------\n\n    The MG_JEN_simul.py script is used to put simulated visibilities into the\n    CORRECTED_DATA column of an existing Measurement Set (MS). The original DATA\n    in the MS are untouched. The advantage of this approach is that it is not\n    necessary to specify pointing centre, uv-coverage, spectral-window etc.\n\n    * The input source model is either an existing Local Sky Model (LSM),\n    or a 'punit' point source in the centre of the field.\n\n    * The nominal source visibilities may be corrupted by:\n      - various (uv-plane) Jones matrices\n      - image-plane effects from EJones and IJones (MIM)\n      - ifr-based errors (additive, multiplicative)\n      - noise\n\n    * Optionally, the simulated visibilities may be added to the existing uv-data,\n    either from the DATA column or the CORRECTED_DATA column of the MS\n\n    * Optionally, a parallel solver branch may be inserted, which uses the simulated\n    uv-data to solve for instrumental parameters. The latter may be compared with\n    the simulated instrumental parameters.\n\n    Different types of simulations may be specified by loading (and editing) socalled\n    'inarg' records from files (like this one). These contain input arguments\n    for generating a suitable MeqTree forest for the desired operation.\n    "
p1676
sg225
(dp1677
g1
I00
sg1653
I00
sg1657
I00
sg14
I00
sg1671
I00
ssg34
S'** Top-level CTRL-record of: MG_JEN_simul.inarg'
p1678
sg38
(dp1679
g27
(lp1680
NaS'@@@Jsequence_KJones'
p1681
asg1
(lp1682
I01
aI00
aS'@@add_to_existing'
p1683
asg1651
(lp1684
I0
aF0.01
aF0.10000000000000001
aI1
aS'@@rms_noise_Jy'
p1685
asg2
(lp1686
g3
ag41
aS'@@polrep'
p1687
asg1653
(lp1688
I01
aI00
aS'@@master_reqseq'
p1689
asg1655
(lp1690
NaS'@@LSM_simul'
p1691
asg25
(lp1692
(lp1693
I0
aI1
aI2
aI3
aI4
aa(lp1694
I0
aI1
aI2
aI3
aI4
aI5
aI6
aa(lp1695
I0
aI1
aI2
aI3
aI4
aI5
aI6
aI7
aI8
aI9
aI10
aI11
aI12
aI13
aa(lp1696
I0
aI1
aI2
aI3
aI4
aI5
aI6
aI7
aI8
aI9
aI10
aI11
aI12
aI13
aI14
aag47
aS'@@stations'
p1697
asg1671
(lp1698
S'd30jan2006'
p1699
aS'@@last_changed'
p1700
asg14
(lp1701
I01
aI00
aS'@@insert_solver'
p1702
asg1657
(lp1703
I01
aI00
aS'@@redun'
p1704
asg10
(lp1705
g11
aS'@@ms_name'
p1706
asg1661
(lp1707
I01
aS'@@chain_solvers'
p1708
asg1663
(lp1709
Na(lp1710
I5
aI2
aa(lp1711
I2
aI2
aa(lp1712
I3
aI3
aaS'@@num_cells'
p1713
asg12
(lp1714
Nag72
aS'@@parmtable'
p1715
asg609
(lp1716
NaS'@@LSM_solve'
p1717
asg28
(lp1718
NaS'@@@Jsequence_simul'
p1719
asg1666
(lp1720
I1
aI2
aI3
aI5
aI10
aI20
aI50
aI100
aS'@@tile_size'
p1721
asg26
(lp1722
I00
aS'@@uvplane_effect'
p1723
asg29
(lp1724
NaS'@@@Jsequence'
p1725
assg80
Nsg105
S'2006-03-31 11:27'
p1726
sS'HISTORY'
p1727
(dp1728
g95
S'2006-03-31 11:27: Derived from: MG_JEN_simul.inarg'
p1729
ssg20
g9
sg89
S'Predefined inarg record for simulating with EJones corruption'
p1730
sS'save_file'
p1731
S'MG_JEN_simul_EJones.inarg'
p1732
sS'file_filter'
p1733
S'MG_JEN_simul*.inarg'
p1734
sg36
S''
p1735
sg82
I00
sg83
g1726
sg91
(dp1736
S'20'
p1737
S'  0: ./MG_JEN_simul. (qual=None): .modify(insert_solver):   True  ->  False'
p1738
sS'21'
p1739
S'  0: ./MG_JEN_simul. (qual=None): .modify(parmtable):   None  ->  simul_EJones'
p1740
sS'22'
p1741
S'  0: ./MG_JEN_simul. (qual=None): .modify(LSM_solve):   None  ->  lsm_current.lsm'
p1742
sS'23'
p1743
S".modify(severe=False):   ** NOT OK **   found = {'nr_sources': 0, 'LSM_simul': 1, 'insert_solver': 1, 'Jsequence_solve_imp': 1, 'parmtable': 22, 'solvegroup': 1, 'LSM_solve': 1, 'Jsequence_simul_imp': 1, 'num_iter': 1}"
p1744
sg93
S'  0: ./MG_JEN_simul. (qual=None): .modify(tile_size):   10  ->  1'
p1745
sg95
S'  0: ./MG_JEN_simul. (qual=None): .modify(uvplane_effect):   False  ->  True'
p1746
sg97
S'** JEN_inarg.separator(): : uv-data (MS) stream_control'
p1747
sg99
S".modify():   ** OK ** (['uvplane_effect', 'tile_size'])"
p1748
sg101
S'** JEN_inarg.attach(): attached: ./MG_JEN_Cohset.make_spigots()'
p1749
sg103
S'** JEN_inarg.attach(): attached: ./MG_JEN_exec.stream_control()'
p1750
sS'7'
p1751
S'** JEN_inarg.attach(): attached: [simul]./MG_JEN_Sixpack.newstar_source()'
p1752
sg1443
S'** JEN_inarg.separator(): : uv-data simulation (LeafSet)'
p1753
sS'9'
p1754
S'** JEN_inarg.attach(): attached: [simul]./MG_JEN_Cohset.predict_cps()'
p1755
sS'8'
p1756
S'** JEN_inarg.attach(): attached: [simul_uvp]./MG_JEN_Cohset.Jones()'
p1757
sS'11'
p1758
S'** JEN_inarg.separator(): : solver-branch (ParmSet)'
p1759
sS'10'
p1760
S'** JEN_inarg.attach(): attached: [simul]./MG_JEN_Cohset.predict_lsm()'
p1761
sS'13'
p1762
S'** JEN_inarg.attach(): attached: [solve_uvp]./MG_JEN_Cohset.Jones()'
p1763
sS'12'
p1764
S'** JEN_inarg.attach(): attached: [solve]./MG_JEN_Sixpack.newstar_source()'
p1765
sS'15'
p1766
S'** JEN_inarg.attach(): attached: [solve]./MG_JEN_Cohset.predict_lsm()'
p1767
sS'14'
p1768
S'** JEN_inarg.attach(): attached: [solve]./MG_JEN_Cohset.predict_cps()'
p1769
sS'17'
p1770
S'** JEN_inarg.separator(): : finishing touches'
p1771
sS'16'
p1772
S'** JEN_inarg.attach(): attached: ./MG_JEN_Cohset.insert_solver()'
p1773
sS'19'
p1774
S'  0: ./MG_JEN_simul. (qual=None): .modify(LSM_simul):   None  ->  lsm_current.lsm'
p1775
sS'18'
p1776
S'** JEN_inarg.attach(): attached: ./MG_JEN_Cohset.make_sinks()'
p1777
ssg108
(lp1778
g18
ag8
ag1671
ag10
ag1666
ag25
ag2
ag29
ag28
ag27
ag12
ag26
ag1661
ag1653
ag1657
ag1663
ag1
ag1651
ag14
ag4
aS'./MG_JEN_exec.stream_control()'
p1779
aS'./MG_JEN_Cohset.make_spigots()'
p1780
aS'_JEN_inarg_separator_record:_2'
p1781
ag1655
aS'[simul]./MG_JEN_Sixpack.newstar_source()'
p1782
ag611
aS'[simul]./MG_JEN_Cohset.predict_cps()'
p1783
ag1139
aS'_JEN_inarg_separator_record:_3'
p1784
ag609
ag1005
ag15
ag1618
aS'[solve]./MG_JEN_Cohset.predict_lsm()'
p1785
aS'./MG_JEN_Cohset.insert_solver()'
p1786
aS'_JEN_inarg_separator_record:_4'
p1787
aS'./MG_JEN_Cohset.make_sinks()'
p1788
assg1788
(dp1789
S'fullDomainMux'
p1790
I01
sS'output_col'
p1791
S'PREDICT'
p1792
sS'visu'
p1793
I01
sS'flag'
p1794
I00
sg18
(dp1795
g20
S'MG_JEN_Cohset::make_sinks()'
p1796
sg22
g1788
sg105
S'2006-03-31 11:27'
p1797
sg89
S'** Specific description of inarg record for: MG_JEN_Cohset::make_sinks()  version=25dec2005  defined=2006-03-31 11:27'
p1798
sg30
S'MG_JEN_Cohsetmake_sinks'
p1799
sg32
g33
sg34
S'MG_JEN_Cohset::make_sinks()  version=25dec2005  defined=2006-03-31 11:27'
p1800
sg36
S'make_sinks'
p1801
sg38
(dp1802
g1794
(lp1803
I01
aI00
aS'@@flag'
p1804
asg1793
(lp1805
I01
aI00
aS'@@visu'
p1806
asg1790
(lp1807
I01
aI00
aS'@@fullDomainMux'
p1808
asg1791
(lp1809
g1792
aS'RESIDUALS'
p1810
aS'DATA'
p1811
aS'@@output_col'
p1812
asS'visu_array_config'
p1813
(lp1814
I01
aI00
aS'@@visu_array_config'
p1815
assg80
Nsg85
g86
sg83
g1797
sg87
S'MG_JEN_Cohset'
p1816
sg225
(dp1817
g1794
I00
sg1793
I00
sg1790
I00
sg1813
I00
ssg82
I00
sg108
(lp1818
g18
ag1791
ag1813
ag1793
ag1794
ag1790
asg116
(dp1819
g1794
S'if True, insert a flagger for the output uv-data'
p1820
sg1793
S'if True, visualise the output uv-data'
p1821
sg1790
S'if True, attach an extra VisDataMux'
p1822
sg1791
S'name of the logical (VisTile) output column'
p1823
sg1813
S'if True, visualise the array config (from MS)'
p1824
ssg124
S'Make sink nodes in the given Cohset object'
p1825
ssg1813
I01
ssg27
Nsg1780
(dp1826
g1794
I00
sg1793
I01
sg18
(dp1827
g20
S'MG_JEN_Cohset::make_spigots()'
p1828
sg22
g1780
sg105
S'2006-03-31 11:27'
p1829
sg23
(dp1830
S'input_col'
p1831
I01
ssg30
S'MG_JEN_Cohsetmake_spigots'
p1832
sg32
g33
sg34
S'MG_JEN_Cohset::make_spigots()  version=25dec2005  defined=2006-03-31 11:27'
p1833
sg36
S'make_spigots'
p1834
sg38
(dp1835
g1794
(lp1836
I01
aI00
aS'@@flag'
p1837
asS'MS_corr_index'
p1838
(lp1839
(lp1840
I0
aI1
aI2
aI3
aa(lp1841
I0
aI-1
aI-1
aI1
aa(lp1842
I0
aI-1
aI-1
aI3
aaS'@@MS_corr_index'
p1843
asg1831
(lp1844
g1811
ag1792
ag1810
aS'@@input_col'
p1845
asg1793
(lp1846
I01
aI00
aS'@@visu'
p1847
assg80
Nsg85
g86
sg83
g1829
sg87
S'MG_JEN_Cohset'
p1848
sg225
(dp1849
g1794
I00
sg1793
I00
ssg89
S'** Specific description of inarg record for: MG_JEN_Cohset::make_spigots()  version=25dec2005  defined=2006-03-31 11:27'
p1850
sg82
I00
sg108
(lp1851
g18
ag1831
ag1838
ag1793
ag1794
asg116
(dp1852
g1794
S'if True, insert a flagger for the input uv-data'
p1853
sg1838
S'correlations to be used: \n- [0,1,2,3]:   all corrs available, use all \n- [0,-1,-1,1]: only XX/YY (or RR/LL) available \n- [0,-1,-1,3]: all available, but use only XX/YY or RR/LL'
p1854
sg1831
S'name of the logical (VisTile) input column'
p1855
sg1793
S'if True, visualise the input uv-data'
p1856
ssg124
S'Make spigot nodes in the given Cohset object'
p1857
ssg1831
g1811
sg1838
(lp1858
I0
aI1
aI2
aI3
assg1785
(dp1859
S'[solve_imp]./MG_JEN_Cohset.Jones()'
p1860
(dp1861
S'[solve_imp]./MG_JEN_Joneset.FJones()'
p1862
(dp1863
g127
I00
sg2
S'@@polrep'
p1864
sg130
g131
sg132
I00
sg150
Nsg136
I01
sg137
I10
sg138
g139
sg142
g143
sg144
Nsg18
(dp1865
g20
S'MG_JEN_Joneset::FJones()'
p1866
sg22
g1862
sg23
(dp1867
g138
I01
sg2
I01
sg148
I01
sg25
I01
sg130
I01
sg149
I01
sg142
I01
sg26
I01
sg144
I01
sg150
I01
sg12
I01
sg27
I01
sg28
I01
sg137
I01
sg29
I01
ssg124
g368
sg32
g33
sg34
S'MG_JEN_Joneset::FJones()  version=16dec2005  defined=2006-03-31 11:27'
p1868
sg36
S'FJones'
p1869
sg38
(dp1870
g127
(lp1871
I01
aI00
aS'@@reset_funklet'
p1872
asg2
(lp1873
g3
ag41
ag1864
asg130
(lp1874
g131
aS'@@color'
p1875
asg132
(lp1876
I01
aI00
aS'@@save_all'
p1877
asg150
(lp1878
NaS'@@tfdeg'
p1879
asg136
(lp1880
I01
aI00
aS'@@auto_save'
p1881
asg137
(lp1882
I10
aS'@@size'
p1883
asg138
(lp1884
g139
aS'@@style'
p1885
asg142
(lp1886
g143
aS'@@condeq_corrs'
p1887
asg144
(lp1888
NaS'@@funklet_shape'
p1889
asg27
(lp1890
g56
aS'@@@Jsequence_KJones'
p1891
asg29
(lp1892
g56
aS'@@@Jsequence'
p1893
asg148
(lp1894
F1.0
aS'@@c00_default'
p1895
asg26
(lp1896
I00
aS'@@uvplane_effect'
p1897
asg25
(lp1898
(lp1899
I0
aI1
aI2
aI3
aI4
aa(lp1900
I0
aI1
aI2
aI3
aI4
aI5
aI6
aa(lp1901
I0
aI1
aI2
aI3
aI4
aI5
aI6
aI7
aI8
aI9
aI10
aI11
aI12
aI13
aa(lp1902
I0
aI1
aI2
aI3
aI4
aI5
aI6
aI7
aI8
aI9
aI10
aI11
aI12
aI13
aI14
aag47
aS'@@stations'
p1903
asg405
(lp1904
I0
aI1
aI2
aI3
aS'@@tdeg_RM'
p1905
asg211
(lp1906
I01
aI00
aS'@@use_previous'
p1907
asg410
(lp1908
I0
aI1
aI2
aI3
aS'@@fdeg_RM'
p1909
asg149
(lp1910
NaS'@@subtile_size'
p1911
asg12
(lp1912
Nag72
aS'@@parmtable'
p1913
asg417
(lp1914
NaI1
aI2
aI5
aI10
aI20
aI50
aI100
aI200
aI500
aS'@@subtile_size_RM'
p1915
asg28
(lp1916
g56
aS'@@@Jsequence_simul'
p1917
assg80
S'solve_imp'
p1918
sg82
I00
sg83
S'2006-03-31 11:27'
p1919
sg85
g352
sg87
S'MG_JEN_Joneset'
p1920
sg225
(dp1921
g127
I00
sg132
I00
sg136
I00
sg211
I00
ssg89
S'** Specific description of inarg record for: MG_JEN_Joneset::FJones()  version=16dec2005  defined=2006-03-31 11:27'
p1922
sg106
(dp1923
g26
I00
sg12
I00
sg2
I00
sg25
I00
ssg105
g1919
sg108
(lp1924
g18
ag25
ag2
ag29
ag28
ag27
ag12
ag26
ag405
ag410
ag417
ag211
ag136
ag132
ag127
ag130
ag138
ag137
ag148
ag150
ag144
ag149
ag142
asg116
(dp1925
g127
g231
sg2
g118
sg130
g233
sg132
g234
sg150
g247
sg136
g237
sg137
g238
sg138
g239
sg142
g240
sg144
g241
sg27
g123
sg29
g123
sg148
g243
sg26
g121
sg25
g119
sg405
g429
sg211
g245
sg410
g430
sg149
g246
sg12
g122
sg417
g431
sg28
g123
ssg30
S'MG_JEN_JonesetFJones'
p1926
ssg27
g56
sg29
g56
sg148
F1.0
sg26
g1897
sg25
g1903
sg405
I0
sg211
I01
sg410
I2
sg149
Nsg12
g1913
sg417
I1
sg28
g56
ssg27
NsS'[solve_imp]./MG_JEN_Joneset.JJones()'
p1927
(dp1928
g127
I00
sg2
S'@@polrep'
p1929
sg129
I0
sg130
g131
sg132
I00
sg133
Nsg12
S'@@parmtable'
p1930
sg135
Nsg136
I01
sg137
I10
sg138
g139
sg140
g141
sg142
g143
sg144
Nsg18
(dp1931
g20
S'MG_JEN_Joneset::JJones()'
p1932
sg22
g1927
sg23
(dp1933
g138
I01
sg2
I01
sg148
I01
sg25
I01
sg130
I01
sg149
I01
sg142
I01
sg26
I01
sg144
I01
sg150
I01
sg12
I01
sg27
I01
sg28
I01
sg137
I01
sg29
I01
ssg124
g152
sg32
g33
sg34
S'MG_JEN_Joneset::JJones()  version=14feb2006  defined=2006-03-31 11:27'
p1934
sg36
S'JJones'
p1935
sg38
(dp1936
g127
(lp1937
I01
aI00
aS'@@reset_funklet'
p1938
asg2
(lp1939
g3
ag41
ag1929
asg129
(lp1940
I0
aI1
aI2
aI3
aS'@@tdeg_Jreal'
p1941
asg130
(lp1942
g131
aS'@@color'
p1943
asg132
(lp1944
I01
aI00
aS'@@save_all'
p1945
asg133
(lp1946
Na(lp1947
I14
aa(lp1948
I1
aag168
aS'@@all4_always'
p1949
asg12
(lp1950
Nag72
ag1930
asg135
(lp1951
NaI1
aI2
aI5
aI10
aI20
aI50
aI100
aI200
aI500
aS'@@subtile_size_Jreal'
p1952
asg136
(lp1953
I01
aI00
aS'@@auto_save'
p1954
asg137
(lp1955
I10
aS'@@size'
p1956
asg138
(lp1957
g139
aS'@@style'
p1958
asg140
(lp1959
I0
aI1
aI2
aI3
ag141
aS'@@tdeg_Jimag'
p1960
asg142
(lp1961
g143
aS'@@condeq_corrs'
p1962
asg144
(lp1963
NaS'@@funklet_shape'
p1964
asg27
(lp1965
g66
aS'@@@Jsequence_KJones'
p1966
asg187
(lp1967
I0
aI1
aI2
aI3
aS'@@fdeg_Jreal'
p1968
asg148
(lp1969
F1.0
aS'@@c00_default'
p1970
asg26
(lp1971
I00
aS'@@uvplane_effect'
p1972
asg194
(lp1973
I0
aI1
aI2
aI3
ag196
aS'@@fdeg_Jimag'
p1974
asg198
(lp1975
g200
aNaI1
aI2
aI5
aI10
aI20
aI50
aI100
aI200
aI500
aS'@@subtile_size_Jimag'
p1976
asg25
(lp1977
(lp1978
I0
aI1
aI2
aI3
aI4
aa(lp1979
I0
aI1
aI2
aI3
aI4
aI5
aI6
aa(lp1980
I0
aI1
aI2
aI3
aI4
aI5
aI6
aI7
aI8
aI9
aI10
aI11
aI12
aI13
aa(lp1981
I0
aI1
aI2
aI3
aI4
aI5
aI6
aI7
aI8
aI9
aI10
aI11
aI12
aI13
aI14
aag47
aS'@@stations'
p1982
asg208
(lp1983
I01
aI00
aS'@@diagonal_only'
p1984
asg211
(lp1985
I01
aI00
aS'@@use_previous'
p1986
asg149
(lp1987
NaS'@@subtile_size'
p1988
asg150
(lp1989
NaS'@@tfdeg'
p1990
asg28
(lp1991
g66
aS'@@@Jsequence_simul'
p1992
asg29
(lp1993
g66
aS'@@@Jsequence'
p1994
assg80
g1918
sg82
I00
sg83
S'2006-03-31 11:27'
p1995
sg85
g223
sg87
S'MG_JEN_Joneset'
p1996
sg225
(dp1997
g127
I00
sg208
I00
sg132
I00
sg136
I00
sg211
I00
ssg89
S'** Specific description of inarg record for: MG_JEN_Joneset::JJones()  version=14feb2006  defined=2006-03-31 11:27'
p1998
sg106
(dp1999
g26
I00
sg12
I00
sg2
I00
sg25
I00
ssg105
g1995
sg108
(lp2000
g18
ag25
ag2
ag29
ag28
ag27
ag208
ag133
ag12
ag26
ag129
ag140
ag187
ag194
ag135
ag198
ag211
ag136
ag132
ag127
ag130
ag138
ag137
ag148
ag150
ag144
ag149
ag142
asg116
(dp2001
g127
g231
sg2
g118
sg129
g232
sg130
g233
sg132
g234
sg133
g235
sg12
g122
sg135
g236
sg136
g237
sg137
g238
sg138
g239
sg140
g232
sg142
g240
sg144
g241
sg27
g123
sg187
g242
sg148
g243
sg26
g121
sg194
g242
sg198
g236
sg25
g119
sg208
g244
sg211
g245
sg149
g246
sg150
g247
sg28
g123
sg29
g123
ssg30
S'MG_JEN_JonesetJJones'
p2002
ssg27
g66
sg187
I0
sg148
F1.0
sg26
g1972
sg194
g196
sg198
g200
sg25
g1982
sg208
I00
sg211
I01
sg149
Nsg150
Nsg28
g66
sg29
g66
ssg25
S'@@stations'
p2003
sS'[solve_imp]./MG_JEN_Joneset.BJones()'
p2004
(dp2005
g127
I00
sg2
S'@@polrep'
p2006
sg130
g131
sg281
g282
sg132
I00
sg283
Nsg136
I01
sg137
I10
sg138
g139
sg284
I5
sg142
g143
sg144
Nsg18
(dp2007
g20
S'MG_JEN_Joneset::BJones()'
p2008
sg22
g2004
sg23
(dp2009
g138
I01
sg2
I01
sg148
I01
sg25
I01
sg130
I01
sg149
I01
sg142
I01
sg26
I01
sg144
I01
sg150
I01
sg12
I01
sg27
I01
sg28
I01
sg137
I01
sg29
I01
ssg124
g289
sg32
g33
sg34
S'MG_JEN_Joneset::BJones()  version=16dec2005  defined=2006-03-31 11:27'
p2010
sg36
S'BJones'
p2011
sg38
(dp2012
g127
(lp2013
I01
aI00
aS'@@reset_funklet'
p2014
asg2
(lp2015
g3
ag41
ag2006
asg130
(lp2016
g131
aS'@@color'
p2017
asg281
(lp2018
g282
aNaI1
aI2
aI5
aI10
aI20
aI50
aI100
aI200
aI500
aS'@@subtile_size_Bimag'
p2019
asg132
(lp2020
I01
aI00
aS'@@save_all'
p2021
asg283
(lp2022
NaI1
aI2
aI5
aI10
aI20
aI50
aI100
aI200
aI500
aS'@@subtile_size_Breal'
p2023
asg136
(lp2024
I01
aI00
aS'@@auto_save'
p2025
asg137
(lp2026
I10
aS'@@size'
p2027
asg138
(lp2028
g139
aS'@@style'
p2029
asg284
(lp2030
I3
aI4
aI5
aI6
aS'@@fdeg_Breal'
p2031
asg142
(lp2032
g143
aS'@@condeq_corrs'
p2033
asg144
(lp2034
NaS'@@funklet_shape'
p2035
asg27
(lp2036
g54
aS'@@@Jsequence_KJones'
p2037
asg318
(lp2038
I0
aI1
aI2
aI3
ag320
aS'@@tdeg_Bimag'
p2039
asg29
(lp2040
g54
aS'@@@Jsequence'
p2041
asg148
(lp2042
F1.0
aS'@@c00_default'
p2043
asg326
(lp2044
I3
aI4
aI5
aI6
ag328
aS'@@fdeg_Bimag'
p2045
asg26
(lp2046
I00
aS'@@uvplane_effect'
p2047
asg12
(lp2048
Nag72
aS'@@parmtable'
p2049
asg25
(lp2050
(lp2051
I0
aI1
aI2
aI3
aI4
aa(lp2052
I0
aI1
aI2
aI3
aI4
aI5
aI6
aa(lp2053
I0
aI1
aI2
aI3
aI4
aI5
aI6
aI7
aI8
aI9
aI10
aI11
aI12
aI13
aa(lp2054
I0
aI1
aI2
aI3
aI4
aI5
aI6
aI7
aI8
aI9
aI10
aI11
aI12
aI13
aI14
aag47
aS'@@stations'
p2055
asg340
(lp2056
I0
aI1
aI2
aI3
aS'@@tdeg_Breal'
p2057
asg211
(lp2058
I01
aI00
aS'@@use_previous'
p2059
asg149
(lp2060
NaS'@@subtile_size'
p2061
asg150
(lp2062
NaS'@@tfdeg'
p2063
asg28
(lp2064
g54
aS'@@@Jsequence_simul'
p2065
assg80
g1918
sg82
I00
sg83
S'2006-03-31 11:27'
p2066
sg85
g352
sg87
S'MG_JEN_Joneset'
p2067
sg225
(dp2068
g127
I00
sg132
I00
sg136
I00
sg211
I00
ssg89
S'** Specific description of inarg record for: MG_JEN_Joneset::BJones()  version=16dec2005  defined=2006-03-31 11:27'
p2069
sg106
(dp2070
g26
I00
sg12
I00
sg2
I00
sg25
I00
ssg105
g2066
sg108
(lp2071
g18
ag25
ag2
ag29
ag28
ag27
ag12
ag26
ag340
ag318
ag284
ag326
ag283
ag281
ag211
ag136
ag132
ag127
ag130
ag138
ag137
ag148
ag150
ag144
ag149
ag142
asg116
(dp2072
g127
g231
sg2
g118
sg130
g233
sg281
g359
sg132
g234
sg283
g359
sg136
g237
sg137
g238
sg138
g239
sg284
g360
sg142
g240
sg144
g241
sg27
g123
sg318
g361
sg29
g123
sg148
g243
sg326
g360
sg26
g121
sg12
g122
sg25
g119
sg340
g361
sg211
g245
sg149
g246
sg150
g247
sg28
g123
ssg30
S'MG_JEN_JonesetBJones'
p2073
ssg27
g54
sg318
g320
sg29
g54
sg148
F1.0
sg326
g328
sg26
g2047
sg25
g2055
sg150
Nsg340
I0
sg211
I01
sg149
Nsg12
g2049
sg28
g54
ssS'[solve_imp]./MG_JEN_Joneset.DJones_WSRT()'
p2074
(dp2075
g127
I00
sg2
S'@@polrep'
p2076
sg130
g131
sg521
g522
sg523
I01
sg132
I00
sg12
S'@@parmtable'
p2077
sg525
Nsg136
I01
sg137
I10
sg138
g139
sg142
g143
sg144
Nsg18
(dp2078
g20
S'MG_JEN_Joneset::DJones_WSRT()'
p2079
sg22
g2074
sg23
(dp2080
g138
I01
sg2
I01
sg148
I01
sg25
I01
sg130
I01
sg149
I01
sg142
I01
sg26
I01
sg144
I01
sg150
I01
sg12
I01
sg27
I01
sg28
I01
sg137
I01
sg29
I01
ssg124
g530
sg32
g33
sg34
S'MG_JEN_Joneset::DJones_WSRT()  version=16dec2005  defined=2006-03-31 11:27'
p2081
sg36
S'DJones_WSRT'
p2082
sg38
(dp2083
g127
(lp2084
I01
aI00
aS'@@reset_funklet'
p2085
asg2
(lp2086
g3
ag41
ag2076
asg130
(lp2087
g131
aS'@@color'
p2088
asg521
(lp2089
I0
aI1
aI2
aI3
ag522
aS'@@fdeg_Dell'
p2090
asg523
(lp2091
I01
aI00
aS'@@coupled_XY_Dell'
p2092
asg132
(lp2093
I01
aI00
aS'@@save_all'
p2094
asg12
(lp2095
Nag72
ag2077
asg525
(lp2096
NaI1
aI2
aI5
aI10
aI20
aI50
aI100
aI200
aI500
aS'@@subtile_size_Dang'
p2097
asg136
(lp2098
I01
aI00
aS'@@auto_save'
p2099
asg137
(lp2100
I10
aS'@@size'
p2101
asg138
(lp2102
g139
aS'@@style'
p2103
asg142
(lp2104
g143
aS'@@condeq_corrs'
p2105
asg144
(lp2106
NaS'@@funklet_shape'
p2107
asg27
(lp2108
g60
aS'@@@Jsequence_KJones'
p2109
asg560
(lp2110
g562
aNaI1
aI2
aI5
aI10
aI20
aI50
aI100
aI200
aI500
aS'@@subtile_size_Dell'
p2111
asg29
(lp2112
g60
aS'@@@Jsequence'
p2113
asg566
(lp2114
I0
aI1
aI2
aI3
aS'@@fdeg_Dang'
p2115
asg148
(lp2116
F1.0
aS'@@c00_default'
p2117
asg26
(lp2118
I00
aS'@@uvplane_effect'
p2119
asg573
(lp2120
I0
aI1
aI2
aI3
ag575
aS'@@tdeg_Dell'
p2121
asg577
(lp2122
I01
aI00
aS'@@coupled_XY_Dang'
p2123
asg580
(lp2124
I0
aI1
aI2
aI3
aS'@@tdeg_Dang'
p2125
asg25
(lp2126
(lp2127
I0
aI1
aI2
aI3
aI4
aa(lp2128
I0
aI1
aI2
aI3
aI4
aI5
aI6
aa(lp2129
I0
aI1
aI2
aI3
aI4
aI5
aI6
aI7
aI8
aI9
aI10
aI11
aI12
aI13
aa(lp2130
I0
aI1
aI2
aI3
aI4
aI5
aI6
aI7
aI8
aI9
aI10
aI11
aI12
aI13
aI14
aag47
aS'@@stations'
p2131
asg211
(lp2132
I01
aI00
aS'@@use_previous'
p2133
asg149
(lp2134
NaS'@@subtile_size'
p2135
asg150
(lp2136
NaS'@@tfdeg'
p2137
asg28
(lp2138
g60
aS'@@@Jsequence_simul'
p2139
assg80
g1918
sg82
I00
sg83
S'2006-03-31 11:27'
p2140
sg85
g352
sg87
S'MG_JEN_Joneset'
p2141
sg225
(dp2142
g127
I00
sg523
I00
sg132
I00
sg577
I00
sg211
I00
sg136
I00
ssg89
S'** Specific description of inarg record for: MG_JEN_Joneset::DJones_WSRT()  version=16dec2005  defined=2006-03-31 11:27'
p2143
sg106
(dp2144
g26
I00
sg12
I00
sg2
I00
sg25
I00
ssg105
g2140
sg108
(lp2145
g18
ag25
ag2
ag29
ag28
ag27
ag577
ag523
ag12
ag26
ag580
ag573
ag566
ag521
ag525
ag560
ag211
ag136
ag132
ag127
ag130
ag138
ag137
ag148
ag150
ag144
ag149
ag142
asg116
(dp2146
g127
g231
sg2
g118
sg130
g233
sg521
g604
sg523
g605
sg132
g234
sg12
g122
sg525
g606
sg136
g237
sg137
g238
sg138
g239
sg142
g240
sg144
g241
sg27
g123
sg560
g606
sg29
g123
sg566
g604
sg148
g243
sg26
g121
sg573
g607
sg577
g608
sg580
g607
sg25
g119
sg211
g245
sg149
g246
sg150
g247
sg28
g123
ssg30
S'MG_JEN_JonesetDJones_WSRT'
p2147
ssg27
g60
sg560
g562
sg29
g60
sg566
I0
sg148
F1.0
sg26
g2119
sg573
g575
sg577
I01
sg580
I0
sg25
g2131
sg211
I01
sg149
Nsg150
Nsg28
g60
ssg26
S'@@uvplane_effect'
p2148
sg12
S'@@parmtable'
p2149
sg18
(dp2150
g20
g21
sg22
g1860
sg23
(dp2151
g2
I01
sg25
I01
sg26
I01
sg12
I01
sg27
I01
sg28
I01
sg29
I01
ssg30
S'MG_JEN_CohsetJones'
p2152
sg32
g33
sg124
g125
sg34
S'MG_JEN_Cohset::Jones()  version=25dec2005  defined=2006-03-31 11:27'
p2153
sg36
S'Jones'
p2154
sg38
(dp2155
g2
(lp2156
g3
ag41
aS'@@polrep'
p2157
asg25
(lp2158
(lp2159
I0
aI1
aI2
aI3
aI4
aa(lp2160
I0
aI1
aI2
aI3
aI4
aI5
aI6
aa(lp2161
I0
aI1
aI2
aI3
aI4
aI5
aI6
aI7
aI8
aI9
aI10
aI11
aI12
aI13
aa(lp2162
I0
aI1
aI2
aI3
aI4
aI5
aI6
aI7
aI8
aI9
aI10
aI11
aI12
aI13
aI14
aag47
ag2003
asg26
(lp2163
I00
ag2148
asg12
(lp2164
Nag72
ag2149
asg27
(lp2165
NaS'@@@Jsequence_KJones'
p2166
asg28
(lp2167
NaS'@@@Jsequence_simul'
p2168
asS'Jsequence_solve_imp'
p2169
(lp2170
(lp2171
g52
aa(lp2172
g54
aa(lp2173
g56
aa(lp2174
g58
aa(lp2175
g60
aa(lp2176
g52
ag60
aa(lp2177
g63
aa(lp2178
g52
ag63
aa(lp2179
g66
aa(lp2180
aS'@@Jsequence_solve_imp'
p2181
asg29
(lp2182
NaS'@@@Jsequence'
p2183
assg80
g1918
sg82
I00
sg83
S'2006-03-31 11:27'
p2184
sg85
g86
sg87
S'MG_JEN_Cohset'
p2185
sg89
S'** Specific description of inarg record for: MG_JEN_Cohset::Jones()  version=25dec2005  defined=2006-03-31 11:27'
p2186
sg91
(dp2187
g93
S'** JEN_inarg.attach(): attached: [solve_imp]./MG_JEN_Joneset.FJones()'
p2188
sg95
S'** JEN_inarg.attach(): attached: [solve_imp]./MG_JEN_Joneset.GJones()'
p2189
sg97
S'** JEN_inarg.attach(): attached: [solve_imp]./MG_JEN_Joneset.KJones()'
p2190
sg99
S'** JEN_inarg.attach(): attached: [solve_imp]./MG_JEN_Joneset.BJones()'
p2191
sg101
S'** JEN_inarg.attach(): attached: [solve_imp]./MG_JEN_Joneset.JJones()'
p2192
sg103
S'** JEN_inarg.attach(): attached: [solve_imp]./MG_JEN_Joneset.DJones_WSRT()'
p2193
sg1443
S"  2: ....[solve_imp]./MG_JEN_Cohset.Jones() (qual=None): .modify(Jsequence_solve_imp):   []  ->  ['EJones_WSRT']"
p2194
ssg105
g2184
sg106
(dp2195
g26
I00
sg12
I00
sg2
I00
sg25
I00
ssg108
(lp2196
g18
ag25
ag2
ag29
ag28
ag27
ag12
ag26
ag2169
aS'[solve_imp]./MG_JEN_Joneset.GJones()'
p2197
ag1862
ag2004
aS'[solve_imp]./MG_JEN_Joneset.KJones()'
p2198
ag2074
ag1927
asg116
(dp2199
g2
g118
sg25
g119
sg26
g121
sg12
g122
sg27
g123
sg28
g123
sg2169
g120
sg29
g123
sssg2197
(dp2200
g127
I00
sg2
S'@@polrep'
p2201
sg434
I0
sg130
g131
sg132
I00
sg12
S'@@parmtable'
p2202
sg136
I01
sg137
I10
sg138
g139
sg436
I1
sg142
g143
sg144
Nsg18
(dp2203
g20
S'MG_JEN_Joneset::GJones()'
p2204
sg22
g2197
sg23
(dp2205
g137
I01
sg138
I01
sg2
I01
sg148
I01
sg25
I01
sg130
I01
sg149
I01
sg142
I01
sg26
I01
sg144
I01
sg150
I01
sg12
I01
sg27
I01
sg28
I01
sg440
I01
sg29
I01
ssg124
g442
sg32
g33
sg34
S'MG_JEN_Joneset::GJones()  version=15dec2005  defined=2006-03-31 11:27'
p2206
sg36
S'GJones'
p2207
sg38
(dp2208
g127
(lp2209
I01
aI00
aS'@@reset_funklet'
p2210
asg2
(lp2211
g3
ag41
ag2201
asg434
(lp2212
I0
aI1
aI2
aI3
aS'@@fdeg_Ggain'
p2213
asg130
(lp2214
g131
aS'@@color'
p2215
asg132
(lp2216
I01
aI00
aS'@@save_all'
p2217
asg12
(lp2218
Nag72
ag2202
asg136
(lp2219
I01
aI00
aS'@@auto_save'
p2220
asg137
(lp2221
I10
aS'@@size'
p2222
asg138
(lp2223
g139
aS'@@style'
p2224
asg436
(lp2225
NaI1
aI2
aI5
aI10
aI20
aI50
aI100
aI200
aI500
aS'@@subtile_size_Ggain'
p2226
asg142
(lp2227
g143
aS'@@condeq_corrs'
p2228
asg144
(lp2229
NaS'@@funklet_shape'
p2230
asg27
(lp2231
g52
aS'@@@Jsequence_KJones'
p2232
asg29
(lp2233
g52
aS'@@@Jsequence'
p2234
asg148
(lp2235
F1.0
aS'@@c00_default'
p2236
asg474
(lp2237
I0
aI1
aI2
aI3
ag476
aS'@@tdeg_Gphase'
p2238
asg478
(lp2239
I0
aI1
aI2
aI3
aS'@@tdeg_Ggain'
p2240
asg481
(lp2241
I0
aI1
aI2
aI3
ag483
aS'@@fdeg_Gphase'
p2242
asg485
(lp2243
g487
aNaI1
aI2
aI5
aI10
aI20
aI50
aI100
aI200
aI500
aS'@@subtile_size_Gphase'
p2244
asg440
(lp2245
I01
aI00
aS'@@Gpolar'
p2246
asg26
(lp2247
I00
aS'@@uvplane_effect'
p2248
asg25
(lp2249
(lp2250
I0
aI1
aI2
aI3
aI4
aa(lp2251
I0
aI1
aI2
aI3
aI4
aI5
aI6
aa(lp2252
I0
aI1
aI2
aI3
aI4
aI5
aI6
aI7
aI8
aI9
aI10
aI11
aI12
aI13
aa(lp2253
I0
aI1
aI2
aI3
aI4
aI5
aI6
aI7
aI8
aI9
aI10
aI11
aI12
aI13
aI14
aag47
aS'@@stations'
p2254
asg211
(lp2255
I01
aI00
aS'@@use_previous'
p2256
asg149
(lp2257
NaS'@@subtile_size'
p2258
asg150
(lp2259
NaS'@@tfdeg'
p2260
asg28
(lp2261
g52
aS'@@@Jsequence_simul'
p2262
assg80
g1918
sg82
I00
sg83
S'2006-03-31 11:27'
p2263
sg85
g508
sg87
S'MG_JEN_Joneset'
p2264
sg225
(dp2265
g127
I00
sg440
I00
sg132
I00
sg136
I00
sg211
I00
ssg89
S'** Specific description of inarg record for: MG_JEN_Joneset::GJones()  version=15dec2005  defined=2006-03-31 11:27'
p2266
sg106
(dp2267
g26
I00
sg12
I00
sg2
I00
sg25
I00
ssg105
g2263
sg108
(lp2268
g18
ag25
ag2
ag29
ag28
ag27
ag440
ag12
ag26
ag478
ag474
ag434
ag481
ag436
ag485
ag211
ag136
ag132
ag127
ag130
ag138
ag137
ag148
ag150
ag144
ag149
ag142
asg116
(dp2269
g127
g231
sg2
g118
sg434
g515
sg130
g233
sg132
g234
sg12
g122
sg136
g237
sg137
g238
sg138
g239
sg436
g516
sg142
g240
sg144
g241
sg27
g123
sg29
g123
sg148
g243
sg474
g517
sg478
g517
sg481
g515
sg485
g516
sg440
g518
sg26
g121
sg25
g119
sg211
g245
sg149
g246
sg150
g247
sg28
g123
ssg30
S'MG_JEN_JonesetGJones'
p2270
ssg27
g52
sg29
g52
sg148
F1.0
sg474
g476
sg478
I0
sg481
g483
sg485
g487
sg440
I01
sg26
g2248
sg25
g2254
sg211
I01
sg149
Nsg150
Nsg28
g52
ssg2
g2157
sg28
Nsg2198
(dp2271
g2
S'@@polrep'
p2272
sg25
S'@@stations'
p2273
sg18
(dp2274
g20
S'MG_JEN_Joneset::KJones()'
p2275
sg22
g2198
sg23
(dp2276
g27
I01
sg28
I01
sg29
I01
sg2
I01
sg25
I01
ssg124
g255
sg32
g33
sg34
S'MG_JEN_Joneset::KJones()  version=12dec2005  defined=2006-03-31 11:27'
p2277
sg36
S'KJones'
p2278
sg38
(dp2279
g27
(lp2280
g58
aS'@@@Jsequence_KJones'
p2281
asg28
(lp2282
g58
aS'@@@Jsequence_simul'
p2283
asg29
(lp2284
g58
aS'@@@Jsequence'
p2285
asg2
(lp2286
g3
ag41
ag2272
asg25
(lp2287
(lp2288
I0
aI1
aI2
aI3
aI4
aa(lp2289
I0
aI1
aI2
aI3
aI4
aI5
aI6
aa(lp2290
I0
aI1
aI2
aI3
aI4
aI5
aI6
aI7
aI8
aI9
aI10
aI11
aI12
aI13
aa(lp2291
I0
aI1
aI2
aI3
aI4
aI5
aI6
aI7
aI8
aI9
aI10
aI11
aI12
aI13
aI14
aag47
ag2273
assg80
g1918
sg82
I00
sg83
S'2006-03-31 11:27'
p2292
sg85
g272
sg87
S'MG_JEN_Joneset'
p2293
sg89
S'** Specific description of inarg record for: MG_JEN_Joneset::KJones()  version=12dec2005  defined=2006-03-31 11:27'
p2294
sg106
(dp2295
g2
I00
sg25
I00
ssg105
g2292
sg108
(lp2296
g18
ag25
ag2
ag29
ag28
ag27
asg116
(dp2297
g27
g123
sg28
g123
sg29
g123
sg2
g118
sg25
g119
ssg30
S'MG_JEN_JonesetKJones'
p2298
ssg27
g58
sg28
g58
sg29
g58
ssg2169
(lp2299
g63
asg29
Nssg2
S'@@polrep'
p2300
sg25
S'@@stations'
p2301
sg18
(dp2302
g20
g1144
sg22
g1785
sg23
(dp2303
g27
I01
sg28
I01
sg29
I01
sg2
I01
sg25
I01
ssg30
S'MG_JEN_Cohsetpredict_lsm'
p2304
sg32
g33
sg34
S'MG_JEN_Cohset::predict_lsm()  version=20mar2006  defined=2006-03-31 11:27'
p2305
sg36
S'predict_lsm'
p2306
sg38
(dp2307
g2
(lp2308
g3
ag41
ag2300
asg25
(lp2309
(lp2310
I0
aI1
aI2
aI3
aI4
aa(lp2311
I0
aI1
aI2
aI3
aI4
aI5
aI6
aa(lp2312
I0
aI1
aI2
aI3
aI4
aI5
aI6
aI7
aI8
aI9
aI10
aI11
aI12
aI13
aa(lp2313
I0
aI1
aI2
aI3
aI4
aI5
aI6
aI7
aI8
aI9
aI10
aI11
aI12
aI13
aI14
aag47
ag2301
asg1156
(lp2314
I1
aI2
aI3
aI5
aI10
aI20
aI100
aS'@@nr_lsm_sources'
p2315
asg27
(lp2316
NaS'@@@Jsequence_KJones'
p2317
asg28
(lp2318
NaS'@@@Jsequence_simul'
p2319
asg29
(lp2320
NaS'@@@Jsequence'
p2321
assg80
g1025
sg82
I00
sg83
S'2006-03-31 11:27'
p2322
sg85
g1167
sg87
S'MG_JEN_Cohset'
p2323
sg89
S'** Specific description of inarg record for: MG_JEN_Cohset::predict_lsm()  version=20mar2006  defined=2006-03-31 11:27'
p2324
sg91
(dp2325
g95
S'** JEN_inarg.attach(): attached: [solve_imp]./MG_JEN_Cohset.Jones()'
p2326
ssg105
g2322
sg106
(dp2327
g2
I00
sg25
I00
ssg108
(lp2328
g18
ag1156
ag25
ag2
ag29
ag28
ag27
ag1860
asg116
(dp2329
g2
g118
sg25
g119
sg1156
g1176
sg27
g123
sg28
g123
sg29
g123
ssg124
g1177
ssg1156
I1
sg27
Nsg28
Nsg29
Nssg29
Nsg1655
g610
sg1671
g1699
sg26
I01
sg1663
Nsg1783
(dp2330
g2
S'@@polrep'
p2331
sg25
S'@@stations'
p2332
sg18
(dp2333
g20
g1623
sg22
g1783
sg23
(dp2334
g27
I01
sg28
I01
sg29
I01
sg2
I01
sg25
I01
ssg30
S'MG_JEN_Cohsetpredict_cps'
p2335
sg32
g33
sg34
S'MG_JEN_Cohset::predict_cps()  version=20mar2006  defined=2006-03-31 11:27'
p2336
sg36
S'predict_cps'
p2337
sg38
(dp2338
g27
(lp2339
NaS'@@@Jsequence_KJones'
p2340
asg28
(lp2341
NaS'@@@Jsequence_simul'
p2342
asg29
(lp2343
NaS'@@@Jsequence'
p2344
asg2
(lp2345
g3
ag41
ag2331
asg25
(lp2346
(lp2347
I0
aI1
aI2
aI3
aI4
aa(lp2348
I0
aI1
aI2
aI3
aI4
aI5
aI6
aa(lp2349
I0
aI1
aI2
aI3
aI4
aI5
aI6
aI7
aI8
aI9
aI10
aI11
aI12
aI13
aa(lp2350
I0
aI1
aI2
aI3
aI4
aI5
aI6
aI7
aI8
aI9
aI10
aI11
aI12
aI13
aI14
aag47
ag2332
assg80
g1165
sg82
I00
sg83
S'2006-03-31 11:27'
p2351
sg85
g1167
sg87
S'MG_JEN_Cohset'
p2352
sg89
S'** Specific description of inarg record for: MG_JEN_Cohset::predict_cps()  version=20mar2006  defined=2006-03-31 11:27'
p2353
sg106
(dp2354
g2
I00
sg25
I00
ssg105
g2351
sg108
(lp2355
g18
ag25
ag2
ag29
ag28
ag27
asg116
(dp2356
g27
g123
sg28
g123
sg29
g123
sg2
g118
sg25
g119
ssg124
g1177
ssg27
Nsg28
Nsg29
Nssg1651
F0.0
sg1653
I00
sg1666
I1
sg25
g1693
sg1787
(dp2357
g6
S'finishing touches'
p2358
ssg1779
(dp2359
S'channel_start_index'
p2360
I0
sS'data_column_name'
p2361
S'CORRECTED_DATA'
p2362
sS'predict_column'
p2363
g2362
sg10
S'@@ms_name'
p2364
sg18
(dp2365
g22
g1779
sg116
(dp2366
g2360
S'(inputrec.sel) index of first selected freq channel'
p2367
sg2361
S'(inputrec) MS input column'
p2368
sg2363
S'MS output column to be associated with the VisTile predict-column'
p2369
sg10
g1660
sg1666
g1667
sS'channel_increment'
p2370
S'(inputrec.sel) take every nth channel (1=all)'
p2371
sS'channel_end_index'
p2372
S'(inputrec.sel) index of last selected freq channel'
p2373
sS'write_flags'
p2374
S'(outputrec) if True, write flags to MS'
p2375
ssg32
g33
sg87
S'MG_JEN_exec'
p2376
sg23
(dp2377
g10
I01
sg1666
I01
ssg1672
(dp2378
g10
g1674
ssg85
S'20jan2006'
p2379
sg106
(dp2380
g10
I00
sg1666
I00
ssg124
S'** Description of script: MG_JEN_exec::stream_control()  version=20jan2006  defined=2006-03-31 11:27'
p2381
sg225
(dp2382
g2374
I00
ssg34
S'MG_JEN_exec::stream_control()  version=20jan2006  defined=2006-03-31 11:27'
p2383
sg38
(dp2384
g2360
(lp2385
I0
aI5
aI10
aI20
aS'@@channel_start_index'
p2386
asg2361
(lp2387
g1811
ag2362
aS'@@data_column_name'
p2388
asg2363
(lp2389
g1811
ag2362
aS'MODEL_DATA'
p2390
aS'@@predict_column'
p2391
asg10
(lp2392
g11
ag2364
asg1666
(lp2393
I1
aI2
aI3
aI5
aI10
aI20
aI50
aI100
aS'@@tile_size'
p2394
asg2370
(lp2395
I1
aI2
aI3
aI5
aI10
aS'@@channel_increment'
p2396
asg2372
(lp2397
I-1
aI25
aI50
aI100
aS'@@channel_end_index'
p2398
asg2374
(lp2399
I01
aI00
aS'@@write_flags'
p2400
assg80
Nsg105
S'2006-03-31 11:27'
p2401
sg20
S'MG_JEN_exec::stream_control()'
p2402
sg89
S'** Specific description of inarg record for: MG_JEN_exec::stream_control()  version=20jan2006  defined=2006-03-31 11:27'
p2403
sg30
S'MG_JEN_execstream_control'
p2404
sg36
S'stream_control'
p2405
sg82
I00
sg83
g2401
sg91
(dp2406
g93
S'  1: .../MG_JEN_exec.stream_control() (qual=None): .modify(channel_start_index):   10  ->  0'
p2407
sg95
S'  1: .../MG_JEN_exec.stream_control() (qual=None): .modify(data_column_name):   DATA  ->  CORRECTED_DATA'
p2408
sg99
S'  1: .../MG_JEN_exec.stream_control() (qual=None): .modify(channel_end_index):   50  ->  -1'
p2409
ssg108
(lp2410
g18
ag10
ag1666
ag2361
ag2360
ag2372
ag2370
ag2374
ag2363
assg1666
g2394
sg2370
I1
sg2372
I-1
sg2374
I00
ssg1657
I00
sg1784
(dp2411
g6
S'solver-branch (ParmSet)'
p2412
ssg1781
(dp2413
g6
S'uv-data simulation (LeafSet)'
p2414
ssg1661
I01
sg28
Nsg1782
(dp2415
g1007
F1000000.0
sg127
I00
sg1008
F0.0
sg1009
I00
sg130
g131
sg132
I00
sg1010
g1011
sg12
g13
sg1012
Nsg136
I01
sg137
I10
sg138
g139
sg1013
F1.0
sg149
Nsg142
g143
sg1014
Nsg144
Nsg1015
F0.0
sg18
(dp2416
g20
g1017
sg22
g1782
sg105
S'2006-03-31 11:27'
p2417
sg23
(dp2418
g1007
I01
sg1008
I01
sg1009
I01
sg1020
I01
sg148
I01
sg144
I01
sg130
I01
sg1010
I01
sg1021
I01
sg1022
I00
sg149
I01
sg1015
I01
sg142
I01
sg150
I01
sg138
I01
sg1023
I01
sg137
I01
ssg30
S'MG_JEN_Sixpacknewstar_source'
p2419
sg80
g1165
sg32
g33
sg34
S'MG_JEN_Sixpack::newstar_source()  version=10feb2006  defined=2006-03-31 11:27'
p2420
sg36
S'newstar_source'
p2421
sg38
(dp2422
g1007
(lp2423
F1000000.0
aS'@@f0'
p2424
asg127
(lp2425
I01
aI00
aS'@@reset_funklet'
p2426
asg1008
(lp2427
F0.0
aF1.0
aF10.0
aF100.0
aS'@@major'
p2428
asg1009
(lp2429
I01
aI00
aS'@@unsolvable'
p2430
asg130
(lp2431
g131
aS'@@color'
p2432
asg132
(lp2433
I01
aI00
aS'@@save_all'
p2434
asg1010
(lp2435
g1011
ag1042
aS'@@shape'
p2436
asg12
(lp2437
NaS'@@parmtable'
p2438
asg1012
(lp2439
NaF-0.10000000000000001
aF0.050000000000000003
aF-0.01
aS'@@Upct'
p2440
asg136
(lp2441
I01
aI00
aS'@@auto_save'
p2442
asg137
(lp2443
I10
aS'@@size'
p2444
asg138
(lp2445
g139
aS'@@style'
p2446
asg1013
(lp2447
F1.0
aF10.0
aS'@@I0'
p2448
asg149
(lp2449
NaS'@@subtile_size'
p2450
asg142
(lp2451
g143
aS'@@condeq_corrs'
p2452
asg1014
(lp2453
NaF0.01
aF-0.0050000000000000001
aF0.001
aS'@@Vpct'
p2454
asg144
(lp2455
NaS'@@funklet_shape'
p2456
asg1015
(lp2457
F0.0
aF1.0
aF-0.5
aS'@@pa'
p2458
asg1066
(lp2459
F0.0
aF0.5
aF1.0
aF1.4950000000000001
aF4.3570000000000002
aS'@@RA'
p2460
asg1069
(lp2461
NaF1.0
aF3.0
aF10.0
aF-10.0
aF60.0
aS'@@RM'
p2462
asg1023
(lp2463
F0.0
aF0.5
aF5.0
aF50.0
aS'@@minor'
p2464
asg148
(lp2465
F1.0
aS'@@c00_default'
p2466
asg1076
(lp2467
NaF0.10000000000000001
aF-0.050000000000000003
aF0.01
aS'@@Qpct'
p2468
asg1022
(lp2469
g1080
ag1081
ag1082
ag1083
ag1084
ag1085
ag1086
ag1087
ag1088
ag1089
ag1090
ag1091
ag1092
ag1093
ag1094
aS'@@punit'
p2470
asg1096
(lp2471
F0.5
aF1.0
aF0.87
aF1.0920000000000001
aS'@@Dec'
p2472
asg1020
(lp2473
NaS'@@name'
p2474
asg1021
(lp2475
I01
aI00
aS'@@fsr_trace'
p2476
asg211
(lp2477
I01
aI00
aS'@@use_previous'
p2478
asg1105
(lp2479
NaF-0.69999999999999996
a(lp2480
F0.44700000000000001
aF-0.184
aaS'@@SI'
p2481
asg150
(lp2482
NaS'@@tfdeg'
p2483
assg1111
(dp2484
g1022
I01
ssg85
g1113
sg83
g2417
sg87
S'MG_JEN_Sixpack'
p2485
sg225
(dp2486
g127
I00
sg1009
I00
sg1021
I00
sg132
I00
sg211
I00
sg136
I00
ssg89
S'** Specific description of inarg record for: MG_JEN_Sixpack::newstar_source()  version=10feb2006  defined=2006-03-31 11:27'
p2487
sg91
(dp2488
g95
S'  1: ..[simul]./MG_JEN_Sixpack.newstar_source() (qual=None): .modify(parmtable):   None  ->  simul_EJones'
p2489
ssg82
I00
sg108
(lp2490
g18
ag1022
ag1020
ag12
ag1009
ag1013
ag1076
ag1012
ag1014
ag1069
ag1105
ag1007
ag1066
ag1096
ag1021
ag1010
ag1008
ag1023
ag1015
ag211
ag136
ag132
ag127
ag130
ag138
ag137
ag148
ag150
ag144
ag149
ag142
asg116
(dp2491
g1007
g1121
sg127
g231
sg1008
g1122
sg1009
g1123
sg130
g233
sg132
g234
sg1010
g1124
sg12
g1125
sg1012
g1126
sg136
g237
sg137
g238
sg138
g239
sg1013
g1127
sg149
g246
sg142
g240
sg1014
g1128
sg144
g241
sg1015
g1129
sg1066
g1130
sg1069
g1131
sg1023
g1132
sg148
g243
sg1076
g1133
sg1022
S'name of calibrator source/patch \n- unpol:   unpolarised, I=1Jy \n- unpol2:  idem, I=2Jy \n- unpol10: idem, I=10Jy \n- RMtest:  Rotation Measure \n- SItest:  Spectral Index \n- QUV:     non-zero Q,U,V \n- QU:      non-zero Q,U \n- QU2:     stronger version of QU \n- Qonly:   non-zero Q \n- Uonly:   non-zero U \n- Vonly:   non-zero V \n- 3c286:   \n- 3c48:    \n- 3c295:   \n- 3c147:   \n- D1:      cps in D1.MS \n'
p2492
sg1096
g1135
sg1021
g1136
sg211
g245
sg1105
g1137
sg150
g247
ssg124
g1138
ssg1069
Nsg1023
F0.0
sg1066
F1.4950000000000001
sg148
F1.0
sg1076
Nsg1022
g1080
sg1096
F0.87
sg1020
Nsg1021
I01
sg211
I01
sg1105
Nsg150
Nssg1786
(dp2493
S'correct_after'
p2494
I01
sg1653
S'@@master_reqseq'
p2495
sS'condeq_unop'
p2496
Nsg1793
I01
sg1657
S'@@redun'
p2497
sS'solver_subtree'
p2498
NsS'subtract_after'
p2499
I00
sg1661
S'@@chain_solvers'
p2500
sg18
(dp2501
g20
S'MG_JEN_Cohset::insert_solver()'
p2502
sg22
g1786
sg23
(dp2503
g1653
I01
sg1657
I01
sg2498
I01
sg1661
I01
sS'flag_residuals'
p2504
I01
sg1663
I01
ssg30
S'MG_JEN_Cohsetinsert_solver'
p2505
sg32
g33
sg34
S'MG_JEN_Cohset::insert_solver()  version=25dec2005  defined=2006-03-31 11:27'
p2506
sg36
S'insert_solver'
p2507
sg38
(dp2508
g2494
(lp2509
I01
aI00
aS'@@correct_after'
p2510
asg1653
(lp2511
I01
aI00
ag2495
asg2496
(lp2512
NaS'Abs'
p2513
aS'Arg'
p2514
aS'@@condeq_unop'
p2515
asg1793
(lp2516
I01
aI00
aS'@@visu'
p2517
asg1657
(lp2518
I01
aI00
ag2497
asg2498
(lp2519
NaS'@@solver_subtree'
p2520
asg2499
(lp2521
I01
aI00
aS'@@subtract_after'
p2522
asg1661
(lp2523
I01
ag2500
asg2504
(lp2524
I01
aI00
aS'@@flag_residuals'
p2525
asg1663
(lp2526
Na(lp2527
I5
aI2
aa(lp2528
I2
aI2
aa(lp2529
I3
aI3
aaS'@@num_cells'
p2530
assg80
Nsg82
I00
sg83
S'2006-03-31 11:27'
p2531
sg85
g86
sg87
S'MG_JEN_Cohset'
p2532
sg225
(dp2533
g2494
I00
sg1653
I00
sg1793
I00
sg1657
I00
sg2499
I00
sg2504
I00
ssg89
S'** Specific description of inarg record for: MG_JEN_Cohset::insert_solver()  version=25dec2005  defined=2006-03-31 11:27'
p2534
sg91
(dp2535
g95
S'** JEN_inarg.attach(): attached: ./MG_JEN_Cohset.solver_subtree()'
p2536
ssg105
g2531
sg106
(dp2537
g1657
I00
sg1661
I00
sg1653
I00
sg1663
I00
ssg108
(lp2538
g18
ag2498
ag1657
ag1663
ag1661
ag1653
ag2496
ag1793
ag2499
ag2494
ag2504
aS'./MG_JEN_Cohset.solver_subtree()'
p2539
asg116
(dp2540
g2494
S'if True, correct measured with predicted.Joneset'
p2541
sg1653
g1654
sg2496
S'Optional unary operation on Condeq inputs'
p2542
sg1793
S'if True, include full visualisation'
p2543
sg1657
g1658
sg2498
S'solver subtree qualifier(s)'
p2544
sg2499
S'if True, subtract predicted from measured'
p2545
sg1661
g1662
sg2504
S'if True, flag the residuals'
p2546
sg1663
g1664
ssg124
S'insert one or more solver subtrees in the data stream'
p2547
ssg1663
g2530
sg2539
(dp2548
S'rmin'
p2549
NsS'setBalanced'
p2550
I00
sg1793
I01
sS'epsilon'
p2551
F0.0001
sS'rmax'
p2552
NsS'derivative_eps'
p2553
F1e-08
sS'usesvd'
p2554
I01
sS'debug_level'
p2555
I10
sS'solvegroup'
p2556
(lp2557
S'EJones'
p2558
asg18
(dp2559
g20
S'MG_JEN_Cohset::solver_subtree()'
p2560
sg22
g2539
sg91
(dp2561
g93
S"  2: ...../MG_JEN_Cohset.solver_subtree() (qual=None): .modify(solvegroup):   []  ->  ['EJones']"
p2562
sg95
S'  2: ...../MG_JEN_Cohset.solver_subtree() (qual=None): .modify(num_iter):   5  ->  2'
p2563
ssg23
(dp2564
g2555
I01
sg2553
I01
sg2550
I01
sS'epsval'
p2565
I01
sg1663
I00
ssg30
S'MG_JEN_Cohsetsolver_subtree'
p2566
sg32
g33
sg124
S'Make a solver-subtree for the given Condeq Cohset'
p2567
sg34
S'MG_JEN_Cohset::solver_subtree()  version=20dec2005  defined=2006-03-31 11:27'
p2568
sg36
S'solver_subtree'
p2569
sg38
(dp2570
g2549
(lp2571
NaI100
aI200
aI500
aS'@@rmin'
p2572
asg1793
(lp2573
I01
aI00
aS'@@visu'
p2574
asg2551
(lp2575
F0.001
aF0.0001
aF1.0000000000000001e-05
aS'@@epsilon'
p2576
asS'colin_factor'
p2577
(lp2578
F1e-08
aF0.0
aS'@@colin_factor'
p2579
asg2552
(lp2580
NaI500
aI1000
aI2000
aS'@@rmax'
p2581
asg2553
(lp2582
F1e-08
aF0.001
aF0.0001
aF1.0000000000000001e-05
aS'@@derivative_eps'
p2583
asg2554
(lp2584
I01
aI00
aS'@@usesvd'
p2585
asg2555
(lp2586
I10
aS'@@debug_level'
p2587
asg2556
(lp2588
(lp2589
a(lp2590
g52
aa(lp2591
S'Ggain'
p2592
aa(lp2593
S'Gphase'
p2594
aa(lp2595
S'Gpol1'
p2596
aa(lp2597
S'Gpol2'
p2598
aa(lp2599
g66
aa(lp2600
g66
aS'stokesU'
p2601
aa(lp2602
g66
aS'stokesQ'
p2603
aa(lp2604
g66
aS'stokesV'
p2605
aa(lp2606
S'stokesQU'
p2607
ag66
aa(lp2608
S'stokesQUV'
p2609
ag66
aa(lp2610
g52
aS'stokesI'
p2611
aa(lp2612
g2611
aa(lp2613
S'stokesIQU'
p2614
aa(lp2615
S'stokesIQUV'
p2616
aa(lp2617
S'stokesIV'
p2618
aa(lp2619
g2607
aa(lp2620
g2609
aa(lp2621
g52
aS'DJones'
p2622
aa(lp2623
g2622
aa(lp2624
S'Dang'
p2625
aa(lp2626
S'Dell'
p2627
aa(lp2628
S'Dreal'
p2629
aa(lp2630
S'Dimag'
p2631
aa(lp2632
g52
ag2622
ag56
aa(lp2633
g56
aa(lp2634
g52
ag54
aa(lp2635
g54
aa(lp2636
S'Breal'
p2637
aa(lp2638
S'Bimag'
p2639
aa(lp2640
S'Bpol1'
p2641
aa(lp2642
S'Bpol2'
p2643
aaS'@@solvegroup'
p2644
asg2565
(lp2645
F1e-08
aF0.001
aF0.0001
aF1.0000000000000001e-05
aS'@@epsval'
p2646
asg1663
(lp2647
Na(lp2648
I5
aI2
aa(lp2649
I2
aI2
aa(lp2650
I3
aI3
aaS'@@num_cells'
p2651
asg2550
(lp2652
I01
aI00
aS'@@setBalanced'
p2653
asS'num_iter'
p2654
(lp2655
I1
aI3
aI5
aI10
aI20
aS'@@num_iter'
p2656
asS'condition'
p2657
(lp2658
NaS'Gphase_X_sum=0.0'
p2659
aS'Gphase_Y_sum=0.0'
p2660
a(lp2661
g2659
ag2660
aa(lp2662
S'Gphase_X_first=0.0'
p2663
aS'Gphase_Y_first=0.0'
p2664
aa(lp2665
S'Gphase_X_last=0.0'
p2666
aS'Gphase_Y_last=0.0'
p2667
aaS'Dang_sum=0.0'
p2668
a(lp2669
S'Bimag_X_sum=0.0'
p2670
aS'Bimag_Y_sum=0.0'
p2671
aa(lp2672
S'Breal_X_product=1.0'
p2673
aS'Breal_Y_product=1.0'
p2674
aaS'@@condition'
p2675
asS'history'
p2676
(lp2677
I01
aI00
aS'@@history'
p2678
assg80
Nsg85
S'20dec2005'
p2679
sg83
S'2006-03-31 11:27'
p2680
sg87
S'MG_JEN_Cohset'
p2681
sg225
(dp2682
g2554
I00
sg2550
I00
sg1793
I00
sg2676
I00
ssg89
S'** Specific description of inarg record for: MG_JEN_Cohset::solver_subtree()  version=20dec2005  defined=2006-03-31 11:27'
p2683
sg82
I00
sg105
g2680
sg108
(lp2684
g18
ag2556
ag2657
ag2549
ag2552
ag1663
ag2654
ag2551
ag2565
ag2553
ag2577
ag2554
ag2550
ag2555
ag1793
ag2676
asg116
(dp2685
g2549
S'if specified, only use baselines>=rmin'
p2686
sg1793
S'if True, include visualisation'
p2687
sg2551
S'iteration control criterion...'
p2688
sg2577
S'colinearity factor'
p2689
sg2552
S'if specified, only use baselines<=rmax'
p2690
sg2553
S'NEW: also iteration control...'
p2691
sg2554
S'if True, use Singular Value Decomposition (SVD)'
p2692
sg2555
S'solver debug_level'
p2693
sg2556
S'group (list) of parmgroups, to be solved for:\n- [GJones]:  all GJones MeqParms\n- [Ggain]:   GJones station gains (both pols)\n- [Gphase]:  GJones station phases (both pols)\n- [Gpol1]:   All GJones MeqParms for pol1 (X or R)\n- [Gpol2]:   All GJones MeqParms for pol2 (Y or L)\n- [JJones,stokesU]:     actually solves for U!\n- [JJones,stokesQ]:     -> zero Q(?), but better freq sol(?)\n- [JJones,stokesV]:     -> punit V(?)...\n- [stokesI]:    stokes I (incl SI(f), if relevant)\n- [stokesIQU]:  stokes I,Q,U (incl RM and SI(f))\n- [stokesIQUV]: stokes I,Q,U,V (incl RM and SI(f))'
p2694
sg2565
S'NEW: WNB version of epsilon....'
p2695
sg1663
g1664
sg2550
S'NEW: if True, add (..) to diagonal, otherwise multiply (1+lambda)'
p2696
sg2654
S'max number of iterations (now also in fitter)'
p2697
sg2657
S'(list of) extra condition equations:\n- [...phase_sum=0.0]:   sum of phases = zero\n- [...phase_first=0.0]: phase of first station = zero\n- [...phase_last=0.0]:  phase of last station = zero\n- [Dang_sum=0.0]:   sum of dipole pos.angle errors = zero\n- [...imag_sum=0.0]:   sum of imag.parts = zero\n- [...real_product=1.0]:   product of real.parts = unity'
p2698
sg2676
S'if True, include history collection of metrics'
p2699
sssg1663
Nsg2565
F1e-08
sg2676
I01
sg2654
I2
sg2657
Nsg2577
F0.0
ssg2504
I00
ss.