(dp0
S'add_to_existing'
p1
I00
sS'polrep'
p2
S'linear'
p3
sS'_JEN_inarg_separator_record:_1'
p4
(dp5
S'txt'
p6
S'uv-data (MS) stream_control'
p7
ssS'script_name'
p8
S'MG_JEN_simul'
p9
sS'ms_name'
p10
S'D1.MS'
p11
sS'parmtable'
p12
S'simul_DJones'
p13
sS'insert_solver'
p14
I01
sS'[solve_uvp]./MG_JEN_Cohset.Jones()'
p15
(dp16
g2
S'@@polrep'
p17
sS'_JEN_inarg_CTRL_record:'
p18
(dp19
S'target_definition'
p20
S'MG_JEN_Cohset::Jones()'
p21
sS'localscope'
p22
g15
sS'hide'
p23
(dp24
g2
I01
sS'stations'
p25
I01
sS'uvplane_effect'
p26
I01
sg12
I01
sS'@Jsequence_KJones'
p27
I01
sS'@Jsequence_simul'
p28
I01
sS'@Jsequence'
p29
I01
ssS'barescope'
p30
S'MG_JEN_CohsetJones'
p31
sS'target_dir'
p32
S'.'
p33
sS'oneliner'
p34
S'MG_JEN_Cohset::Jones()  version=25dec2005  defined=2006-03-29 19:26'
p35
sS'target_function'
p36
S'Jones'
p37
sS'choice'
p38
(dp39
g2
(lp40
g3
aS'circular'
p41
ag17
asg25
(lp42
(lp43
I0
aI1
aI2
aI3
aI4
aa(lp44
I0
aI1
aI2
aI3
aI4
aI5
aI6
aa(lp45
I0
aI1
aI2
aI3
aI4
aI5
aI6
aI7
aI8
aI9
aI10
aI11
aI12
aI13
aa(lp46
I0
aI1
aI2
aI3
aI4
aI5
aI6
aI7
aI8
aI9
aI10
aI11
aI12
aI13
aI14
aaS'range(5)'
p47
aS'@@stations'
p48
asS'Jsequence_solve_uvp'
p49
(lp50
(lp51
S'GJones'
p52
aa(lp53
S'BJones'
p54
aa(lp55
S'FJones'
p56
aa(lp57
S'KJones'
p58
aa(lp59
S'DJones_WSRT'
p60
aa(lp61
g52
ag60
aa(lp62
S'JJones'
p63
aa(lp64
aS'@@Jsequence_solve_uvp'
p65
asg26
(lp66
I00
aS'@@uvplane_effect'
p67
asg12
(lp68
NaS'test'
p69
aS'@@parmtable'
p70
asg27
(lp71
NaS'@@@Jsequence_KJones'
p72
asg28
(lp73
NaS'@@@Jsequence_simul'
p74
asg29
(lp75
NaS'@@@Jsequence'
p76
assS'qual'
p77
S'solve_uvp'
p78
sS'protected'
p79
I00
sS'datetime_defined'
p80
S'2006-03-29 19:26'
p81
sS'version'
p82
S'25dec2005'
p83
sS'target_module'
p84
S'MG_JEN_Cohset'
p85
sS'inarg_specific'
p86
S'** Specific description of inarg record for: MG_JEN_Cohset::Jones()  version=25dec2005  defined=2006-03-29 19:26'
p87
sS'MESSAGE'
p88
(dp89
S'1'
p90
S'** JEN_inarg.attach(): attached: [solve_uvp]./MG_JEN_Joneset.FJones()'
p91
sS'0'
p92
S'** JEN_inarg.attach(): attached: [solve_uvp]./MG_JEN_Joneset.GJones()'
p93
sS'3'
p94
S'** JEN_inarg.attach(): attached: [solve_uvp]./MG_JEN_Joneset.KJones()'
p95
sS'2'
p96
S'** JEN_inarg.attach(): attached: [solve_uvp]./MG_JEN_Joneset.BJones()'
p97
sS'5'
p98
S'** JEN_inarg.attach(): attached: [solve_uvp]./MG_JEN_Joneset.JJones()'
p99
sS'4'
p100
S'** JEN_inarg.attach(): attached: [solve_uvp]./MG_JEN_Joneset.DJones_WSRT()'
p101
sS'6'
p102
S"  1: ..[solve_uvp]./MG_JEN_Cohset.Jones() (qual=None): .modify(Jsequence_solve_uvp):   []  ->  ['DJones_WSRT']"
p103
ssS'last_edited'
p104
g81
sS'mutable'
p105
(dp106
g26
I00
sg12
I00
sg2
I00
sg25
I00
ssS'order'
p107
(lp108
g18
ag25
ag2
ag29
ag28
ag27
ag12
ag26
ag49
aS'[solve_uvp]./MG_JEN_Joneset.GJones()'
p109
aS'[solve_uvp]./MG_JEN_Joneset.FJones()'
p110
aS'[solve_uvp]./MG_JEN_Joneset.BJones()'
p111
aS'[solve_uvp]./MG_JEN_Joneset.KJones()'
p112
aS'[solve_uvp]./MG_JEN_Joneset.DJones_WSRT()'
p113
aS'[solve_uvp]./MG_JEN_Joneset.JJones()'
p114
asS'help'
p115
(dp116
g2
S'polarisation representation'
p117
sg25
S'the (subset of) stations to be used'
p118
sg49
S'sequence of Jones matrices to be used'
p119
sg26
S'if True, the Joneset reprsents uv-plane effects (q=uvp)'
p120
sg12
S'name of the MeqParm table to be used'
p121
sg27
S'list membership indication (used in JEN_inargGui)'
p122
sg28
g122
sg29
g122
ssS'description'
p123
S'Make a Joneset by creating and multiplying a sequence of one ore more Jonesets'
p124
ssg25
g48
sg114
(dp125
S'reset_funklet'
p126
I00
sg2
S'@@polrep'
p127
sS'tdeg_Jreal'
p128
I0
sS'color'
p129
S'red'
p130
sS'save_all'
p131
I00
sS'all4_always'
p132
Nsg12
S'@@parmtable'
p133
sS'subtile_size_Jreal'
p134
NsS'auto_save'
p135
I01
sS'size'
p136
I10
sS'style'
p137
S'circle'
p138
sS'tdeg_Jimag'
p139
S'@tdeg_Jreal'
p140
sS'condeq_corrs'
p141
S'*'
p142
sS'funklet_shape'
p143
Nsg18
(dp144
g20
S'MG_JEN_Joneset::JJones()'
p145
sg22
g114
sg23
(dp146
g137
I01
sg2
I01
sS'c00_default'
p147
I01
sg25
I01
sg129
I01
sg143
I01
sg141
I01
sg26
I01
sS'subtile_size'
p148
I01
sS'tfdeg'
p149
I01
sg12
I01
sg27
I01
sg28
I01
sg29
I01
sg136
I01
ssg30
S'MG_JEN_JonesetJJones'
p150
sg32
g33
sg123
S'Defines diagonal 2x2 Jones matrices for full polarisation:\n    Jjones(station,source) matrix elements:\n    - J_11 = (Jreal_11,Jimag_11)\n    - J_12 = (Jreal_12,Jimag_12)\n    - J_21 = (Jreal_21,Jimag_21)\n    - J_22 = (Jreal_22,Jimag_22)\n    For circular polarisation, R and L are used rather than X and Y\n    '
p151
sg34
S'MG_JEN_Joneset::JJones()  version=14feb2006  defined=2006-03-29 19:26'
p152
sg36
S'JJones'
p153
sg38
(dp154
g126
(lp155
I01
aI00
aS'@@reset_funklet'
p156
asg2
(lp157
g3
ag41
ag127
asg128
(lp158
I0
aI1
aI2
aI3
aS'@@tdeg_Jreal'
p159
asg129
(lp160
g130
aS'@@color'
p161
asg131
(lp162
I01
aI00
aS'@@save_all'
p163
asg132
(lp164
Na(lp165
I14
aa(lp166
I1
aaS'WSRT/WHAT'
p167
aS'@@all4_always'
p168
asg12
(lp169
Nag69
ag133
asg134
(lp170
NaI1
aI2
aI5
aI10
aI20
aI50
aI100
aI200
aI500
aS'@@subtile_size_Jreal'
p171
asg135
(lp172
I01
aI00
aS'@@auto_save'
p173
asg136
(lp174
I10
aS'@@size'
p175
asg137
(lp176
g138
aS'@@style'
p177
asg139
(lp178
I0
aI1
aI2
aI3
ag140
aS'@@tdeg_Jimag'
p179
asg141
(lp180
g142
aS'@@condeq_corrs'
p181
asg143
(lp182
NaS'@@funklet_shape'
p183
asg27
(lp184
g63
aS'@@@Jsequence_KJones'
p185
asS'fdeg_Jreal'
p186
(lp187
I0
aI1
aI2
aI3
aS'@@fdeg_Jreal'
p188
asg147
(lp189
F1.0
aS'@@c00_default'
p190
asg26
(lp191
I00
aS'@@uvplane_effect'
p192
asS'fdeg_Jimag'
p193
(lp194
I0
aI1
aI2
aI3
aS'@fdeg_Jreal'
p195
aS'@@fdeg_Jimag'
p196
asS'subtile_size_Jimag'
p197
(lp198
S'@subtile_size_Jreal'
p199
aNaI1
aI2
aI5
aI10
aI20
aI50
aI100
aI200
aI500
aS'@@subtile_size_Jimag'
p200
asg25
(lp201
(lp202
I0
aI1
aI2
aI3
aI4
aa(lp203
I0
aI1
aI2
aI3
aI4
aI5
aI6
aa(lp204
I0
aI1
aI2
aI3
aI4
aI5
aI6
aI7
aI8
aI9
aI10
aI11
aI12
aI13
aa(lp205
I0
aI1
aI2
aI3
aI4
aI5
aI6
aI7
aI8
aI9
aI10
aI11
aI12
aI13
aI14
aag47
aS'@@stations'
p206
asS'diagonal_only'
p207
(lp208
I01
aI00
aS'@@diagonal_only'
p209
asS'use_previous'
p210
(lp211
I01
aI00
aS'@@use_previous'
p212
asg148
(lp213
NaS'@@subtile_size'
p214
asg149
(lp215
NaS'@@tfdeg'
p216
asg28
(lp217
g63
aS'@@@Jsequence_simul'
p218
asg29
(lp219
g63
aS'@@@Jsequence'
p220
assg77
g78
sg79
I00
sg80
S'2006-03-29 19:26'
p221
sg82
S'14feb2006'
p222
sg84
S'MG_JEN_Joneset'
p223
sS'editable'
p224
(dp225
g126
I00
sg210
I00
sg207
I00
sg135
I00
sg131
I00
ssg86
S'** Specific description of inarg record for: MG_JEN_Joneset::JJones()  version=14feb2006  defined=2006-03-29 19:26'
p226
sg105
(dp227
g26
I00
sg12
I00
sg2
I00
sg25
I00
ssg104
g221
sg107
(lp228
g18
ag25
ag2
ag29
ag28
ag27
ag207
ag132
ag12
ag26
ag128
ag139
ag186
ag193
ag134
ag197
ag210
ag135
ag131
ag126
ag129
ag137
ag136
ag147
ag149
ag143
ag148
ag141
asg115
(dp229
g126
S'if True, do NOT use any MeqParm table values when solvable'
p230
sg2
g117
sg128
S'degree of time polynomial'
p231
sg129
S'plot_color'
p232
sg131
S'if True, save the update result even if not converged'
p233
sg132
S'stations for which all 4 elements will always be solved for'
p234
sg12
g121
sg134
S'sub-tile size (None=entire tile)'
p235
sg135
S'if True, save the result of every iteration (slow!)'
p236
sg136
S'size of plotted symbol'
p237
sg137
S'plot_style'
p238
sg139
g231
sg141
S'correlations to be used for solving'
p239
sg143
S'shape [time,freq] of default funklet'
p240
sg27
g122
sg186
S'degree of freq polynomial'
p241
sg147
S'default value of c[0,0] coefficient'
p242
sg26
g120
sg193
g241
sg197
g235
sg25
g118
sg207
S'if True, solve for diagonal (11,22) elements only'
p243
sg210
S'if True, start with the previous solution'
p244
sg148
S'size (time-slots) of a domain sub-tile'
p245
sg149
S'(time,freq) polynomial degree'
p246
sg28
g122
sg29
g122
sssg27
g63
sg186
I0
sg147
F1.0
sg26
g192
sg193
g195
sg197
g199
sg25
g206
sg207
I00
sg210
I01
sg148
Nsg149
Nsg28
g63
sg29
g63
ssg112
(dp247
g2
S'@@polrep'
p248
sg25
S'@@stations'
p249
sg18
(dp250
g20
S'MG_JEN_Joneset::KJones()'
p251
sg22
g112
sg23
(dp252
g27
I01
sg28
I01
sg25
I01
sg2
I01
sg29
I01
ssg30
S'MG_JEN_JonesetKJones'
p253
sg32
g33
sg123
S'defines diagonal KJones matrices for DFT Fourier kernel'
p254
sg34
S'MG_JEN_Joneset::KJones()  version=12dec2005  defined=2006-03-29 19:26'
p255
sg36
S'KJones'
p256
sg38
(dp257
g27
(lp258
g58
aS'@@@Jsequence_KJones'
p259
asg28
(lp260
g58
aS'@@@Jsequence_simul'
p261
asg25
(lp262
(lp263
I0
aI1
aI2
aI3
aI4
aa(lp264
I0
aI1
aI2
aI3
aI4
aI5
aI6
aa(lp265
I0
aI1
aI2
aI3
aI4
aI5
aI6
aI7
aI8
aI9
aI10
aI11
aI12
aI13
aa(lp266
I0
aI1
aI2
aI3
aI4
aI5
aI6
aI7
aI8
aI9
aI10
aI11
aI12
aI13
aI14
aag47
ag249
asg2
(lp267
g3
ag41
ag248
asg29
(lp268
g58
aS'@@@Jsequence'
p269
assg77
g78
sg79
I00
sg80
S'2006-03-29 19:26'
p270
sg82
S'12dec2005'
p271
sg84
S'MG_JEN_Joneset'
p272
sg86
S'** Specific description of inarg record for: MG_JEN_Joneset::KJones()  version=12dec2005  defined=2006-03-29 19:26'
p273
sg105
(dp274
g2
I00
sg25
I00
ssg104
g270
sg107
(lp275
g18
ag25
ag2
ag29
ag28
ag27
asg115
(dp276
g27
g122
sg28
g122
sg25
g118
sg2
g117
sg29
g122
sssg27
g58
sg28
g58
sg29
g58
ssg49
(lp277
g60
asg26
g67
sg12
g70
sg111
(dp278
g126
I00
sg2
S'@@polrep'
p279
sg129
g130
sS'subtile_size_Bimag'
p280
S'@subtile_size_Breal'
p281
sg131
I00
sS'subtile_size_Breal'
p282
Nsg135
I01
sg136
I10
sg137
g138
sS'fdeg_Breal'
p283
I5
sg141
g142
sg143
Nsg18
(dp284
g20
S'MG_JEN_Joneset::BJones()'
p285
sg22
g111
sg23
(dp286
g137
I01
sg2
I01
sg147
I01
sg25
I01
sg129
I01
sg143
I01
sg141
I01
sg26
I01
sg148
I01
sg149
I01
sg12
I01
sg27
I01
sg28
I01
sg29
I01
sg136
I01
ssg30
S'MG_JEN_JonesetBJones'
p287
sg32
g33
sg123
S'Defines diagonal 2x2 Jones matrices that represent the IF bandpass:\n    Bjones(station,source) matrix elements:\n    - B_11 = (Breal_X,Bimag_X)\n    - B_12 = 0\n    - B_21 = 0\n    - B_22 = (Breal_Y,Bimag_Y)\n    For circular polarisation, R and L are used rather than X and Y\n    NB: The main differences with Gjones are:\n      - the higher-order (~5) freq-polynomial\n      - solving for real/imag rather than gain/phase \n    '
p288
sg34
S'MG_JEN_Joneset::BJones()  version=16dec2005  defined=2006-03-29 19:26'
p289
sg36
S'BJones'
p290
sg38
(dp291
g126
(lp292
I01
aI00
aS'@@reset_funklet'
p293
asg2
(lp294
g3
ag41
ag279
asg129
(lp295
g130
aS'@@color'
p296
asg280
(lp297
g281
aNaI1
aI2
aI5
aI10
aI20
aI50
aI100
aI200
aI500
aS'@@subtile_size_Bimag'
p298
asg131
(lp299
I01
aI00
aS'@@save_all'
p300
asg282
(lp301
NaI1
aI2
aI5
aI10
aI20
aI50
aI100
aI200
aI500
aS'@@subtile_size_Breal'
p302
asg135
(lp303
I01
aI00
aS'@@auto_save'
p304
asg136
(lp305
I10
aS'@@size'
p306
asg137
(lp307
g138
aS'@@style'
p308
asg283
(lp309
I3
aI4
aI5
aI6
aS'@@fdeg_Breal'
p310
asg141
(lp311
g142
aS'@@condeq_corrs'
p312
asg143
(lp313
NaS'@@funklet_shape'
p314
asg27
(lp315
g54
aS'@@@Jsequence_KJones'
p316
asS'tdeg_Bimag'
p317
(lp318
I0
aI1
aI2
aI3
aS'@tdeg_Breal'
p319
aS'@@tdeg_Bimag'
p320
asg29
(lp321
g54
aS'@@@Jsequence'
p322
asg147
(lp323
F1.0
aS'@@c00_default'
p324
asS'fdeg_Bimag'
p325
(lp326
I3
aI4
aI5
aI6
aS'@fdeg_Breal'
p327
aS'@@fdeg_Bimag'
p328
asg26
(lp329
I00
aS'@@uvplane_effect'
p330
asg25
(lp331
(lp332
I0
aI1
aI2
aI3
aI4
aa(lp333
I0
aI1
aI2
aI3
aI4
aI5
aI6
aa(lp334
I0
aI1
aI2
aI3
aI4
aI5
aI6
aI7
aI8
aI9
aI10
aI11
aI12
aI13
aa(lp335
I0
aI1
aI2
aI3
aI4
aI5
aI6
aI7
aI8
aI9
aI10
aI11
aI12
aI13
aI14
aag47
aS'@@stations'
p336
asg149
(lp337
NaS'@@tfdeg'
p338
asS'tdeg_Breal'
p339
(lp340
I0
aI1
aI2
aI3
aS'@@tdeg_Breal'
p341
asg210
(lp342
I01
aI00
aS'@@use_previous'
p343
asg148
(lp344
NaS'@@subtile_size'
p345
asg12
(lp346
Nag69
aS'@@parmtable'
p347
asg28
(lp348
g54
aS'@@@Jsequence_simul'
p349
assg77
g78
sg79
I00
sg80
S'2006-03-29 19:26'
p350
sg82
S'16dec2005'
p351
sg84
S'MG_JEN_Joneset'
p352
sg224
(dp353
g126
I00
sg210
I00
sg135
I00
sg131
I00
ssg86
S'** Specific description of inarg record for: MG_JEN_Joneset::BJones()  version=16dec2005  defined=2006-03-29 19:26'
p354
sg105
(dp355
g26
I00
sg12
I00
sg2
I00
sg25
I00
ssg104
g350
sg107
(lp356
g18
ag25
ag2
ag29
ag28
ag27
ag12
ag26
ag339
ag317
ag283
ag325
ag282
ag280
ag210
ag135
ag131
ag126
ag129
ag137
ag136
ag147
ag149
ag143
ag148
ag141
asg115
(dp357
g126
g230
sg2
g117
sg129
g232
sg280
S'sub-tile size (None=entire tile)'
p358
sg131
g233
sg282
g358
sg135
g236
sg136
g237
sg137
g238
sg283
S'degree of freq polynomial'
p359
sg141
g239
sg143
g240
sg27
g122
sg317
S'degree of time polynomial'
p360
sg29
g122
sg147
g242
sg325
g359
sg26
g120
sg25
g118
sg149
g246
sg339
g360
sg210
g244
sg148
g245
sg12
g121
sg28
g122
sssg27
g54
sg317
g319
sg29
g54
sg147
F1.0
sg325
g327
sg26
g330
sg12
g347
sg25
g336
sg339
I0
sg210
I01
sg148
Nsg149
Nsg28
g54
ssg110
(dp361
g126
I00
sg2
S'@@polrep'
p362
sg129
g130
sg131
I00
sg149
Nsg135
I01
sg136
I10
sg137
g138
sg141
g142
sg143
Nsg18
(dp363
g20
S'MG_JEN_Joneset::FJones()'
p364
sg22
g110
sg23
(dp365
g137
I01
sg2
I01
sg147
I01
sg25
I01
sg129
I01
sg143
I01
sg141
I01
sg26
I01
sg148
I01
sg149
I01
sg12
I01
sg27
I01
sg28
I01
sg29
I01
sg136
I01
ssg30
S'MG_JEN_JonesetFJones'
p366
sg32
g33
sg123
S'defines diagonal FJones Faraday rotation matrices'
p367
sg34
S'MG_JEN_Joneset::FJones()  version=16dec2005  defined=2006-03-29 19:26'
p368
sg36
S'FJones'
p369
sg38
(dp370
g126
(lp371
I01
aI00
aS'@@reset_funklet'
p372
asg2
(lp373
g3
ag41
ag362
asg129
(lp374
g130
aS'@@color'
p375
asg131
(lp376
I01
aI00
aS'@@save_all'
p377
asg149
(lp378
NaS'@@tfdeg'
p379
asg135
(lp380
I01
aI00
aS'@@auto_save'
p381
asg136
(lp382
I10
aS'@@size'
p383
asg137
(lp384
g138
aS'@@style'
p385
asg141
(lp386
g142
aS'@@condeq_corrs'
p387
asg143
(lp388
NaS'@@funklet_shape'
p389
asg27
(lp390
g56
aS'@@@Jsequence_KJones'
p391
asg29
(lp392
g56
aS'@@@Jsequence'
p393
asg147
(lp394
F1.0
aS'@@c00_default'
p395
asg26
(lp396
I00
aS'@@uvplane_effect'
p397
asg25
(lp398
(lp399
I0
aI1
aI2
aI3
aI4
aa(lp400
I0
aI1
aI2
aI3
aI4
aI5
aI6
aa(lp401
I0
aI1
aI2
aI3
aI4
aI5
aI6
aI7
aI8
aI9
aI10
aI11
aI12
aI13
aa(lp402
I0
aI1
aI2
aI3
aI4
aI5
aI6
aI7
aI8
aI9
aI10
aI11
aI12
aI13
aI14
aag47
aS'@@stations'
p403
asS'tdeg_RM'
p404
(lp405
I0
aI1
aI2
aI3
aS'@@tdeg_RM'
p406
asg210
(lp407
I01
aI00
aS'@@use_previous'
p408
asS'fdeg_RM'
p409
(lp410
I0
aI1
aI2
aI3
aS'@@fdeg_RM'
p411
asg148
(lp412
NaS'@@subtile_size'
p413
asg12
(lp414
Nag69
aS'@@parmtable'
p415
asS'subtile_size_RM'
p416
(lp417
NaI1
aI2
aI5
aI10
aI20
aI50
aI100
aI200
aI500
aS'@@subtile_size_RM'
p418
asg28
(lp419
g56
aS'@@@Jsequence_simul'
p420
assg77
g78
sg79
I00
sg80
S'2006-03-29 19:26'
p421
sg82
g351
sg84
S'MG_JEN_Joneset'
p422
sg224
(dp423
g126
I00
sg210
I00
sg135
I00
sg131
I00
ssg86
S'** Specific description of inarg record for: MG_JEN_Joneset::FJones()  version=16dec2005  defined=2006-03-29 19:26'
p424
sg105
(dp425
g26
I00
sg12
I00
sg2
I00
sg25
I00
ssg104
g421
sg107
(lp426
g18
ag25
ag2
ag29
ag28
ag27
ag12
ag26
ag404
ag409
ag416
ag210
ag135
ag131
ag126
ag129
ag137
ag136
ag147
ag149
ag143
ag148
ag141
asg115
(dp427
g126
g230
sg2
g117
sg129
g232
sg131
g233
sg149
g246
sg135
g236
sg136
g237
sg137
g238
sg141
g239
sg143
g240
sg27
g122
sg29
g122
sg147
g242
sg26
g120
sg25
g118
sg404
S'degree of time polynomial'
p428
sg210
g244
sg409
S'degree of freq polynomial'
p429
sg148
g245
sg12
g121
sg416
S'sub-tile size (None=entire tile)'
p430
sg28
g122
sssg27
g56
sg29
g56
sg147
F1.0
sg26
g397
sg25
g403
sg404
I0
sg210
I01
sg409
I2
sg148
Nsg12
g415
sg416
I1
sg28
g56
ssg109
(dp431
g126
I00
sg2
S'@@polrep'
p432
sS'fdeg_Ggain'
p433
I0
sg129
g130
sg131
I00
sg12
S'@@parmtable'
p434
sg135
I01
sg136
I10
sg137
g138
sS'subtile_size_Ggain'
p435
I1
sg141
g142
sg143
Nsg18
(dp436
g20
S'MG_JEN_Joneset::GJones()'
p437
sg22
g109
sg23
(dp438
g137
I01
sg2
I01
sg147
I01
sg25
I01
sg129
I01
sg29
I01
sg143
I01
sg141
I01
sg26
I01
sg148
I01
sg149
I01
sg12
I01
sg27
I01
sg28
I01
sS'Gpolar'
p439
I01
sg136
I01
ssg30
S'MG_JEN_JonesetGJones'
p440
sg32
g33
sg123
S'Defines diagonal 2x2 Jones matrices that represent complex gain:\n    Gjones(station,source) matrix elements:\n    - G_11 = Ggain_X*exp(iGphase_X)\n    - G_12 = 0\n    - G_21 = 0\n    - G_22 = Ggain_Y*exp(iGphase_Y)\n    For circular polarisation, R and L are used rather than X and Y\n    '
p441
sg34
S'MG_JEN_Joneset::GJones()  version=15dec2005  defined=2006-03-29 19:26'
p442
sg36
S'GJones'
p443
sg38
(dp444
g126
(lp445
I01
aI00
aS'@@reset_funklet'
p446
asg2
(lp447
g3
ag41
ag432
asg433
(lp448
I0
aI1
aI2
aI3
aS'@@fdeg_Ggain'
p449
asg129
(lp450
g130
aS'@@color'
p451
asg131
(lp452
I01
aI00
aS'@@save_all'
p453
asg12
(lp454
Nag69
ag434
asg135
(lp455
I01
aI00
aS'@@auto_save'
p456
asg136
(lp457
I10
aS'@@size'
p458
asg137
(lp459
g138
aS'@@style'
p460
asg435
(lp461
NaI1
aI2
aI5
aI10
aI20
aI50
aI100
aI200
aI500
aS'@@subtile_size_Ggain'
p462
asg141
(lp463
g142
aS'@@condeq_corrs'
p464
asg143
(lp465
NaS'@@funklet_shape'
p466
asg27
(lp467
g52
aS'@@@Jsequence_KJones'
p468
asg29
(lp469
g52
aS'@@@Jsequence'
p470
asg147
(lp471
F1.0
aS'@@c00_default'
p472
asS'tdeg_Gphase'
p473
(lp474
I0
aI1
aI2
aI3
aS'@tdeg_Ggain'
p475
aS'@@tdeg_Gphase'
p476
asS'tdeg_Ggain'
p477
(lp478
I0
aI1
aI2
aI3
aS'@@tdeg_Ggain'
p479
asS'fdeg_Gphase'
p480
(lp481
I0
aI1
aI2
aI3
aS'@fdeg_Ggain'
p482
aS'@@fdeg_Gphase'
p483
asS'subtile_size_Gphase'
p484
(lp485
S'@subtile_size_Ggain'
p486
aNaI1
aI2
aI5
aI10
aI20
aI50
aI100
aI200
aI500
aS'@@subtile_size_Gphase'
p487
asg439
(lp488
I01
aI00
aS'@@Gpolar'
p489
asg26
(lp490
I00
aS'@@uvplane_effect'
p491
asg25
(lp492
(lp493
I0
aI1
aI2
aI3
aI4
aa(lp494
I0
aI1
aI2
aI3
aI4
aI5
aI6
aa(lp495
I0
aI1
aI2
aI3
aI4
aI5
aI6
aI7
aI8
aI9
aI10
aI11
aI12
aI13
aa(lp496
I0
aI1
aI2
aI3
aI4
aI5
aI6
aI7
aI8
aI9
aI10
aI11
aI12
aI13
aI14
aag47
aS'@@stations'
p497
asg210
(lp498
I01
aI00
aS'@@use_previous'
p499
asg148
(lp500
NaS'@@subtile_size'
p501
asg149
(lp502
NaS'@@tfdeg'
p503
asg28
(lp504
g52
aS'@@@Jsequence_simul'
p505
assg77
g78
sg79
I00
sg80
S'2006-03-29 19:26'
p506
sg82
S'15dec2005'
p507
sg84
S'MG_JEN_Joneset'
p508
sg224
(dp509
g126
I00
sg210
I00
sg439
I00
sg135
I00
sg131
I00
ssg86
S'** Specific description of inarg record for: MG_JEN_Joneset::GJones()  version=15dec2005  defined=2006-03-29 19:26'
p510
sg105
(dp511
g26
I00
sg12
I00
sg2
I00
sg25
I00
ssg104
g506
sg107
(lp512
g18
ag25
ag2
ag29
ag28
ag27
ag439
ag12
ag26
ag477
ag473
ag433
ag480
ag435
ag484
ag210
ag135
ag131
ag126
ag129
ag137
ag136
ag147
ag149
ag143
ag148
ag141
asg115
(dp513
g126
g230
sg2
g117
sg433
S'degree of freq polynomial'
p514
sg129
g232
sg131
g233
sg12
g121
sg135
g236
sg136
g237
sg137
g238
sg435
S'sub-tile size (None=entire tile)'
p515
sg141
g239
sg143
g240
sg27
g122
sg29
g122
sg147
g242
sg473
S'degree of time polynomial'
p516
sg477
g516
sg480
g514
sg484
g515
sg439
S'obsolete, kept only for upward compatibility'
p517
sg26
g120
sg25
g118
sg210
g244
sg148
g245
sg149
g246
sg28
g122
sssg27
g52
sg29
g52
sg147
F1.0
sg473
g475
sg477
I0
sg480
g482
sg484
g486
sg439
I01
sg26
g491
sg25
g497
sg210
I01
sg148
Nsg149
Nsg28
g52
ssg113
(dp518
g126
I00
sg2
S'@@polrep'
p519
sg129
g130
sS'fdeg_Dell'
p520
S'@fdeg_Dang'
p521
sS'coupled_XY_Dell'
p522
I01
sg131
I00
sg12
S'@@parmtable'
p523
sS'subtile_size_Dang'
p524
Nsg135
I01
sg136
I10
sg137
g138
sg141
g142
sg143
Nsg18
(dp525
g20
S'MG_JEN_Joneset::DJones_WSRT()'
p526
sg22
g113
sg23
(dp527
g137
I01
sg2
I01
sg147
I01
sg25
I01
sg129
I01
sg143
I01
sg141
I01
sg26
I01
sg148
I01
sg149
I01
sg12
I01
sg27
I01
sg28
I01
sg29
I01
sg136
I01
ssg30
S'MG_JEN_JonesetDJones_WSRT'
p528
sg32
g33
sg123
S'defines 2x2 DJones_WSRT (polarisation leakage) matrices'
p529
sg34
S'MG_JEN_Joneset::DJones_WSRT()  version=16dec2005  defined=2006-03-29 19:26'
p530
sg36
S'DJones_WSRT'
p531
sg38
(dp532
g126
(lp533
I01
aI00
aS'@@reset_funklet'
p534
asg2
(lp535
g3
ag41
ag519
asg129
(lp536
g130
aS'@@color'
p537
asg520
(lp538
I0
aI1
aI2
aI3
ag521
aS'@@fdeg_Dell'
p539
asg522
(lp540
I01
aI00
aS'@@coupled_XY_Dell'
p541
asg131
(lp542
I01
aI00
aS'@@save_all'
p543
asg12
(lp544
Nag69
ag523
asg524
(lp545
NaI1
aI2
aI5
aI10
aI20
aI50
aI100
aI200
aI500
aS'@@subtile_size_Dang'
p546
asg135
(lp547
I01
aI00
aS'@@auto_save'
p548
asg136
(lp549
I10
aS'@@size'
p550
asg137
(lp551
g138
aS'@@style'
p552
asg141
(lp553
g142
aS'@@condeq_corrs'
p554
asg143
(lp555
NaS'@@funklet_shape'
p556
asg27
(lp557
g60
aS'@@@Jsequence_KJones'
p558
asS'subtile_size_Dell'
p559
(lp560
S'@subtile_size_Dang'
p561
aNaI1
aI2
aI5
aI10
aI20
aI50
aI100
aI200
aI500
aS'@@subtile_size_Dell'
p562
asg29
(lp563
g60
aS'@@@Jsequence'
p564
asS'fdeg_Dang'
p565
(lp566
I0
aI1
aI2
aI3
aS'@@fdeg_Dang'
p567
asg147
(lp568
F1.0
aS'@@c00_default'
p569
asg26
(lp570
I00
aS'@@uvplane_effect'
p571
asS'tdeg_Dell'
p572
(lp573
I0
aI1
aI2
aI3
aS'@tdeg_Dang'
p574
aS'@@tdeg_Dell'
p575
asS'coupled_XY_Dang'
p576
(lp577
I01
aI00
aS'@@coupled_XY_Dang'
p578
asS'tdeg_Dang'
p579
(lp580
I0
aI1
aI2
aI3
aS'@@tdeg_Dang'
p581
asg25
(lp582
(lp583
I0
aI1
aI2
aI3
aI4
aa(lp584
I0
aI1
aI2
aI3
aI4
aI5
aI6
aa(lp585
I0
aI1
aI2
aI3
aI4
aI5
aI6
aI7
aI8
aI9
aI10
aI11
aI12
aI13
aa(lp586
I0
aI1
aI2
aI3
aI4
aI5
aI6
aI7
aI8
aI9
aI10
aI11
aI12
aI13
aI14
aag47
aS'@@stations'
p587
asg210
(lp588
I01
aI00
aS'@@use_previous'
p589
asg148
(lp590
NaS'@@subtile_size'
p591
asg149
(lp592
NaS'@@tfdeg'
p593
asg28
(lp594
g60
aS'@@@Jsequence_simul'
p595
assg77
g78
sg79
I00
sg80
S'2006-03-29 19:26'
p596
sg82
g351
sg84
S'MG_JEN_Joneset'
p597
sg224
(dp598
g126
I00
sg522
I00
sg210
I00
sg576
I00
sg131
I00
sg135
I00
ssg86
S'** Specific description of inarg record for: MG_JEN_Joneset::DJones_WSRT()  version=16dec2005  defined=2006-03-29 19:26'
p599
sg105
(dp600
g26
I00
sg12
I00
sg2
I00
sg25
I00
ssg104
g596
sg107
(lp601
g18
ag25
ag2
ag29
ag28
ag27
ag576
ag522
ag12
ag26
ag579
ag572
ag565
ag520
ag524
ag559
ag210
ag135
ag131
ag126
ag129
ag137
ag136
ag147
ag149
ag143
ag148
ag141
asg115
(dp602
g126
g230
sg2
g117
sg129
g232
sg520
S'degree of freq polynomial'
p603
sg522
S'if True, XDell = -YDell per station'
p604
sg131
g233
sg12
g121
sg524
S'sub-tile size (None=entire tile)'
p605
sg135
g236
sg136
g237
sg137
g238
sg141
g239
sg143
g240
sg27
g122
sg559
g605
sg29
g122
sg565
g603
sg147
g242
sg26
g120
sg572
S'degree of time polynomial'
p606
sg576
S'if True, XDang = YDang per station'
p607
sg579
g606
sg25
g118
sg210
g244
sg148
g245
sg149
g246
sg28
g122
sssg27
g60
sg559
g561
sg29
g60
sg565
I0
sg147
F1.0
sg26
g571
sg572
g574
sg576
I01
sg579
I0
sg25
g587
sg210
I01
sg148
Nsg149
Nsg28
g60
ssg27
Nsg28
Nsg29
NssS'LSM_solve'
p608
NsS'[simul_uvp]./MG_JEN_Cohset.Jones()'
p609
(dp610
S'[simul_uvp]./MG_JEN_Joneset.JJones()'
p611
(dp612
S'unop'
p613
S'Cos'
p614
sg207
I00
sg2
S'@@polrep'
p615
sg129
S'yellow'
p616
sS'stddev_period'
p617
F0.10000000000000001
sg132
NsS'fdeg'
p618
I0
sg136
I5
sS'mean_period_s'
p619
I500
sS'mean_tampl'
p620
F0.20000000000000001
sg18
(dp621
g20
S'MG_JEN_Joneset::JJones()'
p622
sg22
g611
sg23
(dp623
g613
I00
sg137
I01
sg2
I01
sg147
I01
sg25
I01
sg129
I01
sS'timescale_min'
p624
I01
sg618
I01
sg27
I01
sS'c00_scale'
p625
I01
sg28
I01
sg29
I01
sg136
I01
ssg30
S'MG_JEN_JonesetJJones'
p626
sg32
g33
sg123
g151
sg34
S'MG_JEN_Joneset::JJones()  version=14feb2006  defined=2006-03-29 19:26'
p627
sg36
S'JJones'
p628
sg38
(dp629
g613
(lp630
g614
aS'Sin'
p631
a(lp632
g614
ag631
aaNaS'@@unop'
p633
asg27
(lp634
g63
aS'@@@Jsequence_KJones'
p635
asg137
(lp636
S'triangle'
p637
aS'@@style'
p638
asg207
(lp639
I01
aI00
aS'@@diagonal_only'
p640
asg2
(lp641
g3
ag41
ag615
asg147
(lp642
F1.0
aS'@@c00_default'
p643
asg25
(lp644
(lp645
I0
aI1
aI2
aI3
aI4
aa(lp646
I0
aI1
aI2
aI3
aI4
aI5
aI6
aa(lp647
I0
aI1
aI2
aI3
aI4
aI5
aI6
aI7
aI8
aI9
aI10
aI11
aI12
aI13
aa(lp648
I0
aI1
aI2
aI3
aI4
aI5
aI6
aI7
aI8
aI9
aI10
aI11
aI12
aI13
aI14
aag47
aS'@@stations'
p649
asg129
(lp650
g616
aS'@@color'
p651
asg617
(lp652
I0
aF0.01
aF0.10000000000000001
aF0.20000000000000001
aF0.5
aS'@@stddev_period'
p653
asg624
(lp654
I20
aS'@@timescale_min'
p655
asg132
(lp656
Na(lp657
I14
aa(lp658
I1
aag167
aS'@@all4_always'
p659
asS'mean_period'
p660
(lp661
F0.29999999999999999
aF0.5
aI1
aI2
aI3
aS'@@mean_period'
p662
asS'stddev_c00'
p663
(lp664
I0
aF0.0001
aF0.001
aF0.01
aF0.10000000000000001
aI1
aS'@@stddev_c00'
p665
asg618
(lp666
I0
aS'@@fdeg'
p667
asS'mean_c00'
p668
(lp669
I0
aF0.10000000000000001
aF0.20000000000000001
aF0.5
aF-0.10000000000000001
aS'@@mean_c00'
p670
asg625
(lp671
F1.0
aS'@@c00_scale'
p672
asg28
(lp673
g63
aS'@@@Jsequence_simul'
p674
asg29
(lp675
g63
aS'@@@Jsequence'
p676
asg136
(lp677
I5
aS'@@size'
p678
assg77
S'simul_uvp'
p679
sg79
I00
sg80
S'2006-03-29 19:26'
p680
sg82
g222
sg84
S'MG_JEN_Joneset'
p681
sg224
(dp682
g207
I00
ssg86
S'** Specific description of inarg record for: MG_JEN_Joneset::JJones()  version=14feb2006  defined=2006-03-29 19:26'
p683
sg105
(dp684
g2
I00
sg25
I00
ssg104
g680
sg107
(lp685
g18
ag25
ag2
ag29
ag28
ag27
ag207
ag132
ag668
ag663
ag660
ag617
ag613
ag624
ag618
ag129
ag137
ag136
ag147
ag625
asg115
(dp686
g613
S'time-variability function'
p687
sg27
g122
sg137
g238
sg207
g243
sg2
g117
sg147
S'default value of c00'
p688
sg25
g118
sg129
g232
sg617
S'scatter in period T (fraction of timescale_min)'
p689
sg624
S'group timescale in minutes'
p690
sg132
g234
sg660
S'mean time-period T (fraction of timescale_min)'
p691
sg663
S'scatter in EXTRA c00 (fraction of c00_scale'
p692
sg618
S'degree of freq polynomial'
p693
sg668
S'mean of EXTRA c00 (fraction of c00_scale)'
p694
sg625
S'scale of c00'
p695
sg28
g122
sg29
g122
sg136
S'size of plotted symbol'
p696
sssg27
g63
sg29
g63
sS'stddev_period_s'
p697
I50
sg147
F1.0
sg137
g637
sg668
F0.10000000000000001
sg25
g649
sg624
I20
sg660
F1.0
sg663
F0.01
sg625
F1.0
sg28
g63
sS'stddev_tampl'
p698
F0.02
ssg2
S'@@polrep'
p699
sS'[simul_uvp]./MG_JEN_Joneset.KJones()'
p700
(dp701
g2
S'@@polrep'
p702
sg25
S'@@stations'
p703
sg18
(dp704
g20
S'MG_JEN_Joneset::KJones()'
p705
sg22
g700
sg23
(dp706
g27
I01
sg28
I01
sg25
I01
sg2
I01
sg29
I01
ssg30
S'MG_JEN_JonesetKJones'
p707
sg32
g33
sg123
g254
sg34
S'MG_JEN_Joneset::KJones()  version=12dec2005  defined=2006-03-29 19:26'
p708
sg36
S'KJones'
p709
sg38
(dp710
g27
(lp711
g58
aS'@@@Jsequence_KJones'
p712
asg28
(lp713
g58
aS'@@@Jsequence_simul'
p714
asg25
(lp715
(lp716
I0
aI1
aI2
aI3
aI4
aa(lp717
I0
aI1
aI2
aI3
aI4
aI5
aI6
aa(lp718
I0
aI1
aI2
aI3
aI4
aI5
aI6
aI7
aI8
aI9
aI10
aI11
aI12
aI13
aa(lp719
I0
aI1
aI2
aI3
aI4
aI5
aI6
aI7
aI8
aI9
aI10
aI11
aI12
aI13
aI14
aag47
ag703
asg2
(lp720
g3
ag41
ag702
asg29
(lp721
g58
aS'@@@Jsequence'
p722
assg77
g679
sg79
I00
sg80
S'2006-03-29 19:26'
p723
sg82
g271
sg84
S'MG_JEN_Joneset'
p724
sg86
S'** Specific description of inarg record for: MG_JEN_Joneset::KJones()  version=12dec2005  defined=2006-03-29 19:26'
p725
sg105
(dp726
g2
I00
sg25
I00
ssg104
g723
sg107
(lp727
g18
ag25
ag2
ag29
ag28
ag27
asg115
(dp728
g27
g122
sg28
g122
sg25
g118
sg2
g117
sg29
g122
sssg27
g58
sg28
g58
sg29
g58
ssS'[simul_uvp]./MG_JEN_Joneset.BJones()'
p729
(dp730
g613
g614
sg2
S'@@polrep'
p731
sg129
g616
sg617
F0.10000000000000001
sg618
I0
sg136
I5
sg137
g637
sg620
F0.20000000000000001
sg18
(dp732
g20
S'MG_JEN_Joneset::BJones()'
p733
sg22
g729
sg23
(dp734
g613
I00
sg137
I01
sg2
I01
sg147
I01
sg25
I01
sg129
I01
sg624
I01
sg618
I01
sg27
I01
sg625
I01
sg28
I01
sg29
I01
sg136
I01
ssg30
S'MG_JEN_JonesetBJones'
p735
sg32
g33
sg123
g288
sg34
S'MG_JEN_Joneset::BJones()  version=16dec2005  defined=2006-03-29 19:26'
p736
sg36
S'BJones'
p737
sg38
(dp738
g613
(lp739
g614
ag631
a(lp740
g614
ag631
aaNaS'@@unop'
p741
asg137
(lp742
g637
aS'@@style'
p743
asg2
(lp744
g3
ag41
ag731
asg147
(lp745
F1.0
aS'@@c00_default'
p746
asg25
(lp747
(lp748
I0
aI1
aI2
aI3
aI4
aa(lp749
I0
aI1
aI2
aI3
aI4
aI5
aI6
aa(lp750
I0
aI1
aI2
aI3
aI4
aI5
aI6
aI7
aI8
aI9
aI10
aI11
aI12
aI13
aa(lp751
I0
aI1
aI2
aI3
aI4
aI5
aI6
aI7
aI8
aI9
aI10
aI11
aI12
aI13
aI14
aag47
aS'@@stations'
p752
asg129
(lp753
g616
aS'@@color'
p754
asg617
(lp755
I0
aF0.01
aF0.10000000000000001
aF0.20000000000000001
aF0.5
aS'@@stddev_period'
p756
asg668
(lp757
I0
aF0.10000000000000001
aF0.20000000000000001
aF0.5
aF-0.10000000000000001
aS'@@mean_c00'
p758
asg624
(lp759
I20
aS'@@timescale_min'
p760
asg660
(lp761
F0.29999999999999999
aF0.5
aI1
aI2
aI3
aS'@@mean_period'
p762
asg663
(lp763
I0
aF0.0001
aF0.001
aF0.01
aF0.10000000000000001
aI1
aS'@@stddev_c00'
p764
asg618
(lp765
I0
aS'@@fdeg'
p766
asg27
(lp767
g54
aS'@@@Jsequence_KJones'
p768
asg625
(lp769
F1.0
aS'@@c00_scale'
p770
asg28
(lp771
g54
aS'@@@Jsequence_simul'
p772
asg29
(lp773
g54
aS'@@@Jsequence'
p774
asg136
(lp775
I5
aS'@@size'
p776
assg77
g679
sg79
I00
sg80
S'2006-03-29 19:26'
p777
sg82
g351
sg84
S'MG_JEN_Joneset'
p778
sg86
S'** Specific description of inarg record for: MG_JEN_Joneset::BJones()  version=16dec2005  defined=2006-03-29 19:26'
p779
sg105
(dp780
g2
I00
sg25
I00
ssg104
g777
sg107
(lp781
g18
ag25
ag2
ag29
ag28
ag27
ag668
ag663
ag660
ag617
ag613
ag624
ag618
ag129
ag137
ag136
ag147
ag625
asg115
(dp782
g613
g687
sg137
g238
sg2
g117
sg147
g688
sg25
g118
sg129
g232
sg617
g689
sg668
g694
sg624
g690
sg660
g691
sg663
g692
sg618
g693
sg27
g122
sg625
g695
sg28
g122
sg29
g122
sg136
g696
sssg27
g54
sg29
g54
sg697
I100
sg147
F1.0
sg619
I5000
sg668
F0.10000000000000001
sg25
g752
sg624
I20
sg660
F1.0
sg663
F0.01
sg625
F1.0
sg28
g54
sg698
F0.02
ssg25
S'@@stations'
p783
sg26
S'@@uvplane_effect'
p784
sg12
S'@@parmtable'
p785
sS'[simul_uvp]./MG_JEN_Joneset.DJones_WSRT()'
p786
(dp787
g613
g614
sg2
S'@@polrep'
p788
sg129
g616
sg617
F0.10000000000000001
sg522
I01
sg618
I0
sg136
I5
sg137
g637
sg620
F0.002
sg18
(dp789
g20
S'MG_JEN_Joneset::DJones_WSRT()'
p790
sg22
g786
sg23
(dp791
g613
I00
sg137
I01
sg2
I01
sg147
I01
sg25
I01
sg129
I01
sg624
I01
sg618
I01
sg27
I01
sg625
I01
sg28
I01
sg29
I01
sg136
I01
ssg30
S'MG_JEN_JonesetDJones_WSRT'
p792
sg32
g33
sg123
g529
sg34
S'MG_JEN_Joneset::DJones_WSRT()  version=16dec2005  defined=2006-03-29 19:26'
p793
sg36
S'DJones_WSRT'
p794
sg38
(dp795
g613
(lp796
g614
ag631
a(lp797
g614
ag631
aaNaS'@@unop'
p798
asg27
(lp799
g60
aS'@@@Jsequence_KJones'
p800
asg137
(lp801
g637
aS'@@style'
p802
asg522
(lp803
I01
aI00
aS'@@coupled_XY_Dell'
p804
asg2
(lp805
g3
ag41
ag788
asg147
(lp806
F1.0
aS'@@c00_default'
p807
asg25
(lp808
(lp809
I0
aI1
aI2
aI3
aI4
aa(lp810
I0
aI1
aI2
aI3
aI4
aI5
aI6
aa(lp811
I0
aI1
aI2
aI3
aI4
aI5
aI6
aI7
aI8
aI9
aI10
aI11
aI12
aI13
aa(lp812
I0
aI1
aI2
aI3
aI4
aI5
aI6
aI7
aI8
aI9
aI10
aI11
aI12
aI13
aI14
aag47
aS'@@stations'
p813
asg129
(lp814
g616
aS'@@color'
p815
asg617
(lp816
I0
aF0.01
aF0.10000000000000001
aF0.20000000000000001
aF0.5
aS'@@stddev_period'
p817
asg624
(lp818
I20
aS'@@timescale_min'
p819
asg660
(lp820
F0.29999999999999999
aF0.5
aI1
aI2
aI3
aS'@@mean_period'
p821
asg663
(lp822
I0
aF0.0001
aF0.001
aF0.01
aF0.10000000000000001
aI1
aS'@@stddev_c00'
p823
asg618
(lp824
I0
aS'@@fdeg'
p825
asg668
(lp826
I0
aF0.10000000000000001
aF0.20000000000000001
aF0.5
aF-0.10000000000000001
aS'@@mean_c00'
p827
asg625
(lp828
F1.0
aS'@@c00_scale'
p829
asg28
(lp830
g60
aS'@@@Jsequence_simul'
p831
asg29
(lp832
g60
aS'@@@Jsequence'
p833
asg576
(lp834
I01
aI00
aS'@@coupled_XY_Dang'
p835
asg136
(lp836
I5
aS'@@size'
p837
assg77
g679
sg79
I00
sg80
S'2006-03-29 19:26'
p838
sg82
g351
sg84
S'MG_JEN_Joneset'
p839
sg224
(dp840
g576
I00
sg522
I00
ssg86
S'** Specific description of inarg record for: MG_JEN_Joneset::DJones_WSRT()  version=16dec2005  defined=2006-03-29 19:26'
p841
sg105
(dp842
g2
I00
sg25
I00
ssg104
g838
sg107
(lp843
g18
ag25
ag2
ag29
ag28
ag27
ag576
ag522
ag668
ag663
ag660
ag617
ag613
ag624
ag618
ag129
ag137
ag136
ag147
ag625
asg115
(dp844
g613
g687
sg27
g122
sg137
g238
sg522
g604
sg2
g117
sg147
g688
sg25
g118
sg129
g232
sg617
g689
sg624
g690
sg660
g691
sg663
g692
sg618
g693
sg668
g694
sg625
g695
sg28
g122
sg29
g122
sg576
g607
sg136
g696
sssg27
g60
sg29
g60
sg697
I100
sg147
F1.0
sg619
I3000
sg668
F0.10000000000000001
sg576
I01
sg25
g813
sg624
I20
sg660
F1.0
sg663
F0.01
sg625
F1.0
sg28
g60
sg698
F0.00020000000000000001
ssg18
(dp845
g20
g21
sg22
g609
sg23
(dp846
g2
I01
sg25
I01
sg26
I01
sg12
I01
sg27
I01
sg28
I01
sg29
I01
ssg30
S'MG_JEN_CohsetJones'
p847
sg32
g33
sg34
S'MG_JEN_Cohset::Jones()  version=25dec2005  defined=2006-03-29 19:26'
p848
sg36
S'Jones'
p849
sg38
(dp850
g2
(lp851
g3
ag41
ag699
asg25
(lp852
(lp853
I0
aI1
aI2
aI3
aI4
aa(lp854
I0
aI1
aI2
aI3
aI4
aI5
aI6
aa(lp855
I0
aI1
aI2
aI3
aI4
aI5
aI6
aI7
aI8
aI9
aI10
aI11
aI12
aI13
aa(lp856
I0
aI1
aI2
aI3
aI4
aI5
aI6
aI7
aI8
aI9
aI10
aI11
aI12
aI13
aI14
aag47
ag783
asg26
(lp857
I00
ag784
asg12
(lp858
Nag69
ag785
asg27
(lp859
NaS'@@@Jsequence_KJones'
p860
asg28
(lp861
NaS'@@@Jsequence_simul'
p862
asS'Jsequence_simul_uvp'
p863
(lp864
(lp865
g52
aa(lp866
g54
aa(lp867
g56
aa(lp868
g58
aa(lp869
g60
aa(lp870
g52
ag60
aa(lp871
g63
aa(lp872
aS'@@Jsequence_simul_uvp'
p873
asg29
(lp874
NaS'@@@Jsequence'
p875
assg77
g679
sg79
I00
sg80
S'2006-03-29 19:26'
p876
sg82
g83
sg84
S'MG_JEN_Cohset'
p877
sg86
S'** Specific description of inarg record for: MG_JEN_Cohset::Jones()  version=25dec2005  defined=2006-03-29 19:26'
p878
sg88
(dp879
g90
S'** JEN_inarg.attach(): attached: [simul_uvp]./MG_JEN_Joneset.FJones()'
p880
sg92
S'** JEN_inarg.attach(): attached: [simul_uvp]./MG_JEN_Joneset.GJones()'
p881
sg94
S'** JEN_inarg.attach(): attached: [simul_uvp]./MG_JEN_Joneset.KJones()'
p882
sg96
S'** JEN_inarg.attach(): attached: [simul_uvp]./MG_JEN_Joneset.BJones()'
p883
sg98
S'** JEN_inarg.attach(): attached: [simul_uvp]./MG_JEN_Joneset.JJones()'
p884
sg100
S'** JEN_inarg.attach(): attached: [simul_uvp]./MG_JEN_Joneset.DJones_WSRT()'
p885
sg102
S"  1: ..[simul_uvp]./MG_JEN_Cohset.Jones() (qual=None): .modify(Jsequence_simul_uvp):   []  ->  ['DJones_WSRT']"
p886
ssg104
g876
sg105
(dp887
g26
I00
sg12
I00
sg2
I00
sg25
I00
ssg107
(lp888
g18
ag25
ag2
ag29
ag28
ag27
ag12
ag26
ag863
aS'[simul_uvp]./MG_JEN_Joneset.GJones()'
p889
aS'[simul_uvp]./MG_JEN_Joneset.FJones()'
p890
ag729
ag700
ag786
ag611
asg115
(dp891
g2
g117
sg25
g118
sg26
g120
sg12
g121
sg27
g122
sg28
g122
sg863
g119
sg29
g122
ssg123
g124
ssg27
Nsg28
Nsg863
(lp892
g60
asg889
(dp893
g613
g614
sg27
g52
sg137
g637
sg2
S'@@polrep'
p894
sg147
F1.0
sg25
S'@@stations'
p895
sg129
g616
sg617
F0.10000000000000001
sg624
I20
sg29
g52
sg660
F1.0
sg663
F0.01
sg18
(dp896
g20
S'MG_JEN_Joneset::GJones()'
p897
sg22
g889
sg23
(dp898
g613
I00
sg137
I01
sg2
I01
sg147
I01
sg25
I01
sg129
I01
sg624
I01
sg29
I01
sg618
I01
sg27
I01
sg625
I01
sg28
I01
sg439
I01
sg136
I01
ssg30
S'MG_JEN_JonesetGJones'
p899
sg32
g33
sg123
g441
sg34
S'MG_JEN_Joneset::GJones()  version=15dec2005  defined=2006-03-29 19:26'
p900
sg36
S'GJones'
p901
sg38
(dp902
g613
(lp903
g614
ag631
a(lp904
g614
ag631
aaNaS'@@unop'
p905
asg27
(lp906
g52
aS'@@@Jsequence_KJones'
p907
asg137
(lp908
g637
aS'@@style'
p909
asg2
(lp910
g3
ag41
ag894
asg147
(lp911
F1.0
aS'@@c00_default'
p912
asg25
(lp913
(lp914
I0
aI1
aI2
aI3
aI4
aa(lp915
I0
aI1
aI2
aI3
aI4
aI5
aI6
aa(lp916
I0
aI1
aI2
aI3
aI4
aI5
aI6
aI7
aI8
aI9
aI10
aI11
aI12
aI13
aa(lp917
I0
aI1
aI2
aI3
aI4
aI5
aI6
aI7
aI8
aI9
aI10
aI11
aI12
aI13
aI14
aag47
ag895
asg129
(lp918
g616
aS'@@color'
p919
asg617
(lp920
I0
aF0.01
aF0.10000000000000001
aF0.20000000000000001
aF0.5
aS'@@stddev_period'
p921
asg624
(lp922
I20
aS'@@timescale_min'
p923
asg29
(lp924
g52
aS'@@@Jsequence'
p925
asg660
(lp926
F0.29999999999999999
aF0.5
aI1
aI2
aI3
aS'@@mean_period'
p927
asg663
(lp928
I0
aF0.0001
aF0.001
aF0.01
aF0.10000000000000001
aI1
aS'@@stddev_c00'
p929
asg618
(lp930
I0
aS'@@fdeg'
p931
asg668
(lp932
I0
aF0.10000000000000001
aF0.20000000000000001
aF0.5
aF-0.10000000000000001
aS'@@mean_c00'
p933
asg625
(lp934
F1.0
aS'@@c00_scale'
p935
asg28
(lp936
g52
aS'@@@Jsequence_simul'
p937
asg439
(lp938
I01
aI00
aS'@@Gpolar'
p939
asg136
(lp940
I5
aS'@@size'
p941
assg77
g679
sg79
I00
sg80
S'2006-03-29 19:26'
p942
sg82
g507
sg84
S'MG_JEN_Joneset'
p943
sg224
(dp944
g439
I00
ssg86
S'** Specific description of inarg record for: MG_JEN_Joneset::GJones()  version=15dec2005  defined=2006-03-29 19:26'
p945
sg105
(dp946
g2
I00
sg25
I00
ssg104
g942
sg107
(lp947
g18
ag25
ag2
ag29
ag28
ag27
ag439
ag668
ag663
ag660
ag617
ag613
ag624
ag618
ag129
ag137
ag136
ag147
ag625
asg115
(dp948
g613
g687
sg27
g122
sg137
g238
sg2
g117
sg147
g688
sg25
g118
sg129
g232
sg617
g689
sg624
g690
sg29
g122
sg660
g691
sg663
g692
sg618
g693
sg668
g694
sg625
g695
sg28
g122
sg439
g517
sg136
g696
sssg618
I0
sg625
F1.0
sg668
F0.10000000000000001
sg28
g52
sg439
I01
sg136
I5
ssg890
(dp949
g613
g614
sg2
S'@@polrep'
p950
sg129
g616
sg617
F0.10000000000000001
sg618
I0
sg136
I5
sg137
g637
sg620
F0.20000000000000001
sg18
(dp951
g20
S'MG_JEN_Joneset::FJones()'
p952
sg22
g890
sg23
(dp953
g613
I00
sg137
I01
sg2
I01
sg147
I01
sg25
I01
sg129
I01
sg624
I01
sg618
I01
sg27
I01
sg625
I01
sg28
I01
sg29
I01
sg136
I01
ssg30
S'MG_JEN_JonesetFJones'
p954
sg32
g33
sg123
g367
sg34
S'MG_JEN_Joneset::FJones()  version=16dec2005  defined=2006-03-29 19:26'
p955
sg36
S'FJones'
p956
sg38
(dp957
g613
(lp958
g614
ag631
a(lp959
g614
ag631
aaNaS'@@unop'
p960
asg137
(lp961
g637
aS'@@style'
p962
asg2
(lp963
g3
ag41
ag950
asg147
(lp964
F1.0
aS'@@c00_default'
p965
asg25
(lp966
(lp967
I0
aI1
aI2
aI3
aI4
aa(lp968
I0
aI1
aI2
aI3
aI4
aI5
aI6
aa(lp969
I0
aI1
aI2
aI3
aI4
aI5
aI6
aI7
aI8
aI9
aI10
aI11
aI12
aI13
aa(lp970
I0
aI1
aI2
aI3
aI4
aI5
aI6
aI7
aI8
aI9
aI10
aI11
aI12
aI13
aI14
aag47
aS'@@stations'
p971
asg129
(lp972
g616
aS'@@color'
p973
asg617
(lp974
I0
aF0.01
aF0.10000000000000001
aF0.20000000000000001
aF0.5
aS'@@stddev_period'
p975
asg668
(lp976
I0
aF0.10000000000000001
aF0.20000000000000001
aF0.5
aF-0.10000000000000001
aS'@@mean_c00'
p977
asg624
(lp978
I20
aS'@@timescale_min'
p979
asg660
(lp980
F0.29999999999999999
aF0.5
aI1
aI2
aI3
aS'@@mean_period'
p981
asg663
(lp982
I0
aF0.0001
aF0.001
aF0.01
aF0.10000000000000001
aI1
aS'@@stddev_c00'
p983
asg618
(lp984
I0
aS'@@fdeg'
p985
asg27
(lp986
g56
aS'@@@Jsequence_KJones'
p987
asg625
(lp988
F1.0
aS'@@c00_scale'
p989
asg28
(lp990
g56
aS'@@@Jsequence_simul'
p991
asg29
(lp992
g56
aS'@@@Jsequence'
p993
asg136
(lp994
I5
aS'@@size'
p995
assg77
g679
sg79
I00
sg80
S'2006-03-29 19:26'
p996
sg82
g351
sg84
S'MG_JEN_Joneset'
p997
sg86
S'** Specific description of inarg record for: MG_JEN_Joneset::FJones()  version=16dec2005  defined=2006-03-29 19:26'
p998
sg105
(dp999
g2
I00
sg25
I00
ssg104
g996
sg107
(lp1000
g18
ag25
ag2
ag29
ag28
ag27
ag668
ag663
ag660
ag617
ag613
ag624
ag618
ag129
ag137
ag136
ag147
ag625
asg115
(dp1001
g613
g687
sg137
g238
sg2
g117
sg147
g688
sg25
g118
sg129
g232
sg617
g689
sg668
g694
sg624
g690
sg660
g691
sg663
g692
sg618
g693
sg27
g122
sg625
g695
sg28
g122
sg29
g122
sg136
g696
sssg27
g56
sg29
g56
sg697
I50
sg147
F1.0
sg619
I500
sg668
F0.10000000000000001
sg25
g971
sg624
I20
sg660
F1.0
sg663
F0.01
sg625
F1.0
sg28
g56
sg698
F0.02
ssg29
NssS'[solve]./MG_JEN_Sixpack.newstar_source()'
p1002
(dp1003
S'f0'
p1004
F1000000.0
sg126
I00
sS'major'
p1005
F0.0
sS'unsolvable'
p1006
I00
sg129
g130
sg131
I00
sS'shape'
p1007
S'point'
p1008
sg12
g13
sS'Upct'
p1009
I-10
sg135
I01
sg136
I10
sg137
g138
sS'I0'
p1010
F1.0
sg148
Nsg141
g142
sS'Vpct'
p1011
Nsg143
NsS'pa'
p1012
F0.0
sg18
(dp1013
g20
S'MG_JEN_Sixpack::newstar_source()'
p1014
sg22
g1002
sg104
S'2006-03-29 19:26'
p1015
sg23
(dp1016
g1004
I01
sg1005
I01
sg1006
I01
sS'name'
p1017
I01
sg147
I01
sg143
I01
sg129
I01
sg1007
I01
sS'fsr_trace'
p1018
I01
sS'punit'
p1019
I00
sg148
I01
sg1012
I01
sg141
I01
sg149
I01
sg137
I01
sS'minor'
p1020
I01
sg136
I01
ssg30
S'MG_JEN_Sixpacknewstar_source'
p1021
sg77
S'solve'
p1022
sg32
g33
sg34
S'MG_JEN_Sixpack::newstar_source()  version=10feb2006  defined=2006-03-29 19:26'
p1023
sg36
S'newstar_source'
p1024
sg38
(dp1025
g1004
(lp1026
F1000000.0
aS'@@f0'
p1027
asg126
(lp1028
I01
aI00
aS'@@reset_funklet'
p1029
asg1005
(lp1030
F0.0
aF1.0
aF10.0
aF100.0
aS'@@major'
p1031
asg1006
(lp1032
I01
aI00
aS'@@unsolvable'
p1033
asg129
(lp1034
g130
aS'@@color'
p1035
asg131
(lp1036
I01
aI00
aS'@@save_all'
p1037
asg1007
(lp1038
g1008
aS'ell.gauss'
p1039
aS'@@shape'
p1040
asg12
(lp1041
NaS'@@parmtable'
p1042
asg1009
(lp1043
NaF-0.10000000000000001
aF0.050000000000000003
aF-0.01
aS'@@Upct'
p1044
asg135
(lp1045
I01
aI00
aS'@@auto_save'
p1046
asg136
(lp1047
I10
aS'@@size'
p1048
asg137
(lp1049
g138
aS'@@style'
p1050
asg1010
(lp1051
F1.0
aF10.0
aS'@@I0'
p1052
asg148
(lp1053
NaS'@@subtile_size'
p1054
asg141
(lp1055
g142
aS'@@condeq_corrs'
p1056
asg1011
(lp1057
NaF0.01
aF-0.0050000000000000001
aF0.001
aS'@@Vpct'
p1058
asg143
(lp1059
NaS'@@funklet_shape'
p1060
asg1012
(lp1061
F0.0
aF1.0
aF-0.5
aS'@@pa'
p1062
asS'RA'
p1063
(lp1064
F0.0
aF0.5
aF1.0
aF1.4950000000000001
aF4.3570000000000002
aS'@@RA'
p1065
asS'RM'
p1066
(lp1067
NaF1.0
aF3.0
aF10.0
aF-10.0
aF60.0
aS'@@RM'
p1068
asg1020
(lp1069
F0.0
aF0.5
aF5.0
aF50.0
aS'@@minor'
p1070
asg147
(lp1071
F1.0
aS'@@c00_default'
p1072
asS'Qpct'
p1073
(lp1074
NaF0.10000000000000001
aF-0.050000000000000003
aF0.01
aS'@@Qpct'
p1075
asg1019
(lp1076
S'unpol'
p1077
aS'unpol2'
p1078
aS'unpol10'
p1079
aS'QUV'
p1080
aS'QU'
p1081
aS'Qonly'
p1082
aS'Uonly'
p1083
aS'Vonly'
p1084
aS'3c147'
p1085
aS'3c286'
p1086
aS'3c48'
p1087
aS'3c295'
p1088
aS'D1'
p1089
aS'RMtest'
p1090
aS'SItest'
p1091
aS'@@punit'
p1092
asS'Dec'
p1093
(lp1094
F0.5
aF1.0
aF0.87
aF1.0920000000000001
aS'@@Dec'
p1095
asg1017
(lp1096
NaS'@@name'
p1097
asg1018
(lp1098
I01
aI00
aS'@@fsr_trace'
p1099
asg210
(lp1100
I01
aI00
aS'@@use_previous'
p1101
asS'SI'
p1102
(lp1103
NaF-0.69999999999999996
a(lp1104
F0.44700000000000001
aF-0.184
aaS'@@SI'
p1105
asg149
(lp1106
NaS'@@tfdeg'
p1107
assS'callback'
p1108
(dp1109
g1019
I01
ssg82
S'10feb2006'
p1110
sg80
g1015
sg84
S'MG_JEN_Sixpack'
p1111
sg224
(dp1112
g126
I00
sg1006
I00
sg1018
I00
sg131
I00
sg210
I00
sg135
I00
ssg86
S'** Specific description of inarg record for: MG_JEN_Sixpack::newstar_source()  version=10feb2006  defined=2006-03-29 19:26'
p1113
sg88
(dp1114
g90
S'  1: ..[solve]./MG_JEN_Sixpack.newstar_source() (qual=None): .modify(Qpct):   None  ->  10'
p1115
sg92
S'  1: ..[solve]./MG_JEN_Sixpack.newstar_source() (qual=None): .modify(parmtable):   None  ->  simul_DJones'
p1116
sg94
S'  1: ..[solve]./MG_JEN_Sixpack.newstar_source() (qual=None): .modify(punit):   unpol  ->  QU'
p1117
sg96
S'  1: ..[solve]./MG_JEN_Sixpack.newstar_source() (qual=None): .modify(Upct):   None  ->  -10'
p1118
ssg79
I00
sg107
(lp1119
g18
ag1019
ag1017
ag12
ag1006
ag1010
ag1073
ag1009
ag1011
ag1066
ag1102
ag1004
ag1063
ag1093
ag1018
ag1007
ag1005
ag1020
ag1012
ag210
ag135
ag131
ag126
ag129
ag137
ag136
ag147
ag149
ag143
ag148
ag141
asg115
(dp1120
g1004
S'reference freq (Hz): I=I0 @ f=f0'
p1121
sg126
g230
sg1005
S'major axis (arcsec)'
p1122
sg1006
S'if True, do NOT store solvegroup/parmgroup info'
p1123
sg129
g232
sg131
g233
sg1007
S'source shape'
p1124
sg12
S'name of the MeqParm table (AIPS++)'
p1125
sg1009
S'Stokes U (percentage of I)'
p1126
sg135
g236
sg136
g237
sg137
g238
sg1010
S'Stokes I: Total intensity @ f=f0 (usually 1 MHz)'
p1127
sg148
g245
sg141
g239
sg1011
S'Stokes V (percentage of I)'
p1128
sg143
g240
sg1012
S'position angle (rad)'
p1129
sg1063
S'Right Ascension (rad, J2000)'
p1130
sg1066
S'Intrinsic Rotation Measure (rad/m2)'
p1131
sg1020
S'minor axis (arcsec)'
p1132
sg147
g242
sg1073
S'Stokes Q (percentage of I)'
p1133
sg1019
S'name of calibrator source/patch \n- unpol:   unpolarised, I=1Jy \n- unpol2:  idem, I=2Jy \n- unpol10: idem, I=10Jy \n- RMtest:  Rotation Measure \n- SItest:  Spectral Index \n- QUV:     non-zero Q,U,V \n- QU:      non-zero Q,U \n- QU2:     stronger version of QU \n- Qonly:   non-zero Q \n- Uonly:   non-zero U \n- Vonly:   non-zero V \n- 3c286:   \n- 3c48:    \n- 3c295:   \n- 3c147:   \n- D1:      cps in D1.MS \n'
p1134
sg1093
S'Declination (rad, J2000)'
p1135
sg1018
S'If True, attach to forest state record'
p1136
sg210
g244
sg1102
S'Spectral Index (generalised)\n   A scalar represents the classical SI: I(f)=I0*(f/f0)^SI\n   A vector represents a freq-dependent SI (....)'
p1137
sg149
g246
ssg123
S'Make a Sixpack (I,Q,U,V,Ra,Dec) for a source with NEWSTAR parametrisation'
p1138
ssg1066
Nsg1020
F0.0
sg1063
F1.4950000000000001
sg147
F1.0
sg1073
I10
sg1019
g1081
sg1093
F0.87
sg1017
Nsg1018
I01
sg210
I01
sg1102
Nsg149
NssS'[simul]./MG_JEN_Cohset.predict_lsm()'
p1139
(dp1140
g2
S'@@polrep'
p1141
sg25
S'@@stations'
p1142
sg18
(dp1143
g20
S'MG_JEN_Cohset::predict_lsm()'
p1144
sg22
g1139
sg23
(dp1145
g27
I01
sg28
I01
sg29
I01
sg2
I01
sg25
I01
ssg30
S'MG_JEN_Cohsetpredict_lsm'
p1146
sg32
g33
sg34
S'MG_JEN_Cohset::predict_lsm()  version=20mar2006  defined=2006-03-29 19:26'
p1147
sg36
S'predict_lsm'
p1148
sg38
(dp1149
g2
(lp1150
g3
ag41
ag1141
asg25
(lp1151
(lp1152
I0
aI1
aI2
aI3
aI4
aa(lp1153
I0
aI1
aI2
aI3
aI4
aI5
aI6
aa(lp1154
I0
aI1
aI2
aI3
aI4
aI5
aI6
aI7
aI8
aI9
aI10
aI11
aI12
aI13
aa(lp1155
I0
aI1
aI2
aI3
aI4
aI5
aI6
aI7
aI8
aI9
aI10
aI11
aI12
aI13
aI14
aag47
ag1142
asS'nr_lsm_sources'
p1156
(lp1157
I1
aI2
aI3
aI5
aI10
aI20
aI100
aS'@@nr_lsm_sources'
p1158
asg27
(lp1159
NaS'@@@Jsequence_KJones'
p1160
asg28
(lp1161
NaS'@@@Jsequence_simul'
p1162
asg29
(lp1163
NaS'@@@Jsequence'
p1164
assg77
S'simul'
p1165
sg79
I00
sg80
S'2006-03-29 19:26'
p1166
sg82
S'20mar2006'
p1167
sg84
S'MG_JEN_Cohset'
p1168
sg86
S'** Specific description of inarg record for: MG_JEN_Cohset::predict_lsm()  version=20mar2006  defined=2006-03-29 19:26'
p1169
sg88
(dp1170
g92
S'** JEN_inarg.attach(): attached: [simul_imp]./MG_JEN_Cohset.Jones()'
p1171
ssg104
g1166
sg105
(dp1172
g2
I00
sg25
I00
ssg107
(lp1173
g18
ag1156
ag25
ag2
ag29
ag28
ag27
aS'[simul_imp]./MG_JEN_Cohset.Jones()'
p1174
asg115
(dp1175
g2
g117
sg25
g118
sg1156
S'nr of lsm sources to be included (in order of brightness'
p1176
sg27
g122
sg28
g122
sg29
g122
ssg123
S'Obsolete (upward compatibility) version of .predict_cps()'
p1177
ssg1156
I1
sg27
Nsg28
Nsg1174
(dp1178
S'[simul_imp]./MG_JEN_Joneset.BJones()'
p1179
(dp1180
g126
I00
sg2
S'@@polrep'
p1181
sg129
g130
sg280
g281
sg131
I00
sg282
Nsg135
I01
sg136
I10
sg137
g138
sg283
I5
sg141
g142
sg143
Nsg18
(dp1182
g20
S'MG_JEN_Joneset::BJones()'
p1183
sg22
g1179
sg23
(dp1184
g137
I01
sg2
I01
sg147
I01
sg25
I01
sg129
I01
sg148
I01
sg141
I01
sg26
I01
sg143
I01
sg149
I01
sg12
I01
sg27
I01
sg28
I01
sg136
I01
sg29
I01
ssg123
g288
sg32
g33
sg34
S'MG_JEN_Joneset::BJones()  version=16dec2005  defined=2006-03-29 19:26'
p1185
sg36
S'BJones'
p1186
sg38
(dp1187
g126
(lp1188
I01
aI00
aS'@@reset_funklet'
p1189
asg2
(lp1190
g3
ag41
ag1181
asg129
(lp1191
g130
aS'@@color'
p1192
asg280
(lp1193
g281
aNaI1
aI2
aI5
aI10
aI20
aI50
aI100
aI200
aI500
aS'@@subtile_size_Bimag'
p1194
asg131
(lp1195
I01
aI00
aS'@@save_all'
p1196
asg282
(lp1197
NaI1
aI2
aI5
aI10
aI20
aI50
aI100
aI200
aI500
aS'@@subtile_size_Breal'
p1198
asg135
(lp1199
I01
aI00
aS'@@auto_save'
p1200
asg136
(lp1201
I10
aS'@@size'
p1202
asg137
(lp1203
g138
aS'@@style'
p1204
asg283
(lp1205
I3
aI4
aI5
aI6
aS'@@fdeg_Breal'
p1206
asg141
(lp1207
g142
aS'@@condeq_corrs'
p1208
asg143
(lp1209
NaS'@@funklet_shape'
p1210
asg27
(lp1211
g54
aS'@@@Jsequence_KJones'
p1212
asg317
(lp1213
I0
aI1
aI2
aI3
ag319
aS'@@tdeg_Bimag'
p1214
asg29
(lp1215
g54
aS'@@@Jsequence'
p1216
asg147
(lp1217
F1.0
aS'@@c00_default'
p1218
asg325
(lp1219
I3
aI4
aI5
aI6
ag327
aS'@@fdeg_Bimag'
p1220
asg26
(lp1221
I00
aS'@@uvplane_effect'
p1222
asg12
(lp1223
Nag69
aS'@@parmtable'
p1224
asg25
(lp1225
(lp1226
I0
aI1
aI2
aI3
aI4
aa(lp1227
I0
aI1
aI2
aI3
aI4
aI5
aI6
aa(lp1228
I0
aI1
aI2
aI3
aI4
aI5
aI6
aI7
aI8
aI9
aI10
aI11
aI12
aI13
aa(lp1229
I0
aI1
aI2
aI3
aI4
aI5
aI6
aI7
aI8
aI9
aI10
aI11
aI12
aI13
aI14
aag47
aS'@@stations'
p1230
asg339
(lp1231
I0
aI1
aI2
aI3
aS'@@tdeg_Breal'
p1232
asg210
(lp1233
I01
aI00
aS'@@use_previous'
p1234
asg148
(lp1235
NaS'@@subtile_size'
p1236
asg149
(lp1237
NaS'@@tfdeg'
p1238
asg28
(lp1239
g54
aS'@@@Jsequence_simul'
p1240
assg77
S'simul_imp'
p1241
sg79
I00
sg80
S'2006-03-29 19:26'
p1242
sg82
g351
sg84
S'MG_JEN_Joneset'
p1243
sg224
(dp1244
g126
I00
sg131
I00
sg135
I00
sg210
I00
ssg86
S'** Specific description of inarg record for: MG_JEN_Joneset::BJones()  version=16dec2005  defined=2006-03-29 19:26'
p1245
sg105
(dp1246
g26
I00
sg12
I00
sg2
I00
sg25
I00
ssg104
g1242
sg107
(lp1247
g18
ag25
ag2
ag29
ag28
ag27
ag12
ag26
ag339
ag317
ag283
ag325
ag282
ag280
ag210
ag135
ag131
ag126
ag129
ag137
ag136
ag147
ag149
ag143
ag148
ag141
asg115
(dp1248
g126
g230
sg2
g117
sg129
g232
sg280
g358
sg131
g233
sg282
g358
sg135
g236
sg136
g237
sg137
g238
sg283
g359
sg141
g239
sg143
g240
sg27
g122
sg317
g360
sg29
g122
sg147
g242
sg325
g359
sg26
g120
sg12
g121
sg25
g118
sg339
g360
sg210
g244
sg148
g245
sg149
g246
sg28
g122
ssg30
S'MG_JEN_JonesetBJones'
p1249
ssg27
g54
sg317
g319
sg29
g54
sg147
F1.0
sg325
g327
sg26
g1222
sg25
g1230
sg149
Nsg339
I0
sg210
I01
sg148
Nsg12
g1224
sg28
g54
ssg2
S'@@polrep'
p1250
sg25
S'@@stations'
p1251
sS'[simul_imp]./MG_JEN_Joneset.GJones()'
p1252
(dp1253
g126
I00
sg2
S'@@polrep'
p1254
sg433
I0
sg129
g130
sg131
I00
sg12
S'@@parmtable'
p1255
sg135
I01
sg136
I10
sg137
g138
sg435
I1
sg141
g142
sg143
Nsg18
(dp1256
g20
S'MG_JEN_Joneset::GJones()'
p1257
sg22
g1252
sg23
(dp1258
g136
I01
sg137
I01
sg2
I01
sg147
I01
sg25
I01
sg129
I01
sg148
I01
sg141
I01
sg26
I01
sg143
I01
sg149
I01
sg12
I01
sg27
I01
sg28
I01
sg439
I01
sg29
I01
ssg123
g441
sg32
g33
sg34
S'MG_JEN_Joneset::GJones()  version=15dec2005  defined=2006-03-29 19:26'
p1259
sg36
S'GJones'
p1260
sg38
(dp1261
g126
(lp1262
I01
aI00
aS'@@reset_funklet'
p1263
asg2
(lp1264
g3
ag41
ag1254
asg433
(lp1265
I0
aI1
aI2
aI3
aS'@@fdeg_Ggain'
p1266
asg129
(lp1267
g130
aS'@@color'
p1268
asg131
(lp1269
I01
aI00
aS'@@save_all'
p1270
asg12
(lp1271
Nag69
ag1255
asg135
(lp1272
I01
aI00
aS'@@auto_save'
p1273
asg136
(lp1274
I10
aS'@@size'
p1275
asg137
(lp1276
g138
aS'@@style'
p1277
asg435
(lp1278
NaI1
aI2
aI5
aI10
aI20
aI50
aI100
aI200
aI500
aS'@@subtile_size_Ggain'
p1279
asg141
(lp1280
g142
aS'@@condeq_corrs'
p1281
asg143
(lp1282
NaS'@@funklet_shape'
p1283
asg27
(lp1284
g52
aS'@@@Jsequence_KJones'
p1285
asg29
(lp1286
g52
aS'@@@Jsequence'
p1287
asg147
(lp1288
F1.0
aS'@@c00_default'
p1289
asg473
(lp1290
I0
aI1
aI2
aI3
ag475
aS'@@tdeg_Gphase'
p1291
asg477
(lp1292
I0
aI1
aI2
aI3
aS'@@tdeg_Ggain'
p1293
asg480
(lp1294
I0
aI1
aI2
aI3
ag482
aS'@@fdeg_Gphase'
p1295
asg484
(lp1296
g486
aNaI1
aI2
aI5
aI10
aI20
aI50
aI100
aI200
aI500
aS'@@subtile_size_Gphase'
p1297
asg439
(lp1298
I01
aI00
aS'@@Gpolar'
p1299
asg26
(lp1300
I00
aS'@@uvplane_effect'
p1301
asg25
(lp1302
(lp1303
I0
aI1
aI2
aI3
aI4
aa(lp1304
I0
aI1
aI2
aI3
aI4
aI5
aI6
aa(lp1305
I0
aI1
aI2
aI3
aI4
aI5
aI6
aI7
aI8
aI9
aI10
aI11
aI12
aI13
aa(lp1306
I0
aI1
aI2
aI3
aI4
aI5
aI6
aI7
aI8
aI9
aI10
aI11
aI12
aI13
aI14
aag47
aS'@@stations'
p1307
asg210
(lp1308
I01
aI00
aS'@@use_previous'
p1309
asg148
(lp1310
NaS'@@subtile_size'
p1311
asg149
(lp1312
NaS'@@tfdeg'
p1313
asg28
(lp1314
g52
aS'@@@Jsequence_simul'
p1315
assg77
g1241
sg79
I00
sg80
S'2006-03-29 19:26'
p1316
sg82
g507
sg84
S'MG_JEN_Joneset'
p1317
sg224
(dp1318
g126
I00
sg439
I00
sg131
I00
sg135
I00
sg210
I00
ssg86
S'** Specific description of inarg record for: MG_JEN_Joneset::GJones()  version=15dec2005  defined=2006-03-29 19:26'
p1319
sg105
(dp1320
g26
I00
sg12
I00
sg2
I00
sg25
I00
ssg104
g1316
sg107
(lp1321
g18
ag25
ag2
ag29
ag28
ag27
ag439
ag12
ag26
ag477
ag473
ag433
ag480
ag435
ag484
ag210
ag135
ag131
ag126
ag129
ag137
ag136
ag147
ag149
ag143
ag148
ag141
asg115
(dp1322
g126
g230
sg2
g117
sg433
g514
sg129
g232
sg131
g233
sg12
g121
sg135
g236
sg136
g237
sg137
g238
sg435
g515
sg141
g239
sg143
g240
sg27
g122
sg29
g122
sg147
g242
sg473
g516
sg477
g516
sg480
g514
sg484
g515
sg439
g517
sg26
g120
sg25
g118
sg210
g244
sg148
g245
sg149
g246
sg28
g122
ssg30
S'MG_JEN_JonesetGJones'
p1323
ssg27
g52
sg29
g52
sg147
F1.0
sg473
g475
sg477
I0
sg480
g482
sg484
g486
sg439
I01
sg26
g1301
sg25
g1307
sg210
I01
sg148
Nsg149
Nsg28
g52
ssS'[simul_imp]./MG_JEN_Joneset.DJones_WSRT()'
p1324
(dp1325
g126
I00
sg2
S'@@polrep'
p1326
sg129
g130
sg520
g521
sg522
I01
sg131
I00
sg12
S'@@parmtable'
p1327
sg524
Nsg135
I01
sg136
I10
sg137
g138
sg141
g142
sg143
Nsg18
(dp1328
g20
S'MG_JEN_Joneset::DJones_WSRT()'
p1329
sg22
g1324
sg23
(dp1330
g137
I01
sg2
I01
sg147
I01
sg25
I01
sg129
I01
sg148
I01
sg141
I01
sg26
I01
sg143
I01
sg149
I01
sg12
I01
sg27
I01
sg28
I01
sg136
I01
sg29
I01
ssg123
g529
sg32
g33
sg34
S'MG_JEN_Joneset::DJones_WSRT()  version=16dec2005  defined=2006-03-29 19:26'
p1331
sg36
S'DJones_WSRT'
p1332
sg38
(dp1333
g126
(lp1334
I01
aI00
aS'@@reset_funklet'
p1335
asg2
(lp1336
g3
ag41
ag1326
asg129
(lp1337
g130
aS'@@color'
p1338
asg520
(lp1339
I0
aI1
aI2
aI3
ag521
aS'@@fdeg_Dell'
p1340
asg522
(lp1341
I01
aI00
aS'@@coupled_XY_Dell'
p1342
asg131
(lp1343
I01
aI00
aS'@@save_all'
p1344
asg12
(lp1345
Nag69
ag1327
asg524
(lp1346
NaI1
aI2
aI5
aI10
aI20
aI50
aI100
aI200
aI500
aS'@@subtile_size_Dang'
p1347
asg135
(lp1348
I01
aI00
aS'@@auto_save'
p1349
asg136
(lp1350
I10
aS'@@size'
p1351
asg137
(lp1352
g138
aS'@@style'
p1353
asg141
(lp1354
g142
aS'@@condeq_corrs'
p1355
asg143
(lp1356
NaS'@@funklet_shape'
p1357
asg27
(lp1358
g60
aS'@@@Jsequence_KJones'
p1359
asg559
(lp1360
g561
aNaI1
aI2
aI5
aI10
aI20
aI50
aI100
aI200
aI500
aS'@@subtile_size_Dell'
p1361
asg29
(lp1362
g60
aS'@@@Jsequence'
p1363
asg565
(lp1364
I0
aI1
aI2
aI3
aS'@@fdeg_Dang'
p1365
asg147
(lp1366
F1.0
aS'@@c00_default'
p1367
asg26
(lp1368
I00
aS'@@uvplane_effect'
p1369
asg572
(lp1370
I0
aI1
aI2
aI3
ag574
aS'@@tdeg_Dell'
p1371
asg576
(lp1372
I01
aI00
aS'@@coupled_XY_Dang'
p1373
asg579
(lp1374
I0
aI1
aI2
aI3
aS'@@tdeg_Dang'
p1375
asg25
(lp1376
(lp1377
I0
aI1
aI2
aI3
aI4
aa(lp1378
I0
aI1
aI2
aI3
aI4
aI5
aI6
aa(lp1379
I0
aI1
aI2
aI3
aI4
aI5
aI6
aI7
aI8
aI9
aI10
aI11
aI12
aI13
aa(lp1380
I0
aI1
aI2
aI3
aI4
aI5
aI6
aI7
aI8
aI9
aI10
aI11
aI12
aI13
aI14
aag47
aS'@@stations'
p1381
asg210
(lp1382
I01
aI00
aS'@@use_previous'
p1383
asg148
(lp1384
NaS'@@subtile_size'
p1385
asg149
(lp1386
NaS'@@tfdeg'
p1387
asg28
(lp1388
g60
aS'@@@Jsequence_simul'
p1389
assg77
g1241
sg79
I00
sg80
S'2006-03-29 19:26'
p1390
sg82
g351
sg84
S'MG_JEN_Joneset'
p1391
sg224
(dp1392
g126
I00
sg522
I00
sg131
I00
sg576
I00
sg210
I00
sg135
I00
ssg86
S'** Specific description of inarg record for: MG_JEN_Joneset::DJones_WSRT()  version=16dec2005  defined=2006-03-29 19:26'
p1393
sg105
(dp1394
g26
I00
sg12
I00
sg2
I00
sg25
I00
ssg104
g1390
sg107
(lp1395
g18
ag25
ag2
ag29
ag28
ag27
ag576
ag522
ag12
ag26
ag579
ag572
ag565
ag520
ag524
ag559
ag210
ag135
ag131
ag126
ag129
ag137
ag136
ag147
ag149
ag143
ag148
ag141
asg115
(dp1396
g126
g230
sg2
g117
sg129
g232
sg520
g603
sg522
g604
sg131
g233
sg12
g121
sg524
g605
sg135
g236
sg136
g237
sg137
g238
sg141
g239
sg143
g240
sg27
g122
sg559
g605
sg29
g122
sg565
g603
sg147
g242
sg26
g120
sg572
g606
sg576
g607
sg579
g606
sg25
g118
sg210
g244
sg148
g245
sg149
g246
sg28
g122
ssg30
S'MG_JEN_JonesetDJones_WSRT'
p1397
ssg27
g60
sg559
g561
sg29
g60
sg565
I0
sg147
F1.0
sg26
g1369
sg572
g574
sg576
I01
sg579
I0
sg25
g1381
sg210
I01
sg148
Nsg149
Nsg28
g60
ssg26
S'@@uvplane_effect'
p1398
sg12
S'@@parmtable'
p1399
sg18
(dp1400
g20
g21
sg22
g1174
sg23
(dp1401
g2
I01
sg25
I01
sg26
I01
sg12
I01
sg27
I01
sg28
I01
sg29
I01
ssg30
S'MG_JEN_CohsetJones'
p1402
sg32
g33
sg123
g124
sg34
S'MG_JEN_Cohset::Jones()  version=25dec2005  defined=2006-03-29 19:26'
p1403
sg36
S'Jones'
p1404
sg38
(dp1405
g2
(lp1406
g3
ag41
ag1250
asg25
(lp1407
(lp1408
I0
aI1
aI2
aI3
aI4
aa(lp1409
I0
aI1
aI2
aI3
aI4
aI5
aI6
aa(lp1410
I0
aI1
aI2
aI3
aI4
aI5
aI6
aI7
aI8
aI9
aI10
aI11
aI12
aI13
aa(lp1411
I0
aI1
aI2
aI3
aI4
aI5
aI6
aI7
aI8
aI9
aI10
aI11
aI12
aI13
aI14
aag47
ag1251
asg26
(lp1412
I00
ag1398
asg12
(lp1413
Nag69
ag1399
asg27
(lp1414
NaS'@@@Jsequence_KJones'
p1415
asg28
(lp1416
NaS'@@@Jsequence_simul'
p1417
asS'Jsequence_simul_imp'
p1418
(lp1419
(lp1420
g52
aa(lp1421
g54
aa(lp1422
g56
aa(lp1423
g58
aa(lp1424
g60
aa(lp1425
g52
ag60
aa(lp1426
g63
aa(lp1427
aS'@@Jsequence_simul_imp'
p1428
asg29
(lp1429
NaS'@@@Jsequence'
p1430
assg77
g1241
sg79
I00
sg80
S'2006-03-29 19:26'
p1431
sg82
g83
sg84
S'MG_JEN_Cohset'
p1432
sg86
S'** Specific description of inarg record for: MG_JEN_Cohset::Jones()  version=25dec2005  defined=2006-03-29 19:26'
p1433
sg88
(dp1434
g90
S'** JEN_inarg.attach(): attached: [simul_imp]./MG_JEN_Joneset.FJones()'
p1435
sg92
S'** JEN_inarg.attach(): attached: [simul_imp]./MG_JEN_Joneset.GJones()'
p1436
sg94
S'** JEN_inarg.attach(): attached: [simul_imp]./MG_JEN_Joneset.KJones()'
p1437
sg96
S'** JEN_inarg.attach(): attached: [simul_imp]./MG_JEN_Joneset.BJones()'
p1438
sg98
S'** JEN_inarg.attach(): attached: [simul_imp]./MG_JEN_Joneset.JJones()'
p1439
sg100
S'** JEN_inarg.attach(): attached: [simul_imp]./MG_JEN_Joneset.DJones_WSRT()'
p1440
ssg104
g1431
sg105
(dp1441
g26
I00
sg12
I00
sg2
I00
sg25
I00
ssg107
(lp1442
g18
ag25
ag2
ag29
ag28
ag27
ag12
ag26
ag1418
ag1252
aS'[simul_imp]./MG_JEN_Joneset.FJones()'
p1443
ag1179
aS'[simul_imp]./MG_JEN_Joneset.KJones()'
p1444
ag1324
aS'[simul_imp]./MG_JEN_Joneset.JJones()'
p1445
asg115
(dp1446
g2
g117
sg25
g118
sg26
g120
sg12
g121
sg27
g122
sg28
g122
sg1418
g119
sg29
g122
sssg1445
(dp1447
g126
I00
sg2
S'@@polrep'
p1448
sg128
I0
sg129
g130
sg131
I00
sg132
Nsg12
S'@@parmtable'
p1449
sg134
Nsg135
I01
sg136
I10
sg137
g138
sg139
g140
sg141
g142
sg143
Nsg18
(dp1450
g20
S'MG_JEN_Joneset::JJones()'
p1451
sg22
g1445
sg23
(dp1452
g137
I01
sg2
I01
sg147
I01
sg25
I01
sg129
I01
sg148
I01
sg141
I01
sg26
I01
sg143
I01
sg149
I01
sg12
I01
sg27
I01
sg28
I01
sg136
I01
sg29
I01
ssg123
g151
sg32
g33
sg34
S'MG_JEN_Joneset::JJones()  version=14feb2006  defined=2006-03-29 19:26'
p1453
sg36
S'JJones'
p1454
sg38
(dp1455
g126
(lp1456
I01
aI00
aS'@@reset_funklet'
p1457
asg2
(lp1458
g3
ag41
ag1448
asg128
(lp1459
I0
aI1
aI2
aI3
aS'@@tdeg_Jreal'
p1460
asg129
(lp1461
g130
aS'@@color'
p1462
asg131
(lp1463
I01
aI00
aS'@@save_all'
p1464
asg132
(lp1465
Na(lp1466
I14
aa(lp1467
I1
aag167
aS'@@all4_always'
p1468
asg12
(lp1469
Nag69
ag1449
asg134
(lp1470
NaI1
aI2
aI5
aI10
aI20
aI50
aI100
aI200
aI500
aS'@@subtile_size_Jreal'
p1471
asg135
(lp1472
I01
aI00
aS'@@auto_save'
p1473
asg136
(lp1474
I10
aS'@@size'
p1475
asg137
(lp1476
g138
aS'@@style'
p1477
asg139
(lp1478
I0
aI1
aI2
aI3
ag140
aS'@@tdeg_Jimag'
p1479
asg141
(lp1480
g142
aS'@@condeq_corrs'
p1481
asg143
(lp1482
NaS'@@funklet_shape'
p1483
asg27
(lp1484
g63
aS'@@@Jsequence_KJones'
p1485
asg186
(lp1486
I0
aI1
aI2
aI3
aS'@@fdeg_Jreal'
p1487
asg147
(lp1488
F1.0
aS'@@c00_default'
p1489
asg26
(lp1490
I00
aS'@@uvplane_effect'
p1491
asg193
(lp1492
I0
aI1
aI2
aI3
ag195
aS'@@fdeg_Jimag'
p1493
asg197
(lp1494
g199
aNaI1
aI2
aI5
aI10
aI20
aI50
aI100
aI200
aI500
aS'@@subtile_size_Jimag'
p1495
asg25
(lp1496
(lp1497
I0
aI1
aI2
aI3
aI4
aa(lp1498
I0
aI1
aI2
aI3
aI4
aI5
aI6
aa(lp1499
I0
aI1
aI2
aI3
aI4
aI5
aI6
aI7
aI8
aI9
aI10
aI11
aI12
aI13
aa(lp1500
I0
aI1
aI2
aI3
aI4
aI5
aI6
aI7
aI8
aI9
aI10
aI11
aI12
aI13
aI14
aag47
aS'@@stations'
p1501
asg207
(lp1502
I01
aI00
aS'@@diagonal_only'
p1503
asg210
(lp1504
I01
aI00
aS'@@use_previous'
p1505
asg148
(lp1506
NaS'@@subtile_size'
p1507
asg149
(lp1508
NaS'@@tfdeg'
p1509
asg28
(lp1510
g63
aS'@@@Jsequence_simul'
p1511
asg29
(lp1512
g63
aS'@@@Jsequence'
p1513
assg77
g1241
sg79
I00
sg80
S'2006-03-29 19:26'
p1514
sg82
g222
sg84
S'MG_JEN_Joneset'
p1515
sg224
(dp1516
g126
I00
sg207
I00
sg131
I00
sg135
I00
sg210
I00
ssg86
S'** Specific description of inarg record for: MG_JEN_Joneset::JJones()  version=14feb2006  defined=2006-03-29 19:26'
p1517
sg105
(dp1518
g26
I00
sg12
I00
sg2
I00
sg25
I00
ssg104
g1514
sg107
(lp1519
g18
ag25
ag2
ag29
ag28
ag27
ag207
ag132
ag12
ag26
ag128
ag139
ag186
ag193
ag134
ag197
ag210
ag135
ag131
ag126
ag129
ag137
ag136
ag147
ag149
ag143
ag148
ag141
asg115
(dp1520
g126
g230
sg2
g117
sg128
g231
sg129
g232
sg131
g233
sg132
g234
sg12
g121
sg134
g235
sg135
g236
sg136
g237
sg137
g238
sg139
g231
sg141
g239
sg143
g240
sg27
g122
sg186
g241
sg147
g242
sg26
g120
sg193
g241
sg197
g235
sg25
g118
sg207
g243
sg210
g244
sg148
g245
sg149
g246
sg28
g122
sg29
g122
ssg30
S'MG_JEN_JonesetJJones'
p1521
ssg27
g63
sg186
I0
sg147
F1.0
sg26
g1491
sg193
g195
sg197
g199
sg25
g1501
sg207
I00
sg210
I01
sg148
Nsg149
Nsg28
g63
sg29
g63
ssg27
Nsg28
Nsg29
Nsg1444
(dp1522
g2
S'@@polrep'
p1523
sg25
S'@@stations'
p1524
sg18
(dp1525
g20
S'MG_JEN_Joneset::KJones()'
p1526
sg22
g1444
sg23
(dp1527
g27
I01
sg28
I01
sg29
I01
sg2
I01
sg25
I01
ssg123
g254
sg32
g33
sg34
S'MG_JEN_Joneset::KJones()  version=12dec2005  defined=2006-03-29 19:26'
p1528
sg36
S'KJones'
p1529
sg38
(dp1530
g27
(lp1531
g58
aS'@@@Jsequence_KJones'
p1532
asg28
(lp1533
g58
aS'@@@Jsequence_simul'
p1534
asg29
(lp1535
g58
aS'@@@Jsequence'
p1536
asg2
(lp1537
g3
ag41
ag1523
asg25
(lp1538
(lp1539
I0
aI1
aI2
aI3
aI4
aa(lp1540
I0
aI1
aI2
aI3
aI4
aI5
aI6
aa(lp1541
I0
aI1
aI2
aI3
aI4
aI5
aI6
aI7
aI8
aI9
aI10
aI11
aI12
aI13
aa(lp1542
I0
aI1
aI2
aI3
aI4
aI5
aI6
aI7
aI8
aI9
aI10
aI11
aI12
aI13
aI14
aag47
ag1524
assg77
g1241
sg79
I00
sg80
S'2006-03-29 19:26'
p1543
sg82
g271
sg84
S'MG_JEN_Joneset'
p1544
sg86
S'** Specific description of inarg record for: MG_JEN_Joneset::KJones()  version=12dec2005  defined=2006-03-29 19:26'
p1545
sg105
(dp1546
g2
I00
sg25
I00
ssg104
g1543
sg107
(lp1547
g18
ag25
ag2
ag29
ag28
ag27
asg115
(dp1548
g27
g122
sg28
g122
sg29
g122
sg2
g117
sg25
g118
ssg30
S'MG_JEN_JonesetKJones'
p1549
ssg27
g58
sg28
g58
sg29
g58
ssg1418
(lp1550
sg1443
(dp1551
g126
I00
sg2
S'@@polrep'
p1552
sg129
g130
sg131
I00
sg149
Nsg135
I01
sg136
I10
sg137
g138
sg141
g142
sg143
Nsg18
(dp1553
g20
S'MG_JEN_Joneset::FJones()'
p1554
sg22
g1443
sg23
(dp1555
g137
I01
sg2
I01
sg147
I01
sg25
I01
sg129
I01
sg148
I01
sg141
I01
sg26
I01
sg143
I01
sg149
I01
sg12
I01
sg27
I01
sg28
I01
sg136
I01
sg29
I01
ssg123
g367
sg32
g33
sg34
S'MG_JEN_Joneset::FJones()  version=16dec2005  defined=2006-03-29 19:26'
p1556
sg36
S'FJones'
p1557
sg38
(dp1558
g126
(lp1559
I01
aI00
aS'@@reset_funklet'
p1560
asg2
(lp1561
g3
ag41
ag1552
asg129
(lp1562
g130
aS'@@color'
p1563
asg131
(lp1564
I01
aI00
aS'@@save_all'
p1565
asg149
(lp1566
NaS'@@tfdeg'
p1567
asg135
(lp1568
I01
aI00
aS'@@auto_save'
p1569
asg136
(lp1570
I10
aS'@@size'
p1571
asg137
(lp1572
g138
aS'@@style'
p1573
asg141
(lp1574
g142
aS'@@condeq_corrs'
p1575
asg143
(lp1576
NaS'@@funklet_shape'
p1577
asg27
(lp1578
g56
aS'@@@Jsequence_KJones'
p1579
asg29
(lp1580
g56
aS'@@@Jsequence'
p1581
asg147
(lp1582
F1.0
aS'@@c00_default'
p1583
asg26
(lp1584
I00
aS'@@uvplane_effect'
p1585
asg25
(lp1586
(lp1587
I0
aI1
aI2
aI3
aI4
aa(lp1588
I0
aI1
aI2
aI3
aI4
aI5
aI6
aa(lp1589
I0
aI1
aI2
aI3
aI4
aI5
aI6
aI7
aI8
aI9
aI10
aI11
aI12
aI13
aa(lp1590
I0
aI1
aI2
aI3
aI4
aI5
aI6
aI7
aI8
aI9
aI10
aI11
aI12
aI13
aI14
aag47
aS'@@stations'
p1591
asg404
(lp1592
I0
aI1
aI2
aI3
aS'@@tdeg_RM'
p1593
asg210
(lp1594
I01
aI00
aS'@@use_previous'
p1595
asg409
(lp1596
I0
aI1
aI2
aI3
aS'@@fdeg_RM'
p1597
asg148
(lp1598
NaS'@@subtile_size'
p1599
asg12
(lp1600
Nag69
aS'@@parmtable'
p1601
asg416
(lp1602
NaI1
aI2
aI5
aI10
aI20
aI50
aI100
aI200
aI500
aS'@@subtile_size_RM'
p1603
asg28
(lp1604
g56
aS'@@@Jsequence_simul'
p1605
assg77
g1241
sg79
I00
sg80
S'2006-03-29 19:26'
p1606
sg82
g351
sg84
S'MG_JEN_Joneset'
p1607
sg224
(dp1608
g126
I00
sg131
I00
sg135
I00
sg210
I00
ssg86
S'** Specific description of inarg record for: MG_JEN_Joneset::FJones()  version=16dec2005  defined=2006-03-29 19:26'
p1609
sg105
(dp1610
g26
I00
sg12
I00
sg2
I00
sg25
I00
ssg104
g1606
sg107
(lp1611
g18
ag25
ag2
ag29
ag28
ag27
ag12
ag26
ag404
ag409
ag416
ag210
ag135
ag131
ag126
ag129
ag137
ag136
ag147
ag149
ag143
ag148
ag141
asg115
(dp1612
g126
g230
sg2
g117
sg129
g232
sg131
g233
sg149
g246
sg135
g236
sg136
g237
sg137
g238
sg141
g239
sg143
g240
sg27
g122
sg29
g122
sg147
g242
sg26
g120
sg25
g118
sg404
g428
sg210
g244
sg409
g429
sg148
g245
sg12
g121
sg416
g430
sg28
g122
ssg30
S'MG_JEN_JonesetFJones'
p1613
ssg27
g56
sg29
g56
sg147
F1.0
sg26
g1585
sg25
g1591
sg404
I0
sg210
I01
sg409
I2
sg148
Nsg12
g1601
sg416
I1
sg28
g56
sssg29
NssS'[solve]./MG_JEN_Cohset.predict_cps()'
p1614
(dp1615
g2
S'@@polrep'
p1616
sg25
S'@@stations'
p1617
sg18
(dp1618
g20
S'MG_JEN_Cohset::predict_cps()'
p1619
sg22
g1614
sg23
(dp1620
g27
I01
sg28
I01
sg29
I01
sg2
I01
sg25
I01
ssg30
S'MG_JEN_Cohsetpredict_cps'
p1621
sg32
g33
sg34
S'MG_JEN_Cohset::predict_cps()  version=20mar2006  defined=2006-03-29 19:26'
p1622
sg36
S'predict_cps'
p1623
sg38
(dp1624
g27
(lp1625
NaS'@@@Jsequence_KJones'
p1626
asg28
(lp1627
NaS'@@@Jsequence_simul'
p1628
asg29
(lp1629
NaS'@@@Jsequence'
p1630
asg2
(lp1631
g3
ag41
ag1616
asg25
(lp1632
(lp1633
I0
aI1
aI2
aI3
aI4
aa(lp1634
I0
aI1
aI2
aI3
aI4
aI5
aI6
aa(lp1635
I0
aI1
aI2
aI3
aI4
aI5
aI6
aI7
aI8
aI9
aI10
aI11
aI12
aI13
aa(lp1636
I0
aI1
aI2
aI3
aI4
aI5
aI6
aI7
aI8
aI9
aI10
aI11
aI12
aI13
aI14
aag47
ag1617
assg77
g1022
sg79
I00
sg80
S'2006-03-29 19:26'
p1637
sg82
g1167
sg84
S'MG_JEN_Cohset'
p1638
sg86
S'** Specific description of inarg record for: MG_JEN_Cohset::predict_cps()  version=20mar2006  defined=2006-03-29 19:26'
p1639
sg105
(dp1640
g2
I00
sg25
I00
ssg104
g1637
sg107
(lp1641
g18
ag25
ag2
ag29
ag28
ag27
asg115
(dp1642
g27
g122
sg28
g122
sg29
g122
sg2
g117
sg25
g118
ssg123
g1177
ssg27
Nsg28
Nsg29
Nssg18
(dp1643
g22
S'./MG_JEN_simul.'
p1644
sg115
(dp1645
g27
g122
sg1
S'if True, add to existing uv-data (from MS column)'
p1646
sS'rms_noise_Jy'
p1647
S'rms noise, to be added'
p1648
sg2
g117
sS'master_reqseq'
p1649
S'if True, use a master reqseq for solver(s)'
p1650
sS'LSM_simul'
p1651
S'(file)name of a Local Sky Model to be used for simulation(instead of a predefined punit)'
p1652
sg25
g118
sS'redun'
p1653
S'if True, redundant spacing calibration'
p1654
sg14
S'if True, insert a solver'
p1655
sg10
S'name of the (AIPS++) Measurement Set'
p1656
sS'chain_solvers'
p1657
S'if True, chain the solvers (recommended)'
p1658
sS'num_cells'
p1659
S'if defined, ModRes argument [ntime,nfreq]'
p1660
sg12
g121
sg608
S'(file)name of a Local Sky Model to be used for solving(instead of a predefined punit)'
p1661
sg28
g122
sS'tile_size'
p1662
S'(inputrec) size (in time-slots) of the input data-tile'
p1663
sg26
g120
sg29
g122
ssS'reference'
p1664
I00
sg32
g33
sg84
S'MG_JEN_simul'
p1665
sg23
(dp1666
g27
I01
sg2
I00
sg1649
I01
sg1651
I00
sg25
I00
sS'last_changed'
p1667
I01
sg1653
I00
sg26
I00
sg1657
I01
sg1659
I00
sg608
I00
sg28
I01
sg29
I01
ssS'browse'
p1668
(dp1669
g10
S'*.MS'
p1670
sg1651
S'*.lsm'
p1671
sg608
g1671
ssg82
g507
sg123
S"\n    -------------------------------------------------------------\n    General description of the MeqTree TDL script MG_JEN_simul.py\n    -------------------------------------------------------------\n\n    The MG_JEN_simul.py script is used to put simulated visibilities into the\n    CORRECTED_DATA column of an existing Measurement Set (MS). The original DATA\n    in the MS are untouched. The advantage of this approach is that it is not\n    necessary to specify pointing centre, uv-coverage, spectral-window etc.\n\n    * The input source model is either an existing Local Sky Model (LSM),\n    or a 'punit' point source in the centre of the field.\n\n    * The nominal source visibilities may be corrupted by:\n      - various (uv-plane) Jones matrices\n      - image-plane effects from EJones and IJones (MIM)\n      - ifr-based errors (additive, multiplicative)\n      - noise\n\n    * Optionally, the simulated visibilities may be added to the existing uv-data,\n    either from the DATA column or the CORRECTED_DATA column of the MS\n\n    * Optionally, a parallel solver branch may be inserted, which uses the simulated\n    uv-data to solve for instrumental parameters. The latter may be compared with\n    the simulated instrumental parameters.\n\n    Different types of simulations may be specified by loading (and editing) socalled\n    'inarg' records from files (like this one). These contain input arguments\n    for generating a suitable MeqTree forest for the desired operation.\n    "
p1672
sg224
(dp1673
g1
I00
sg1649
I00
sg1653
I00
sg14
I00
sg1667
I00
ssg34
S'** Top-level CTRL-record of: MG_JEN_simul.inarg'
p1674
sg38
(dp1675
g27
(lp1676
NaS'@@@Jsequence_KJones'
p1677
asg1
(lp1678
I01
aI00
aS'@@add_to_existing'
p1679
asg1647
(lp1680
I0
aF0.01
aF0.10000000000000001
aI1
aS'@@rms_noise_Jy'
p1681
asg2
(lp1682
g3
ag41
aS'@@polrep'
p1683
asg1649
(lp1684
I01
aI00
aS'@@master_reqseq'
p1685
asg1651
(lp1686
NaS'@@LSM_simul'
p1687
asg25
(lp1688
(lp1689
I0
aI1
aI2
aI3
aI4
aa(lp1690
I0
aI1
aI2
aI3
aI4
aI5
aI6
aa(lp1691
I0
aI1
aI2
aI3
aI4
aI5
aI6
aI7
aI8
aI9
aI10
aI11
aI12
aI13
aa(lp1692
I0
aI1
aI2
aI3
aI4
aI5
aI6
aI7
aI8
aI9
aI10
aI11
aI12
aI13
aI14
aag47
aS'@@stations'
p1693
asg1667
(lp1694
S'd30jan2006'
p1695
aS'@@last_changed'
p1696
asg14
(lp1697
I01
aI00
aS'@@insert_solver'
p1698
asg1653
(lp1699
I01
aI00
aS'@@redun'
p1700
asg10
(lp1701
g11
aS'@@ms_name'
p1702
asg1657
(lp1703
I01
aS'@@chain_solvers'
p1704
asg1659
(lp1705
Na(lp1706
I5
aI2
aa(lp1707
I2
aI2
aa(lp1708
I3
aI3
aaS'@@num_cells'
p1709
asg12
(lp1710
Nag69
aS'@@parmtable'
p1711
asg608
(lp1712
NaS'@@LSM_solve'
p1713
asg28
(lp1714
NaS'@@@Jsequence_simul'
p1715
asg1662
(lp1716
I1
aI2
aI3
aI5
aI10
aI20
aI50
aI100
aS'@@tile_size'
p1717
asg26
(lp1718
I00
aS'@@uvplane_effect'
p1719
asg29
(lp1720
NaS'@@@Jsequence'
p1721
assg77
Nsg104
S'2006-03-29 19:26'
p1722
sS'HISTORY'
p1723
(dp1724
g90
S'2006-03-29 19:26: Derived from: MG_JEN_simul_DJones.inarg'
p1725
sg92
S'2006-03-29 19:26: Derived from: MG_JEN_simul.inarg'
p1726
ssg20
g9
sg86
S'Predefined inarg record for adding a single test-source to an LSM.'
p1727
sS'save_file'
p1728
S'MG_JEN_simul_DJones_protected.inarg'
p1729
sS'file_filter'
p1730
S'MG_JEN_simul*.inarg'
p1731
sg36
S''
p1732
sg79
I01
sg80
g1722
sg88
(dp1733
S'20'
p1734
S".modify():   ** OK ** (['Jsequence_solve_uvp', 'parmtable', 'solvegroup', 'num_iter', 'Jsequence_simul_uvp'])"
p1735
sS'21'
p1736
S".modify():   ** OK ** (['I0', 'Qpct', 'Vpct', 'SI', 'RM', 'Upct', 'punit'])"
p1737
sg90
S'  0: ./MG_JEN_simul. (qual=None): .modify(tile_size):   10  ->  1'
p1738
sg92
S'  0: ./MG_JEN_simul. (qual=None): .modify(uvplane_effect):   False  ->  True'
p1739
sg94
S'** JEN_inarg.separator(): : uv-data (MS) stream_control'
p1740
sg96
S".modify():   ** OK ** (['uvplane_effect', 'tile_size'])"
p1741
sg98
S'** JEN_inarg.attach(): attached: ./MG_JEN_Cohset.make_spigots()'
p1742
sg100
S'** JEN_inarg.attach(): attached: ./MG_JEN_exec.stream_control()'
p1743
sS'7'
p1744
S'** JEN_inarg.attach(): attached: [simul]./MG_JEN_Sixpack.newstar_source()'
p1745
sg102
S'** JEN_inarg.separator(): : uv-data simulation (LeafSet)'
p1746
sS'9'
p1747
S'** JEN_inarg.attach(): attached: [simul]./MG_JEN_Cohset.predict_cps()'
p1748
sS'8'
p1749
S'** JEN_inarg.attach(): attached: [simul_uvp]./MG_JEN_Cohset.Jones()'
p1750
sS'11'
p1751
S'** JEN_inarg.separator(): : solver-branch (ParmSet)'
p1752
sS'10'
p1753
S'** JEN_inarg.attach(): attached: [simul]./MG_JEN_Cohset.predict_lsm()'
p1754
sS'13'
p1755
S'** JEN_inarg.attach(): attached: [solve_uvp]./MG_JEN_Cohset.Jones()'
p1756
sS'12'
p1757
S'** JEN_inarg.attach(): attached: [solve]./MG_JEN_Sixpack.newstar_source()'
p1758
sS'15'
p1759
S'** JEN_inarg.attach(): attached: [solve]./MG_JEN_Cohset.predict_lsm()'
p1760
sS'14'
p1761
S'** JEN_inarg.attach(): attached: [solve]./MG_JEN_Cohset.predict_cps()'
p1762
sS'17'
p1763
S'** JEN_inarg.separator(): : finishing touches'
p1764
sS'16'
p1765
S'** JEN_inarg.attach(): attached: ./MG_JEN_Cohset.insert_solver()'
p1766
sS'19'
p1767
S'  0: ./MG_JEN_simul. (qual=None): .modify(parmtable):   None  ->  simul_DJones'
p1768
sS'18'
p1769
S'** JEN_inarg.attach(): attached: ./MG_JEN_Cohset.make_sinks()'
p1770
ssg107
(lp1771
g18
ag8
ag1667
ag10
ag1662
ag25
ag2
ag29
ag28
ag27
ag12
ag26
ag1657
ag1649
ag1653
ag1659
ag1
ag1647
ag14
ag4
aS'./MG_JEN_exec.stream_control()'
p1772
aS'./MG_JEN_Cohset.make_spigots()'
p1773
aS'_JEN_inarg_separator_record:_2'
p1774
ag1651
aS'[simul]./MG_JEN_Sixpack.newstar_source()'
p1775
ag609
aS'[simul]./MG_JEN_Cohset.predict_cps()'
p1776
ag1139
aS'_JEN_inarg_separator_record:_3'
p1777
ag608
ag1002
ag15
ag1614
aS'[solve]./MG_JEN_Cohset.predict_lsm()'
p1778
aS'./MG_JEN_Cohset.insert_solver()'
p1779
aS'_JEN_inarg_separator_record:_4'
p1780
aS'./MG_JEN_Cohset.make_sinks()'
p1781
assg1781
(dp1782
S'fullDomainMux'
p1783
I01
sS'output_col'
p1784
S'PREDICT'
p1785
sS'visu'
p1786
I01
sS'flag'
p1787
I00
sg18
(dp1788
g20
S'MG_JEN_Cohset::make_sinks()'
p1789
sg22
g1781
sg104
S'2006-03-29 19:26'
p1790
sg86
S'** Specific description of inarg record for: MG_JEN_Cohset::make_sinks()  version=25dec2005  defined=2006-03-29 19:26'
p1791
sg30
S'MG_JEN_Cohsetmake_sinks'
p1792
sg32
g33
sg34
S'MG_JEN_Cohset::make_sinks()  version=25dec2005  defined=2006-03-29 19:26'
p1793
sg36
S'make_sinks'
p1794
sg38
(dp1795
g1787
(lp1796
I01
aI00
aS'@@flag'
p1797
asg1786
(lp1798
I01
aI00
aS'@@visu'
p1799
asg1783
(lp1800
I01
aI00
aS'@@fullDomainMux'
p1801
asg1784
(lp1802
g1785
aS'RESIDUALS'
p1803
aS'DATA'
p1804
aS'@@output_col'
p1805
asS'visu_array_config'
p1806
(lp1807
I01
aI00
aS'@@visu_array_config'
p1808
assg77
Nsg82
g83
sg80
g1790
sg84
S'MG_JEN_Cohset'
p1809
sg224
(dp1810
g1787
I00
sg1786
I00
sg1783
I00
sg1806
I00
ssg79
I00
sg107
(lp1811
g18
ag1784
ag1806
ag1786
ag1787
ag1783
asg115
(dp1812
g1787
S'if True, insert a flagger for the output uv-data'
p1813
sg1786
S'if True, visualise the output uv-data'
p1814
sg1783
S'if True, attach an extra VisDataMux'
p1815
sg1784
S'name of the logical (VisTile) output column'
p1816
sg1806
S'if True, visualise the array config (from MS)'
p1817
ssg123
S'Make sink nodes in the given Cohset object'
p1818
ssg1806
I01
ssg27
Nsg1773
(dp1819
g1787
I00
sg1786
I01
sg18
(dp1820
g20
S'MG_JEN_Cohset::make_spigots()'
p1821
sg22
g1773
sg104
S'2006-03-29 19:26'
p1822
sg23
(dp1823
S'input_col'
p1824
I01
ssg30
S'MG_JEN_Cohsetmake_spigots'
p1825
sg32
g33
sg34
S'MG_JEN_Cohset::make_spigots()  version=25dec2005  defined=2006-03-29 19:26'
p1826
sg36
S'make_spigots'
p1827
sg38
(dp1828
g1787
(lp1829
I01
aI00
aS'@@flag'
p1830
asS'MS_corr_index'
p1831
(lp1832
(lp1833
I0
aI1
aI2
aI3
aa(lp1834
I0
aI-1
aI-1
aI1
aa(lp1835
I0
aI-1
aI-1
aI3
aaS'@@MS_corr_index'
p1836
asg1824
(lp1837
g1804
ag1785
ag1803
aS'@@input_col'
p1838
asg1786
(lp1839
I01
aI00
aS'@@visu'
p1840
assg77
Nsg82
g83
sg80
g1822
sg84
S'MG_JEN_Cohset'
p1841
sg224
(dp1842
g1787
I00
sg1786
I00
ssg86
S'** Specific description of inarg record for: MG_JEN_Cohset::make_spigots()  version=25dec2005  defined=2006-03-29 19:26'
p1843
sg79
I00
sg107
(lp1844
g18
ag1824
ag1831
ag1786
ag1787
asg115
(dp1845
g1787
S'if True, insert a flagger for the input uv-data'
p1846
sg1831
S'correlations to be used: \n- [0,1,2,3]:   all corrs available, use all \n- [0,-1,-1,1]: only XX/YY (or RR/LL) available \n- [0,-1,-1,3]: all available, but use only XX/YY or RR/LL'
p1847
sg1824
S'name of the logical (VisTile) input column'
p1848
sg1786
S'if True, visualise the input uv-data'
p1849
ssg123
S'Make spigot nodes in the given Cohset object'
p1850
ssg1824
g1804
sg1831
(lp1851
I0
aI1
aI2
aI3
assg1778
(dp1852
S'[solve_imp]./MG_JEN_Cohset.Jones()'
p1853
(dp1854
S'[solve_imp]./MG_JEN_Joneset.FJones()'
p1855
(dp1856
g126
I00
sg2
S'@@polrep'
p1857
sg129
g130
sg131
I00
sg149
Nsg135
I01
sg136
I10
sg137
g138
sg141
g142
sg143
Nsg18
(dp1858
g20
S'MG_JEN_Joneset::FJones()'
p1859
sg22
g1855
sg23
(dp1860
g137
I01
sg2
I01
sg147
I01
sg25
I01
sg129
I01
sg148
I01
sg141
I01
sg26
I01
sg143
I01
sg149
I01
sg12
I01
sg27
I01
sg28
I01
sg136
I01
sg29
I01
ssg123
g367
sg32
g33
sg34
S'MG_JEN_Joneset::FJones()  version=16dec2005  defined=2006-03-29 19:26'
p1861
sg36
S'FJones'
p1862
sg38
(dp1863
g126
(lp1864
I01
aI00
aS'@@reset_funklet'
p1865
asg2
(lp1866
g3
ag41
ag1857
asg129
(lp1867
g130
aS'@@color'
p1868
asg131
(lp1869
I01
aI00
aS'@@save_all'
p1870
asg149
(lp1871
NaS'@@tfdeg'
p1872
asg135
(lp1873
I01
aI00
aS'@@auto_save'
p1874
asg136
(lp1875
I10
aS'@@size'
p1876
asg137
(lp1877
g138
aS'@@style'
p1878
asg141
(lp1879
g142
aS'@@condeq_corrs'
p1880
asg143
(lp1881
NaS'@@funklet_shape'
p1882
asg27
(lp1883
g56
aS'@@@Jsequence_KJones'
p1884
asg29
(lp1885
g56
aS'@@@Jsequence'
p1886
asg147
(lp1887
F1.0
aS'@@c00_default'
p1888
asg26
(lp1889
I00
aS'@@uvplane_effect'
p1890
asg25
(lp1891
(lp1892
I0
aI1
aI2
aI3
aI4
aa(lp1893
I0
aI1
aI2
aI3
aI4
aI5
aI6
aa(lp1894
I0
aI1
aI2
aI3
aI4
aI5
aI6
aI7
aI8
aI9
aI10
aI11
aI12
aI13
aa(lp1895
I0
aI1
aI2
aI3
aI4
aI5
aI6
aI7
aI8
aI9
aI10
aI11
aI12
aI13
aI14
aag47
aS'@@stations'
p1896
asg404
(lp1897
I0
aI1
aI2
aI3
aS'@@tdeg_RM'
p1898
asg210
(lp1899
I01
aI00
aS'@@use_previous'
p1900
asg409
(lp1901
I0
aI1
aI2
aI3
aS'@@fdeg_RM'
p1902
asg148
(lp1903
NaS'@@subtile_size'
p1904
asg12
(lp1905
Nag69
aS'@@parmtable'
p1906
asg416
(lp1907
NaI1
aI2
aI5
aI10
aI20
aI50
aI100
aI200
aI500
aS'@@subtile_size_RM'
p1908
asg28
(lp1909
g56
aS'@@@Jsequence_simul'
p1910
assg77
S'solve_imp'
p1911
sg79
I00
sg80
S'2006-03-29 19:26'
p1912
sg82
g351
sg84
S'MG_JEN_Joneset'
p1913
sg224
(dp1914
g126
I00
sg131
I00
sg135
I00
sg210
I00
ssg86
S'** Specific description of inarg record for: MG_JEN_Joneset::FJones()  version=16dec2005  defined=2006-03-29 19:26'
p1915
sg105
(dp1916
g26
I00
sg12
I00
sg2
I00
sg25
I00
ssg104
g1912
sg107
(lp1917
g18
ag25
ag2
ag29
ag28
ag27
ag12
ag26
ag404
ag409
ag416
ag210
ag135
ag131
ag126
ag129
ag137
ag136
ag147
ag149
ag143
ag148
ag141
asg115
(dp1918
g126
g230
sg2
g117
sg129
g232
sg131
g233
sg149
g246
sg135
g236
sg136
g237
sg137
g238
sg141
g239
sg143
g240
sg27
g122
sg29
g122
sg147
g242
sg26
g120
sg25
g118
sg404
g428
sg210
g244
sg409
g429
sg148
g245
sg12
g121
sg416
g430
sg28
g122
ssg30
S'MG_JEN_JonesetFJones'
p1919
ssg27
g56
sg29
g56
sg147
F1.0
sg26
g1890
sg25
g1896
sg404
I0
sg210
I01
sg409
I2
sg148
Nsg12
g1906
sg416
I1
sg28
g56
ssg27
NsS'[solve_imp]./MG_JEN_Joneset.JJones()'
p1920
(dp1921
g126
I00
sg2
S'@@polrep'
p1922
sg128
I0
sg129
g130
sg131
I00
sg132
Nsg12
S'@@parmtable'
p1923
sg134
Nsg135
I01
sg136
I10
sg137
g138
sg139
g140
sg141
g142
sg143
Nsg18
(dp1924
g20
S'MG_JEN_Joneset::JJones()'
p1925
sg22
g1920
sg23
(dp1926
g137
I01
sg2
I01
sg147
I01
sg25
I01
sg129
I01
sg148
I01
sg141
I01
sg26
I01
sg143
I01
sg149
I01
sg12
I01
sg27
I01
sg28
I01
sg136
I01
sg29
I01
ssg123
g151
sg32
g33
sg34
S'MG_JEN_Joneset::JJones()  version=14feb2006  defined=2006-03-29 19:26'
p1927
sg36
S'JJones'
p1928
sg38
(dp1929
g126
(lp1930
I01
aI00
aS'@@reset_funklet'
p1931
asg2
(lp1932
g3
ag41
ag1922
asg128
(lp1933
I0
aI1
aI2
aI3
aS'@@tdeg_Jreal'
p1934
asg129
(lp1935
g130
aS'@@color'
p1936
asg131
(lp1937
I01
aI00
aS'@@save_all'
p1938
asg132
(lp1939
Na(lp1940
I14
aa(lp1941
I1
aag167
aS'@@all4_always'
p1942
asg12
(lp1943
Nag69
ag1923
asg134
(lp1944
NaI1
aI2
aI5
aI10
aI20
aI50
aI100
aI200
aI500
aS'@@subtile_size_Jreal'
p1945
asg135
(lp1946
I01
aI00
aS'@@auto_save'
p1947
asg136
(lp1948
I10
aS'@@size'
p1949
asg137
(lp1950
g138
aS'@@style'
p1951
asg139
(lp1952
I0
aI1
aI2
aI3
ag140
aS'@@tdeg_Jimag'
p1953
asg141
(lp1954
g142
aS'@@condeq_corrs'
p1955
asg143
(lp1956
NaS'@@funklet_shape'
p1957
asg27
(lp1958
g63
aS'@@@Jsequence_KJones'
p1959
asg186
(lp1960
I0
aI1
aI2
aI3
aS'@@fdeg_Jreal'
p1961
asg147
(lp1962
F1.0
aS'@@c00_default'
p1963
asg26
(lp1964
I00
aS'@@uvplane_effect'
p1965
asg193
(lp1966
I0
aI1
aI2
aI3
ag195
aS'@@fdeg_Jimag'
p1967
asg197
(lp1968
g199
aNaI1
aI2
aI5
aI10
aI20
aI50
aI100
aI200
aI500
aS'@@subtile_size_Jimag'
p1969
asg25
(lp1970
(lp1971
I0
aI1
aI2
aI3
aI4
aa(lp1972
I0
aI1
aI2
aI3
aI4
aI5
aI6
aa(lp1973
I0
aI1
aI2
aI3
aI4
aI5
aI6
aI7
aI8
aI9
aI10
aI11
aI12
aI13
aa(lp1974
I0
aI1
aI2
aI3
aI4
aI5
aI6
aI7
aI8
aI9
aI10
aI11
aI12
aI13
aI14
aag47
aS'@@stations'
p1975
asg207
(lp1976
I01
aI00
aS'@@diagonal_only'
p1977
asg210
(lp1978
I01
aI00
aS'@@use_previous'
p1979
asg148
(lp1980
NaS'@@subtile_size'
p1981
asg149
(lp1982
NaS'@@tfdeg'
p1983
asg28
(lp1984
g63
aS'@@@Jsequence_simul'
p1985
asg29
(lp1986
g63
aS'@@@Jsequence'
p1987
assg77
g1911
sg79
I00
sg80
S'2006-03-29 19:26'
p1988
sg82
g222
sg84
S'MG_JEN_Joneset'
p1989
sg224
(dp1990
g126
I00
sg207
I00
sg131
I00
sg135
I00
sg210
I00
ssg86
S'** Specific description of inarg record for: MG_JEN_Joneset::JJones()  version=14feb2006  defined=2006-03-29 19:26'
p1991
sg105
(dp1992
g26
I00
sg12
I00
sg2
I00
sg25
I00
ssg104
g1988
sg107
(lp1993
g18
ag25
ag2
ag29
ag28
ag27
ag207
ag132
ag12
ag26
ag128
ag139
ag186
ag193
ag134
ag197
ag210
ag135
ag131
ag126
ag129
ag137
ag136
ag147
ag149
ag143
ag148
ag141
asg115
(dp1994
g126
g230
sg2
g117
sg128
g231
sg129
g232
sg131
g233
sg132
g234
sg12
g121
sg134
g235
sg135
g236
sg136
g237
sg137
g238
sg139
g231
sg141
g239
sg143
g240
sg27
g122
sg186
g241
sg147
g242
sg26
g120
sg193
g241
sg197
g235
sg25
g118
sg207
g243
sg210
g244
sg148
g245
sg149
g246
sg28
g122
sg29
g122
ssg30
S'MG_JEN_JonesetJJones'
p1995
ssg27
g63
sg186
I0
sg147
F1.0
sg26
g1965
sg193
g195
sg197
g199
sg25
g1975
sg207
I00
sg210
I01
sg148
Nsg149
Nsg28
g63
sg29
g63
ssg25
S'@@stations'
p1996
sS'[solve_imp]./MG_JEN_Joneset.BJones()'
p1997
(dp1998
g126
I00
sg2
S'@@polrep'
p1999
sg129
g130
sg280
g281
sg131
I00
sg282
Nsg135
I01
sg136
I10
sg137
g138
sg283
I5
sg141
g142
sg143
Nsg18
(dp2000
g20
S'MG_JEN_Joneset::BJones()'
p2001
sg22
g1997
sg23
(dp2002
g137
I01
sg2
I01
sg147
I01
sg25
I01
sg129
I01
sg148
I01
sg141
I01
sg26
I01
sg143
I01
sg149
I01
sg12
I01
sg27
I01
sg28
I01
sg136
I01
sg29
I01
ssg123
g288
sg32
g33
sg34
S'MG_JEN_Joneset::BJones()  version=16dec2005  defined=2006-03-29 19:26'
p2003
sg36
S'BJones'
p2004
sg38
(dp2005
g126
(lp2006
I01
aI00
aS'@@reset_funklet'
p2007
asg2
(lp2008
g3
ag41
ag1999
asg129
(lp2009
g130
aS'@@color'
p2010
asg280
(lp2011
g281
aNaI1
aI2
aI5
aI10
aI20
aI50
aI100
aI200
aI500
aS'@@subtile_size_Bimag'
p2012
asg131
(lp2013
I01
aI00
aS'@@save_all'
p2014
asg282
(lp2015
NaI1
aI2
aI5
aI10
aI20
aI50
aI100
aI200
aI500
aS'@@subtile_size_Breal'
p2016
asg135
(lp2017
I01
aI00
aS'@@auto_save'
p2018
asg136
(lp2019
I10
aS'@@size'
p2020
asg137
(lp2021
g138
aS'@@style'
p2022
asg283
(lp2023
I3
aI4
aI5
aI6
aS'@@fdeg_Breal'
p2024
asg141
(lp2025
g142
aS'@@condeq_corrs'
p2026
asg143
(lp2027
NaS'@@funklet_shape'
p2028
asg27
(lp2029
g54
aS'@@@Jsequence_KJones'
p2030
asg317
(lp2031
I0
aI1
aI2
aI3
ag319
aS'@@tdeg_Bimag'
p2032
asg29
(lp2033
g54
aS'@@@Jsequence'
p2034
asg147
(lp2035
F1.0
aS'@@c00_default'
p2036
asg325
(lp2037
I3
aI4
aI5
aI6
ag327
aS'@@fdeg_Bimag'
p2038
asg26
(lp2039
I00
aS'@@uvplane_effect'
p2040
asg12
(lp2041
Nag69
aS'@@parmtable'
p2042
asg25
(lp2043
(lp2044
I0
aI1
aI2
aI3
aI4
aa(lp2045
I0
aI1
aI2
aI3
aI4
aI5
aI6
aa(lp2046
I0
aI1
aI2
aI3
aI4
aI5
aI6
aI7
aI8
aI9
aI10
aI11
aI12
aI13
aa(lp2047
I0
aI1
aI2
aI3
aI4
aI5
aI6
aI7
aI8
aI9
aI10
aI11
aI12
aI13
aI14
aag47
aS'@@stations'
p2048
asg339
(lp2049
I0
aI1
aI2
aI3
aS'@@tdeg_Breal'
p2050
asg210
(lp2051
I01
aI00
aS'@@use_previous'
p2052
asg148
(lp2053
NaS'@@subtile_size'
p2054
asg149
(lp2055
NaS'@@tfdeg'
p2056
asg28
(lp2057
g54
aS'@@@Jsequence_simul'
p2058
assg77
g1911
sg79
I00
sg80
S'2006-03-29 19:26'
p2059
sg82
g351
sg84
S'MG_JEN_Joneset'
p2060
sg224
(dp2061
g126
I00
sg131
I00
sg135
I00
sg210
I00
ssg86
S'** Specific description of inarg record for: MG_JEN_Joneset::BJones()  version=16dec2005  defined=2006-03-29 19:26'
p2062
sg105
(dp2063
g26
I00
sg12
I00
sg2
I00
sg25
I00
ssg104
g2059
sg107
(lp2064
g18
ag25
ag2
ag29
ag28
ag27
ag12
ag26
ag339
ag317
ag283
ag325
ag282
ag280
ag210
ag135
ag131
ag126
ag129
ag137
ag136
ag147
ag149
ag143
ag148
ag141
asg115
(dp2065
g126
g230
sg2
g117
sg129
g232
sg280
g358
sg131
g233
sg282
g358
sg135
g236
sg136
g237
sg137
g238
sg283
g359
sg141
g239
sg143
g240
sg27
g122
sg317
g360
sg29
g122
sg147
g242
sg325
g359
sg26
g120
sg12
g121
sg25
g118
sg339
g360
sg210
g244
sg148
g245
sg149
g246
sg28
g122
ssg30
S'MG_JEN_JonesetBJones'
p2066
ssg27
g54
sg317
g319
sg29
g54
sg147
F1.0
sg325
g327
sg26
g2040
sg25
g2048
sg149
Nsg339
I0
sg210
I01
sg148
Nsg12
g2042
sg28
g54
ssS'[solve_imp]./MG_JEN_Joneset.DJones_WSRT()'
p2067
(dp2068
g126
I00
sg2
S'@@polrep'
p2069
sg129
g130
sg520
g521
sg522
I01
sg131
I00
sg12
S'@@parmtable'
p2070
sg524
Nsg135
I01
sg136
I10
sg137
g138
sg141
g142
sg143
Nsg18
(dp2071
g20
S'MG_JEN_Joneset::DJones_WSRT()'
p2072
sg22
g2067
sg23
(dp2073
g137
I01
sg2
I01
sg147
I01
sg25
I01
sg129
I01
sg148
I01
sg141
I01
sg26
I01
sg143
I01
sg149
I01
sg12
I01
sg27
I01
sg28
I01
sg136
I01
sg29
I01
ssg123
g529
sg32
g33
sg34
S'MG_JEN_Joneset::DJones_WSRT()  version=16dec2005  defined=2006-03-29 19:26'
p2074
sg36
S'DJones_WSRT'
p2075
sg38
(dp2076
g126
(lp2077
I01
aI00
aS'@@reset_funklet'
p2078
asg2
(lp2079
g3
ag41
ag2069
asg129
(lp2080
g130
aS'@@color'
p2081
asg520
(lp2082
I0
aI1
aI2
aI3
ag521
aS'@@fdeg_Dell'
p2083
asg522
(lp2084
I01
aI00
aS'@@coupled_XY_Dell'
p2085
asg131
(lp2086
I01
aI00
aS'@@save_all'
p2087
asg12
(lp2088
Nag69
ag2070
asg524
(lp2089
NaI1
aI2
aI5
aI10
aI20
aI50
aI100
aI200
aI500
aS'@@subtile_size_Dang'
p2090
asg135
(lp2091
I01
aI00
aS'@@auto_save'
p2092
asg136
(lp2093
I10
aS'@@size'
p2094
asg137
(lp2095
g138
aS'@@style'
p2096
asg141
(lp2097
g142
aS'@@condeq_corrs'
p2098
asg143
(lp2099
NaS'@@funklet_shape'
p2100
asg27
(lp2101
g60
aS'@@@Jsequence_KJones'
p2102
asg559
(lp2103
g561
aNaI1
aI2
aI5
aI10
aI20
aI50
aI100
aI200
aI500
aS'@@subtile_size_Dell'
p2104
asg29
(lp2105
g60
aS'@@@Jsequence'
p2106
asg565
(lp2107
I0
aI1
aI2
aI3
aS'@@fdeg_Dang'
p2108
asg147
(lp2109
F1.0
aS'@@c00_default'
p2110
asg26
(lp2111
I00
aS'@@uvplane_effect'
p2112
asg572
(lp2113
I0
aI1
aI2
aI3
ag574
aS'@@tdeg_Dell'
p2114
asg576
(lp2115
I01
aI00
aS'@@coupled_XY_Dang'
p2116
asg579
(lp2117
I0
aI1
aI2
aI3
aS'@@tdeg_Dang'
p2118
asg25
(lp2119
(lp2120
I0
aI1
aI2
aI3
aI4
aa(lp2121
I0
aI1
aI2
aI3
aI4
aI5
aI6
aa(lp2122
I0
aI1
aI2
aI3
aI4
aI5
aI6
aI7
aI8
aI9
aI10
aI11
aI12
aI13
aa(lp2123
I0
aI1
aI2
aI3
aI4
aI5
aI6
aI7
aI8
aI9
aI10
aI11
aI12
aI13
aI14
aag47
aS'@@stations'
p2124
asg210
(lp2125
I01
aI00
aS'@@use_previous'
p2126
asg148
(lp2127
NaS'@@subtile_size'
p2128
asg149
(lp2129
NaS'@@tfdeg'
p2130
asg28
(lp2131
g60
aS'@@@Jsequence_simul'
p2132
assg77
g1911
sg79
I00
sg80
S'2006-03-29 19:26'
p2133
sg82
g351
sg84
S'MG_JEN_Joneset'
p2134
sg224
(dp2135
g126
I00
sg522
I00
sg131
I00
sg576
I00
sg210
I00
sg135
I00
ssg86
S'** Specific description of inarg record for: MG_JEN_Joneset::DJones_WSRT()  version=16dec2005  defined=2006-03-29 19:26'
p2136
sg105
(dp2137
g26
I00
sg12
I00
sg2
I00
sg25
I00
ssg104
g2133
sg107
(lp2138
g18
ag25
ag2
ag29
ag28
ag27
ag576
ag522
ag12
ag26
ag579
ag572
ag565
ag520
ag524
ag559
ag210
ag135
ag131
ag126
ag129
ag137
ag136
ag147
ag149
ag143
ag148
ag141
asg115
(dp2139
g126
g230
sg2
g117
sg129
g232
sg520
g603
sg522
g604
sg131
g233
sg12
g121
sg524
g605
sg135
g236
sg136
g237
sg137
g238
sg141
g239
sg143
g240
sg27
g122
sg559
g605
sg29
g122
sg565
g603
sg147
g242
sg26
g120
sg572
g606
sg576
g607
sg579
g606
sg25
g118
sg210
g244
sg148
g245
sg149
g246
sg28
g122
ssg30
S'MG_JEN_JonesetDJones_WSRT'
p2140
ssg27
g60
sg559
g561
sg29
g60
sg565
I0
sg147
F1.0
sg26
g2112
sg572
g574
sg576
I01
sg579
I0
sg25
g2124
sg210
I01
sg148
Nsg149
Nsg28
g60
ssg26
S'@@uvplane_effect'
p2141
sg12
S'@@parmtable'
p2142
sg18
(dp2143
g20
g21
sg22
g1853
sg23
(dp2144
g2
I01
sg25
I01
sg26
I01
sg12
I01
sg27
I01
sg28
I01
sg29
I01
ssg30
S'MG_JEN_CohsetJones'
p2145
sg32
g33
sg123
g124
sg34
S'MG_JEN_Cohset::Jones()  version=25dec2005  defined=2006-03-29 19:26'
p2146
sg36
S'Jones'
p2147
sg38
(dp2148
g2
(lp2149
g3
ag41
aS'@@polrep'
p2150
asg25
(lp2151
(lp2152
I0
aI1
aI2
aI3
aI4
aa(lp2153
I0
aI1
aI2
aI3
aI4
aI5
aI6
aa(lp2154
I0
aI1
aI2
aI3
aI4
aI5
aI6
aI7
aI8
aI9
aI10
aI11
aI12
aI13
aa(lp2155
I0
aI1
aI2
aI3
aI4
aI5
aI6
aI7
aI8
aI9
aI10
aI11
aI12
aI13
aI14
aag47
ag1996
asg26
(lp2156
I00
ag2141
asg12
(lp2157
Nag69
ag2142
asg27
(lp2158
NaS'@@@Jsequence_KJones'
p2159
asg28
(lp2160
NaS'@@@Jsequence_simul'
p2161
asS'Jsequence_solve_imp'
p2162
(lp2163
(lp2164
g52
aa(lp2165
g54
aa(lp2166
g56
aa(lp2167
g58
aa(lp2168
g60
aa(lp2169
g52
ag60
aa(lp2170
g63
aa(lp2171
aS'@@Jsequence_solve_imp'
p2172
asg29
(lp2173
NaS'@@@Jsequence'
p2174
assg77
g1911
sg79
I00
sg80
S'2006-03-29 19:26'
p2175
sg82
g83
sg84
S'MG_JEN_Cohset'
p2176
sg86
S'** Specific description of inarg record for: MG_JEN_Cohset::Jones()  version=25dec2005  defined=2006-03-29 19:26'
p2177
sg88
(dp2178
g90
S'** JEN_inarg.attach(): attached: [solve_imp]./MG_JEN_Joneset.FJones()'
p2179
sg92
S'** JEN_inarg.attach(): attached: [solve_imp]./MG_JEN_Joneset.GJones()'
p2180
sg94
S'** JEN_inarg.attach(): attached: [solve_imp]./MG_JEN_Joneset.KJones()'
p2181
sg96
S'** JEN_inarg.attach(): attached: [solve_imp]./MG_JEN_Joneset.BJones()'
p2182
sg98
S'** JEN_inarg.attach(): attached: [solve_imp]./MG_JEN_Joneset.JJones()'
p2183
sg100
S'** JEN_inarg.attach(): attached: [solve_imp]./MG_JEN_Joneset.DJones_WSRT()'
p2184
ssg104
g2175
sg105
(dp2185
g26
I00
sg12
I00
sg2
I00
sg25
I00
ssg107
(lp2186
g18
ag25
ag2
ag29
ag28
ag27
ag12
ag26
ag2162
aS'[solve_imp]./MG_JEN_Joneset.GJones()'
p2187
ag1855
ag1997
aS'[solve_imp]./MG_JEN_Joneset.KJones()'
p2188
ag2067
ag1920
asg115
(dp2189
g2
g117
sg25
g118
sg26
g120
sg12
g121
sg27
g122
sg28
g122
sg2162
g119
sg29
g122
sssg2187
(dp2190
g126
I00
sg2
S'@@polrep'
p2191
sg433
I0
sg129
g130
sg131
I00
sg12
S'@@parmtable'
p2192
sg135
I01
sg136
I10
sg137
g138
sg435
I1
sg141
g142
sg143
Nsg18
(dp2193
g20
S'MG_JEN_Joneset::GJones()'
p2194
sg22
g2187
sg23
(dp2195
g136
I01
sg137
I01
sg2
I01
sg147
I01
sg25
I01
sg129
I01
sg148
I01
sg141
I01
sg26
I01
sg143
I01
sg149
I01
sg12
I01
sg27
I01
sg28
I01
sg439
I01
sg29
I01
ssg123
g441
sg32
g33
sg34
S'MG_JEN_Joneset::GJones()  version=15dec2005  defined=2006-03-29 19:26'
p2196
sg36
S'GJones'
p2197
sg38
(dp2198
g126
(lp2199
I01
aI00
aS'@@reset_funklet'
p2200
asg2
(lp2201
g3
ag41
ag2191
asg433
(lp2202
I0
aI1
aI2
aI3
aS'@@fdeg_Ggain'
p2203
asg129
(lp2204
g130
aS'@@color'
p2205
asg131
(lp2206
I01
aI00
aS'@@save_all'
p2207
asg12
(lp2208
Nag69
ag2192
asg135
(lp2209
I01
aI00
aS'@@auto_save'
p2210
asg136
(lp2211
I10
aS'@@size'
p2212
asg137
(lp2213
g138
aS'@@style'
p2214
asg435
(lp2215
NaI1
aI2
aI5
aI10
aI20
aI50
aI100
aI200
aI500
aS'@@subtile_size_Ggain'
p2216
asg141
(lp2217
g142
aS'@@condeq_corrs'
p2218
asg143
(lp2219
NaS'@@funklet_shape'
p2220
asg27
(lp2221
g52
aS'@@@Jsequence_KJones'
p2222
asg29
(lp2223
g52
aS'@@@Jsequence'
p2224
asg147
(lp2225
F1.0
aS'@@c00_default'
p2226
asg473
(lp2227
I0
aI1
aI2
aI3
ag475
aS'@@tdeg_Gphase'
p2228
asg477
(lp2229
I0
aI1
aI2
aI3
aS'@@tdeg_Ggain'
p2230
asg480
(lp2231
I0
aI1
aI2
aI3
ag482
aS'@@fdeg_Gphase'
p2232
asg484
(lp2233
g486
aNaI1
aI2
aI5
aI10
aI20
aI50
aI100
aI200
aI500
aS'@@subtile_size_Gphase'
p2234
asg439
(lp2235
I01
aI00
aS'@@Gpolar'
p2236
asg26
(lp2237
I00
aS'@@uvplane_effect'
p2238
asg25
(lp2239
(lp2240
I0
aI1
aI2
aI3
aI4
aa(lp2241
I0
aI1
aI2
aI3
aI4
aI5
aI6
aa(lp2242
I0
aI1
aI2
aI3
aI4
aI5
aI6
aI7
aI8
aI9
aI10
aI11
aI12
aI13
aa(lp2243
I0
aI1
aI2
aI3
aI4
aI5
aI6
aI7
aI8
aI9
aI10
aI11
aI12
aI13
aI14
aag47
aS'@@stations'
p2244
asg210
(lp2245
I01
aI00
aS'@@use_previous'
p2246
asg148
(lp2247
NaS'@@subtile_size'
p2248
asg149
(lp2249
NaS'@@tfdeg'
p2250
asg28
(lp2251
g52
aS'@@@Jsequence_simul'
p2252
assg77
g1911
sg79
I00
sg80
S'2006-03-29 19:26'
p2253
sg82
g507
sg84
S'MG_JEN_Joneset'
p2254
sg224
(dp2255
g126
I00
sg439
I00
sg131
I00
sg135
I00
sg210
I00
ssg86
S'** Specific description of inarg record for: MG_JEN_Joneset::GJones()  version=15dec2005  defined=2006-03-29 19:26'
p2256
sg105
(dp2257
g26
I00
sg12
I00
sg2
I00
sg25
I00
ssg104
g2253
sg107
(lp2258
g18
ag25
ag2
ag29
ag28
ag27
ag439
ag12
ag26
ag477
ag473
ag433
ag480
ag435
ag484
ag210
ag135
ag131
ag126
ag129
ag137
ag136
ag147
ag149
ag143
ag148
ag141
asg115
(dp2259
g126
g230
sg2
g117
sg433
g514
sg129
g232
sg131
g233
sg12
g121
sg135
g236
sg136
g237
sg137
g238
sg435
g515
sg141
g239
sg143
g240
sg27
g122
sg29
g122
sg147
g242
sg473
g516
sg477
g516
sg480
g514
sg484
g515
sg439
g517
sg26
g120
sg25
g118
sg210
g244
sg148
g245
sg149
g246
sg28
g122
ssg30
S'MG_JEN_JonesetGJones'
p2260
ssg27
g52
sg29
g52
sg147
F1.0
sg473
g475
sg477
I0
sg480
g482
sg484
g486
sg439
I01
sg26
g2238
sg25
g2244
sg210
I01
sg148
Nsg149
Nsg28
g52
ssg2
g2150
sg28
Nsg2188
(dp2261
g2
S'@@polrep'
p2262
sg25
S'@@stations'
p2263
sg18
(dp2264
g20
S'MG_JEN_Joneset::KJones()'
p2265
sg22
g2188
sg23
(dp2266
g27
I01
sg28
I01
sg29
I01
sg2
I01
sg25
I01
ssg123
g254
sg32
g33
sg34
S'MG_JEN_Joneset::KJones()  version=12dec2005  defined=2006-03-29 19:26'
p2267
sg36
S'KJones'
p2268
sg38
(dp2269
g27
(lp2270
g58
aS'@@@Jsequence_KJones'
p2271
asg28
(lp2272
g58
aS'@@@Jsequence_simul'
p2273
asg29
(lp2274
g58
aS'@@@Jsequence'
p2275
asg2
(lp2276
g3
ag41
ag2262
asg25
(lp2277
(lp2278
I0
aI1
aI2
aI3
aI4
aa(lp2279
I0
aI1
aI2
aI3
aI4
aI5
aI6
aa(lp2280
I0
aI1
aI2
aI3
aI4
aI5
aI6
aI7
aI8
aI9
aI10
aI11
aI12
aI13
aa(lp2281
I0
aI1
aI2
aI3
aI4
aI5
aI6
aI7
aI8
aI9
aI10
aI11
aI12
aI13
aI14
aag47
ag2263
assg77
g1911
sg79
I00
sg80
S'2006-03-29 19:26'
p2282
sg82
g271
sg84
S'MG_JEN_Joneset'
p2283
sg86
S'** Specific description of inarg record for: MG_JEN_Joneset::KJones()  version=12dec2005  defined=2006-03-29 19:26'
p2284
sg105
(dp2285
g2
I00
sg25
I00
ssg104
g2282
sg107
(lp2286
g18
ag25
ag2
ag29
ag28
ag27
asg115
(dp2287
g27
g122
sg28
g122
sg29
g122
sg2
g117
sg25
g118
ssg30
S'MG_JEN_JonesetKJones'
p2288
ssg27
g58
sg28
g58
sg29
g58
ssg2162
(lp2289
sg29
Nssg2
S'@@polrep'
p2290
sg25
S'@@stations'
p2291
sg18
(dp2292
g20
g1144
sg22
g1778
sg23
(dp2293
g27
I01
sg28
I01
sg29
I01
sg2
I01
sg25
I01
ssg30
S'MG_JEN_Cohsetpredict_lsm'
p2294
sg32
g33
sg34
S'MG_JEN_Cohset::predict_lsm()  version=20mar2006  defined=2006-03-29 19:26'
p2295
sg36
S'predict_lsm'
p2296
sg38
(dp2297
g2
(lp2298
g3
ag41
ag2290
asg25
(lp2299
(lp2300
I0
aI1
aI2
aI3
aI4
aa(lp2301
I0
aI1
aI2
aI3
aI4
aI5
aI6
aa(lp2302
I0
aI1
aI2
aI3
aI4
aI5
aI6
aI7
aI8
aI9
aI10
aI11
aI12
aI13
aa(lp2303
I0
aI1
aI2
aI3
aI4
aI5
aI6
aI7
aI8
aI9
aI10
aI11
aI12
aI13
aI14
aag47
ag2291
asg1156
(lp2304
I1
aI2
aI3
aI5
aI10
aI20
aI100
aS'@@nr_lsm_sources'
p2305
asg27
(lp2306
NaS'@@@Jsequence_KJones'
p2307
asg28
(lp2308
NaS'@@@Jsequence_simul'
p2309
asg29
(lp2310
NaS'@@@Jsequence'
p2311
assg77
g1022
sg79
I00
sg80
S'2006-03-29 19:26'
p2312
sg82
g1167
sg84
S'MG_JEN_Cohset'
p2313
sg86
S'** Specific description of inarg record for: MG_JEN_Cohset::predict_lsm()  version=20mar2006  defined=2006-03-29 19:26'
p2314
sg88
(dp2315
g92
S'** JEN_inarg.attach(): attached: [solve_imp]./MG_JEN_Cohset.Jones()'
p2316
ssg104
g2312
sg105
(dp2317
g2
I00
sg25
I00
ssg107
(lp2318
g18
ag1156
ag25
ag2
ag29
ag28
ag27
ag1853
asg115
(dp2319
g2
g117
sg25
g118
sg1156
g1176
sg27
g122
sg28
g122
sg29
g122
ssg123
g1177
ssg1156
I1
sg27
Nsg28
Nsg29
Nssg29
Nsg1651
Nsg1667
g1695
sg26
I01
sg1659
Nsg1776
(dp2320
g2
S'@@polrep'
p2321
sg25
S'@@stations'
p2322
sg18
(dp2323
g20
g1619
sg22
g1776
sg23
(dp2324
g27
I01
sg28
I01
sg29
I01
sg2
I01
sg25
I01
ssg30
S'MG_JEN_Cohsetpredict_cps'
p2325
sg32
g33
sg34
S'MG_JEN_Cohset::predict_cps()  version=20mar2006  defined=2006-03-29 19:26'
p2326
sg36
S'predict_cps'
p2327
sg38
(dp2328
g27
(lp2329
NaS'@@@Jsequence_KJones'
p2330
asg28
(lp2331
NaS'@@@Jsequence_simul'
p2332
asg29
(lp2333
NaS'@@@Jsequence'
p2334
asg2
(lp2335
g3
ag41
ag2321
asg25
(lp2336
(lp2337
I0
aI1
aI2
aI3
aI4
aa(lp2338
I0
aI1
aI2
aI3
aI4
aI5
aI6
aa(lp2339
I0
aI1
aI2
aI3
aI4
aI5
aI6
aI7
aI8
aI9
aI10
aI11
aI12
aI13
aa(lp2340
I0
aI1
aI2
aI3
aI4
aI5
aI6
aI7
aI8
aI9
aI10
aI11
aI12
aI13
aI14
aag47
ag2322
assg77
g1165
sg79
I00
sg80
S'2006-03-29 19:26'
p2341
sg82
g1167
sg84
S'MG_JEN_Cohset'
p2342
sg86
S'** Specific description of inarg record for: MG_JEN_Cohset::predict_cps()  version=20mar2006  defined=2006-03-29 19:26'
p2343
sg105
(dp2344
g2
I00
sg25
I00
ssg104
g2341
sg107
(lp2345
g18
ag25
ag2
ag29
ag28
ag27
asg115
(dp2346
g27
g122
sg28
g122
sg29
g122
sg2
g117
sg25
g118
ssg123
g1177
ssg27
Nsg28
Nsg29
Nssg1647
F0.0
sg1649
I00
sg1662
I1
sg25
g1689
sg1780
(dp2347
g6
S'finishing touches'
p2348
ssg1772
(dp2349
S'channel_start_index'
p2350
I0
sS'data_column_name'
p2351
S'CORRECTED_DATA'
p2352
sS'predict_column'
p2353
g2352
sg10
S'@@ms_name'
p2354
sg18
(dp2355
g22
g1772
sg115
(dp2356
g2350
S'(inputrec.sel) index of first selected freq channel'
p2357
sg2351
S'(inputrec) MS input column'
p2358
sg2353
S'MS output column to be associated with the VisTile predict-column'
p2359
sg10
g1656
sg1662
g1663
sS'channel_increment'
p2360
S'(inputrec.sel) take every nth channel (1=all)'
p2361
sS'channel_end_index'
p2362
S'(inputrec.sel) index of last selected freq channel'
p2363
sS'write_flags'
p2364
S'(outputrec) if True, write flags to MS'
p2365
ssg32
g33
sg84
S'MG_JEN_exec'
p2366
sg23
(dp2367
g10
I01
sg1662
I01
ssg1668
(dp2368
g10
g1670
ssg82
S'20jan2006'
p2369
sg105
(dp2370
g10
I00
sg1662
I00
ssg123
S'** Description of script: MG_JEN_exec::stream_control()  version=20jan2006  defined=2006-03-29 19:26'
p2371
sg224
(dp2372
g2364
I00
ssg34
S'MG_JEN_exec::stream_control()  version=20jan2006  defined=2006-03-29 19:26'
p2373
sg38
(dp2374
g2350
(lp2375
I0
aI5
aI10
aI20
aS'@@channel_start_index'
p2376
asg2351
(lp2377
g1804
ag2352
aS'@@data_column_name'
p2378
asg2353
(lp2379
g1804
ag2352
aS'MODEL_DATA'
p2380
aS'@@predict_column'
p2381
asg10
(lp2382
g11
ag2354
asg1662
(lp2383
I1
aI2
aI3
aI5
aI10
aI20
aI50
aI100
aS'@@tile_size'
p2384
asg2360
(lp2385
I1
aI2
aI3
aI5
aI10
aS'@@channel_increment'
p2386
asg2362
(lp2387
I-1
aI25
aI50
aI100
aS'@@channel_end_index'
p2388
asg2364
(lp2389
I01
aI00
aS'@@write_flags'
p2390
assg77
Nsg104
S'2006-03-29 19:26'
p2391
sg20
S'MG_JEN_exec::stream_control()'
p2392
sg86
S'** Specific description of inarg record for: MG_JEN_exec::stream_control()  version=20jan2006  defined=2006-03-29 19:26'
p2393
sg30
S'MG_JEN_execstream_control'
p2394
sg36
S'stream_control'
p2395
sg79
I00
sg80
g2391
sg88
(dp2396
g90
S'  1: .../MG_JEN_exec.stream_control() (qual=None): .modify(channel_start_index):   10  ->  0'
p2397
sg92
S'  1: .../MG_JEN_exec.stream_control() (qual=None): .modify(data_column_name):   DATA  ->  CORRECTED_DATA'
p2398
sg96
S'  1: .../MG_JEN_exec.stream_control() (qual=None): .modify(channel_end_index):   50  ->  -1'
p2399
ssg107
(lp2400
g18
ag10
ag1662
ag2351
ag2350
ag2362
ag2360
ag2364
ag2353
assg1662
g2384
sg2360
I1
sg2362
I-1
sg2364
I00
ssg1653
I00
sg1777
(dp2401
g6
S'solver-branch (ParmSet)'
p2402
ssg1774
(dp2403
g6
S'uv-data simulation (LeafSet)'
p2404
ssg1657
I01
sg28
Nsg1775
(dp2405
g1004
F1000000.0
sg126
I00
sg1005
F0.0
sg1006
I00
sg129
g130
sg131
I00
sg1007
g1008
sg12
g13
sg1009
I-10
sg135
I01
sg136
I10
sg137
g138
sg1010
F1.0
sg148
Nsg141
g142
sg1011
Nsg143
Nsg1012
F0.0
sg18
(dp2406
g20
g1014
sg22
g1775
sg104
S'2006-03-29 19:26'
p2407
sg23
(dp2408
g1004
I01
sg1005
I01
sg1006
I01
sg1017
I01
sg147
I01
sg143
I01
sg129
I01
sg1007
I01
sg1018
I01
sg1019
I00
sg148
I01
sg1012
I01
sg141
I01
sg149
I01
sg137
I01
sg1020
I01
sg136
I01
ssg30
S'MG_JEN_Sixpacknewstar_source'
p2409
sg77
g1165
sg32
g33
sg34
S'MG_JEN_Sixpack::newstar_source()  version=10feb2006  defined=2006-03-29 19:26'
p2410
sg36
S'newstar_source'
p2411
sg38
(dp2412
g1004
(lp2413
F1000000.0
aS'@@f0'
p2414
asg126
(lp2415
I01
aI00
aS'@@reset_funklet'
p2416
asg1005
(lp2417
F0.0
aF1.0
aF10.0
aF100.0
aS'@@major'
p2418
asg1006
(lp2419
I01
aI00
aS'@@unsolvable'
p2420
asg129
(lp2421
g130
aS'@@color'
p2422
asg131
(lp2423
I01
aI00
aS'@@save_all'
p2424
asg1007
(lp2425
g1008
ag1039
aS'@@shape'
p2426
asg12
(lp2427
NaS'@@parmtable'
p2428
asg1009
(lp2429
NaF-0.10000000000000001
aF0.050000000000000003
aF-0.01
aS'@@Upct'
p2430
asg135
(lp2431
I01
aI00
aS'@@auto_save'
p2432
asg136
(lp2433
I10
aS'@@size'
p2434
asg137
(lp2435
g138
aS'@@style'
p2436
asg1010
(lp2437
F1.0
aF10.0
aS'@@I0'
p2438
asg148
(lp2439
NaS'@@subtile_size'
p2440
asg141
(lp2441
g142
aS'@@condeq_corrs'
p2442
asg1011
(lp2443
NaF0.01
aF-0.0050000000000000001
aF0.001
aS'@@Vpct'
p2444
asg143
(lp2445
NaS'@@funklet_shape'
p2446
asg1012
(lp2447
F0.0
aF1.0
aF-0.5
aS'@@pa'
p2448
asg1063
(lp2449
F0.0
aF0.5
aF1.0
aF1.4950000000000001
aF4.3570000000000002
aS'@@RA'
p2450
asg1066
(lp2451
NaF1.0
aF3.0
aF10.0
aF-10.0
aF60.0
aS'@@RM'
p2452
asg1020
(lp2453
F0.0
aF0.5
aF5.0
aF50.0
aS'@@minor'
p2454
asg147
(lp2455
F1.0
aS'@@c00_default'
p2456
asg1073
(lp2457
NaF0.10000000000000001
aF-0.050000000000000003
aF0.01
aS'@@Qpct'
p2458
asg1019
(lp2459
g1077
ag1078
ag1079
ag1080
ag1081
ag1082
ag1083
ag1084
ag1085
ag1086
ag1087
ag1088
ag1089
ag1090
ag1091
aS'@@punit'
p2460
asg1093
(lp2461
F0.5
aF1.0
aF0.87
aF1.0920000000000001
aS'@@Dec'
p2462
asg1017
(lp2463
NaS'@@name'
p2464
asg1018
(lp2465
I01
aI00
aS'@@fsr_trace'
p2466
asg210
(lp2467
I01
aI00
aS'@@use_previous'
p2468
asg1102
(lp2469
NaF-0.69999999999999996
a(lp2470
F0.44700000000000001
aF-0.184
aaS'@@SI'
p2471
asg149
(lp2472
NaS'@@tfdeg'
p2473
assg1108
(dp2474
g1019
I01
ssg82
g1110
sg80
g2407
sg84
S'MG_JEN_Sixpack'
p2475
sg224
(dp2476
g126
I00
sg1006
I00
sg1018
I00
sg131
I00
sg210
I00
sg135
I00
ssg86
S'** Specific description of inarg record for: MG_JEN_Sixpack::newstar_source()  version=10feb2006  defined=2006-03-29 19:26'
p2477
sg88
(dp2478
g90
S'  1: ..[simul]./MG_JEN_Sixpack.newstar_source() (qual=None): .modify(Qpct):   None  ->  10'
p2479
sg92
S'  1: ..[simul]./MG_JEN_Sixpack.newstar_source() (qual=None): .modify(parmtable):   None  ->  simul_DJones'
p2480
sg94
S'  1: ..[simul]./MG_JEN_Sixpack.newstar_source() (qual=None): .modify(punit):   unpol  ->  QU'
p2481
sg96
S'  1: ..[simul]./MG_JEN_Sixpack.newstar_source() (qual=None): .modify(Upct):   None  ->  -10'
p2482
ssg79
I00
sg107
(lp2483
g18
ag1019
ag1017
ag12
ag1006
ag1010
ag1073
ag1009
ag1011
ag1066
ag1102
ag1004
ag1063
ag1093
ag1018
ag1007
ag1005
ag1020
ag1012
ag210
ag135
ag131
ag126
ag129
ag137
ag136
ag147
ag149
ag143
ag148
ag141
asg115
(dp2484
g1004
g1121
sg126
g230
sg1005
g1122
sg1006
g1123
sg129
g232
sg131
g233
sg1007
g1124
sg12
g1125
sg1009
g1126
sg135
g236
sg136
g237
sg137
g238
sg1010
g1127
sg148
g245
sg141
g239
sg1011
g1128
sg143
g240
sg1012
g1129
sg1063
g1130
sg1066
g1131
sg1020
g1132
sg147
g242
sg1073
g1133
sg1019
S'name of calibrator source/patch \n- unpol:   unpolarised, I=1Jy \n- unpol2:  idem, I=2Jy \n- unpol10: idem, I=10Jy \n- RMtest:  Rotation Measure \n- SItest:  Spectral Index \n- QUV:     non-zero Q,U,V \n- QU:      non-zero Q,U \n- QU2:     stronger version of QU \n- Qonly:   non-zero Q \n- Uonly:   non-zero U \n- Vonly:   non-zero V \n- 3c286:   \n- 3c48:    \n- 3c295:   \n- 3c147:   \n- D1:      cps in D1.MS \n'
p2485
sg1093
g1135
sg1018
g1136
sg210
g244
sg1102
g1137
sg149
g246
ssg123
g1138
ssg1066
Nsg1020
F0.0
sg1063
F1.4950000000000001
sg147
F1.0
sg1073
I10
sg1019
g1081
sg1093
F0.87
sg1017
Nsg1018
I01
sg210
I01
sg1102
Nsg149
Nssg1779
(dp2486
S'correct_after'
p2487
I01
sg1649
S'@@master_reqseq'
p2488
sS'condeq_unop'
p2489
Nsg1786
I01
sg1653
S'@@redun'
p2490
sS'solver_subtree'
p2491
NsS'subtract_after'
p2492
I00
sg1657
S'@@chain_solvers'
p2493
sg18
(dp2494
g20
S'MG_JEN_Cohset::insert_solver()'
p2495
sg22
g1779
sg23
(dp2496
g1649
I01
sg1653
I01
sg2491
I01
sg1657
I01
sS'flag_residuals'
p2497
I01
sg1659
I01
ssg30
S'MG_JEN_Cohsetinsert_solver'
p2498
sg32
g33
sg34
S'MG_JEN_Cohset::insert_solver()  version=25dec2005  defined=2006-03-29 19:26'
p2499
sg36
S'insert_solver'
p2500
sg38
(dp2501
g2487
(lp2502
I01
aI00
aS'@@correct_after'
p2503
asg1649
(lp2504
I01
aI00
ag2488
asg2489
(lp2505
NaS'Abs'
p2506
aS'Arg'
p2507
aS'@@condeq_unop'
p2508
asg1786
(lp2509
I01
aI00
aS'@@visu'
p2510
asg1653
(lp2511
I01
aI00
ag2490
asg2491
(lp2512
NaS'@@solver_subtree'
p2513
asg2492
(lp2514
I01
aI00
aS'@@subtract_after'
p2515
asg1657
(lp2516
I01
ag2493
asg2497
(lp2517
I01
aI00
aS'@@flag_residuals'
p2518
asg1659
(lp2519
Na(lp2520
I5
aI2
aa(lp2521
I2
aI2
aa(lp2522
I3
aI3
aaS'@@num_cells'
p2523
assg77
Nsg79
I00
sg80
S'2006-03-29 19:26'
p2524
sg82
g83
sg84
S'MG_JEN_Cohset'
p2525
sg224
(dp2526
g2487
I00
sg1649
I00
sg1786
I00
sg1653
I00
sg2492
I00
sg2497
I00
ssg86
S'** Specific description of inarg record for: MG_JEN_Cohset::insert_solver()  version=25dec2005  defined=2006-03-29 19:26'
p2527
sg88
(dp2528
g92
S'** JEN_inarg.attach(): attached: ./MG_JEN_Cohset.solver_subtree()'
p2529
ssg104
g2524
sg105
(dp2530
g1653
I00
sg1657
I00
sg1649
I00
sg1659
I00
ssg107
(lp2531
g18
ag2491
ag1653
ag1659
ag1657
ag1649
ag2489
ag1786
ag2492
ag2487
ag2497
aS'./MG_JEN_Cohset.solver_subtree()'
p2532
asg115
(dp2533
g2487
S'if True, correct measured with predicted.Joneset'
p2534
sg1649
g1650
sg2489
S'Optional unary operation on Condeq inputs'
p2535
sg1786
S'if True, include full visualisation'
p2536
sg1653
g1654
sg2491
S'solver subtree qualifier(s)'
p2537
sg2492
S'if True, subtract predicted from measured'
p2538
sg1657
g1658
sg2497
S'if True, flag the residuals'
p2539
sg1659
g1660
ssg123
S'insert one or more solver subtrees in the data stream'
p2540
ssg1659
g2523
sg2532
(dp2541
S'rmin'
p2542
NsS'setBalanced'
p2543
I00
sg1786
I01
sS'epsilon'
p2544
F0.0001
sS'rmax'
p2545
NsS'derivative_eps'
p2546
F1e-08
sS'usesvd'
p2547
I01
sS'debug_level'
p2548
I10
sS'solvegroup'
p2549
(lp2550
S'DJones'
p2551
asg18
(dp2552
g20
S'MG_JEN_Cohset::solver_subtree()'
p2553
sg22
g2532
sg88
(dp2554
g90
S'  2: ...../MG_JEN_Cohset.solver_subtree() (qual=None): .modify(num_iter):   5  ->  2'
p2555
sg92
S"  2: ...../MG_JEN_Cohset.solver_subtree() (qual=None): .modify(solvegroup):   []  ->  ['DJones']"
p2556
ssg23
(dp2557
g2548
I01
sg2546
I01
sg2543
I01
sS'epsval'
p2558
I01
sg1659
I00
ssg30
S'MG_JEN_Cohsetsolver_subtree'
p2559
sg32
g33
sg123
S'Make a solver-subtree for the given Condeq Cohset'
p2560
sg34
S'MG_JEN_Cohset::solver_subtree()  version=20dec2005  defined=2006-03-29 19:26'
p2561
sg36
S'solver_subtree'
p2562
sg38
(dp2563
g2542
(lp2564
NaI100
aI200
aI500
aS'@@rmin'
p2565
asg1786
(lp2566
I01
aI00
aS'@@visu'
p2567
asg2544
(lp2568
F0.001
aF0.0001
aF1.0000000000000001e-05
aS'@@epsilon'
p2569
asS'colin_factor'
p2570
(lp2571
F1e-08
aF0.0
aS'@@colin_factor'
p2572
asg2545
(lp2573
NaI500
aI1000
aI2000
aS'@@rmax'
p2574
asg2546
(lp2575
F1e-08
aF0.001
aF0.0001
aF1.0000000000000001e-05
aS'@@derivative_eps'
p2576
asg2547
(lp2577
I01
aI00
aS'@@usesvd'
p2578
asg2548
(lp2579
I10
aS'@@debug_level'
p2580
asg2549
(lp2581
(lp2582
a(lp2583
g52
aa(lp2584
S'Ggain'
p2585
aa(lp2586
S'Gphase'
p2587
aa(lp2588
S'Gpol1'
p2589
aa(lp2590
S'Gpol2'
p2591
aa(lp2592
g63
aa(lp2593
g63
aS'stokesU'
p2594
aa(lp2595
g63
aS'stokesQ'
p2596
aa(lp2597
g63
aS'stokesV'
p2598
aa(lp2599
S'stokesQU'
p2600
ag63
aa(lp2601
S'stokesQUV'
p2602
ag63
aa(lp2603
g52
aS'stokesI'
p2604
aa(lp2605
g2604
aa(lp2606
S'stokesIQU'
p2607
aa(lp2608
S'stokesIQUV'
p2609
aa(lp2610
S'stokesIV'
p2611
aa(lp2612
g2600
aa(lp2613
g2602
aa(lp2614
g52
ag2551
aa(lp2615
g2551
aa(lp2616
S'Dang'
p2617
aa(lp2618
S'Dell'
p2619
aa(lp2620
S'Dreal'
p2621
aa(lp2622
S'Dimag'
p2623
aa(lp2624
g52
ag2551
ag56
aa(lp2625
g56
aa(lp2626
g52
ag54
aa(lp2627
g54
aa(lp2628
S'Breal'
p2629
aa(lp2630
S'Bimag'
p2631
aa(lp2632
S'Bpol1'
p2633
aa(lp2634
S'Bpol2'
p2635
aaS'@@solvegroup'
p2636
asg2558
(lp2637
F1e-08
aF0.001
aF0.0001
aF1.0000000000000001e-05
aS'@@epsval'
p2638
asg1659
(lp2639
Na(lp2640
I5
aI2
aa(lp2641
I2
aI2
aa(lp2642
I3
aI3
aaS'@@num_cells'
p2643
asg2543
(lp2644
I01
aI00
aS'@@setBalanced'
p2645
asS'num_iter'
p2646
(lp2647
I1
aI3
aI5
aI10
aI20
aS'@@num_iter'
p2648
asS'condition'
p2649
(lp2650
NaS'Gphase_X_sum=0.0'
p2651
aS'Gphase_Y_sum=0.0'
p2652
a(lp2653
g2651
ag2652
aa(lp2654
S'Gphase_X_first=0.0'
p2655
aS'Gphase_Y_first=0.0'
p2656
aa(lp2657
S'Gphase_X_last=0.0'
p2658
aS'Gphase_Y_last=0.0'
p2659
aaS'Dang_sum=0.0'
p2660
a(lp2661
S'Bimag_X_sum=0.0'
p2662
aS'Bimag_Y_sum=0.0'
p2663
aa(lp2664
S'Breal_X_product=1.0'
p2665
aS'Breal_Y_product=1.0'
p2666
aaS'@@condition'
p2667
asS'history'
p2668
(lp2669
I01
aI00
aS'@@history'
p2670
assg77
Nsg82
S'20dec2005'
p2671
sg80
S'2006-03-29 19:26'
p2672
sg84
S'MG_JEN_Cohset'
p2673
sg224
(dp2674
g2547
I00
sg2543
I00
sg1786
I00
sg2668
I00
ssg86
S'** Specific description of inarg record for: MG_JEN_Cohset::solver_subtree()  version=20dec2005  defined=2006-03-29 19:26'
p2675
sg79
I00
sg104
g2672
sg107
(lp2676
g18
ag2549
ag2649
ag2542
ag2545
ag1659
ag2646
ag2544
ag2558
ag2546
ag2570
ag2547
ag2543
ag2548
ag1786
ag2668
asg115
(dp2677
g2542
S'if specified, only use baselines>=rmin'
p2678
sg1786
S'if True, include visualisation'
p2679
sg2544
S'iteration control criterion...'
p2680
sg2570
S'colinearity factor'
p2681
sg2545
S'if specified, only use baselines<=rmax'
p2682
sg2546
S'NEW: also iteration control...'
p2683
sg2547
S'if True, use Singular Value Decomposition (SVD)'
p2684
sg2548
S'solver debug_level'
p2685
sg2549
S'group (list) of parmgroups, to be solved for:\n- [GJones]:  all GJones MeqParms\n- [Ggain]:   GJones station gains (both pols)\n- [Gphase]:  GJones station phases (both pols)\n- [Gpol1]:   All GJones MeqParms for pol1 (X or R)\n- [Gpol2]:   All GJones MeqParms for pol2 (Y or L)\n- [JJones,stokesU]:     actually solves for U!\n- [JJones,stokesQ]:     -> zero Q(?), but better freq sol(?)\n- [JJones,stokesV]:     -> punit V(?)...\n- [stokesI]:    stokes I (incl SI(f), if relevant)\n- [stokesIQU]:  stokes I,Q,U (incl RM and SI(f))\n- [stokesIQUV]: stokes I,Q,U,V (incl RM and SI(f))'
p2686
sg2558
S'NEW: WNB version of epsilon....'
p2687
sg1659
g1660
sg2543
S'NEW: if True, add (..) to diagonal, otherwise multiply (1+lambda)'
p2688
sg2646
S'max number of iterations (now also in fitter)'
p2689
sg2649
S'(list of) extra condition equations:\n- [...phase_sum=0.0]:   sum of phases = zero\n- [...phase_first=0.0]: phase of first station = zero\n- [...phase_last=0.0]:  phase of last station = zero\n- [Dang_sum=0.0]:   sum of dipole pos.angle errors = zero\n- [...imag_sum=0.0]:   sum of imag.parts = zero\n- [...real_product=1.0]:   product of real.parts = unity'
p2690
sg2668
S'if True, include history collection of metrics'
p2691
sssg1659
Nsg2558
F1e-08
sg2668
I01
sg2646
I2
sg2649
Nsg2570
F0.0
ssg2497
I00
ss.