(dp0
S'add_to_existing'
p1
I00
sS'polrep'
p2
S'linear'
p3
sS'external_uvp_Joneset'
p4
I00
sS'_JEN_inarg_separator_record:_1'
p5
(dp6
S'txt'
p7
S'uv-data (MS) stream_control'
p8
ssS'script_name'
p9
S'MG_JEN_simul'
p10
sS'ms_name'
p11
S'D1.MS'
p12
sS'parmtable'
p13
S'simul_DJones'
p14
sS'insert_solver'
p15
I00
sS'use_same_LSM'
p16
I01
sS'[simul]./MG_JEN_lsm.get_lsm()'
p17
(dp18
S'saveAs'
p19
NsS'test_pattern'
p20
S'single'
p21
sS'[simul]./MG_JEN_lsm.add_single()'
p22
(dp23
S'[simul_single]./MG_JEN_Sixpack.newstar_source()'
p24
(dp25
S'f0'
p26
F1000000.0
sS'reset_funklet'
p27
I00
sS'major'
p28
F0.0
sS'unsolvable'
p29
I00
sS'color'
p30
S'red'
p31
sS'save_all'
p32
I00
sS'shape'
p33
S'point'
p34
sg13
g14
sS'Upct'
p35
I-10
sS'unit'
p36
NsS'size'
p37
I10
sS'style'
p38
S'circle'
p39
sS'descr'
p40
S'<descr>'
p41
sS'I0'
p42
F1.0
sS'subtile_size'
p43
NsS'condeq_corrs'
p44
S'*'
p45
sS'Vpct'
p46
NsS'funklet_shape'
p47
NsS'pa'
p48
F0.0
sS'_JEN_inarg_CTRL_record:'
p49
(dp50
S'localscope'
p51
g24
sS'help'
p52
(dp53
g26
S'reference freq (Hz): I=I0 @ f=f0'
p54
sg27
S'if True, do NOT use any MeqParm table values when solvable'
p55
sg28
S'major axis (arcsec)'
p56
sg29
S'if True, do NOT store solvegroup/parmgroup info'
p57
sg30
S'plot_color'
p58
sg32
S'if True, save the update result even if not converged'
p59
sg33
S'source shape'
p60
sg13
S'name of the MeqParm table (AIPS++)'
p61
sg35
S'Stokes U (percentage of I)'
p62
sg36
g36
sg37
S'size of plotted symbol'
p63
sg38
S'plot_style'
p64
sg40
S'brief description'
p65
sg42
S'Stokes I: Total intensity @ f=f0 (usually 1 MHz)'
p66
sg43
S'size (time-slots) of a domain sub-tile'
p67
sg44
S'correlations to be used for solving'
p68
sg46
S'Stokes V (percentage of I)'
p69
sg47
S'shape [time,freq] of default funklet'
p70
sg48
S'position angle (rad)'
p71
sS'RA'
p72
S'Right Ascension (rad, J2000)'
p73
sS'RM'
p74
S'Intrinsic Rotation Measure (rad/m2)'
p75
sS'minor'
p76
S'minor axis (arcsec)'
p77
sS'c00_default'
p78
S'default value of c[0,0] coefficient'
p79
sS'Qpct'
p80
S'Stokes Q (percentage of I)'
p81
sS'punit'
p82
S'name of calibrator source/patch \n- unpol:     unpolarised, I=1Jy \n- unpol2:    idem, I=2Jy \n- unpol10:   idem, I=10Jy \n- RMtest:    Rotation Measure \n- SItest:    Spectral Index \n- ellgauss:  Elliptic Gaussian \n- QUV:       non-zero Q,U,V \n- QU:        non-zero Q,U \n- QU2:       stronger version of QU \n- Qonly:     non-zero Q \n- Uonly:     non-zero U \n- Vonly:     non-zero V \n- 3c286:     \n- 3c48:      \n- 3c295:     \n- 3c147:     \n- D1:        cps in D1.MS \n'
p83
sS'Dec'
p84
S'Declination (rad, J2000)'
p85
sS'fsr_trace'
p86
S'If True, attach to forest state record'
p87
sS'use_previous'
p88
S'if True, start with the previous solution'
p89
sS'SI'
p90
S'Spectral Index (generalised)\n   A scalar represents the classical SI: I(f)=I0*(f/f0)^SI\n   A vector represents a freq-dependent SI (....)'
p91
sS'tfdeg'
p92
S'(time,freq) polynomial degree'
p93
sS'auto_save'
p94
S'if True, save the result of every iteration (slow!)'
p95
ssS'target_dir'
p96
S'.'
p97
sS'target_module'
p98
S'MG_JEN_Sixpack'
p99
sS'hide'
p100
(dp101
g26
I01
sg28
I01
sg29
I01
sS'name'
p102
I01
sg40
I01
sg47
I01
sg30
I01
sg33
I01
sg86
I01
sg82
I00
sg43
I01
sg48
I01
sg44
I01
sg92
I01
sg36
I01
sg78
I01
sg38
I01
sg76
I01
sg37
I01
ssS'version'
p103
S'10feb2006'
p104
sS'description'
p105
S'Make a Sixpack (I,Q,U,V,Ra,Dec) for a source with NEWSTAR parametrisation'
p106
sS'editable'
p107
(dp108
g27
I00
sg29
I00
sg86
I00
sg32
I00
sg88
I00
sg94
I00
ssS'oneliner'
p109
S'MG_JEN_Sixpack::newstar_source()  version=10feb2006  defined=2006-04-07 15:06'
p110
sS'choice'
p111
(dp112
g26
(lp113
F1000000.0
aS'@@f0'
p114
asg27
(lp115
I01
aI00
aS'@@reset_funklet'
p116
asg28
(lp117
F0.0
aF1.0
aF10.0
aF100.0
aS'@@major'
p118
asg29
(lp119
I01
aI00
aS'@@unsolvable'
p120
asg30
(lp121
g31
aS'@@color'
p122
asg32
(lp123
I01
aI00
aS'@@save_all'
p124
asg33
(lp125
g34
aS'ell.gauss'
p126
aS'@@shape'
p127
asg13
(lp128
NaS'@@parmtable'
p129
asg35
(lp130
NaF-0.10000000000000001
aF0.050000000000000003
aF-0.01
aS'@@Upct'
p131
asg36
(lp132
NaS'@@unit'
p133
asg37
(lp134
I10
aS'@@size'
p135
asg38
(lp136
g39
aS'@@style'
p137
asg40
(lp138
g41
aS'@@descr'
p139
asg42
(lp140
F1.0
aF10.0
aS'@@I0'
p141
asg43
(lp142
NaS'@@subtile_size'
p143
asg44
(lp144
g45
aS'@@condeq_corrs'
p145
asg46
(lp146
NaF0.01
aF-0.0050000000000000001
aF0.001
aS'@@Vpct'
p147
asg47
(lp148
NaS'@@funklet_shape'
p149
asg48
(lp150
F0.0
aF1.0
aF-0.5
aS'@@pa'
p151
asg72
(lp152
F0.0
aF0.5
aF1.0
aF1.4950000000000001
aF4.3570000000000002
aS'@@RA'
p153
asg74
(lp154
NaF1.0
aF3.0
aF10.0
aF-10.0
aF60.0
aS'@@RM'
p155
asg76
(lp156
F0.0
aF0.5
aF5.0
aF50.0
aS'@@minor'
p157
asg78
(lp158
F1.0
aS'@@c00_default'
p159
asg80
(lp160
NaF0.10000000000000001
aF-0.050000000000000003
aF0.01
aS'@@Qpct'
p161
asg82
(lp162
S'unpol'
p163
aS'unpol2'
p164
aS'unpol10'
p165
aS'QUV'
p166
aS'QU'
p167
aS'Qonly'
p168
aS'Uonly'
p169
aS'Vonly'
p170
aS'3c147'
p171
aS'3c286'
p172
aS'3c48'
p173
aS'3c295'
p174
aS'D1'
p175
aS'RMtest'
p176
aS'SItest'
p177
aS'ellgauss'
p178
aS'@@punit'
p179
asg84
(lp180
F0.5
aF1.0
aF0.87
aF1.0920000000000001
aS'@@Dec'
p181
asg102
(lp182
NaS'@@name'
p183
asg86
(lp184
I01
aI00
aS'@@fsr_trace'
p185
asg88
(lp186
I01
aI00
aS'@@use_previous'
p187
asg90
(lp188
NaF-0.69999999999999996
a(lp189
F0.44700000000000001
aF-0.184
aaS'@@SI'
p190
asg92
(lp191
NaS'@@tfdeg'
p192
asg94
(lp193
I01
aI00
aS'@@auto_save'
p194
assS'qual'
p195
S'simul_single'
p196
sS'last_edited'
p197
S'2006-04-07 15:06'
p198
sS'target_definition'
p199
S'MG_JEN_Sixpack::newstar_source()'
p200
sS'inarg_specific'
p201
S'** Specific description of inarg record for: MG_JEN_Sixpack::newstar_source()  version=10feb2006  defined=2006-04-07 15:06'
p202
sS'barescope'
p203
S'MG_JEN_Sixpacknewstar_source'
p204
sS'target_function'
p205
S'newstar_source'
p206
sS'callback'
p207
(dp208
g82
I01
ssS'available_inargs'
p209
S'** Description of available inarg record(s) for: MG_JEN_Sixpack::newstar_source()  version=10feb2006  defined=2006-04-07 15:06'
p210
sS'protected'
p211
I00
sS'datetime_defined'
p212
g198
sS'MESSAGE'
p213
(dp214
S'1'
p215
S'  3: ......[simul_single]./MG_JEN_Sixpack.newstar_source() (qual=None): .modify(Qpct):   None  ->  10'
p216
sS'0'
p217
S'  3: ......[simul_single]./MG_JEN_Sixpack.newstar_source() (qual=None): .modify(parmtable):   None  ->  simul_DJones'
p218
sS'3'
p219
S'  3: ......[simul_single]./MG_JEN_Sixpack.newstar_source() (qual=None): .modify(punit):   unpol  ->  QU'
p220
sS'2'
p221
S'  3: ......[simul_single]./MG_JEN_Sixpack.newstar_source() (qual=None): .modify(Upct):   None  ->  -10'
p222
ssS'order'
p223
(lp224
g49
ag82
ag102
ag13
ag29
ag42
ag80
ag35
ag46
ag74
ag90
ag26
ag72
ag84
ag86
ag33
ag28
ag76
ag48
ag88
ag94
ag32
ag27
ag40
ag36
ag30
ag38
ag37
ag78
ag92
ag47
ag43
ag44
assg74
Nsg76
F0.0
sg72
F1.4950000000000001
sg78
F1.0
sg80
I10
sg82
g167
sg84
F0.87
sg102
Nsg86
I01
sg88
I01
sg90
Nsg92
Nsg94
I01
ssg49
(dp225
g199
S'MG_JEN_lsm::add_single()'
p226
sg51
g22
sg201
S'** Specific description of inarg record for: MG_JEN_lsm::add_single()  version=10feb2006  defined=2006-04-07 15:06'
p227
sg105
S'Add a test-source (Sixpack) to the given lsm'
p228
sg96
g97
sg109
S'MG_JEN_lsm::add_single()  version=10feb2006  defined=2006-04-07 15:06'
p229
sg205
S'add_single'
p230
sg195
S'simul'
p231
sg209
S'** Description of available inarg record(s) for: MG_JEN_lsm::add_single()  version=10feb2006  defined=2006-04-07 15:06'
p232
sg211
I00
sg212
S'2006-04-07 15:06'
p233
sg103
g104
sg98
S'MG_JEN_lsm'
p234
sg213
(dp235
g217
S'** JEN_inarg.attach(): attached: [simul_single]./MG_JEN_Sixpack.newstar_source()'
p236
ssg197
g233
sg223
(lp237
g49
ag24
asg203
S'MG_JEN_lsmadd_single'
p238
sssS'[simul]./MG_JEN_lsm.add_grid()'
p239
(dp240
S'taper'
p241
F1.0
sS'[simul_grid]./MG_JEN_Sixpack.newstar_source()'
p242
(dp243
g26
F1000000.0
sg27
I00
sg28
F0.0
sg29
I00
sg30
g31
sg32
I00
sg33
g34
sg13
g14
sg35
I-10
sg36
Nsg37
I10
sg38
g39
sg40
g41
sg42
F1.0
sg43
Nsg44
g45
sg46
Nsg47
Nsg48
F0.0
sg49
(dp244
g51
g242
sg52
(dp245
g26
g54
sg27
g55
sg28
g56
sg29
g57
sg30
g58
sg32
g59
sg33
g60
sg13
g61
sg35
g62
sg36
g36
sg37
g63
sg38
g64
sg40
g65
sg42
g66
sg43
g67
sg44
g68
sg46
g69
sg47
g70
sg48
g71
sg72
g73
sg74
g75
sg76
g77
sg78
g79
sg80
g81
sg82
S'name of calibrator source/patch \n- unpol:     unpolarised, I=1Jy \n- unpol2:    idem, I=2Jy \n- unpol10:   idem, I=10Jy \n- RMtest:    Rotation Measure \n- SItest:    Spectral Index \n- ellgauss:  Elliptic Gaussian \n- QUV:       non-zero Q,U,V \n- QU:        non-zero Q,U \n- QU2:       stronger version of QU \n- Qonly:     non-zero Q \n- Uonly:     non-zero U \n- Vonly:     non-zero V \n- 3c286:     \n- 3c48:      \n- 3c295:     \n- 3c147:     \n- D1:        cps in D1.MS \n'
p246
sg84
g85
sg86
g87
sg88
g89
sg90
g91
sg92
g93
sg94
g95
ssg96
g97
sg98
S'MG_JEN_Sixpack'
p247
sg100
(dp248
g26
I01
sg28
I01
sg29
I01
sg102
I01
sg40
I01
sg47
I01
sg30
I01
sg33
I01
sg86
I01
sg82
I00
sg43
I01
sg48
I01
sg44
I01
sg92
I01
sg36
I01
sg78
I01
sg38
I01
sg76
I01
sg37
I01
ssg103
g104
sg105
g106
sg107
(dp249
g27
I00
sg29
I00
sg86
I00
sg32
I00
sg88
I00
sg94
I00
ssg109
S'MG_JEN_Sixpack::newstar_source()  version=10feb2006  defined=2006-04-07 15:06'
p250
sg111
(dp251
g26
(lp252
F1000000.0
aS'@@f0'
p253
asg27
(lp254
I01
aI00
aS'@@reset_funklet'
p255
asg28
(lp256
F0.0
aF1.0
aF10.0
aF100.0
aS'@@major'
p257
asg29
(lp258
I01
aI00
aS'@@unsolvable'
p259
asg30
(lp260
g31
aS'@@color'
p261
asg32
(lp262
I01
aI00
aS'@@save_all'
p263
asg33
(lp264
g34
ag126
aS'@@shape'
p265
asg13
(lp266
NaS'@@parmtable'
p267
asg35
(lp268
NaF-0.10000000000000001
aF0.050000000000000003
aF-0.01
aS'@@Upct'
p269
asg36
(lp270
NaS'@@unit'
p271
asg37
(lp272
I10
aS'@@size'
p273
asg38
(lp274
g39
aS'@@style'
p275
asg40
(lp276
g41
aS'@@descr'
p277
asg42
(lp278
F1.0
aF10.0
aS'@@I0'
p279
asg43
(lp280
NaS'@@subtile_size'
p281
asg44
(lp282
g45
aS'@@condeq_corrs'
p283
asg46
(lp284
NaF0.01
aF-0.0050000000000000001
aF0.001
aS'@@Vpct'
p285
asg47
(lp286
NaS'@@funklet_shape'
p287
asg48
(lp288
F0.0
aF1.0
aF-0.5
aS'@@pa'
p289
asg72
(lp290
F0.0
aF0.5
aF1.0
aF1.4950000000000001
aF4.3570000000000002
aS'@@RA'
p291
asg74
(lp292
NaF1.0
aF3.0
aF10.0
aF-10.0
aF60.0
aS'@@RM'
p293
asg76
(lp294
F0.0
aF0.5
aF5.0
aF50.0
aS'@@minor'
p295
asg78
(lp296
F1.0
aS'@@c00_default'
p297
asg80
(lp298
NaF0.10000000000000001
aF-0.050000000000000003
aF0.01
aS'@@Qpct'
p299
asg82
(lp300
g163
ag164
ag165
ag166
ag167
ag168
ag169
ag170
ag171
ag172
ag173
ag174
ag175
ag176
ag177
ag178
aS'@@punit'
p301
asg84
(lp302
F0.5
aF1.0
aF0.87
aF1.0920000000000001
aS'@@Dec'
p303
asg102
(lp304
NaS'@@name'
p305
asg86
(lp306
I01
aI00
aS'@@fsr_trace'
p307
asg88
(lp308
I01
aI00
aS'@@use_previous'
p309
asg90
(lp310
NaF-0.69999999999999996
a(lp311
F0.44700000000000001
aF-0.184
aaS'@@SI'
p312
asg92
(lp313
NaS'@@tfdeg'
p314
asg94
(lp315
I01
aI00
aS'@@auto_save'
p316
assg195
S'simul_grid'
p317
sg197
S'2006-04-07 15:06'
p318
sg199
g200
sg201
S'** Specific description of inarg record for: MG_JEN_Sixpack::newstar_source()  version=10feb2006  defined=2006-04-07 15:06'
p319
sg203
S'MG_JEN_Sixpacknewstar_source'
p320
sg205
S'newstar_source'
p321
sg207
(dp322
g82
I01
ssg209
S'** Description of available inarg record(s) for: MG_JEN_Sixpack::newstar_source()  version=10feb2006  defined=2006-04-07 15:06'
p323
sg211
I00
sg212
g318
sg213
(dp324
g215
S'  3: ......[simul_grid]./MG_JEN_Sixpack.newstar_source() (qual=None): .modify(Qpct):   None  ->  10'
p325
sg217
S'  3: ......[simul_grid]./MG_JEN_Sixpack.newstar_source() (qual=None): .modify(parmtable):   None  ->  simul_DJones'
p326
sg219
S'  3: ......[simul_grid]./MG_JEN_Sixpack.newstar_source() (qual=None): .modify(punit):   unpol  ->  QU'
p327
sg221
S'  3: ......[simul_grid]./MG_JEN_Sixpack.newstar_source() (qual=None): .modify(Upct):   None  ->  -10'
p328
ssg223
(lp329
g49
ag82
ag102
ag13
ag29
ag42
ag80
ag35
ag46
ag74
ag90
ag26
ag72
ag84
ag86
ag33
ag28
ag76
ag48
ag88
ag94
ag32
ag27
ag40
ag36
ag30
ag38
ag37
ag78
ag92
ag47
ag43
ag44
assg74
Nsg76
F0.0
sg72
F1.4950000000000001
sg78
F1.0
sg80
I10
sg82
g167
sg84
F0.87
sg102
Nsg86
I01
sg88
I01
sg90
Nsg92
Nsg94
I01
ssS'nRA2'
p330
I1
sS'dDec'
p331
I20
sS'relpos'
p332
S'trq'
p333
sg49
(dp334
g199
S'MG_JEN_lsm::add_grid()'
p335
sg51
g239
sg201
S'** Specific description of inarg record for: MG_JEN_lsm::add_grid()  version=10feb2006  defined=2006-04-07 15:06'
p336
sg203
S'MG_JEN_lsmadd_grid'
p337
sg96
g97
sg105
S'Add a rectangular grid of identical test-sources to the given lsm'
p338
sg109
S'MG_JEN_lsm::add_grid()  version=10feb2006  defined=2006-04-07 15:06'
p339
sg205
S'add_grid'
p340
sg111
(dp341
g241
(lp342
F0.5
aI1
aI2
aI5
aI10
aI100
aNaS'@@taper'
p343
asg330
(lp344
I0
aI1
aI2
aI3
aS'@@nRA2'
p345
asg331
(lp346
I5
aI10
aI20
aS'@@dDec'
p347
asg332
(lp348
S'center'
p349
aS'top'
p350
aS'bottom'
p351
aS'left'
p352
aS'right'
p353
aS'tlq'
p354
ag333
aS'blq'
p355
aS'brq'
p356
aS'@@relpos'
p357
asS'dRA'
p358
(lp359
I5
aI10
aI20
aS'@@dRA'
p360
asS'nDec2'
p361
(lp362
I0
aI1
aI2
aI3
aS'@@nDec2'
p363
assg195
g231
sg209
S'** Description of available inarg record(s) for: MG_JEN_lsm::add_grid()  version=10feb2006  defined=2006-04-07 15:06'
p364
sg211
I00
sg212
S'2006-04-07 15:06'
p365
sg103
g104
sg98
S'MG_JEN_lsm'
p366
sg213
(dp367
g217
S'** JEN_inarg.attach(): attached: [simul_grid]./MG_JEN_Sixpack.newstar_source()'
p368
ssg197
g365
sg223
(lp369
g49
ag330
ag361
ag358
ag331
ag241
ag332
ag242
asg52
(dp370
g241
S'Scale (degr) of gaussian FOV taper'
p371
sg330
S'(half) nr of sources in RA direction'
p372
sg331
S'Dec grid spacing (arcmin)'
p373
sg332
S'Relative position w.r.t. the nominal punit (RA,Dec)'
p374
sg358
S'RA grid spacing (arcmin)'
p375
sg361
S'(half) nr of sources in DEC direction'
p376
sssg358
I20
sg361
I1
ssg49
(dp377
g199
S'MG_JEN_lsm::get_lsm()'
p378
sg51
g17
sg201
S'** Specific description of inarg record for: MG_JEN_lsm::get_lsm()  version=02apr2006  defined=2006-04-07 15:06'
p379
sg203
S'MG_JEN_lsmget_lsm'
p380
sS'browse'
p381
(dp382
S'input_LSM'
p383
S'*.lsm'
p384
sg19
g384
ssg96
g97
sg109
S'MG_JEN_lsm::get_lsm()  version=02apr2006  defined=2006-04-07 15:06'
p385
sg205
S'get_lsm'
p386
sg111
(dp387
g383
(lp388
S'lsm_current.lsm'
p389
aS'3c343_nvss.lsm'
p390
aS'abel963.lsm'
p391
aS'D1.lsm'
p392
aNaS'@@input_LSM'
p393
asg19
(lp394
S'<automatic>'
p395
aNaS'@@saveAs'
p396
asg20
(lp397
Nag21
aS'double'
p398
aS'grid'
p399
aS'spiral'
p400
aS'@@test_pattern'
p401
asS'display'
p402
(lp403
I01
aI00
aS'@@display'
p404
asS'save_as_current'
p405
(lp406
I01
aI00
aS'@@save_as_current'
p407
assg195
g231
sg209
S'** Description of available inarg record(s) for: MG_JEN_lsm::get_lsm()  version=02apr2006  defined=2006-04-07 15:06'
p408
sg211
I00
sg212
S'2006-04-07 15:06'
p409
sg103
S'02apr2006'
p410
sg98
S'MG_JEN_lsm'
p411
sg107
(dp412
g402
I00
sg405
I00
ssg213
(dp413
g215
S'** JEN_inarg.attach(): attached: [simul]./MG_JEN_lsm.add_double()'
p414
sg217
S'** JEN_inarg.attach(): attached: [simul]./MG_JEN_lsm.add_single()'
p415
sg219
S'** JEN_inarg.attach(): attached: [simul]./MG_JEN_lsm.add_spiral()'
p416
sg221
S'** JEN_inarg.attach(): attached: [simul]./MG_JEN_lsm.add_grid()'
p417
ssg197
g409
sg223
(lp418
g49
ag383
ag402
ag405
ag19
ag20
ag22
aS'[simul]./MG_JEN_lsm.add_double()'
p419
ag239
aS'[simul]./MG_JEN_lsm.add_spiral()'
p420
asg52
(dp421
g383
S'(file)name of the Local Sky Model to be added to'
p422
sg19
S'Save the new/modified LSM afterwards as...'
p423
sg20
S'pattern of test-sources to be generated'
p424
sg402
S'Display the new/modified LSM'
p425
sg405
S'Save the new/modified LSM afterwards as lsm_current.lsm'
p426
ssg105
S'Generate an existing/new/modified Local Sky Model'
p427
ssg420
(dp428
S'nr_of_sources'
p429
I5
sg241
F1.0
sS'[simul_spiral]./MG_JEN_Sixpack.newstar_source()'
p430
(dp431
g26
F1000000.0
sg27
I00
sg28
F0.0
sg29
I00
sg30
g31
sg32
I00
sg33
g34
sg13
g14
sg35
I-10
sg36
Nsg37
I10
sg38
g39
sg40
g41
sg42
F1.0
sg43
Nsg44
g45
sg46
Nsg47
Nsg48
F0.0
sg49
(dp432
g51
g430
sg52
(dp433
g26
g54
sg27
g55
sg28
g56
sg29
g57
sg30
g58
sg32
g59
sg33
g60
sg13
g61
sg35
g62
sg36
g36
sg37
g63
sg38
g64
sg40
g65
sg42
g66
sg43
g67
sg44
g68
sg46
g69
sg47
g70
sg48
g71
sg72
g73
sg74
g75
sg76
g77
sg78
g79
sg80
g81
sg82
S'name of calibrator source/patch \n- unpol:     unpolarised, I=1Jy \n- unpol2:    idem, I=2Jy \n- unpol10:   idem, I=10Jy \n- RMtest:    Rotation Measure \n- SItest:    Spectral Index \n- ellgauss:  Elliptic Gaussian \n- QUV:       non-zero Q,U,V \n- QU:        non-zero Q,U \n- QU2:       stronger version of QU \n- Qonly:     non-zero Q \n- Uonly:     non-zero U \n- Vonly:     non-zero V \n- 3c286:     \n- 3c48:      \n- 3c295:     \n- 3c147:     \n- D1:        cps in D1.MS \n'
p434
sg84
g85
sg86
g87
sg88
g89
sg90
g91
sg92
g93
sg94
g95
ssg96
g97
sg98
S'MG_JEN_Sixpack'
p435
sg100
(dp436
g26
I01
sg28
I01
sg29
I01
sg102
I01
sg40
I01
sg47
I01
sg30
I01
sg33
I01
sg86
I01
sg82
I00
sg43
I01
sg48
I01
sg44
I01
sg92
I01
sg36
I01
sg78
I01
sg38
I01
sg76
I01
sg37
I01
ssg103
g104
sg105
g106
sg107
(dp437
g27
I00
sg29
I00
sg86
I00
sg32
I00
sg88
I00
sg94
I00
ssg109
S'MG_JEN_Sixpack::newstar_source()  version=10feb2006  defined=2006-04-07 15:06'
p438
sg111
(dp439
g26
(lp440
F1000000.0
aS'@@f0'
p441
asg27
(lp442
I01
aI00
aS'@@reset_funklet'
p443
asg28
(lp444
F0.0
aF1.0
aF10.0
aF100.0
aS'@@major'
p445
asg29
(lp446
I01
aI00
aS'@@unsolvable'
p447
asg30
(lp448
g31
aS'@@color'
p449
asg32
(lp450
I01
aI00
aS'@@save_all'
p451
asg33
(lp452
g34
ag126
aS'@@shape'
p453
asg13
(lp454
NaS'@@parmtable'
p455
asg35
(lp456
NaF-0.10000000000000001
aF0.050000000000000003
aF-0.01
aS'@@Upct'
p457
asg36
(lp458
NaS'@@unit'
p459
asg37
(lp460
I10
aS'@@size'
p461
asg38
(lp462
g39
aS'@@style'
p463
asg40
(lp464
g41
aS'@@descr'
p465
asg42
(lp466
F1.0
aF10.0
aS'@@I0'
p467
asg43
(lp468
NaS'@@subtile_size'
p469
asg44
(lp470
g45
aS'@@condeq_corrs'
p471
asg46
(lp472
NaF0.01
aF-0.0050000000000000001
aF0.001
aS'@@Vpct'
p473
asg47
(lp474
NaS'@@funklet_shape'
p475
asg48
(lp476
F0.0
aF1.0
aF-0.5
aS'@@pa'
p477
asg72
(lp478
F0.0
aF0.5
aF1.0
aF1.4950000000000001
aF4.3570000000000002
aS'@@RA'
p479
asg74
(lp480
NaF1.0
aF3.0
aF10.0
aF-10.0
aF60.0
aS'@@RM'
p481
asg76
(lp482
F0.0
aF0.5
aF5.0
aF50.0
aS'@@minor'
p483
asg78
(lp484
F1.0
aS'@@c00_default'
p485
asg80
(lp486
NaF0.10000000000000001
aF-0.050000000000000003
aF0.01
aS'@@Qpct'
p487
asg82
(lp488
g163
ag164
ag165
ag166
ag167
ag168
ag169
ag170
ag171
ag172
ag173
ag174
ag175
ag176
ag177
ag178
aS'@@punit'
p489
asg84
(lp490
F0.5
aF1.0
aF0.87
aF1.0920000000000001
aS'@@Dec'
p491
asg102
(lp492
NaS'@@name'
p493
asg86
(lp494
I01
aI00
aS'@@fsr_trace'
p495
asg88
(lp496
I01
aI00
aS'@@use_previous'
p497
asg90
(lp498
NaF-0.69999999999999996
a(lp499
F0.44700000000000001
aF-0.184
aaS'@@SI'
p500
asg92
(lp501
NaS'@@tfdeg'
p502
asg94
(lp503
I01
aI00
aS'@@auto_save'
p504
assg195
S'simul_spiral'
p505
sg197
S'2006-04-07 15:06'
p506
sg199
g200
sg201
S'** Specific description of inarg record for: MG_JEN_Sixpack::newstar_source()  version=10feb2006  defined=2006-04-07 15:06'
p507
sg203
S'MG_JEN_Sixpacknewstar_source'
p508
sg205
S'newstar_source'
p509
sg207
(dp510
g82
I01
ssg209
S'** Description of available inarg record(s) for: MG_JEN_Sixpack::newstar_source()  version=10feb2006  defined=2006-04-07 15:06'
p511
sg211
I00
sg212
g506
sg213
(dp512
g215
S'  3: ......[simul_spiral]./MG_JEN_Sixpack.newstar_source() (qual=None): .modify(Qpct):   None  ->  10'
p513
sg217
S'  3: ......[simul_spiral]./MG_JEN_Sixpack.newstar_source() (qual=None): .modify(parmtable):   None  ->  simul_DJones'
p514
sg219
S'  3: ......[simul_spiral]./MG_JEN_Sixpack.newstar_source() (qual=None): .modify(punit):   unpol  ->  QU'
p515
sg221
S'  3: ......[simul_spiral]./MG_JEN_Sixpack.newstar_source() (qual=None): .modify(Upct):   None  ->  -10'
p516
ssg223
(lp517
g49
ag82
ag102
ag13
ag29
ag42
ag80
ag35
ag46
ag74
ag90
ag26
ag72
ag84
ag86
ag33
ag28
ag76
ag48
ag88
ag94
ag32
ag27
ag40
ag36
ag30
ag38
ag37
ag78
ag92
ag47
ag43
ag44
assg74
Nsg76
F0.0
sg72
F1.4950000000000001
sg78
F1.0
sg80
I10
sg82
g167
sg84
F0.87
sg102
Nsg86
I01
sg88
I01
sg90
Nsg92
Nsg94
I01
ssS'astart'
p518
I0
sS'rmult'
p519
F1.1000000000000001
sS'rstart'
p520
I20
sg49
(dp521
g199
S'MG_JEN_lsm::add_spiral()'
p522
sg51
g420
sg201
S'** Specific description of inarg record for: MG_JEN_lsm::add_spiral()  version=10feb2006  defined=2006-04-07 15:06'
p523
sg203
S'MG_JEN_lsmadd_spiral'
p524
sg96
g97
sg105
S'Add a spiral pattern of identical test-sources to the given lsm'
p525
sg109
S'MG_JEN_lsm::add_spiral()  version=10feb2006  defined=2006-04-07 15:06'
p526
sg205
S'add_spiral'
p527
sg111
(dp528
g429
(lp529
I2
aI3
aI4
aI5
aI10
aS'@@nr_of_sources'
p530
asg241
(lp531
F0.5
aI1
aI2
aI5
aI10
aI100
aNaS'@@taper'
p532
asg518
(lp533
I0
aI30
aI45
aI90
aI180
aI270
aS'@@astart'
p534
asg519
(lp535
F1.01
aF1.1000000000000001
aF1.2
aF1.5
aI2
aS'@@rmult'
p536
asg520
(lp537
I1
aI2
aI5
aI10
aI20
aI50
aI100
aS'@@rstart'
p538
asS'ainc'
p539
(lp540
I10
aI20
aI30
aI45
aI90
aI180
aI360
aI0
aS'@@ainc'
p541
assg195
g231
sg209
S'** Description of available inarg record(s) for: MG_JEN_lsm::add_spiral()  version=10feb2006  defined=2006-04-07 15:06'
p542
sg211
I00
sg212
S'2006-04-07 15:06'
p543
sg103
g104
sg98
S'MG_JEN_lsm'
p544
sg213
(dp545
g217
S'** JEN_inarg.attach(): attached: [simul_spiral]./MG_JEN_Sixpack.newstar_source()'
p546
ssg197
g543
sg223
(lp547
g49
ag429
ag520
ag518
ag519
ag539
ag241
ag430
asg52
(dp548
g429
S'nr of sources'
p549
sg241
S'Scale (degr) of gaussian FOV taper'
p550
sg518
S'start position angle (deg)'
p551
sg519
S'radius multiplication factor'
p552
sg520
S'start position radius (arcmin)'
p553
sg539
S'position angle increment (deg)'
p554
sssg539
I10
ssg405
I01
sg383
Nsg419
(dp555
g331
I20
sg358
I20
sS'[simul_double_2]./MG_JEN_Sixpack.newstar_source()'
p556
(dp557
g26
F1000000.0
sg27
I00
sg28
F0.0
sg29
I00
sg30
g31
sg32
I00
sg33
g34
sg13
g14
sg35
I-10
sg36
Nsg37
I10
sg38
g39
sg40
g41
sg42
F1.0
sg43
Nsg44
g45
sg46
Nsg47
Nsg48
F0.0
sg49
(dp558
g51
g556
sg52
(dp559
g26
g54
sg27
g55
sg28
g56
sg29
g57
sg30
g58
sg32
g59
sg33
g60
sg13
g61
sg35
g62
sg36
g36
sg37
g63
sg38
g64
sg40
g65
sg42
g66
sg43
g67
sg44
g68
sg46
g69
sg47
g70
sg48
g71
sg72
g73
sg74
g75
sg76
g77
sg78
g79
sg80
g81
sg82
S'name of calibrator source/patch \n- unpol:     unpolarised, I=1Jy \n- unpol2:    idem, I=2Jy \n- unpol10:   idem, I=10Jy \n- RMtest:    Rotation Measure \n- SItest:    Spectral Index \n- ellgauss:  Elliptic Gaussian \n- QUV:       non-zero Q,U,V \n- QU:        non-zero Q,U \n- QU2:       stronger version of QU \n- Qonly:     non-zero Q \n- Uonly:     non-zero U \n- Vonly:     non-zero V \n- 3c286:     \n- 3c48:      \n- 3c295:     \n- 3c147:     \n- D1:        cps in D1.MS \n'
p560
sg84
g85
sg86
g87
sg88
g89
sg90
g91
sg92
g93
sg94
g95
ssg96
g97
sg98
S'MG_JEN_Sixpack'
p561
sg100
(dp562
g26
I01
sg28
I01
sg29
I01
sg102
I01
sg40
I01
sg47
I01
sg30
I01
sg33
I01
sg86
I01
sg82
I00
sg43
I01
sg48
I01
sg44
I01
sg92
I01
sg36
I01
sg78
I01
sg38
I01
sg76
I01
sg37
I01
ssg103
g104
sg105
g106
sg107
(dp563
g27
I00
sg29
I00
sg86
I00
sg32
I00
sg88
I00
sg94
I00
ssg109
S'MG_JEN_Sixpack::newstar_source()  version=10feb2006  defined=2006-04-07 15:06'
p564
sg111
(dp565
g26
(lp566
F1000000.0
aS'@@f0'
p567
asg27
(lp568
I01
aI00
aS'@@reset_funklet'
p569
asg28
(lp570
F0.0
aF1.0
aF10.0
aF100.0
aS'@@major'
p571
asg29
(lp572
I01
aI00
aS'@@unsolvable'
p573
asg30
(lp574
g31
aS'@@color'
p575
asg32
(lp576
I01
aI00
aS'@@save_all'
p577
asg33
(lp578
g34
ag126
aS'@@shape'
p579
asg13
(lp580
NaS'@@parmtable'
p581
asg35
(lp582
NaF-0.10000000000000001
aF0.050000000000000003
aF-0.01
aS'@@Upct'
p583
asg36
(lp584
NaS'@@unit'
p585
asg37
(lp586
I10
aS'@@size'
p587
asg38
(lp588
g39
aS'@@style'
p589
asg40
(lp590
g41
aS'@@descr'
p591
asg42
(lp592
F1.0
aF10.0
aS'@@I0'
p593
asg43
(lp594
NaS'@@subtile_size'
p595
asg44
(lp596
g45
aS'@@condeq_corrs'
p597
asg46
(lp598
NaF0.01
aF-0.0050000000000000001
aF0.001
aS'@@Vpct'
p599
asg47
(lp600
NaS'@@funklet_shape'
p601
asg48
(lp602
F0.0
aF1.0
aF-0.5
aS'@@pa'
p603
asg72
(lp604
F0.0
aF0.5
aF1.0
aF1.4950000000000001
aF4.3570000000000002
aS'@@RA'
p605
asg74
(lp606
NaF1.0
aF3.0
aF10.0
aF-10.0
aF60.0
aS'@@RM'
p607
asg76
(lp608
F0.0
aF0.5
aF5.0
aF50.0
aS'@@minor'
p609
asg78
(lp610
F1.0
aS'@@c00_default'
p611
asg80
(lp612
NaF0.10000000000000001
aF-0.050000000000000003
aF0.01
aS'@@Qpct'
p613
asg82
(lp614
g163
ag164
ag165
ag166
ag167
ag168
ag169
ag170
ag171
ag172
ag173
ag174
ag175
ag176
ag177
ag178
aS'@@punit'
p615
asg84
(lp616
F0.5
aF1.0
aF0.87
aF1.0920000000000001
aS'@@Dec'
p617
asg102
(lp618
NaS'@@name'
p619
asg86
(lp620
I01
aI00
aS'@@fsr_trace'
p621
asg88
(lp622
I01
aI00
aS'@@use_previous'
p623
asg90
(lp624
NaF-0.69999999999999996
a(lp625
F0.44700000000000001
aF-0.184
aaS'@@SI'
p626
asg92
(lp627
NaS'@@tfdeg'
p628
asg94
(lp629
I01
aI00
aS'@@auto_save'
p630
assg195
S'simul_double_2'
p631
sg197
S'2006-04-07 15:06'
p632
sg199
g200
sg201
S'** Specific description of inarg record for: MG_JEN_Sixpack::newstar_source()  version=10feb2006  defined=2006-04-07 15:06'
p633
sg203
S'MG_JEN_Sixpacknewstar_source'
p634
sg205
S'newstar_source'
p635
sg207
(dp636
g82
I01
ssg209
S'** Description of available inarg record(s) for: MG_JEN_Sixpack::newstar_source()  version=10feb2006  defined=2006-04-07 15:06'
p637
sg211
I00
sg212
g632
sg213
(dp638
g215
S'  3: ......[simul_double_2]./MG_JEN_Sixpack.newstar_source() (qual=None): .modify(Qpct):   None  ->  10'
p639
sg217
S'  3: ......[simul_double_2]./MG_JEN_Sixpack.newstar_source() (qual=None): .modify(parmtable):   None  ->  simul_DJones'
p640
sg219
S'  3: ......[simul_double_2]./MG_JEN_Sixpack.newstar_source() (qual=None): .modify(punit):   unpol  ->  QU'
p641
sg221
S'  3: ......[simul_double_2]./MG_JEN_Sixpack.newstar_source() (qual=None): .modify(Upct):   None  ->  -10'
p642
ssg223
(lp643
g49
ag82
ag102
ag13
ag29
ag42
ag80
ag35
ag46
ag74
ag90
ag26
ag72
ag84
ag86
ag33
ag28
ag76
ag48
ag88
ag94
ag32
ag27
ag40
ag36
ag30
ag38
ag37
ag78
ag92
ag47
ag43
ag44
assg74
Nsg76
F0.0
sg72
F1.4950000000000001
sg78
F1.0
sg80
I10
sg82
g167
sg84
F0.87
sg102
Nsg86
I01
sg88
I01
sg90
Nsg92
Nsg94
I01
ssg49
(dp644
g199
S'MG_JEN_lsm::add_double()'
p645
sg51
g419
sg201
S'** Specific description of inarg record for: MG_JEN_lsm::add_double()  version=10feb2006  defined=2006-04-07 15:06'
p646
sg203
S'MG_JEN_lsmadd_double'
p647
sg96
g97
sg105
S'Add a double test-source (Sixpack) to the given lsm'
p648
sg109
S'MG_JEN_lsm::add_double()  version=10feb2006  defined=2006-04-07 15:06'
p649
sg205
S'add_double'
p650
sg111
(dp651
g358
(lp652
I20
aS'@@dRA'
p653
asg331
(lp654
I20
aS'@@dDec'
p655
assg195
g231
sg209
S'** Description of available inarg record(s) for: MG_JEN_lsm::add_double()  version=10feb2006  defined=2006-04-07 15:06'
p656
sg211
I00
sg212
S'2006-04-07 15:06'
p657
sg103
g104
sg98
S'MG_JEN_lsm'
p658
sg213
(dp659
g215
S'** JEN_inarg.attach(): attached: [simul_double_2]./MG_JEN_Sixpack.newstar_source()'
p660
sg217
S'** JEN_inarg.attach(): attached: [simul_double_1]./MG_JEN_Sixpack.newstar_source()'
p661
ssg197
g657
sg223
(lp662
g49
aS'[simul_double_1]./MG_JEN_Sixpack.newstar_source()'
p663
ag556
ag358
ag331
asg52
(dp664
g358
S'distance of 2nd source in RA (arcmin)'
p665
sg331
S'distance of 2nd source in Dec (arcmin)'
p666
sssg663
(dp667
g26
F1000000.0
sg27
I00
sg28
F0.0
sg29
I00
sg30
g31
sg32
I00
sg33
g34
sg13
g14
sg35
I-10
sg36
Nsg37
I10
sg38
g39
sg40
g41
sg42
F1.0
sg43
Nsg44
g45
sg46
Nsg47
Nsg48
F0.0
sg49
(dp668
g51
g663
sg52
(dp669
g26
g54
sg27
g55
sg28
g56
sg29
g57
sg30
g58
sg32
g59
sg33
g60
sg13
g61
sg35
g62
sg36
g36
sg37
g63
sg38
g64
sg40
g65
sg42
g66
sg43
g67
sg44
g68
sg46
g69
sg47
g70
sg48
g71
sg72
g73
sg74
g75
sg76
g77
sg78
g79
sg80
g81
sg82
S'name of calibrator source/patch \n- unpol:     unpolarised, I=1Jy \n- unpol2:    idem, I=2Jy \n- unpol10:   idem, I=10Jy \n- RMtest:    Rotation Measure \n- SItest:    Spectral Index \n- ellgauss:  Elliptic Gaussian \n- QUV:       non-zero Q,U,V \n- QU:        non-zero Q,U \n- QU2:       stronger version of QU \n- Qonly:     non-zero Q \n- Uonly:     non-zero U \n- Vonly:     non-zero V \n- 3c286:     \n- 3c48:      \n- 3c295:     \n- 3c147:     \n- D1:        cps in D1.MS \n'
p670
sg84
g85
sg86
g87
sg88
g89
sg90
g91
sg92
g93
sg94
g95
ssg96
g97
sg98
S'MG_JEN_Sixpack'
p671
sg100
(dp672
g26
I01
sg28
I01
sg29
I01
sg102
I01
sg40
I01
sg47
I01
sg30
I01
sg33
I01
sg86
I01
sg82
I00
sg43
I01
sg48
I01
sg44
I01
sg92
I01
sg36
I01
sg78
I01
sg38
I01
sg76
I01
sg37
I01
ssg103
g104
sg105
g106
sg107
(dp673
g27
I00
sg29
I00
sg86
I00
sg32
I00
sg88
I00
sg94
I00
ssg109
S'MG_JEN_Sixpack::newstar_source()  version=10feb2006  defined=2006-04-07 15:06'
p674
sg111
(dp675
g26
(lp676
F1000000.0
aS'@@f0'
p677
asg27
(lp678
I01
aI00
aS'@@reset_funklet'
p679
asg28
(lp680
F0.0
aF1.0
aF10.0
aF100.0
aS'@@major'
p681
asg29
(lp682
I01
aI00
aS'@@unsolvable'
p683
asg30
(lp684
g31
aS'@@color'
p685
asg32
(lp686
I01
aI00
aS'@@save_all'
p687
asg33
(lp688
g34
ag126
aS'@@shape'
p689
asg13
(lp690
NaS'@@parmtable'
p691
asg35
(lp692
NaF-0.10000000000000001
aF0.050000000000000003
aF-0.01
aS'@@Upct'
p693
asg36
(lp694
NaS'@@unit'
p695
asg37
(lp696
I10
aS'@@size'
p697
asg38
(lp698
g39
aS'@@style'
p699
asg40
(lp700
g41
aS'@@descr'
p701
asg42
(lp702
F1.0
aF10.0
aS'@@I0'
p703
asg43
(lp704
NaS'@@subtile_size'
p705
asg44
(lp706
g45
aS'@@condeq_corrs'
p707
asg46
(lp708
NaF0.01
aF-0.0050000000000000001
aF0.001
aS'@@Vpct'
p709
asg47
(lp710
NaS'@@funklet_shape'
p711
asg48
(lp712
F0.0
aF1.0
aF-0.5
aS'@@pa'
p713
asg72
(lp714
F0.0
aF0.5
aF1.0
aF1.4950000000000001
aF4.3570000000000002
aS'@@RA'
p715
asg74
(lp716
NaF1.0
aF3.0
aF10.0
aF-10.0
aF60.0
aS'@@RM'
p717
asg76
(lp718
F0.0
aF0.5
aF5.0
aF50.0
aS'@@minor'
p719
asg78
(lp720
F1.0
aS'@@c00_default'
p721
asg80
(lp722
NaF0.10000000000000001
aF-0.050000000000000003
aF0.01
aS'@@Qpct'
p723
asg82
(lp724
g163
ag164
ag165
ag166
ag167
ag168
ag169
ag170
ag171
ag172
ag173
ag174
ag175
ag176
ag177
ag178
aS'@@punit'
p725
asg84
(lp726
F0.5
aF1.0
aF0.87
aF1.0920000000000001
aS'@@Dec'
p727
asg102
(lp728
NaS'@@name'
p729
asg86
(lp730
I01
aI00
aS'@@fsr_trace'
p731
asg88
(lp732
I01
aI00
aS'@@use_previous'
p733
asg90
(lp734
NaF-0.69999999999999996
a(lp735
F0.44700000000000001
aF-0.184
aaS'@@SI'
p736
asg92
(lp737
NaS'@@tfdeg'
p738
asg94
(lp739
I01
aI00
aS'@@auto_save'
p740
assg195
S'simul_double_1'
p741
sg197
S'2006-04-07 15:06'
p742
sg199
g200
sg201
S'** Specific description of inarg record for: MG_JEN_Sixpack::newstar_source()  version=10feb2006  defined=2006-04-07 15:06'
p743
sg203
S'MG_JEN_Sixpacknewstar_source'
p744
sg205
S'newstar_source'
p745
sg207
(dp746
g82
I01
ssg209
S'** Description of available inarg record(s) for: MG_JEN_Sixpack::newstar_source()  version=10feb2006  defined=2006-04-07 15:06'
p747
sg211
I00
sg212
g742
sg213
(dp748
g215
S'  3: ......[simul_double_1]./MG_JEN_Sixpack.newstar_source() (qual=None): .modify(Qpct):   None  ->  10'
p749
sg217
S'  3: ......[simul_double_1]./MG_JEN_Sixpack.newstar_source() (qual=None): .modify(parmtable):   None  ->  simul_DJones'
p750
sg219
S'  3: ......[simul_double_1]./MG_JEN_Sixpack.newstar_source() (qual=None): .modify(punit):   unpol  ->  QU'
p751
sg221
S'  3: ......[simul_double_1]./MG_JEN_Sixpack.newstar_source() (qual=None): .modify(Upct):   None  ->  -10'
p752
ssg223
(lp753
g49
ag82
ag102
ag13
ag29
ag42
ag80
ag35
ag46
ag74
ag90
ag26
ag72
ag84
ag86
ag33
ag28
ag76
ag48
ag88
ag94
ag32
ag27
ag40
ag36
ag30
ag38
ag37
ag78
ag92
ag47
ag43
ag44
assg74
Nsg76
F0.0
sg72
F1.4950000000000001
sg78
F1.0
sg80
I10
sg82
g167
sg84
F0.87
sg102
Nsg86
I01
sg88
I01
sg90
Nsg92
Nsg94
I01
sssg402
I01
ssS'[simul]./MG_JEN_Cohset.predict_lsm()'
p754
(dp755
S'[simul_uvp]./MG_JEN_Cohset.Jones()'
p756
(dp757
S'[simul_uvp]./MG_JEN_Joneset.JJones()'
p758
(dp759
S'unop'
p760
S'Cos'
p761
sS'diagonal_only'
p762
I00
sg2
S'@@polrep'
p763
sg30
S'yellow'
p764
sS'stddev_period'
p765
F0.10000000000000001
sS'all4_always'
p766
NsS'fdeg'
p767
I0
sg36
Nsg37
I5
sg38
S'triangle'
p768
sg40
S'<descr>'
p769
sS'mean_tampl'
p770
F0.20000000000000001
sg49
(dp771
g199
S'MG_JEN_Joneset::JJones()'
p772
sg51
g758
sg100
(dp773
g760
I00
sg38
I01
sg2
I01
sg40
I01
sg78
I01
sS'stations'
p774
I01
sg30
I01
sS'timescale_min'
p775
I01
sg767
I01
sS'c00_scale'
p776
I01
sS'@Jsequence_KJones'
p777
I01
sS'@Jsequence_simul'
p778
I01
sg37
I01
sg36
I01
sS'@Jsequence'
p779
I01
ssg105
S'Defines diagonal 2x2 Jones matrices for full polarisation:\n    Jjones(station,source) matrix elements:\n    - J_11 = (Jreal_11,Jimag_11)\n    - J_12 = (Jreal_12,Jimag_12)\n    - J_21 = (Jreal_21,Jimag_21)\n    - J_22 = (Jreal_22,Jimag_22)\n    For circular polarisation, R and L are used rather than X and Y\n    '
p780
sg96
g97
sg109
S'MG_JEN_Joneset::JJones()  version=14feb2006  defined=2006-04-07 15:06'
p781
sg205
S'JJones'
p782
sg111
(dp783
g760
(lp784
g761
aS'Sin'
p785
a(lp786
g761
ag785
aaNaS'@@unop'
p787
asg38
(lp788
g768
aS'@@style'
p789
asg775
(lp790
I20
aS'@@timescale_min'
p791
asg2
(lp792
g3
aS'circular'
p793
ag763
asg40
(lp794
g769
aS'@@descr'
p795
asg78
(lp796
F1.0
aS'@@c00_default'
p797
asg774
(lp798
(lp799
I0
aI1
aI2
aI3
aI4
aa(lp800
I0
aI1
aI2
aI3
aI4
aI5
aI6
aa(lp801
I0
aI1
aI2
aI3
aI4
aI5
aI6
aI7
aI8
aI9
aI10
aI11
aI12
aI13
aa(lp802
I0
aI1
aI2
aI3
aI4
aI5
aI6
aI7
aI8
aI9
aI10
aI11
aI12
aI13
aI14
aaS'range(5)'
p803
aS'@@stations'
p804
asg30
(lp805
g764
aS'@@color'
p806
asg765
(lp807
I0
aF0.01
aF0.10000000000000001
aF0.20000000000000001
aF0.5
aS'@@stddev_period'
p808
asg762
(lp809
I01
aI00
aS'@@diagonal_only'
p810
asS'mean_period'
p811
(lp812
F0.29999999999999999
aF0.5
aI1
aI2
aI3
aS'@@mean_period'
p813
asg776
(lp814
F1.0
aS'@@c00_scale'
p815
asg766
(lp816
Na(lp817
I14
aa(lp818
I1
aaS'WSRT/WHAT'
p819
aS'@@all4_always'
p820
asS'stddev_c00'
p821
(lp822
I0
aF0.0001
aF0.001
aF0.01
aF0.10000000000000001
aI1
aS'@@stddev_c00'
p823
asg767
(lp824
I0
aS'@@fdeg'
p825
asS'mean_c00'
p826
(lp827
I0
aF0.10000000000000001
aF0.20000000000000001
aF0.5
aF-0.10000000000000001
aS'@@mean_c00'
p828
asg777
(lp829
S'JJones'
p830
aS'@@@Jsequence_KJones'
p831
asg778
(lp832
g830
aS'@@@Jsequence_simul'
p833
asg37
(lp834
I5
aS'@@size'
p835
asg36
(lp836
NaS'@@unit'
p837
asg779
(lp838
g830
aS'@@@Jsequence'
p839
assg195
S'simul_uvp'
p840
sg209
S'** Description of available inarg record(s) for: MG_JEN_Joneset::JJones()  version=14feb2006  defined=2006-04-07 15:06'
p841
sg211
I00
sg212
S'2006-04-07 15:06'
p842
sg103
S'14feb2006'
p843
sg98
S'MG_JEN_Joneset'
p844
sg107
(dp845
g762
I00
ssg201
S'** Specific description of inarg record for: MG_JEN_Joneset::JJones()  version=14feb2006  defined=2006-04-07 15:06'
p846
sS'mutable'
p847
(dp848
g2
I00
sg774
I00
ssg197
g842
sg223
(lp849
g49
ag774
ag2
ag779
ag778
ag777
ag762
ag766
ag826
ag821
ag811
ag765
ag760
ag775
ag767
ag30
ag38
ag37
ag78
ag776
ag40
ag36
asg52
(dp850
g760
S'time-variability function'
p851
sg38
g64
sg775
S'group timescale in minutes'
p852
sg2
S'polarisation representation'
p853
sg40
S'brief description'
p854
sg78
S'default value of c00'
p855
sg774
S'the (subset of) stations to be used'
p856
sg30
g58
sg765
S'scatter in period T (fraction of timescale_min)'
p857
sg762
S'if True, solve for diagonal (11,22) elements only'
p858
sg811
S'mean time-period T (fraction of timescale_min)'
p859
sg776
S'scale of c00'
p860
sg766
S'stations for which all 4 elements will always be solved for'
p861
sg821
S'scatter in EXTRA c00 (fraction of c00_scale'
p862
sg767
S'degree of freq polynomial'
p863
sg826
S'mean of EXTRA c00 (fraction of c00_scale)'
p864
sg777
S'list membership indication (used in JEN_inargGui)'
p865
sg778
g865
sg37
S'size of plotted symbol'
p866
sg36
g36
sg779
g865
ssg203
S'MG_JEN_JonesetJJones'
p867
ssg777
g830
sg779
g830
sS'stddev_period_s'
p868
I50
sg78
F1.0
sS'mean_period_s'
p869
I500
sg826
F0.10000000000000001
sg774
g804
sg775
I20
sg811
F1.0
sg821
F0.01
sg776
F1.0
sg778
g830
sS'stddev_tampl'
p870
F0.02
ssg2
S'@@polrep'
p871
sS'uvplane_effect'
p872
S'@@uvplane_effect'
p873
sS'[simul_uvp]./MG_JEN_Joneset.BJones()'
p874
(dp875
g760
g761
sg2
S'@@polrep'
p876
sg30
g764
sg765
F0.10000000000000001
sg767
I0
sg36
Nsg37
I5
sg38
g768
sg40
g769
sg770
F0.20000000000000001
sg49
(dp877
g199
S'MG_JEN_Joneset::BJones()'
p878
sg51
g874
sg100
(dp879
g760
I00
sg38
I01
sg2
I01
sg40
I01
sg78
I01
sg774
I01
sg30
I01
sg775
I01
sg767
I01
sg776
I01
sg777
I01
sg778
I01
sg37
I01
sg36
I01
sg779
I01
ssg105
S'Defines diagonal 2x2 Jones matrices that represent the IF bandpass:\n    Bjones(station,source) matrix elements:\n    - B_11 = (Breal_X,Bimag_X)\n    - B_12 = 0\n    - B_21 = 0\n    - B_22 = (Breal_Y,Bimag_Y)\n    For circular polarisation, R and L are used rather than X and Y\n    NB: The main differences with Gjones are:\n      - the higher-order (~5) freq-polynomial\n      - solving for real/imag rather than gain/phase \n    '
p880
sg96
g97
sg109
S'MG_JEN_Joneset::BJones()  version=16dec2005  defined=2006-04-07 15:06'
p881
sg205
S'BJones'
p882
sg111
(dp883
g760
(lp884
g761
ag785
a(lp885
g761
ag785
aaNaS'@@unop'
p886
asg38
(lp887
g768
aS'@@style'
p888
asg2
(lp889
g3
ag793
ag876
asg40
(lp890
g769
aS'@@descr'
p891
asg78
(lp892
F1.0
aS'@@c00_default'
p893
asg774
(lp894
(lp895
I0
aI1
aI2
aI3
aI4
aa(lp896
I0
aI1
aI2
aI3
aI4
aI5
aI6
aa(lp897
I0
aI1
aI2
aI3
aI4
aI5
aI6
aI7
aI8
aI9
aI10
aI11
aI12
aI13
aa(lp898
I0
aI1
aI2
aI3
aI4
aI5
aI6
aI7
aI8
aI9
aI10
aI11
aI12
aI13
aI14
aag803
aS'@@stations'
p899
asg30
(lp900
g764
aS'@@color'
p901
asg765
(lp902
I0
aF0.01
aF0.10000000000000001
aF0.20000000000000001
aF0.5
aS'@@stddev_period'
p903
asg775
(lp904
I20
aS'@@timescale_min'
p905
asg776
(lp906
F1.0
aS'@@c00_scale'
p907
asg811
(lp908
F0.29999999999999999
aF0.5
aI1
aI2
aI3
aS'@@mean_period'
p909
asg821
(lp910
I0
aF0.0001
aF0.001
aF0.01
aF0.10000000000000001
aI1
aS'@@stddev_c00'
p911
asg767
(lp912
I0
aS'@@fdeg'
p913
asg777
(lp914
S'BJones'
p915
aS'@@@Jsequence_KJones'
p916
asg826
(lp917
I0
aF0.10000000000000001
aF0.20000000000000001
aF0.5
aF-0.10000000000000001
aS'@@mean_c00'
p918
asg778
(lp919
g915
aS'@@@Jsequence_simul'
p920
asg37
(lp921
I5
aS'@@size'
p922
asg36
(lp923
NaS'@@unit'
p924
asg779
(lp925
g915
aS'@@@Jsequence'
p926
assg195
g840
sg209
S'** Description of available inarg record(s) for: MG_JEN_Joneset::BJones()  version=16dec2005  defined=2006-04-07 15:06'
p927
sg211
I00
sg212
S'2006-04-07 15:06'
p928
sg103
S'16dec2005'
p929
sg98
S'MG_JEN_Joneset'
p930
sg201
S'** Specific description of inarg record for: MG_JEN_Joneset::BJones()  version=16dec2005  defined=2006-04-07 15:06'
p931
sg847
(dp932
g2
I00
sg774
I00
ssg197
g928
sg223
(lp933
g49
ag774
ag2
ag779
ag778
ag777
ag826
ag821
ag811
ag765
ag760
ag775
ag767
ag30
ag38
ag37
ag78
ag776
ag40
ag36
asg52
(dp934
g760
g851
sg38
g64
sg2
g853
sg40
g854
sg78
g855
sg774
g856
sg30
g58
sg765
g857
sg775
g852
sg776
g860
sg811
g859
sg821
g862
sg767
g863
sg777
g865
sg826
g864
sg778
g865
sg37
g866
sg36
g36
sg779
g865
ssg203
S'MG_JEN_JonesetBJones'
p935
ssg777
g915
sg779
g915
sg868
I100
sg78
F1.0
sg869
I5000
sg826
F0.10000000000000001
sg774
g899
sg775
I20
sg811
F1.0
sg821
F0.01
sg776
F1.0
sg778
g915
sg870
F0.02
ssg774
S'@@stations'
p936
sS'[simul_uvp]./MG_JEN_Joneset.KJones()'
p937
(dp938
g2
S'@@polrep'
p939
sg774
S'@@stations'
p940
sg49
(dp941
g199
S'MG_JEN_Joneset::KJones()'
p942
sg51
g937
sg100
(dp943
g777
I01
sg778
I01
sg779
I01
sg2
I01
sg774
I01
ssg105
S'defines diagonal KJones matrices for DFT Fourier kernel'
p944
sg96
g97
sg109
S'MG_JEN_Joneset::KJones()  version=12dec2005  defined=2006-04-07 15:06'
p945
sg205
S'KJones'
p946
sg111
(dp947
g777
(lp948
S'KJones'
p949
aS'@@@Jsequence_KJones'
p950
asg778
(lp951
g949
aS'@@@Jsequence_simul'
p952
asg779
(lp953
g949
aS'@@@Jsequence'
p954
asg2
(lp955
g3
ag793
ag939
asg774
(lp956
(lp957
I0
aI1
aI2
aI3
aI4
aa(lp958
I0
aI1
aI2
aI3
aI4
aI5
aI6
aa(lp959
I0
aI1
aI2
aI3
aI4
aI5
aI6
aI7
aI8
aI9
aI10
aI11
aI12
aI13
aa(lp960
I0
aI1
aI2
aI3
aI4
aI5
aI6
aI7
aI8
aI9
aI10
aI11
aI12
aI13
aI14
aag803
ag940
assg195
g840
sg209
S'** Description of available inarg record(s) for: MG_JEN_Joneset::KJones()  version=12dec2005  defined=2006-04-07 15:06'
p961
sg211
I00
sg212
S'2006-04-07 15:06'
p962
sg103
S'12dec2005'
p963
sg98
S'MG_JEN_Joneset'
p964
sg201
S'** Specific description of inarg record for: MG_JEN_Joneset::KJones()  version=12dec2005  defined=2006-04-07 15:06'
p965
sg847
(dp966
g2
I00
sg774
I00
ssg197
g962
sg223
(lp967
g49
ag774
ag2
ag779
ag778
ag777
asg52
(dp968
g777
g865
sg778
g865
sg779
g865
sg2
g853
sg774
g856
ssg203
S'MG_JEN_JonesetKJones'
p969
ssg777
g949
sg778
g949
sg779
g949
ssS'[simul_uvp]./MG_JEN_Joneset.FJones()'
p970
(dp971
g760
g761
sg2
S'@@polrep'
p972
sg30
g764
sg765
F0.10000000000000001
sg767
I0
sg36
Nsg37
I5
sg38
g768
sg40
g769
sg770
F0.20000000000000001
sg49
(dp973
g199
S'MG_JEN_Joneset::FJones()'
p974
sg51
g970
sg100
(dp975
g760
I00
sg38
I01
sg2
I01
sg40
I01
sg78
I01
sg774
I01
sg30
I01
sg775
I01
sg767
I01
sg776
I01
sg777
I01
sg778
I01
sg37
I01
sg36
I01
sg779
I01
ssg105
S'defines diagonal FJones Faraday rotation matrices'
p976
sg96
g97
sg109
S'MG_JEN_Joneset::FJones()  version=16dec2005  defined=2006-04-07 15:06'
p977
sg205
S'FJones'
p978
sg111
(dp979
g760
(lp980
g761
ag785
a(lp981
g761
ag785
aaNaS'@@unop'
p982
asg38
(lp983
g768
aS'@@style'
p984
asg2
(lp985
g3
ag793
ag972
asg40
(lp986
g769
aS'@@descr'
p987
asg78
(lp988
F1.0
aS'@@c00_default'
p989
asg774
(lp990
(lp991
I0
aI1
aI2
aI3
aI4
aa(lp992
I0
aI1
aI2
aI3
aI4
aI5
aI6
aa(lp993
I0
aI1
aI2
aI3
aI4
aI5
aI6
aI7
aI8
aI9
aI10
aI11
aI12
aI13
aa(lp994
I0
aI1
aI2
aI3
aI4
aI5
aI6
aI7
aI8
aI9
aI10
aI11
aI12
aI13
aI14
aag803
aS'@@stations'
p995
asg30
(lp996
g764
aS'@@color'
p997
asg765
(lp998
I0
aF0.01
aF0.10000000000000001
aF0.20000000000000001
aF0.5
aS'@@stddev_period'
p999
asg775
(lp1000
I20
aS'@@timescale_min'
p1001
asg776
(lp1002
F1.0
aS'@@c00_scale'
p1003
asg811
(lp1004
F0.29999999999999999
aF0.5
aI1
aI2
aI3
aS'@@mean_period'
p1005
asg821
(lp1006
I0
aF0.0001
aF0.001
aF0.01
aF0.10000000000000001
aI1
aS'@@stddev_c00'
p1007
asg767
(lp1008
I0
aS'@@fdeg'
p1009
asg777
(lp1010
S'FJones'
p1011
aS'@@@Jsequence_KJones'
p1012
asg826
(lp1013
I0
aF0.10000000000000001
aF0.20000000000000001
aF0.5
aF-0.10000000000000001
aS'@@mean_c00'
p1014
asg778
(lp1015
g1011
aS'@@@Jsequence_simul'
p1016
asg37
(lp1017
I5
aS'@@size'
p1018
asg36
(lp1019
NaS'@@unit'
p1020
asg779
(lp1021
g1011
aS'@@@Jsequence'
p1022
assg195
g840
sg209
S'** Description of available inarg record(s) for: MG_JEN_Joneset::FJones()  version=16dec2005  defined=2006-04-07 15:06'
p1023
sg211
I00
sg212
S'2006-04-07 15:06'
p1024
sg103
g929
sg98
S'MG_JEN_Joneset'
p1025
sg201
S'** Specific description of inarg record for: MG_JEN_Joneset::FJones()  version=16dec2005  defined=2006-04-07 15:06'
p1026
sg847
(dp1027
g2
I00
sg774
I00
ssg197
g1024
sg223
(lp1028
g49
ag774
ag2
ag779
ag778
ag777
ag826
ag821
ag811
ag765
ag760
ag775
ag767
ag30
ag38
ag37
ag78
ag776
ag40
ag36
asg52
(dp1029
g760
g851
sg38
g64
sg2
g853
sg40
g854
sg78
g855
sg774
g856
sg30
g58
sg765
g857
sg775
g852
sg776
g860
sg811
g859
sg821
g862
sg767
g863
sg777
g865
sg826
g864
sg778
g865
sg37
g866
sg36
g36
sg779
g865
ssg203
S'MG_JEN_JonesetFJones'
p1030
ssg777
g1011
sg779
g1011
sg868
I50
sg78
F1.0
sg869
I500
sg826
F0.10000000000000001
sg774
g995
sg775
I20
sg811
F1.0
sg821
F0.01
sg776
F1.0
sg778
g1011
sg870
F0.02
ssg13
S'@@parmtable'
p1031
sS'[simul_uvp]./MG_JEN_Joneset.DJones_WSRT()'
p1032
(dp1033
g760
g761
sg2
S'@@polrep'
p1034
sg30
g764
sg765
F0.10000000000000001
sS'coupled_XY_Dell'
p1035
I01
sg767
I0
sg36
Nsg37
I5
sg38
g768
sg40
g769
sg770
F0.002
sg49
(dp1036
g199
S'MG_JEN_Joneset::DJones_WSRT()'
p1037
sg51
g1032
sg100
(dp1038
g760
I00
sg38
I01
sg2
I01
sg40
I01
sg78
I01
sg774
I01
sg30
I01
sg775
I01
sg767
I01
sg776
I01
sg777
I01
sg778
I01
sg37
I01
sg36
I01
sg779
I01
ssg105
S'defines 2x2 DJones_WSRT (polarisation leakage) matrices'
p1039
sg96
g97
sg109
S'MG_JEN_Joneset::DJones_WSRT()  version=16dec2005  defined=2006-04-07 15:06'
p1040
sg205
S'DJones_WSRT'
p1041
sg111
(dp1042
g760
(lp1043
g761
ag785
a(lp1044
g761
ag785
aaNaS'@@unop'
p1045
asg38
(lp1046
g768
aS'@@style'
p1047
asg775
(lp1048
I20
aS'@@timescale_min'
p1049
asg2
(lp1050
g3
ag793
ag1034
asg40
(lp1051
g769
aS'@@descr'
p1052
asg78
(lp1053
F1.0
aS'@@c00_default'
p1054
asg774
(lp1055
(lp1056
I0
aI1
aI2
aI3
aI4
aa(lp1057
I0
aI1
aI2
aI3
aI4
aI5
aI6
aa(lp1058
I0
aI1
aI2
aI3
aI4
aI5
aI6
aI7
aI8
aI9
aI10
aI11
aI12
aI13
aa(lp1059
I0
aI1
aI2
aI3
aI4
aI5
aI6
aI7
aI8
aI9
aI10
aI11
aI12
aI13
aI14
aag803
aS'@@stations'
p1060
asg30
(lp1061
g764
aS'@@color'
p1062
asg765
(lp1063
I0
aF0.01
aF0.10000000000000001
aF0.20000000000000001
aF0.5
aS'@@stddev_period'
p1064
asg1035
(lp1065
I01
aI00
aS'@@coupled_XY_Dell'
p1066
asg776
(lp1067
F1.0
aS'@@c00_scale'
p1068
asg811
(lp1069
F0.29999999999999999
aF0.5
aI1
aI2
aI3
aS'@@mean_period'
p1070
asg821
(lp1071
I0
aF0.0001
aF0.001
aF0.01
aF0.10000000000000001
aI1
aS'@@stddev_c00'
p1072
asg767
(lp1073
I0
aS'@@fdeg'
p1074
asg826
(lp1075
I0
aF0.10000000000000001
aF0.20000000000000001
aF0.5
aF-0.10000000000000001
aS'@@mean_c00'
p1076
asg777
(lp1077
S'DJones_WSRT'
p1078
aS'@@@Jsequence_KJones'
p1079
asg778
(lp1080
g1078
aS'@@@Jsequence_simul'
p1081
asg37
(lp1082
I5
aS'@@size'
p1083
asS'coupled_XY_Dang'
p1084
(lp1085
I01
aI00
aS'@@coupled_XY_Dang'
p1086
asg36
(lp1087
NaS'@@unit'
p1088
asg779
(lp1089
g1078
aS'@@@Jsequence'
p1090
assg195
g840
sg209
S'** Description of available inarg record(s) for: MG_JEN_Joneset::DJones_WSRT()  version=16dec2005  defined=2006-04-07 15:06'
p1091
sg211
I00
sg212
S'2006-04-07 15:06'
p1092
sg103
g929
sg98
S'MG_JEN_Joneset'
p1093
sg107
(dp1094
g1084
I00
sg1035
I00
ssg201
S'** Specific description of inarg record for: MG_JEN_Joneset::DJones_WSRT()  version=16dec2005  defined=2006-04-07 15:06'
p1095
sg847
(dp1096
g2
I00
sg774
I00
ssg197
g1092
sg223
(lp1097
g49
ag774
ag2
ag779
ag778
ag777
ag1084
ag1035
ag826
ag821
ag811
ag765
ag760
ag775
ag767
ag30
ag38
ag37
ag78
ag776
ag40
ag36
asg52
(dp1098
g760
g851
sg38
g64
sg775
g852
sg2
g853
sg40
g854
sg78
g855
sg774
g856
sg30
g58
sg765
g857
sg1035
S'if True, XDell = -YDell per station'
p1099
sg776
g860
sg811
g859
sg821
g862
sg767
g863
sg826
g864
sg777
g865
sg778
g865
sg37
g866
sg1084
S'if True, XDang = YDang per station'
p1100
sg36
g36
sg779
g865
ssg203
S'MG_JEN_JonesetDJones_WSRT'
p1101
ssg777
g1078
sg779
g1078
sg868
I100
sg78
F1.0
sg869
I3000
sg826
F0.10000000000000001
sg1084
I01
sg774
g1060
sg775
I20
sg811
F1.0
sg821
F0.01
sg776
F1.0
sg778
g1078
sg870
F0.00020000000000000001
ssg49
(dp1102
g199
S'MG_JEN_Cohset::Jones()'
p1103
sg51
g756
sg100
(dp1104
g2
I01
sg774
I01
sg872
I01
sg13
I01
sg777
I01
sg778
I01
sg779
I01
ssg203
S'MG_JEN_CohsetJones'
p1105
sg96
g97
sg105
S'Make a Joneset by creating and multiplying a sequence of one ore more Jonesets'
p1106
sg109
S'MG_JEN_Cohset::Jones()  version=25dec2005  defined=2006-04-07 15:06'
p1107
sg205
S'Jones'
p1108
sg111
(dp1109
g2
(lp1110
g3
ag793
ag871
asg774
(lp1111
(lp1112
I0
aI1
aI2
aI3
aI4
aa(lp1113
I0
aI1
aI2
aI3
aI4
aI5
aI6
aa(lp1114
I0
aI1
aI2
aI3
aI4
aI5
aI6
aI7
aI8
aI9
aI10
aI11
aI12
aI13
aa(lp1115
I0
aI1
aI2
aI3
aI4
aI5
aI6
aI7
aI8
aI9
aI10
aI11
aI12
aI13
aI14
aag803
ag936
asg872
(lp1116
I00
ag873
asg13
(lp1117
NaS'test'
p1118
ag1031
asg777
(lp1119
NaS'@@@Jsequence_KJones'
p1120
asg778
(lp1121
NaS'@@@Jsequence_simul'
p1122
asS'Jsequence'
p1123
(lp1124
(lp1125
S'GJones'
p1126
aa(lp1127
g915
aa(lp1128
g1011
aa(lp1129
g949
aa(lp1130
g1078
aa(lp1131
g1126
ag1078
aa(lp1132
S'EJones_WSRT'
p1133
aa(lp1134
g1126
ag1133
aa(lp1135
g830
aa(lp1136
aS'@@Jsequence'
p1137
asg779
(lp1138
NaS'@@@Jsequence'
p1139
assg195
g840
sg209
S'** Description of available inarg record(s) for: MG_JEN_Cohset::Jones()  version=25dec2005  defined=2006-04-07 15:06'
p1140
sg211
I00
sg212
S'2006-04-07 15:06'
p1141
sg103
S'25dec2005'
p1142
sg98
S'MG_JEN_Cohset'
p1143
sg201
S'** Specific description of inarg record for: MG_JEN_Cohset::Jones()  version=25dec2005  defined=2006-04-07 15:06'
p1144
sg213
(dp1145
g215
S'** JEN_inarg.attach(): attached: [simul_uvp]./MG_JEN_Joneset.FJones()'
p1146
sg217
S'** JEN_inarg.attach(): attached: [simul_uvp]./MG_JEN_Joneset.GJones()'
p1147
sg219
S'** JEN_inarg.attach(): attached: [simul_uvp]./MG_JEN_Joneset.KJones()'
p1148
sg221
S'** JEN_inarg.attach(): attached: [simul_uvp]./MG_JEN_Joneset.BJones()'
p1149
sS'5'
p1150
S'** JEN_inarg.attach(): attached: [simul_uvp]./MG_JEN_Joneset.EJones_WSRT()'
p1151
sS'4'
p1152
S'** JEN_inarg.attach(): attached: [simul_uvp]./MG_JEN_Joneset.DJones_WSRT()'
p1153
sS'7'
p1154
S"  2: ....[simul_uvp]./MG_JEN_Cohset.Jones() (qual=simul_uvp): .modify(Jsequence):   []  ->  ['DJones_WSRT']"
p1155
sS'6'
p1156
S'** JEN_inarg.attach(): attached: [simul_uvp]./MG_JEN_Joneset.JJones()'
p1157
ssg197
g1141
sg847
(dp1158
g872
I00
sg13
I00
sg2
I00
sg774
I00
ssg223
(lp1159
g49
ag774
ag2
ag779
ag778
ag777
ag13
ag872
ag1123
aS'[simul_uvp]./MG_JEN_Joneset.GJones()'
p1160
ag970
ag874
ag937
ag1032
aS'[simul_uvp]./MG_JEN_Joneset.EJones_WSRT()'
p1161
ag758
asg52
(dp1162
g2
g853
sg774
g856
sg872
S'if True, the Joneset reprsents uv-plane effects (q=uvp)'
p1163
sg13
S'name of the MeqParm table to be used'
p1164
sg777
g865
sg778
g865
sg1123
S'sequence of Jones matrices to be used'
p1165
sg779
g865
sssg777
Nsg778
Nsg1123
(lp1166
g1078
asg1160
(dp1167
g760
g761
sg777
g1126
sg38
g768
sg2
S'@@polrep'
p1168
sg78
F1.0
sg40
g769
sg774
S'@@stations'
p1169
sg30
g764
sg765
F0.10000000000000001
sg775
I20
sg811
F1.0
sg821
F0.01
sg49
(dp1170
g199
S'MG_JEN_Joneset::GJones()'
p1171
sg51
g1160
sg100
(dp1172
g760
I00
sg38
I01
sg2
I01
sg40
I01
sg78
I01
sg774
I01
sg30
I01
sg775
I01
sg37
I01
sg767
I01
sg776
I01
sg777
I01
sg778
I01
sS'Gpolar'
p1173
I01
sg36
I01
sg779
I01
ssg105
S'Defines diagonal 2x2 Jones matrices that represent complex gain:\n    Gjones(station,source) matrix elements:\n    - G_11 = Ggain_X*exp(iGphase_X)\n    - G_12 = 0\n    - G_21 = 0\n    - G_22 = Ggain_Y*exp(iGphase_Y)\n    For circular polarisation, R and L are used rather than X and Y\n    '
p1174
sg96
g97
sg109
S'MG_JEN_Joneset::GJones()  version=15dec2005  defined=2006-04-07 15:06'
p1175
sg205
S'GJones'
p1176
sg111
(dp1177
g760
(lp1178
g761
ag785
a(lp1179
g761
ag785
aaNaS'@@unop'
p1180
asg38
(lp1181
g768
aS'@@style'
p1182
asg2
(lp1183
g3
ag793
ag1168
asg40
(lp1184
g769
aS'@@descr'
p1185
asg78
(lp1186
F1.0
aS'@@c00_default'
p1187
asg774
(lp1188
(lp1189
I0
aI1
aI2
aI3
aI4
aa(lp1190
I0
aI1
aI2
aI3
aI4
aI5
aI6
aa(lp1191
I0
aI1
aI2
aI3
aI4
aI5
aI6
aI7
aI8
aI9
aI10
aI11
aI12
aI13
aa(lp1192
I0
aI1
aI2
aI3
aI4
aI5
aI6
aI7
aI8
aI9
aI10
aI11
aI12
aI13
aI14
aag803
ag1169
asg30
(lp1193
g764
aS'@@color'
p1194
asg765
(lp1195
I0
aF0.01
aF0.10000000000000001
aF0.20000000000000001
aF0.5
aS'@@stddev_period'
p1196
asg775
(lp1197
I20
aS'@@timescale_min'
p1198
asg776
(lp1199
F1.0
aS'@@c00_scale'
p1200
asg811
(lp1201
F0.29999999999999999
aF0.5
aI1
aI2
aI3
aS'@@mean_period'
p1202
asg821
(lp1203
I0
aF0.0001
aF0.001
aF0.01
aF0.10000000000000001
aI1
aS'@@stddev_c00'
p1204
asg37
(lp1205
I5
aS'@@size'
p1206
asg767
(lp1207
I0
aS'@@fdeg'
p1208
asg826
(lp1209
I0
aF0.10000000000000001
aF0.20000000000000001
aF0.5
aF-0.10000000000000001
aS'@@mean_c00'
p1210
asg777
(lp1211
g1126
aS'@@@Jsequence_KJones'
p1212
asg778
(lp1213
g1126
aS'@@@Jsequence_simul'
p1214
asg1173
(lp1215
I01
aI00
aS'@@Gpolar'
p1216
asg36
(lp1217
NaS'@@unit'
p1218
asg779
(lp1219
g1126
aS'@@@Jsequence'
p1220
assg195
g840
sg209
S'** Description of available inarg record(s) for: MG_JEN_Joneset::GJones()  version=15dec2005  defined=2006-04-07 15:06'
p1221
sg211
I00
sg212
S'2006-04-07 15:06'
p1222
sg103
S'15dec2005'
p1223
sg98
S'MG_JEN_Joneset'
p1224
sg107
(dp1225
g1173
I00
ssg201
S'** Specific description of inarg record for: MG_JEN_Joneset::GJones()  version=15dec2005  defined=2006-04-07 15:06'
p1226
sg847
(dp1227
g2
I00
sg774
I00
ssg197
g1222
sg223
(lp1228
g49
ag774
ag2
ag779
ag778
ag777
ag1173
ag826
ag821
ag811
ag765
ag760
ag775
ag767
ag30
ag38
ag37
ag78
ag776
ag40
ag36
asg52
(dp1229
g760
g851
sg38
g64
sg2
g853
sg40
g854
sg78
g855
sg774
g856
sg30
g58
sg765
g857
sg775
g852
sg776
g860
sg811
g859
sg821
g862
sg37
g866
sg767
g863
sg826
g864
sg777
g865
sg778
g865
sg1173
S'obsolete, kept only for upward compatibility'
p1230
sg36
g36
sg779
g865
ssg203
S'MG_JEN_JonesetGJones'
p1231
ssg767
I0
sg826
F0.10000000000000001
sg776
F1.0
sg778
g1126
sg1173
I01
sg37
I5
sg36
Nsg779
g1126
ssg1161
(dp1232
g760
g761
sg38
g768
sg2
S'@@polrep'
p1233
sg40
g769
sg78
F1.0
sg774
S'@@stations'
p1234
sg30
g764
sg765
F0.10000000000000001
sg826
F0.10000000000000001
sg775
I20
sg811
F1.0
sg821
F0.01
sg49
(dp1235
g199
S'MG_JEN_Joneset::EJones_WSRT()'
p1236
sg51
g1161
sg100
(dp1237
g760
I00
sg38
I01
sg2
I01
sg40
I01
sg78
I01
sg774
I01
sg30
I01
sg775
I01
sg767
I01
sg776
I01
sg777
I01
sg778
I01
sg37
I01
sg36
I01
sg779
I01
ssg105
S'defines EJones (voltage beamshape) matrices for WSRT (l,m interpolatable)\n    Ejones(station,source) matrix elements:\n    - E_11 = Egain_X*exp(iEphase_X)\n    - E_12 = 0\n    - E_21 = 0\n    - E_22 = Egain_Y*exp(iEphase_Y)\n    For circular polarisation, R and L are used rather than X and Y\n    '
p1238
sg96
g97
sg109
S'MG_JEN_Joneset::EJones_WSRT()  version=15dec2005  defined=2006-04-07 15:06'
p1239
sg205
S'EJones_WSRT'
p1240
sg111
(dp1241
g760
(lp1242
g761
ag785
a(lp1243
g761
ag785
aaNaS'@@unop'
p1244
asg38
(lp1245
g768
aS'@@style'
p1246
asg2
(lp1247
g3
ag793
ag1233
asg40
(lp1248
g769
aS'@@descr'
p1249
asg78
(lp1250
F1.0
aS'@@c00_default'
p1251
asg774
(lp1252
(lp1253
I0
aI1
aI2
aI3
aI4
aa(lp1254
I0
aI1
aI2
aI3
aI4
aI5
aI6
aa(lp1255
I0
aI1
aI2
aI3
aI4
aI5
aI6
aI7
aI8
aI9
aI10
aI11
aI12
aI13
aa(lp1256
I0
aI1
aI2
aI3
aI4
aI5
aI6
aI7
aI8
aI9
aI10
aI11
aI12
aI13
aI14
aag803
ag1234
asg30
(lp1257
g764
aS'@@color'
p1258
asg765
(lp1259
I0
aF0.01
aF0.10000000000000001
aF0.20000000000000001
aF0.5
aS'@@stddev_period'
p1260
asg775
(lp1261
I20
aS'@@timescale_min'
p1262
asg776
(lp1263
F1.0
aS'@@c00_scale'
p1264
asg811
(lp1265
F0.29999999999999999
aF0.5
aI1
aI2
aI3
aS'@@mean_period'
p1266
asg821
(lp1267
I0
aF0.0001
aF0.001
aF0.01
aF0.10000000000000001
aI1
aS'@@stddev_c00'
p1268
asg767
(lp1269
I0
aS'@@fdeg'
p1270
asg777
(lp1271
g1133
aS'@@@Jsequence_KJones'
p1272
asg826
(lp1273
I0
aF0.10000000000000001
aF0.20000000000000001
aF0.5
aF-0.10000000000000001
aS'@@mean_c00'
p1274
asg778
(lp1275
g1133
aS'@@@Jsequence_simul'
p1276
asg37
(lp1277
I5
aS'@@size'
p1278
asg36
(lp1279
NaS'@@unit'
p1280
asg779
(lp1281
g1133
aS'@@@Jsequence'
p1282
assg195
g840
sg209
S'** Description of available inarg record(s) for: MG_JEN_Joneset::EJones_WSRT()  version=15dec2005  defined=2006-04-07 15:06'
p1283
sg211
I00
sg212
S'2006-04-07 15:06'
p1284
sg103
g1223
sg98
S'MG_JEN_Joneset'
p1285
sg201
S'** Specific description of inarg record for: MG_JEN_Joneset::EJones_WSRT()  version=15dec2005  defined=2006-04-07 15:06'
p1286
sg847
(dp1287
g2
I00
sg774
I00
ssg197
g1284
sg223
(lp1288
g49
ag774
ag2
ag779
ag778
ag777
ag826
ag821
ag811
ag765
ag760
ag775
ag767
ag30
ag38
ag37
ag78
ag776
ag40
ag36
asg52
(dp1289
g760
g851
sg38
g64
sg2
g853
sg40
g854
sg78
g855
sg774
g856
sg30
g58
sg765
g857
sg775
g852
sg776
g860
sg811
g859
sg821
g862
sg767
g863
sg777
g865
sg826
g864
sg778
g865
sg37
g866
sg36
g36
sg779
g865
ssg203
S'MG_JEN_JonesetEJones_WSRT'
p1290
ssg767
I0
sg776
F1.0
sg777
g1133
sg778
g1133
sg37
I5
sg36
Nsg779
g1133
ssg779
Nssg2
S'@@polrep'
p1291
sg774
S'@@stations'
p1292
sg49
(dp1293
g199
S'MG_JEN_Cohset::predict_lsm()'
p1294
sg51
g754
sg100
(dp1295
g777
I01
sg778
I01
sg779
I01
sg2
I01
sg774
I01
ssg203
S'MG_JEN_Cohsetpredict_lsm'
p1296
sg96
g97
sg109
S'MG_JEN_Cohset::predict_lsm()  version=20mar2006  defined=2006-04-07 15:06'
p1297
sg205
S'predict_lsm'
p1298
sg111
(dp1299
g2
(lp1300
g3
ag793
ag1291
asg774
(lp1301
(lp1302
I0
aI1
aI2
aI3
aI4
aa(lp1303
I0
aI1
aI2
aI3
aI4
aI5
aI6
aa(lp1304
I0
aI1
aI2
aI3
aI4
aI5
aI6
aI7
aI8
aI9
aI10
aI11
aI12
aI13
aa(lp1305
I0
aI1
aI2
aI3
aI4
aI5
aI6
aI7
aI8
aI9
aI10
aI11
aI12
aI13
aI14
aag803
ag1292
asS'nr_lsm_sources'
p1306
(lp1307
I1
aI2
aI3
aI5
aI10
aI20
aI100
aI1000
aI10000
aS'@@nr_lsm_sources'
p1308
asg777
(lp1309
NaS'@@@Jsequence_KJones'
p1310
asg778
(lp1311
NaS'@@@Jsequence_simul'
p1312
asg779
(lp1313
NaS'@@@Jsequence'
p1314
assg195
g231
sg209
S'** Description of available inarg record(s) for: MG_JEN_Cohset::predict_lsm()  version=20mar2006  defined=2006-04-07 15:06'
p1315
sg211
I00
sg212
S'2006-04-07 15:06'
p1316
sg103
S'20mar2006'
p1317
sg98
S'MG_JEN_Cohset'
p1318
sg201
S'** Specific description of inarg record for: MG_JEN_Cohset::predict_lsm()  version=20mar2006  defined=2006-04-07 15:06'
p1319
sg213
(dp1320
g215
S'** JEN_inarg.attach(): attached: [simul_uvp]./MG_JEN_Cohset.Jones()'
p1321
sg217
S'** JEN_inarg.attach(): attached: [simul_imp]./MG_JEN_Cohset.Jones()'
p1322
ssg197
g1316
sg847
(dp1323
g2
I00
sg774
I00
ssg223
(lp1324
g49
ag1306
ag774
ag2
ag779
ag778
ag777
aS'[simul_imp]./MG_JEN_Cohset.Jones()'
p1325
ag756
asg52
(dp1326
g2
g853
sg774
g856
sg1306
S'nr of lsm sources to be included (in order of brightness)'
p1327
sg777
g865
sg778
g865
sg779
g865
ssg105
S'Obsolete (upward compatibility) version of .predict_cps()'
p1328
ssg1306
I10000
sg777
Nsg778
Nsg1325
(dp1329
S'[simul_imp]./MG_JEN_Joneset.BJones()'
p1330
(dp1331
g760
g761
sg2
S'@@polrep'
p1332
sg30
g764
sg765
F0.10000000000000001
sg767
I0
sg36
Nsg37
I5
sg38
g768
sg40
g769
sg770
F0.20000000000000001
sg49
(dp1333
g199
S'MG_JEN_Joneset::BJones()'
p1334
sg51
g1330
sg100
(dp1335
g760
I00
sg38
I01
sg2
I01
sg40
I01
sg78
I01
sg774
I01
sg30
I01
sg775
I01
sg767
I01
sg776
I01
sg777
I01
sg778
I01
sg37
I01
sg36
I01
sg779
I01
ssg105
g880
sg96
g97
sg109
S'MG_JEN_Joneset::BJones()  version=16dec2005  defined=2006-04-07 15:06'
p1336
sg205
S'BJones'
p1337
sg111
(dp1338
g760
(lp1339
g761
ag785
a(lp1340
g761
ag785
aaNaS'@@unop'
p1341
asg38
(lp1342
g768
aS'@@style'
p1343
asg2
(lp1344
g3
ag793
ag1332
asg40
(lp1345
g769
aS'@@descr'
p1346
asg78
(lp1347
F1.0
aS'@@c00_default'
p1348
asg774
(lp1349
(lp1350
I0
aI1
aI2
aI3
aI4
aa(lp1351
I0
aI1
aI2
aI3
aI4
aI5
aI6
aa(lp1352
I0
aI1
aI2
aI3
aI4
aI5
aI6
aI7
aI8
aI9
aI10
aI11
aI12
aI13
aa(lp1353
I0
aI1
aI2
aI3
aI4
aI5
aI6
aI7
aI8
aI9
aI10
aI11
aI12
aI13
aI14
aag803
aS'@@stations'
p1354
asg30
(lp1355
g764
aS'@@color'
p1356
asg765
(lp1357
I0
aF0.01
aF0.10000000000000001
aF0.20000000000000001
aF0.5
aS'@@stddev_period'
p1358
asg775
(lp1359
I20
aS'@@timescale_min'
p1360
asg776
(lp1361
F1.0
aS'@@c00_scale'
p1362
asg811
(lp1363
F0.29999999999999999
aF0.5
aI1
aI2
aI3
aS'@@mean_period'
p1364
asg821
(lp1365
I0
aF0.0001
aF0.001
aF0.01
aF0.10000000000000001
aI1
aS'@@stddev_c00'
p1366
asg767
(lp1367
I0
aS'@@fdeg'
p1368
asg777
(lp1369
g915
aS'@@@Jsequence_KJones'
p1370
asg826
(lp1371
I0
aF0.10000000000000001
aF0.20000000000000001
aF0.5
aF-0.10000000000000001
aS'@@mean_c00'
p1372
asg778
(lp1373
g915
aS'@@@Jsequence_simul'
p1374
asg37
(lp1375
I5
aS'@@size'
p1376
asg36
(lp1377
NaS'@@unit'
p1378
asg779
(lp1379
g915
aS'@@@Jsequence'
p1380
assg195
S'simul_imp'
p1381
sg209
S'** Description of available inarg record(s) for: MG_JEN_Joneset::BJones()  version=16dec2005  defined=2006-04-07 15:06'
p1382
sg211
I00
sg212
S'2006-04-07 15:06'
p1383
sg103
g929
sg98
S'MG_JEN_Joneset'
p1384
sg201
S'** Specific description of inarg record for: MG_JEN_Joneset::BJones()  version=16dec2005  defined=2006-04-07 15:06'
p1385
sg847
(dp1386
g2
I00
sg774
I00
ssg197
g1383
sg223
(lp1387
g49
ag774
ag2
ag779
ag778
ag777
ag826
ag821
ag811
ag765
ag760
ag775
ag767
ag30
ag38
ag37
ag78
ag776
ag40
ag36
asg52
(dp1388
g760
g851
sg38
g64
sg2
g853
sg40
g854
sg78
g855
sg774
g856
sg30
g58
sg765
g857
sg775
g852
sg776
g860
sg811
g859
sg821
g862
sg767
g863
sg777
g865
sg826
g864
sg778
g865
sg37
g866
sg36
g36
sg779
g865
ssg203
S'MG_JEN_JonesetBJones'
p1389
ssg777
g915
sg779
g915
sg868
I100
sg78
F1.0
sg869
I5000
sg826
F0.10000000000000001
sg774
g1354
sg775
I20
sg811
F1.0
sg821
F0.01
sg776
F1.0
sg778
g915
sg870
F0.02
ssg2
S'@@polrep'
p1390
sS'[simul_imp]./MG_JEN_Joneset.EJones_WSRT()'
p1391
(dp1392
g760
g761
sg38
g768
sg2
S'@@polrep'
p1393
sg40
g769
sg78
F1.0
sg774
S'@@stations'
p1394
sg30
g764
sg765
F0.10000000000000001
sg826
F0.10000000000000001
sg775
I20
sg811
F1.0
sg821
F0.01
sg49
(dp1395
g199
S'MG_JEN_Joneset::EJones_WSRT()'
p1396
sg51
g1391
sg100
(dp1397
g760
I00
sg38
I01
sg2
I01
sg40
I01
sg78
I01
sg774
I01
sg30
I01
sg775
I01
sg767
I01
sg776
I01
sg777
I01
sg778
I01
sg37
I01
sg36
I01
sg779
I01
ssg105
g1238
sg96
g97
sg109
S'MG_JEN_Joneset::EJones_WSRT()  version=15dec2005  defined=2006-04-07 15:06'
p1398
sg205
S'EJones_WSRT'
p1399
sg111
(dp1400
g760
(lp1401
g761
ag785
a(lp1402
g761
ag785
aaNaS'@@unop'
p1403
asg38
(lp1404
g768
aS'@@style'
p1405
asg2
(lp1406
g3
ag793
ag1393
asg40
(lp1407
g769
aS'@@descr'
p1408
asg78
(lp1409
F1.0
aS'@@c00_default'
p1410
asg774
(lp1411
(lp1412
I0
aI1
aI2
aI3
aI4
aa(lp1413
I0
aI1
aI2
aI3
aI4
aI5
aI6
aa(lp1414
I0
aI1
aI2
aI3
aI4
aI5
aI6
aI7
aI8
aI9
aI10
aI11
aI12
aI13
aa(lp1415
I0
aI1
aI2
aI3
aI4
aI5
aI6
aI7
aI8
aI9
aI10
aI11
aI12
aI13
aI14
aag803
ag1394
asg30
(lp1416
g764
aS'@@color'
p1417
asg765
(lp1418
I0
aF0.01
aF0.10000000000000001
aF0.20000000000000001
aF0.5
aS'@@stddev_period'
p1419
asg775
(lp1420
I20
aS'@@timescale_min'
p1421
asg776
(lp1422
F1.0
aS'@@c00_scale'
p1423
asg811
(lp1424
F0.29999999999999999
aF0.5
aI1
aI2
aI3
aS'@@mean_period'
p1425
asg821
(lp1426
I0
aF0.0001
aF0.001
aF0.01
aF0.10000000000000001
aI1
aS'@@stddev_c00'
p1427
asg767
(lp1428
I0
aS'@@fdeg'
p1429
asg777
(lp1430
g1133
aS'@@@Jsequence_KJones'
p1431
asg826
(lp1432
I0
aF0.10000000000000001
aF0.20000000000000001
aF0.5
aF-0.10000000000000001
aS'@@mean_c00'
p1433
asg778
(lp1434
g1133
aS'@@@Jsequence_simul'
p1435
asg37
(lp1436
I5
aS'@@size'
p1437
asg36
(lp1438
NaS'@@unit'
p1439
asg779
(lp1440
g1133
aS'@@@Jsequence'
p1441
assg195
g1381
sg209
S'** Description of available inarg record(s) for: MG_JEN_Joneset::EJones_WSRT()  version=15dec2005  defined=2006-04-07 15:06'
p1442
sg211
I00
sg212
S'2006-04-07 15:06'
p1443
sg103
g1223
sg98
S'MG_JEN_Joneset'
p1444
sg201
S'** Specific description of inarg record for: MG_JEN_Joneset::EJones_WSRT()  version=15dec2005  defined=2006-04-07 15:06'
p1445
sg847
(dp1446
g2
I00
sg774
I00
ssg197
g1443
sg223
(lp1447
g49
ag774
ag2
ag779
ag778
ag777
ag826
ag821
ag811
ag765
ag760
ag775
ag767
ag30
ag38
ag37
ag78
ag776
ag40
ag36
asg52
(dp1448
g760
g851
sg38
g64
sg2
g853
sg40
g854
sg78
g855
sg774
g856
sg30
g58
sg765
g857
sg775
g852
sg776
g860
sg811
g859
sg821
g862
sg767
g863
sg777
g865
sg826
g864
sg778
g865
sg37
g866
sg36
g36
sg779
g865
ssg203
S'MG_JEN_JonesetEJones_WSRT'
p1449
ssg767
I0
sg776
F1.0
sg777
g1133
sg778
g1133
sg37
I5
sg36
Nsg779
g1133
ssg774
S'@@stations'
p1450
sS'[simul_imp]./MG_JEN_Joneset.GJones()'
p1451
(dp1452
g760
g761
sg777
g1126
sg38
g768
sg2
S'@@polrep'
p1453
sg78
F1.0
sg40
g769
sg774
S'@@stations'
p1454
sg30
g764
sg765
F0.10000000000000001
sg775
I20
sg811
F1.0
sg821
F0.01
sg49
(dp1455
g199
S'MG_JEN_Joneset::GJones()'
p1456
sg51
g1451
sg100
(dp1457
g760
I00
sg38
I01
sg2
I01
sg40
I01
sg78
I01
sg774
I01
sg30
I01
sg775
I01
sg37
I01
sg767
I01
sg776
I01
sg777
I01
sg778
I01
sg1173
I01
sg36
I01
sg779
I01
ssg105
g1174
sg96
g97
sg109
S'MG_JEN_Joneset::GJones()  version=15dec2005  defined=2006-04-07 15:06'
p1458
sg205
S'GJones'
p1459
sg111
(dp1460
g760
(lp1461
g761
ag785
a(lp1462
g761
ag785
aaNaS'@@unop'
p1463
asg38
(lp1464
g768
aS'@@style'
p1465
asg2
(lp1466
g3
ag793
ag1453
asg40
(lp1467
g769
aS'@@descr'
p1468
asg78
(lp1469
F1.0
aS'@@c00_default'
p1470
asg774
(lp1471
(lp1472
I0
aI1
aI2
aI3
aI4
aa(lp1473
I0
aI1
aI2
aI3
aI4
aI5
aI6
aa(lp1474
I0
aI1
aI2
aI3
aI4
aI5
aI6
aI7
aI8
aI9
aI10
aI11
aI12
aI13
aa(lp1475
I0
aI1
aI2
aI3
aI4
aI5
aI6
aI7
aI8
aI9
aI10
aI11
aI12
aI13
aI14
aag803
ag1454
asg30
(lp1476
g764
aS'@@color'
p1477
asg765
(lp1478
I0
aF0.01
aF0.10000000000000001
aF0.20000000000000001
aF0.5
aS'@@stddev_period'
p1479
asg775
(lp1480
I20
aS'@@timescale_min'
p1481
asg776
(lp1482
F1.0
aS'@@c00_scale'
p1483
asg811
(lp1484
F0.29999999999999999
aF0.5
aI1
aI2
aI3
aS'@@mean_period'
p1485
asg821
(lp1486
I0
aF0.0001
aF0.001
aF0.01
aF0.10000000000000001
aI1
aS'@@stddev_c00'
p1487
asg37
(lp1488
I5
aS'@@size'
p1489
asg767
(lp1490
I0
aS'@@fdeg'
p1491
asg826
(lp1492
I0
aF0.10000000000000001
aF0.20000000000000001
aF0.5
aF-0.10000000000000001
aS'@@mean_c00'
p1493
asg777
(lp1494
g1126
aS'@@@Jsequence_KJones'
p1495
asg778
(lp1496
g1126
aS'@@@Jsequence_simul'
p1497
asg1173
(lp1498
I01
aI00
aS'@@Gpolar'
p1499
asg36
(lp1500
NaS'@@unit'
p1501
asg779
(lp1502
g1126
aS'@@@Jsequence'
p1503
assg195
g1381
sg209
S'** Description of available inarg record(s) for: MG_JEN_Joneset::GJones()  version=15dec2005  defined=2006-04-07 15:06'
p1504
sg211
I00
sg212
S'2006-04-07 15:06'
p1505
sg103
g1223
sg98
S'MG_JEN_Joneset'
p1506
sg107
(dp1507
g1173
I00
ssg201
S'** Specific description of inarg record for: MG_JEN_Joneset::GJones()  version=15dec2005  defined=2006-04-07 15:06'
p1508
sg847
(dp1509
g2
I00
sg774
I00
ssg197
g1505
sg223
(lp1510
g49
ag774
ag2
ag779
ag778
ag777
ag1173
ag826
ag821
ag811
ag765
ag760
ag775
ag767
ag30
ag38
ag37
ag78
ag776
ag40
ag36
asg52
(dp1511
g760
g851
sg38
g64
sg2
g853
sg40
g854
sg78
g855
sg774
g856
sg30
g58
sg765
g857
sg775
g852
sg776
g860
sg811
g859
sg821
g862
sg37
g866
sg767
g863
sg826
g864
sg777
g865
sg778
g865
sg1173
g1230
sg36
g36
sg779
g865
ssg203
S'MG_JEN_JonesetGJones'
p1512
ssg767
I0
sg826
F0.10000000000000001
sg776
F1.0
sg778
g1126
sg1173
I01
sg37
I5
sg36
Nsg779
g1126
ssg1123
(lp1513
sS'[simul_imp]./MG_JEN_Joneset.DJones_WSRT()'
p1514
(dp1515
g760
g761
sg2
S'@@polrep'
p1516
sg30
g764
sg765
F0.10000000000000001
sg1035
I01
sg767
I0
sg36
Nsg37
I5
sg38
g768
sg40
g769
sg770
F0.002
sg49
(dp1517
g199
S'MG_JEN_Joneset::DJones_WSRT()'
p1518
sg51
g1514
sg100
(dp1519
g760
I00
sg38
I01
sg2
I01
sg40
I01
sg78
I01
sg774
I01
sg30
I01
sg775
I01
sg767
I01
sg776
I01
sg777
I01
sg778
I01
sg37
I01
sg36
I01
sg779
I01
ssg105
g1039
sg96
g97
sg109
S'MG_JEN_Joneset::DJones_WSRT()  version=16dec2005  defined=2006-04-07 15:06'
p1520
sg205
S'DJones_WSRT'
p1521
sg111
(dp1522
g760
(lp1523
g761
ag785
a(lp1524
g761
ag785
aaNaS'@@unop'
p1525
asg38
(lp1526
g768
aS'@@style'
p1527
asg775
(lp1528
I20
aS'@@timescale_min'
p1529
asg2
(lp1530
g3
ag793
ag1516
asg40
(lp1531
g769
aS'@@descr'
p1532
asg78
(lp1533
F1.0
aS'@@c00_default'
p1534
asg774
(lp1535
(lp1536
I0
aI1
aI2
aI3
aI4
aa(lp1537
I0
aI1
aI2
aI3
aI4
aI5
aI6
aa(lp1538
I0
aI1
aI2
aI3
aI4
aI5
aI6
aI7
aI8
aI9
aI10
aI11
aI12
aI13
aa(lp1539
I0
aI1
aI2
aI3
aI4
aI5
aI6
aI7
aI8
aI9
aI10
aI11
aI12
aI13
aI14
aag803
aS'@@stations'
p1540
asg30
(lp1541
g764
aS'@@color'
p1542
asg765
(lp1543
I0
aF0.01
aF0.10000000000000001
aF0.20000000000000001
aF0.5
aS'@@stddev_period'
p1544
asg1035
(lp1545
I01
aI00
aS'@@coupled_XY_Dell'
p1546
asg776
(lp1547
F1.0
aS'@@c00_scale'
p1548
asg811
(lp1549
F0.29999999999999999
aF0.5
aI1
aI2
aI3
aS'@@mean_period'
p1550
asg821
(lp1551
I0
aF0.0001
aF0.001
aF0.01
aF0.10000000000000001
aI1
aS'@@stddev_c00'
p1552
asg767
(lp1553
I0
aS'@@fdeg'
p1554
asg826
(lp1555
I0
aF0.10000000000000001
aF0.20000000000000001
aF0.5
aF-0.10000000000000001
aS'@@mean_c00'
p1556
asg777
(lp1557
g1078
aS'@@@Jsequence_KJones'
p1558
asg778
(lp1559
g1078
aS'@@@Jsequence_simul'
p1560
asg37
(lp1561
I5
aS'@@size'
p1562
asg1084
(lp1563
I01
aI00
aS'@@coupled_XY_Dang'
p1564
asg36
(lp1565
NaS'@@unit'
p1566
asg779
(lp1567
g1078
aS'@@@Jsequence'
p1568
assg195
g1381
sg209
S'** Description of available inarg record(s) for: MG_JEN_Joneset::DJones_WSRT()  version=16dec2005  defined=2006-04-07 15:06'
p1569
sg211
I00
sg212
S'2006-04-07 15:06'
p1570
sg103
g929
sg98
S'MG_JEN_Joneset'
p1571
sg107
(dp1572
g1084
I00
sg1035
I00
ssg201
S'** Specific description of inarg record for: MG_JEN_Joneset::DJones_WSRT()  version=16dec2005  defined=2006-04-07 15:06'
p1573
sg847
(dp1574
g2
I00
sg774
I00
ssg197
g1570
sg223
(lp1575
g49
ag774
ag2
ag779
ag778
ag777
ag1084
ag1035
ag826
ag821
ag811
ag765
ag760
ag775
ag767
ag30
ag38
ag37
ag78
ag776
ag40
ag36
asg52
(dp1576
g760
g851
sg38
g64
sg775
g852
sg2
g853
sg40
g854
sg78
g855
sg774
g856
sg30
g58
sg765
g857
sg1035
g1099
sg776
g860
sg811
g859
sg821
g862
sg767
g863
sg826
g864
sg777
g865
sg778
g865
sg37
g866
sg1084
g1100
sg36
g36
sg779
g865
ssg203
S'MG_JEN_JonesetDJones_WSRT'
p1577
ssg777
g1078
sg779
g1078
sg868
I100
sg78
F1.0
sg869
I3000
sg826
F0.10000000000000001
sg1084
I01
sg774
g1540
sg775
I20
sg811
F1.0
sg821
F0.01
sg776
F1.0
sg778
g1078
sg870
F0.00020000000000000001
ssg872
S'@@uvplane_effect'
p1578
sg13
S'@@parmtable'
p1579
sg49
(dp1580
g199
g1103
sg51
g1325
sg100
(dp1581
g2
I01
sg774
I01
sg872
I01
sg13
I01
sg777
I01
sg778
I01
sg779
I01
ssg203
S'MG_JEN_CohsetJones'
p1582
sg96
g97
sg105
g1106
sg109
S'MG_JEN_Cohset::Jones()  version=25dec2005  defined=2006-04-07 15:06'
p1583
sg205
S'Jones'
p1584
sg111
(dp1585
g2
(lp1586
g3
ag793
ag1390
asg774
(lp1587
(lp1588
I0
aI1
aI2
aI3
aI4
aa(lp1589
I0
aI1
aI2
aI3
aI4
aI5
aI6
aa(lp1590
I0
aI1
aI2
aI3
aI4
aI5
aI6
aI7
aI8
aI9
aI10
aI11
aI12
aI13
aa(lp1591
I0
aI1
aI2
aI3
aI4
aI5
aI6
aI7
aI8
aI9
aI10
aI11
aI12
aI13
aI14
aag803
ag1450
asg872
(lp1592
I00
ag1578
asg13
(lp1593
Nag1118
ag1579
asg777
(lp1594
NaS'@@@Jsequence_KJones'
p1595
asg778
(lp1596
NaS'@@@Jsequence_simul'
p1597
asg1123
(lp1598
(lp1599
g1126
aa(lp1600
g915
aa(lp1601
g1011
aa(lp1602
g949
aa(lp1603
g1078
aa(lp1604
g1126
ag1078
aa(lp1605
g1133
aa(lp1606
g1126
ag1133
aa(lp1607
g830
aa(lp1608
aS'@@Jsequence'
p1609
asg779
(lp1610
NaS'@@@Jsequence'
p1611
assg195
g1381
sg209
S'** Description of available inarg record(s) for: MG_JEN_Cohset::Jones()  version=25dec2005  defined=2006-04-07 15:06'
p1612
sg211
I00
sg212
S'2006-04-07 15:06'
p1613
sg103
g1142
sg98
S'MG_JEN_Cohset'
p1614
sg201
S'** Specific description of inarg record for: MG_JEN_Cohset::Jones()  version=25dec2005  defined=2006-04-07 15:06'
p1615
sg213
(dp1616
g215
S'** JEN_inarg.attach(): attached: [simul_imp]./MG_JEN_Joneset.FJones()'
p1617
sg217
S'** JEN_inarg.attach(): attached: [simul_imp]./MG_JEN_Joneset.GJones()'
p1618
sg219
S'** JEN_inarg.attach(): attached: [simul_imp]./MG_JEN_Joneset.KJones()'
p1619
sg221
S'** JEN_inarg.attach(): attached: [simul_imp]./MG_JEN_Joneset.BJones()'
p1620
sg1150
S'** JEN_inarg.attach(): attached: [simul_imp]./MG_JEN_Joneset.EJones_WSRT()'
p1621
sg1152
S'** JEN_inarg.attach(): attached: [simul_imp]./MG_JEN_Joneset.DJones_WSRT()'
p1622
sg1156
S'** JEN_inarg.attach(): attached: [simul_imp]./MG_JEN_Joneset.JJones()'
p1623
ssg197
g1613
sg847
(dp1624
g872
I00
sg13
I00
sg2
I00
sg774
I00
ssg223
(lp1625
g49
ag774
ag2
ag779
ag778
ag777
ag13
ag872
ag1123
ag1451
aS'[simul_imp]./MG_JEN_Joneset.FJones()'
p1626
ag1330
aS'[simul_imp]./MG_JEN_Joneset.KJones()'
p1627
ag1514
ag1391
aS'[simul_imp]./MG_JEN_Joneset.JJones()'
p1628
asg52
(dp1629
g2
g853
sg774
g856
sg872
g1163
sg13
g1164
sg777
g865
sg778
g865
sg1123
g1165
sg779
g865
sssg1628
(dp1630
g760
g761
sg762
I00
sg2
S'@@polrep'
p1631
sg30
g764
sg765
F0.10000000000000001
sg766
Nsg767
I0
sg36
Nsg37
I5
sg38
g768
sg40
g769
sg770
F0.20000000000000001
sg49
(dp1632
g199
S'MG_JEN_Joneset::JJones()'
p1633
sg51
g1628
sg100
(dp1634
g760
I00
sg38
I01
sg2
I01
sg40
I01
sg78
I01
sg774
I01
sg30
I01
sg775
I01
sg767
I01
sg776
I01
sg777
I01
sg778
I01
sg37
I01
sg36
I01
sg779
I01
ssg105
g780
sg96
g97
sg109
S'MG_JEN_Joneset::JJones()  version=14feb2006  defined=2006-04-07 15:06'
p1635
sg205
S'JJones'
p1636
sg111
(dp1637
g760
(lp1638
g761
ag785
a(lp1639
g761
ag785
aaNaS'@@unop'
p1640
asg38
(lp1641
g768
aS'@@style'
p1642
asg775
(lp1643
I20
aS'@@timescale_min'
p1644
asg2
(lp1645
g3
ag793
ag1631
asg40
(lp1646
g769
aS'@@descr'
p1647
asg78
(lp1648
F1.0
aS'@@c00_default'
p1649
asg774
(lp1650
(lp1651
I0
aI1
aI2
aI3
aI4
aa(lp1652
I0
aI1
aI2
aI3
aI4
aI5
aI6
aa(lp1653
I0
aI1
aI2
aI3
aI4
aI5
aI6
aI7
aI8
aI9
aI10
aI11
aI12
aI13
aa(lp1654
I0
aI1
aI2
aI3
aI4
aI5
aI6
aI7
aI8
aI9
aI10
aI11
aI12
aI13
aI14
aag803
aS'@@stations'
p1655
asg30
(lp1656
g764
aS'@@color'
p1657
asg765
(lp1658
I0
aF0.01
aF0.10000000000000001
aF0.20000000000000001
aF0.5
aS'@@stddev_period'
p1659
asg762
(lp1660
I01
aI00
aS'@@diagonal_only'
p1661
asg811
(lp1662
F0.29999999999999999
aF0.5
aI1
aI2
aI3
aS'@@mean_period'
p1663
asg776
(lp1664
F1.0
aS'@@c00_scale'
p1665
asg766
(lp1666
Na(lp1667
I14
aa(lp1668
I1
aag819
aS'@@all4_always'
p1669
asg821
(lp1670
I0
aF0.0001
aF0.001
aF0.01
aF0.10000000000000001
aI1
aS'@@stddev_c00'
p1671
asg767
(lp1672
I0
aS'@@fdeg'
p1673
asg826
(lp1674
I0
aF0.10000000000000001
aF0.20000000000000001
aF0.5
aF-0.10000000000000001
aS'@@mean_c00'
p1675
asg777
(lp1676
g830
aS'@@@Jsequence_KJones'
p1677
asg778
(lp1678
g830
aS'@@@Jsequence_simul'
p1679
asg37
(lp1680
I5
aS'@@size'
p1681
asg36
(lp1682
NaS'@@unit'
p1683
asg779
(lp1684
g830
aS'@@@Jsequence'
p1685
assg195
g1381
sg209
S'** Description of available inarg record(s) for: MG_JEN_Joneset::JJones()  version=14feb2006  defined=2006-04-07 15:06'
p1686
sg211
I00
sg212
S'2006-04-07 15:06'
p1687
sg103
g843
sg98
S'MG_JEN_Joneset'
p1688
sg107
(dp1689
g762
I00
ssg201
S'** Specific description of inarg record for: MG_JEN_Joneset::JJones()  version=14feb2006  defined=2006-04-07 15:06'
p1690
sg847
(dp1691
g2
I00
sg774
I00
ssg197
g1687
sg223
(lp1692
g49
ag774
ag2
ag779
ag778
ag777
ag762
ag766
ag826
ag821
ag811
ag765
ag760
ag775
ag767
ag30
ag38
ag37
ag78
ag776
ag40
ag36
asg52
(dp1693
g760
g851
sg38
g64
sg775
g852
sg2
g853
sg40
g854
sg78
g855
sg774
g856
sg30
g58
sg765
g857
sg762
g858
sg811
g859
sg776
g860
sg766
g861
sg821
g862
sg767
g863
sg826
g864
sg777
g865
sg778
g865
sg37
g866
sg36
g36
sg779
g865
ssg203
S'MG_JEN_JonesetJJones'
p1694
ssg777
g830
sg779
g830
sg868
I50
sg78
F1.0
sg869
I500
sg826
F0.10000000000000001
sg774
g1655
sg775
I20
sg811
F1.0
sg821
F0.01
sg776
F1.0
sg778
g830
sg870
F0.02
ssg777
Nsg778
Nsg779
Nsg1627
(dp1695
g2
S'@@polrep'
p1696
sg774
S'@@stations'
p1697
sg49
(dp1698
g199
S'MG_JEN_Joneset::KJones()'
p1699
sg51
g1627
sg100
(dp1700
g777
I01
sg778
I01
sg779
I01
sg2
I01
sg774
I01
ssg105
g944
sg96
g97
sg109
S'MG_JEN_Joneset::KJones()  version=12dec2005  defined=2006-04-07 15:06'
p1701
sg205
S'KJones'
p1702
sg111
(dp1703
g777
(lp1704
g949
aS'@@@Jsequence_KJones'
p1705
asg778
(lp1706
g949
aS'@@@Jsequence_simul'
p1707
asg779
(lp1708
g949
aS'@@@Jsequence'
p1709
asg2
(lp1710
g3
ag793
ag1696
asg774
(lp1711
(lp1712
I0
aI1
aI2
aI3
aI4
aa(lp1713
I0
aI1
aI2
aI3
aI4
aI5
aI6
aa(lp1714
I0
aI1
aI2
aI3
aI4
aI5
aI6
aI7
aI8
aI9
aI10
aI11
aI12
aI13
aa(lp1715
I0
aI1
aI2
aI3
aI4
aI5
aI6
aI7
aI8
aI9
aI10
aI11
aI12
aI13
aI14
aag803
ag1697
assg195
g1381
sg209
S'** Description of available inarg record(s) for: MG_JEN_Joneset::KJones()  version=12dec2005  defined=2006-04-07 15:06'
p1716
sg211
I00
sg212
S'2006-04-07 15:06'
p1717
sg103
g963
sg98
S'MG_JEN_Joneset'
p1718
sg201
S'** Specific description of inarg record for: MG_JEN_Joneset::KJones()  version=12dec2005  defined=2006-04-07 15:06'
p1719
sg847
(dp1720
g2
I00
sg774
I00
ssg197
g1717
sg223
(lp1721
g49
ag774
ag2
ag779
ag778
ag777
asg52
(dp1722
g777
g865
sg778
g865
sg779
g865
sg2
g853
sg774
g856
ssg203
S'MG_JEN_JonesetKJones'
p1723
ssg777
g949
sg778
g949
sg779
g949
ssg1626
(dp1724
g760
g761
sg2
S'@@polrep'
p1725
sg30
g764
sg765
F0.10000000000000001
sg767
I0
sg36
Nsg37
I5
sg38
g768
sg40
g769
sg770
F0.20000000000000001
sg49
(dp1726
g199
S'MG_JEN_Joneset::FJones()'
p1727
sg51
g1626
sg100
(dp1728
g760
I00
sg38
I01
sg2
I01
sg40
I01
sg78
I01
sg774
I01
sg30
I01
sg775
I01
sg767
I01
sg776
I01
sg777
I01
sg778
I01
sg37
I01
sg36
I01
sg779
I01
ssg105
g976
sg96
g97
sg109
S'MG_JEN_Joneset::FJones()  version=16dec2005  defined=2006-04-07 15:06'
p1729
sg205
S'FJones'
p1730
sg111
(dp1731
g760
(lp1732
g761
ag785
a(lp1733
g761
ag785
aaNaS'@@unop'
p1734
asg38
(lp1735
g768
aS'@@style'
p1736
asg2
(lp1737
g3
ag793
ag1725
asg40
(lp1738
g769
aS'@@descr'
p1739
asg78
(lp1740
F1.0
aS'@@c00_default'
p1741
asg774
(lp1742
(lp1743
I0
aI1
aI2
aI3
aI4
aa(lp1744
I0
aI1
aI2
aI3
aI4
aI5
aI6
aa(lp1745
I0
aI1
aI2
aI3
aI4
aI5
aI6
aI7
aI8
aI9
aI10
aI11
aI12
aI13
aa(lp1746
I0
aI1
aI2
aI3
aI4
aI5
aI6
aI7
aI8
aI9
aI10
aI11
aI12
aI13
aI14
aag803
aS'@@stations'
p1747
asg30
(lp1748
g764
aS'@@color'
p1749
asg765
(lp1750
I0
aF0.01
aF0.10000000000000001
aF0.20000000000000001
aF0.5
aS'@@stddev_period'
p1751
asg775
(lp1752
I20
aS'@@timescale_min'
p1753
asg776
(lp1754
F1.0
aS'@@c00_scale'
p1755
asg811
(lp1756
F0.29999999999999999
aF0.5
aI1
aI2
aI3
aS'@@mean_period'
p1757
asg821
(lp1758
I0
aF0.0001
aF0.001
aF0.01
aF0.10000000000000001
aI1
aS'@@stddev_c00'
p1759
asg767
(lp1760
I0
aS'@@fdeg'
p1761
asg777
(lp1762
g1011
aS'@@@Jsequence_KJones'
p1763
asg826
(lp1764
I0
aF0.10000000000000001
aF0.20000000000000001
aF0.5
aF-0.10000000000000001
aS'@@mean_c00'
p1765
asg778
(lp1766
g1011
aS'@@@Jsequence_simul'
p1767
asg37
(lp1768
I5
aS'@@size'
p1769
asg36
(lp1770
NaS'@@unit'
p1771
asg779
(lp1772
g1011
aS'@@@Jsequence'
p1773
assg195
g1381
sg209
S'** Description of available inarg record(s) for: MG_JEN_Joneset::FJones()  version=16dec2005  defined=2006-04-07 15:06'
p1774
sg211
I00
sg212
S'2006-04-07 15:06'
p1775
sg103
g929
sg98
S'MG_JEN_Joneset'
p1776
sg201
S'** Specific description of inarg record for: MG_JEN_Joneset::FJones()  version=16dec2005  defined=2006-04-07 15:06'
p1777
sg847
(dp1778
g2
I00
sg774
I00
ssg197
g1775
sg223
(lp1779
g49
ag774
ag2
ag779
ag778
ag777
ag826
ag821
ag811
ag765
ag760
ag775
ag767
ag30
ag38
ag37
ag78
ag776
ag40
ag36
asg52
(dp1780
g760
g851
sg38
g64
sg2
g853
sg40
g854
sg78
g855
sg774
g856
sg30
g58
sg765
g857
sg775
g852
sg776
g860
sg811
g859
sg821
g862
sg767
g863
sg777
g865
sg826
g864
sg778
g865
sg37
g866
sg36
g36
sg779
g865
ssg203
S'MG_JEN_JonesetFJones'
p1781
ssg777
g1011
sg779
g1011
sg868
I50
sg78
F1.0
sg869
I500
sg826
F0.10000000000000001
sg774
g1747
sg775
I20
sg811
F1.0
sg821
F0.01
sg776
F1.0
sg778
g1011
sg870
F0.02
sssg779
Nssg49
(dp1782
g51
S'./MG_JEN_simul.'
p1783
sg52
(dp1784
g1
S'if True, add to existing uv-data (from MS column)'
p1785
sS'rms_noise_Jy'
p1786
S'rms noise, to be added'
p1787
sg2
g853
sS'master_reqseq'
p1788
S'if True, use a master reqseq for solver(s)'
p1789
sg774
g856
sg16
S'if True, use same (simul) LSM for solving too'
p1790
sS'redun'
p1791
S'if True, redundant spacing calibration'
p1792
sg15
S'if True, insert a solver'
p1793
sg11
S'name of the (AIPS++) Measurement Set'
p1794
sS'chain_solvers'
p1795
S'if True, chain the solvers (recommended)'
p1796
sS'num_cells'
p1797
S'if defined, ModRes argument [ntime,nfreq]'
p1798
sg13
g1164
sg777
g865
sg778
g865
sS'tile_size'
p1799
S'(inputrec) size (in time-slots) of the input data-tile'
p1800
sg872
g1163
sg779
g865
ssS'reference'
p1801
I00
sg96
g97
sg98
S'MG_JEN_simul'
p1802
sg100
(dp1803
g2
I00
sg1788
I01
sg774
I00
sS'last_changed'
p1804
I01
sg1791
I00
sg872
I00
sg1795
I01
sg1797
I00
sg777
I01
sg778
I01
sg779
I01
ssg381
(dp1805
g11
S'*.MS'
p1806
ssg103
g1223
sg105
S"\n    -------------------------------------------------------------\n    General description of the MeqTree TDL script MG_JEN_simul.py\n    -------------------------------------------------------------\n\n    The MG_JEN_simul.py script is used to put simulated visibilities into the\n    CORRECTED_DATA column of an existing Measurement Set (MS). The original DATA\n    in the MS are untouched. The advantage of this approach is that it is not\n    necessary to specify pointing centre, uv-coverage, spectral-window etc.\n\n    * The input source model is either an existing Local Sky Model (LSM),\n    or a 'punit' point source in the centre of the field.\n\n    * The nominal source visibilities may be corrupted by:\n      - various (uv-plane) Jones matrices\n      - image-plane effects from EJones and IJones (MIM)\n      - ifr-based errors (additive, multiplicative)\n      - noise\n\n    * Optionally, the simulated visibilities may be added to the existing uv-data,\n    either from the DATA column or the CORRECTED_DATA column of the MS\n\n    * Optionally, a parallel solver branch may be inserted, which uses the simulated\n    uv-data to solve for instrumental parameters. The latter may be compared with\n    the simulated instrumental parameters.\n\n    Different types of simulations may be specified by loading (and editing) socalled\n    'inarg' records from files (like this one). These contain input arguments\n    for generating a suitable MeqTree forest for the desired operation.\n    "
p1807
sg107
(dp1808
g1
I00
sg1788
I00
sg16
I00
sg1804
I00
sg15
I00
sg1791
I00
ssg109
S'** Top-level CTRL-record of: MG_JEN_simul.inarg'
p1809
sg111
(dp1810
g1
(lp1811
I01
aI00
aS'@@add_to_existing'
p1812
asg1786
(lp1813
I0
aF0.01
aF0.10000000000000001
aI1
aS'@@rms_noise_Jy'
p1814
asg2
(lp1815
g3
ag793
aS'@@polrep'
p1816
asg1788
(lp1817
I01
aI00
aS'@@master_reqseq'
p1818
asg774
(lp1819
(lp1820
I0
aI1
aI2
aI3
aI4
aa(lp1821
I0
aI1
aI2
aI3
aI4
aI5
aI6
aa(lp1822
I0
aI1
aI2
aI3
aI4
aI5
aI6
aI7
aI8
aI9
aI10
aI11
aI12
aI13
aa(lp1823
I0
aI1
aI2
aI3
aI4
aI5
aI6
aI7
aI8
aI9
aI10
aI11
aI12
aI13
aI14
aag803
aS'@@stations'
p1824
asg16
(lp1825
I01
aI00
aS'@@use_same_LSM'
p1826
asg1804
(lp1827
S'd30jan2006'
p1828
aS'@@last_changed'
p1829
asg15
(lp1830
I01
aI00
aS'@@insert_solver'
p1831
asg1791
(lp1832
I01
aI00
aS'@@redun'
p1833
asg11
(lp1834
g12
aS'@@ms_name'
p1835
asg1795
(lp1836
I01
aS'@@chain_solvers'
p1837
asg1797
(lp1838
Na(lp1839
I5
aI2
aa(lp1840
I2
aI2
aa(lp1841
I3
aI3
aaS'@@num_cells'
p1842
asg13
(lp1843
Nag1118
aS'@@parmtable'
p1844
asg777
(lp1845
NaS'@@@Jsequence_KJones'
p1846
asg778
(lp1847
NaS'@@@Jsequence_simul'
p1848
asg1799
(lp1849
I1
aI2
aI3
aI5
aI10
aI20
aI50
aI100
aS'@@tile_size'
p1850
asg872
(lp1851
I00
aS'@@uvplane_effect'
p1852
asg779
(lp1853
NaS'@@@Jsequence'
p1854
assg195
Nsg197
S'2006-04-07 15:06'
p1855
sS'HISTORY'
p1856
(dp1857
g215
S'2006-04-07 15:06: Derived from: MG_JEN_simul_DJones.inarg'
p1858
sg217
S'2006-04-07 15:06: Derived from: MG_JEN_simul.inarg'
p1859
ssg199
g10
sg201
S'Predefined inarg record for simulating with DJones corruption'
p1860
sS'save_file'
p1861
S'MG_JEN_simul_DJones_protected.inarg'
p1862
sS'file_filter'
p1863
S'MG_JEN_simul*.inarg'
p1864
sg205
S''
p1865
sg209
S'\n====================================================\n** Description of available predefined inarg records (files)\n   for the TDL script: MG_JEN_simul:\n\n====================================================\n\n\n** Description of predefined inarg record (file): MG_JEN_simul_GJones.inarg:\nPredefined inarg record for simulating with GJones corruption\n\n\n** Description of predefined inarg record (file): MG_JEN_simul_DJones.inarg:\nPredefined inarg record for simulating with DJones corruption\n\n\n** Description of predefined inarg record (file): MG_JEN_simul_EJones.inarg:\nPredefined inarg record for simulating with EJones corruption\n====================================================\n'
p1866
sg211
I01
sg212
g1855
sg213
(dp1867
S'11'
p1868
S'** JEN_inarg.attach(): attached: [solve]./MG_JEN_Cohset.predict_lsm()'
p1869
sS'10'
p1870
S'** JEN_inarg.attach(): attached: [solve]./MG_JEN_lsm.get_lsm()'
p1871
sS'13'
p1872
S'** JEN_inarg.separator(): : finishing touches'
p1873
sS'12'
p1874
S'** JEN_inarg.attach(): attached: ./MG_JEN_Cohset.insert_solver()'
p1875
sS'15'
p1876
S".modify():   ** OK ** (['Jsequence'])"
p1877
sS'14'
p1878
S'** JEN_inarg.attach(): attached: ./MG_JEN_Cohset.make_sinks()'
p1879
sS'17'
p1880
S'  0: ./MG_JEN_simul. (qual=None): .modify(parmtable):   None  ->  simul_DJones'
p1881
sS'16'
p1882
S".modify():   ** OK ** (['Jsequence'])"
p1883
sS'19'
p1884
S".modify():   ** OK ** (['parmtable', 'solvegroup', 'num_iter', 'insert_solver'])"
p1885
sS'18'
p1886
S'  0: ./MG_JEN_simul. (qual=None): .modify(insert_solver):   True  ->  False'
p1887
sS'20'
p1888
S".modify():   ** OK ** (['major', 'I0', 'shape', 'Qpct', 'Vpct', 'SI', 'pa', 'RM', 'Upct', 'punit', 'minor'])"
p1889
sg215
S'  0: ./MG_JEN_simul. (qual=None): .modify(tile_size):   10  ->  1'
p1890
sg217
S'  0: ./MG_JEN_simul. (qual=None): .modify(uvplane_effect):   False  ->  True'
p1891
sg219
S'** JEN_inarg.separator(): : uv-data (MS) stream_control'
p1892
sg221
S".modify():   ** OK ** (['uvplane_effect', 'tile_size'])"
p1893
sg1150
S'** JEN_inarg.attach(): attached: ./MG_JEN_Cohset.make_spigots()'
p1894
sg1152
S'** JEN_inarg.attach(): attached: ./MG_JEN_exec.stream_control()'
p1895
sg1154
S'** JEN_inarg.attach(): attached: [simul]./MG_JEN_lsm.get_lsm()'
p1896
sg1156
S'** JEN_inarg.separator(): : uv-data simulation (LeafSet)'
p1897
sS'9'
p1898
S'** JEN_inarg.separator(): : solver-branch (ParmSet)'
p1899
sS'8'
p1900
S'** JEN_inarg.attach(): attached: [simul]./MG_JEN_Cohset.predict_lsm()'
p1901
ssg223
(lp1902
g49
ag9
ag1804
ag11
ag1799
ag774
ag2
ag779
ag778
ag777
ag13
ag872
ag1795
ag1788
ag1791
ag1797
ag1
ag1786
ag15
ag5
aS'./MG_JEN_exec.stream_control()'
p1903
aS'./MG_JEN_Cohset.make_spigots()'
p1904
aS'_JEN_inarg_separator_record:_2'
p1905
ag17
ag754
aS'_JEN_inarg_separator_record:_3'
p1906
ag16
aS'[solve]./MG_JEN_lsm.get_lsm()'
p1907
aS'[solve]./MG_JEN_Cohset.predict_lsm()'
p1908
aS'./MG_JEN_Cohset.insert_solver()'
p1909
aS'_JEN_inarg_separator_record:_4'
p1910
aS'./MG_JEN_Cohset.make_sinks()'
p1911
assg1911
(dp1912
S'fullDomainMux'
p1913
I01
sS'output_col'
p1914
S'PREDICT'
p1915
sS'visu'
p1916
I01
sS'flag'
p1917
I00
sg49
(dp1918
g199
S'MG_JEN_Cohset::make_sinks()'
p1919
sg51
g1911
sg197
S'2006-04-07 15:06'
p1920
sg201
S'** Specific description of inarg record for: MG_JEN_Cohset::make_sinks()  version=25dec2005  defined=2006-04-07 15:06'
p1921
sg203
S'MG_JEN_Cohsetmake_sinks'
p1922
sg96
g97
sg109
S'MG_JEN_Cohset::make_sinks()  version=25dec2005  defined=2006-04-07 15:06'
p1923
sg205
S'make_sinks'
p1924
sg111
(dp1925
g1917
(lp1926
I01
aI00
aS'@@flag'
p1927
asg1916
(lp1928
I01
aI00
aS'@@visu'
p1929
asg1913
(lp1930
I01
aI00
aS'@@fullDomainMux'
p1931
asg1914
(lp1932
g1915
aS'RESIDUALS'
p1933
aS'DATA'
p1934
aS'@@output_col'
p1935
asS'visu_array_config'
p1936
(lp1937
I01
aI00
aS'@@visu_array_config'
p1938
assg195
Nsg209
S'** Description of available inarg record(s) for: MG_JEN_Cohset::make_sinks()  version=25dec2005  defined=2006-04-07 15:06'
p1939
sg103
g1142
sg212
g1920
sg98
S'MG_JEN_Cohset'
p1940
sg107
(dp1941
g1917
I00
sg1916
I00
sg1913
I00
sg1936
I00
ssg211
I00
sg223
(lp1942
g49
ag1914
ag1936
ag1916
ag1917
ag1913
asg52
(dp1943
g1917
S'if True, insert a flagger for the output uv-data'
p1944
sg1916
S'if True, visualise the output uv-data'
p1945
sg1913
S'if True, attach an extra VisDataMux'
p1946
sg1914
S'name of the logical (VisTile) output column'
p1947
sg1936
S'if True, visualise the array config (from MS)'
p1948
ssg105
S'Make sink nodes in the given Cohset object'
p1949
ssg1936
I01
ssg1799
I1
sg1904
(dp1950
g1917
I00
sg1916
I01
sg49
(dp1951
g199
S'MG_JEN_Cohset::make_spigots()'
p1952
sg51
g1904
sg197
S'2006-04-07 15:06'
p1953
sg100
(dp1954
S'input_col'
p1955
I01
ssg203
S'MG_JEN_Cohsetmake_spigots'
p1956
sg96
g97
sg109
S'MG_JEN_Cohset::make_spigots()  version=25dec2005  defined=2006-04-07 15:06'
p1957
sg205
S'make_spigots'
p1958
sg111
(dp1959
g1917
(lp1960
I01
aI00
aS'@@flag'
p1961
asS'MS_corr_index'
p1962
(lp1963
(lp1964
I0
aI1
aI2
aI3
aa(lp1965
I0
aI-1
aI-1
aI1
aa(lp1966
I0
aI-1
aI-1
aI3
aaS'@@MS_corr_index'
p1967
asg1955
(lp1968
g1934
ag1915
ag1933
aS'@@input_col'
p1969
asg1916
(lp1970
I01
aI00
aS'@@visu'
p1971
assg195
Nsg209
S'** Description of available inarg record(s) for: MG_JEN_Cohset::make_spigots()  version=25dec2005  defined=2006-04-07 15:06'
p1972
sg103
g1142
sg212
g1953
sg98
S'MG_JEN_Cohset'
p1973
sg107
(dp1974
g1917
I00
sg1916
I00
ssg201
S'** Specific description of inarg record for: MG_JEN_Cohset::make_spigots()  version=25dec2005  defined=2006-04-07 15:06'
p1975
sg211
I00
sg223
(lp1976
g49
ag1955
ag1962
ag1916
ag1917
asg52
(dp1977
g1917
S'if True, insert a flagger for the input uv-data'
p1978
sg1962
S'correlations to be used: \n- [0,1,2,3]:   all corrs available, use all \n- [0,-1,-1,1]: only XX/YY (or RR/LL) available \n- [0,-1,-1,3]: all available, but use only XX/YY or RR/LL'
p1979
sg1955
S'name of the logical (VisTile) input column'
p1980
sg1916
S'if True, visualise the input uv-data'
p1981
ssg105
S'Make spigot nodes in the given Cohset object'
p1982
ssg1955
g1934
sg1962
(lp1983
I0
aI1
aI2
aI3
assg1908
(dp1984
S'[solve_imp]./MG_JEN_Cohset.Jones()'
p1985
(dp1986
S'[solve_imp]./MG_JEN_Joneset.FJones()'
p1987
(dp1988
g27
I00
sg2
S'@@polrep'
p1989
sg30
g31
sg32
I00
sg13
S'@@parmtable'
p1990
sg36
Nsg37
I10
sg38
g39
sg40
g41
sg44
g45
sg47
Nsg49
(dp1991
g199
S'MG_JEN_Joneset::FJones()'
p1992
sg51
g1987
sg100
(dp1993
g38
I01
sg2
I01
sg78
I01
sg40
I01
sg774
I01
sg30
I01
sg43
I01
sg44
I01
sg872
I01
sg47
I01
sg92
I01
sg13
I01
sg777
I01
sg778
I01
sg37
I01
sg36
I01
sg779
I01
ssg105
g976
sg96
g97
sg109
S'MG_JEN_Joneset::FJones()  version=16dec2005  defined=2006-04-07 15:06'
p1994
sg205
S'FJones'
p1995
sg111
(dp1996
g27
(lp1997
I01
aI00
aS'@@reset_funklet'
p1998
asg2
(lp1999
g3
ag793
ag1989
asg30
(lp2000
g31
aS'@@color'
p2001
asg32
(lp2002
I01
aI00
aS'@@save_all'
p2003
asg92
(lp2004
NaS'@@tfdeg'
p2005
asg36
(lp2006
NaS'@@unit'
p2007
asg37
(lp2008
I10
aS'@@size'
p2009
asg38
(lp2010
g39
aS'@@style'
p2011
asg40
(lp2012
g41
aS'@@descr'
p2013
asg44
(lp2014
g45
aS'@@condeq_corrs'
p2015
asg47
(lp2016
NaS'@@funklet_shape'
p2017
asg94
(lp2018
I01
aI00
aS'@@auto_save'
p2019
asg777
(lp2020
g1011
aS'@@@Jsequence_KJones'
p2021
asg779
(lp2022
g1011
aS'@@@Jsequence'
p2023
asg78
(lp2024
F1.0
aS'@@c00_default'
p2025
asg872
(lp2026
I00
aS'@@uvplane_effect'
p2027
asg774
(lp2028
(lp2029
I0
aI1
aI2
aI3
aI4
aa(lp2030
I0
aI1
aI2
aI3
aI4
aI5
aI6
aa(lp2031
I0
aI1
aI2
aI3
aI4
aI5
aI6
aI7
aI8
aI9
aI10
aI11
aI12
aI13
aa(lp2032
I0
aI1
aI2
aI3
aI4
aI5
aI6
aI7
aI8
aI9
aI10
aI11
aI12
aI13
aI14
aag803
aS'@@stations'
p2033
asS'tdeg_RM'
p2034
(lp2035
I0
aI1
aI2
aI3
aS'@@tdeg_RM'
p2036
asg88
(lp2037
I01
aI00
aS'@@use_previous'
p2038
asS'fdeg_RM'
p2039
(lp2040
I0
aI1
aI2
aI3
aS'@@fdeg_RM'
p2041
asg43
(lp2042
NaS'@@subtile_size'
p2043
asg13
(lp2044
Nag1118
ag1990
asS'subtile_size_RM'
p2045
(lp2046
NaI1
aI2
aI5
aI10
aI20
aI50
aI100
aI200
aI500
aS'@@subtile_size_RM'
p2047
asg778
(lp2048
g1011
aS'@@@Jsequence_simul'
p2049
assg195
S'solve_imp'
p2050
sg209
S'** Description of available inarg record(s) for: MG_JEN_Joneset::FJones()  version=16dec2005  defined=2006-04-07 15:06'
p2051
sg211
I00
sg212
S'2006-04-07 15:06'
p2052
sg103
g929
sg98
S'MG_JEN_Joneset'
p2053
sg107
(dp2054
g27
I00
sg32
I00
sg94
I00
sg88
I00
ssg201
S'** Specific description of inarg record for: MG_JEN_Joneset::FJones()  version=16dec2005  defined=2006-04-07 15:06'
p2055
sg847
(dp2056
g872
I00
sg13
I00
sg2
I00
sg774
I00
ssg197
g2052
sg223
(lp2057
g49
ag774
ag2
ag779
ag778
ag777
ag13
ag872
ag2034
ag2039
ag2045
ag88
ag94
ag32
ag27
ag40
ag36
ag30
ag38
ag37
ag78
ag92
ag47
ag43
ag44
asg52
(dp2058
g27
g55
sg2
g853
sg30
g58
sg32
g59
sg92
g93
sg36
g36
sg37
g63
sg38
g64
sg40
g65
sg44
g68
sg47
g70
sg94
g95
sg777
g865
sg779
g865
sg78
g79
sg872
g1163
sg774
g856
sg2034
S'degree of time polynomial'
p2059
sg88
g89
sg2039
S'degree of freq polynomial'
p2060
sg43
g67
sg13
g1164
sg2045
S'sub-tile size (None=entire tile)'
p2061
sg778
g865
ssg203
S'MG_JEN_JonesetFJones'
p2062
ssg777
g1011
sg779
g1011
sg78
F1.0
sg872
g2027
sg774
g2033
sg2034
I0
sg88
I01
sg2039
I2
sg43
Nsg92
Nsg2045
I1
sg778
g1011
sg94
I01
ssg777
NsS'[solve_imp]./MG_JEN_Joneset.JJones()'
p2063
(dp2064
g27
I00
sg2
S'@@polrep'
p2065
sS'tdeg_Jreal'
p2066
I0
sg30
g31
sg32
I00
sg766
Nsg13
S'@@parmtable'
p2067
sS'subtile_size_Jreal'
p2068
Nsg36
Nsg37
I10
sg38
g39
sS'tdeg_Jimag'
p2069
S'@tdeg_Jreal'
p2070
sg40
g41
sg44
g45
sg47
Nsg49
(dp2071
g199
S'MG_JEN_Joneset::JJones()'
p2072
sg51
g2063
sg100
(dp2073
g38
I01
sg2
I01
sg78
I01
sg40
I01
sg774
I01
sg30
I01
sg43
I01
sg44
I01
sg872
I01
sg47
I01
sg92
I01
sg13
I01
sg777
I01
sg778
I01
sg37
I01
sg36
I01
sg779
I01
ssg105
g780
sg96
g97
sg109
S'MG_JEN_Joneset::JJones()  version=14feb2006  defined=2006-04-07 15:06'
p2074
sg205
S'JJones'
p2075
sg111
(dp2076
g27
(lp2077
I01
aI00
aS'@@reset_funklet'
p2078
asg2
(lp2079
g3
ag793
ag2065
asg2066
(lp2080
I0
aI1
aI2
aI3
aS'@@tdeg_Jreal'
p2081
asg30
(lp2082
g31
aS'@@color'
p2083
asg32
(lp2084
I01
aI00
aS'@@save_all'
p2085
asg766
(lp2086
Na(lp2087
I14
aa(lp2088
I1
aag819
aS'@@all4_always'
p2089
asg13
(lp2090
Nag1118
ag2067
asg2068
(lp2091
NaI1
aI2
aI5
aI10
aI20
aI50
aI100
aI200
aI500
aS'@@subtile_size_Jreal'
p2092
asg36
(lp2093
NaS'@@unit'
p2094
asg37
(lp2095
I10
aS'@@size'
p2096
asg38
(lp2097
g39
aS'@@style'
p2098
asg2069
(lp2099
I0
aI1
aI2
aI3
ag2070
aS'@@tdeg_Jimag'
p2100
asg40
(lp2101
g41
aS'@@descr'
p2102
asg44
(lp2103
g45
aS'@@condeq_corrs'
p2104
asg47
(lp2105
NaS'@@funklet_shape'
p2106
asg94
(lp2107
I01
aI00
aS'@@auto_save'
p2108
asg777
(lp2109
g830
aS'@@@Jsequence_KJones'
p2110
asS'fdeg_Jreal'
p2111
(lp2112
I0
aI1
aI2
aI3
aS'@@fdeg_Jreal'
p2113
asg78
(lp2114
F1.0
aS'@@c00_default'
p2115
asg872
(lp2116
I00
aS'@@uvplane_effect'
p2117
asS'fdeg_Jimag'
p2118
(lp2119
I0
aI1
aI2
aI3
aS'@fdeg_Jreal'
p2120
aS'@@fdeg_Jimag'
p2121
asS'subtile_size_Jimag'
p2122
(lp2123
S'@subtile_size_Jreal'
p2124
aNaI1
aI2
aI5
aI10
aI20
aI50
aI100
aI200
aI500
aS'@@subtile_size_Jimag'
p2125
asg774
(lp2126
(lp2127
I0
aI1
aI2
aI3
aI4
aa(lp2128
I0
aI1
aI2
aI3
aI4
aI5
aI6
aa(lp2129
I0
aI1
aI2
aI3
aI4
aI5
aI6
aI7
aI8
aI9
aI10
aI11
aI12
aI13
aa(lp2130
I0
aI1
aI2
aI3
aI4
aI5
aI6
aI7
aI8
aI9
aI10
aI11
aI12
aI13
aI14
aag803
aS'@@stations'
p2131
asg762
(lp2132
I01
aI00
aS'@@diagonal_only'
p2133
asg88
(lp2134
I01
aI00
aS'@@use_previous'
p2135
asg43
(lp2136
NaS'@@subtile_size'
p2137
asg92
(lp2138
NaS'@@tfdeg'
p2139
asg778
(lp2140
g830
aS'@@@Jsequence_simul'
p2141
asg779
(lp2142
g830
aS'@@@Jsequence'
p2143
assg195
g2050
sg209
S'** Description of available inarg record(s) for: MG_JEN_Joneset::JJones()  version=14feb2006  defined=2006-04-07 15:06'
p2144
sg211
I00
sg212
S'2006-04-07 15:06'
p2145
sg103
g843
sg98
S'MG_JEN_Joneset'
p2146
sg107
(dp2147
g27
I00
sg762
I00
sg32
I00
sg94
I00
sg88
I00
ssg201
S'** Specific description of inarg record for: MG_JEN_Joneset::JJones()  version=14feb2006  defined=2006-04-07 15:06'
p2148
sg847
(dp2149
g872
I00
sg13
I00
sg2
I00
sg774
I00
ssg197
g2145
sg223
(lp2150
g49
ag774
ag2
ag779
ag778
ag777
ag762
ag766
ag13
ag872
ag2066
ag2069
ag2111
ag2118
ag2068
ag2122
ag88
ag94
ag32
ag27
ag40
ag36
ag30
ag38
ag37
ag78
ag92
ag47
ag43
ag44
asg52
(dp2151
g27
g55
sg2
g853
sg2066
S'degree of time polynomial'
p2152
sg30
g58
sg32
g59
sg766
g861
sg13
g1164
sg2068
S'sub-tile size (None=entire tile)'
p2153
sg36
g36
sg37
g63
sg38
g64
sg2069
g2152
sg40
g65
sg44
g68
sg47
g70
sg94
g95
sg777
g865
sg2111
S'degree of freq polynomial'
p2154
sg78
g79
sg872
g1163
sg2118
g2154
sg2122
g2153
sg774
g856
sg762
g858
sg88
g89
sg43
g67
sg92
g93
sg778
g865
sg779
g865
ssg203
S'MG_JEN_JonesetJJones'
p2155
ssg777
g830
sg2111
I0
sg78
F1.0
sg872
g2117
sg2118
g2120
sg2122
g2124
sg774
g2131
sg762
I00
sg88
I01
sg43
Nsg92
Nsg778
g830
sg779
g830
sg94
I01
ssg774
S'@@stations'
p2156
sS'[solve_imp]./MG_JEN_Joneset.BJones()'
p2157
(dp2158
g27
I00
sg2
S'@@polrep'
p2159
sg30
g31
sS'subtile_size_Bimag'
p2160
S'@subtile_size_Breal'
p2161
sg32
I00
sS'subtile_size_Breal'
p2162
Nsg36
Nsg37
I10
sg38
g39
sg40
g41
sS'fdeg_Breal'
p2163
I5
sg44
g45
sg47
Nsg49
(dp2164
g199
S'MG_JEN_Joneset::BJones()'
p2165
sg51
g2157
sg100
(dp2166
g38
I01
sg2
I01
sg78
I01
sg40
I01
sg774
I01
sg30
I01
sg43
I01
sg44
I01
sg872
I01
sg47
I01
sg92
I01
sg13
I01
sg777
I01
sg778
I01
sg37
I01
sg36
I01
sg779
I01
ssg105
g880
sg96
g97
sg109
S'MG_JEN_Joneset::BJones()  version=16dec2005  defined=2006-04-07 15:06'
p2167
sg205
S'BJones'
p2168
sg111
(dp2169
g27
(lp2170
I01
aI00
aS'@@reset_funklet'
p2171
asg2
(lp2172
g3
ag793
ag2159
asg30
(lp2173
g31
aS'@@color'
p2174
asg2160
(lp2175
g2161
aNaI1
aI2
aI5
aI10
aI20
aI50
aI100
aI200
aI500
aS'@@subtile_size_Bimag'
p2176
asg32
(lp2177
I01
aI00
aS'@@save_all'
p2178
asg2162
(lp2179
NaI1
aI2
aI5
aI10
aI20
aI50
aI100
aI200
aI500
aS'@@subtile_size_Breal'
p2180
asg36
(lp2181
NaS'@@unit'
p2182
asg37
(lp2183
I10
aS'@@size'
p2184
asg38
(lp2185
g39
aS'@@style'
p2186
asg40
(lp2187
g41
aS'@@descr'
p2188
asg2163
(lp2189
I3
aI4
aI5
aI6
aS'@@fdeg_Breal'
p2190
asg44
(lp2191
g45
aS'@@condeq_corrs'
p2192
asg47
(lp2193
NaS'@@funklet_shape'
p2194
asg94
(lp2195
I01
aI00
aS'@@auto_save'
p2196
asg777
(lp2197
g915
aS'@@@Jsequence_KJones'
p2198
asS'tdeg_Bimag'
p2199
(lp2200
I0
aI1
aI2
aI3
aS'@tdeg_Breal'
p2201
aS'@@tdeg_Bimag'
p2202
asg779
(lp2203
g915
aS'@@@Jsequence'
p2204
asg78
(lp2205
F1.0
aS'@@c00_default'
p2206
asS'fdeg_Bimag'
p2207
(lp2208
I3
aI4
aI5
aI6
aS'@fdeg_Breal'
p2209
aS'@@fdeg_Bimag'
p2210
asg872
(lp2211
I00
aS'@@uvplane_effect'
p2212
asg774
(lp2213
(lp2214
I0
aI1
aI2
aI3
aI4
aa(lp2215
I0
aI1
aI2
aI3
aI4
aI5
aI6
aa(lp2216
I0
aI1
aI2
aI3
aI4
aI5
aI6
aI7
aI8
aI9
aI10
aI11
aI12
aI13
aa(lp2217
I0
aI1
aI2
aI3
aI4
aI5
aI6
aI7
aI8
aI9
aI10
aI11
aI12
aI13
aI14
aag803
aS'@@stations'
p2218
asg92
(lp2219
NaS'@@tfdeg'
p2220
asS'tdeg_Breal'
p2221
(lp2222
I0
aI1
aI2
aI3
aS'@@tdeg_Breal'
p2223
asg88
(lp2224
I01
aI00
aS'@@use_previous'
p2225
asg43
(lp2226
NaS'@@subtile_size'
p2227
asg13
(lp2228
Nag1118
aS'@@parmtable'
p2229
asg778
(lp2230
g915
aS'@@@Jsequence_simul'
p2231
assg195
g2050
sg209
S'** Description of available inarg record(s) for: MG_JEN_Joneset::BJones()  version=16dec2005  defined=2006-04-07 15:06'
p2232
sg211
I00
sg212
S'2006-04-07 15:06'
p2233
sg103
g929
sg98
S'MG_JEN_Joneset'
p2234
sg107
(dp2235
g27
I00
sg32
I00
sg94
I00
sg88
I00
ssg201
S'** Specific description of inarg record for: MG_JEN_Joneset::BJones()  version=16dec2005  defined=2006-04-07 15:06'
p2236
sg847
(dp2237
g872
I00
sg13
I00
sg2
I00
sg774
I00
ssg197
g2233
sg223
(lp2238
g49
ag774
ag2
ag779
ag778
ag777
ag13
ag872
ag2221
ag2199
ag2163
ag2207
ag2162
ag2160
ag88
ag94
ag32
ag27
ag40
ag36
ag30
ag38
ag37
ag78
ag92
ag47
ag43
ag44
asg52
(dp2239
g27
g55
sg2
g853
sg30
g58
sg2160
S'sub-tile size (None=entire tile)'
p2240
sg32
g59
sg2162
g2240
sg36
g36
sg37
g63
sg38
g64
sg40
g65
sg2163
S'degree of freq polynomial'
p2241
sg44
g68
sg47
g70
sg94
g95
sg777
g865
sg2199
S'degree of time polynomial'
p2242
sg779
g865
sg78
g79
sg2207
g2241
sg872
g1163
sg774
g856
sg92
g93
sg2221
g2242
sg88
g89
sg43
g67
sg13
g1164
sg778
g865
ssg203
S'MG_JEN_JonesetBJones'
p2243
ssg777
g915
sg2199
g2201
sg779
g915
sg78
F1.0
sg2207
g2209
sg872
g2212
sg774
g2218
sg92
Nsg2221
I0
sg88
I01
sg43
Nsg13
g2229
sg778
g915
sg94
I01
ssS'[solve_imp]./MG_JEN_Joneset.DJones_WSRT()'
p2244
(dp2245
g27
I00
sg2
S'@@polrep'
p2246
sg30
g31
sS'fdeg_Dell'
p2247
S'@fdeg_Dang'
p2248
sg1035
I01
sg32
I00
sg36
Nsg13
S'@@parmtable'
p2249
sS'subtile_size_Dang'
p2250
Nsg94
I01
sg37
I10
sg38
g39
sg40
g41
sg44
g45
sg47
Nsg49
(dp2251
g199
S'MG_JEN_Joneset::DJones_WSRT()'
p2252
sg51
g2244
sg100
(dp2253
g38
I01
sg2
I01
sg78
I01
sg40
I01
sg774
I01
sg30
I01
sg43
I01
sg44
I01
sg872
I01
sg47
I01
sg92
I01
sg13
I01
sg777
I01
sg778
I01
sg37
I01
sg36
I01
sg779
I01
ssg105
g1039
sg96
g97
sg109
S'MG_JEN_Joneset::DJones_WSRT()  version=16dec2005  defined=2006-04-07 15:06'
p2254
sg205
S'DJones_WSRT'
p2255
sg111
(dp2256
g27
(lp2257
I01
aI00
aS'@@reset_funklet'
p2258
asg2
(lp2259
g3
ag793
ag2246
asg30
(lp2260
g31
aS'@@color'
p2261
asg2247
(lp2262
I0
aI1
aI2
aI3
ag2248
aS'@@fdeg_Dell'
p2263
asg1035
(lp2264
I01
aI00
aS'@@coupled_XY_Dell'
p2265
asg32
(lp2266
I01
aI00
aS'@@save_all'
p2267
asg13
(lp2268
Nag1118
ag2249
asg2250
(lp2269
NaI1
aI2
aI5
aI10
aI20
aI50
aI100
aI200
aI500
aS'@@subtile_size_Dang'
p2270
asg36
(lp2271
NaS'@@unit'
p2272
asg37
(lp2273
I10
aS'@@size'
p2274
asg38
(lp2275
g39
aS'@@style'
p2276
asg40
(lp2277
g41
aS'@@descr'
p2278
asg44
(lp2279
g45
aS'@@condeq_corrs'
p2280
asg47
(lp2281
NaS'@@funklet_shape'
p2282
asg94
(lp2283
I01
aI00
aS'@@auto_save'
p2284
asg777
(lp2285
g1078
aS'@@@Jsequence_KJones'
p2286
asS'subtile_size_Dell'
p2287
(lp2288
S'@subtile_size_Dang'
p2289
aNaI1
aI2
aI5
aI10
aI20
aI50
aI100
aI200
aI500
aS'@@subtile_size_Dell'
p2290
asg779
(lp2291
g1078
aS'@@@Jsequence'
p2292
asS'fdeg_Dang'
p2293
(lp2294
I0
aI1
aI2
aI3
aS'@@fdeg_Dang'
p2295
asg78
(lp2296
F1.0
aS'@@c00_default'
p2297
asg872
(lp2298
I00
aS'@@uvplane_effect'
p2299
asS'tdeg_Dell'
p2300
(lp2301
I0
aI1
aI2
aI3
aS'@tdeg_Dang'
p2302
aS'@@tdeg_Dell'
p2303
asg1084
(lp2304
I01
aI00
aS'@@coupled_XY_Dang'
p2305
asS'tdeg_Dang'
p2306
(lp2307
I0
aI1
aI2
aI3
aS'@@tdeg_Dang'
p2308
asg774
(lp2309
(lp2310
I0
aI1
aI2
aI3
aI4
aa(lp2311
I0
aI1
aI2
aI3
aI4
aI5
aI6
aa(lp2312
I0
aI1
aI2
aI3
aI4
aI5
aI6
aI7
aI8
aI9
aI10
aI11
aI12
aI13
aa(lp2313
I0
aI1
aI2
aI3
aI4
aI5
aI6
aI7
aI8
aI9
aI10
aI11
aI12
aI13
aI14
aag803
aS'@@stations'
p2314
asg88
(lp2315
I01
aI00
aS'@@use_previous'
p2316
asg43
(lp2317
NaS'@@subtile_size'
p2318
asg92
(lp2319
NaS'@@tfdeg'
p2320
asg778
(lp2321
g1078
aS'@@@Jsequence_simul'
p2322
assg195
g2050
sg209
S'** Description of available inarg record(s) for: MG_JEN_Joneset::DJones_WSRT()  version=16dec2005  defined=2006-04-07 15:06'
p2323
sg211
I00
sg212
S'2006-04-07 15:06'
p2324
sg103
g929
sg98
S'MG_JEN_Joneset'
p2325
sg107
(dp2326
g27
I00
sg1035
I00
sg32
I00
sg1084
I00
sg88
I00
sg94
I00
ssg201
S'** Specific description of inarg record for: MG_JEN_Joneset::DJones_WSRT()  version=16dec2005  defined=2006-04-07 15:06'
p2327
sg847
(dp2328
g872
I00
sg13
I00
sg2
I00
sg774
I00
ssg197
g2324
sg223
(lp2329
g49
ag774
ag2
ag779
ag778
ag777
ag1084
ag1035
ag13
ag872
ag2306
ag2300
ag2293
ag2247
ag2250
ag2287
ag88
ag94
ag32
ag27
ag40
ag36
ag30
ag38
ag37
ag78
ag92
ag47
ag43
ag44
asg52
(dp2330
g27
g55
sg2
g853
sg30
g58
sg2247
S'degree of freq polynomial'
p2331
sg1035
g1099
sg32
g59
sg13
g1164
sg2250
S'sub-tile size (None=entire tile)'
p2332
sg36
g36
sg37
g63
sg38
g64
sg40
g65
sg44
g68
sg47
g70
sg94
g95
sg777
g865
sg2287
g2332
sg779
g865
sg2293
g2331
sg78
g79
sg872
g1163
sg2300
S'degree of time polynomial'
p2333
sg1084
g1100
sg2306
g2333
sg774
g856
sg88
g89
sg43
g67
sg92
g93
sg778
g865
ssg203
S'MG_JEN_JonesetDJones_WSRT'
p2334
ssg777
g1078
sg2287
g2289
sg779
g1078
sg2293
I0
sg78
F1.0
sg872
g2299
sg2300
g2302
sg1084
I01
sg2306
I0
sg774
g2314
sg88
I01
sg43
Nsg92
Nsg778
g1078
ssg872
S'@@uvplane_effect'
p2335
sg13
S'@@parmtable'
p2336
sg49
(dp2337
g199
g1103
sg51
g1985
sg100
(dp2338
g2
I01
sg774
I01
sg872
I01
sg13
I01
sg777
I01
sg778
I01
sg779
I01
ssg203
S'MG_JEN_CohsetJones'
p2339
sg96
g97
sg105
g1106
sg109
S'MG_JEN_Cohset::Jones()  version=25dec2005  defined=2006-04-07 15:06'
p2340
sg205
S'Jones'
p2341
sg111
(dp2342
g2
(lp2343
g3
ag793
aS'@@polrep'
p2344
asg774
(lp2345
(lp2346
I0
aI1
aI2
aI3
aI4
aa(lp2347
I0
aI1
aI2
aI3
aI4
aI5
aI6
aa(lp2348
I0
aI1
aI2
aI3
aI4
aI5
aI6
aI7
aI8
aI9
aI10
aI11
aI12
aI13
aa(lp2349
I0
aI1
aI2
aI3
aI4
aI5
aI6
aI7
aI8
aI9
aI10
aI11
aI12
aI13
aI14
aag803
ag2156
asg872
(lp2350
I00
ag2335
asg13
(lp2351
Nag1118
ag2336
asg777
(lp2352
NaS'@@@Jsequence_KJones'
p2353
asg778
(lp2354
NaS'@@@Jsequence_simul'
p2355
asg1123
(lp2356
(lp2357
g1126
aa(lp2358
g915
aa(lp2359
g1011
aa(lp2360
g949
aa(lp2361
g1078
aa(lp2362
g1126
ag1078
aa(lp2363
g1133
aa(lp2364
g1126
ag1133
aa(lp2365
g830
aa(lp2366
aS'@@Jsequence'
p2367
asg779
(lp2368
NaS'@@@Jsequence'
p2369
assg195
g2050
sg209
S'** Description of available inarg record(s) for: MG_JEN_Cohset::Jones()  version=25dec2005  defined=2006-04-07 15:06'
p2370
sg211
I00
sg212
S'2006-04-07 15:06'
p2371
sg103
g1142
sg98
S'MG_JEN_Cohset'
p2372
sg201
S'** Specific description of inarg record for: MG_JEN_Cohset::Jones()  version=25dec2005  defined=2006-04-07 15:06'
p2373
sg213
(dp2374
g215
S'** JEN_inarg.attach(): attached: [solve_imp]./MG_JEN_Joneset.FJones()'
p2375
sg217
S'** JEN_inarg.attach(): attached: [solve_imp]./MG_JEN_Joneset.GJones()'
p2376
sg219
S'** JEN_inarg.attach(): attached: [solve_imp]./MG_JEN_Joneset.KJones()'
p2377
sg221
S'** JEN_inarg.attach(): attached: [solve_imp]./MG_JEN_Joneset.BJones()'
p2378
sg1150
S'** JEN_inarg.attach(): attached: [solve_imp]./MG_JEN_Joneset.EJones_WSRT()'
p2379
sg1152
S'** JEN_inarg.attach(): attached: [solve_imp]./MG_JEN_Joneset.DJones_WSRT()'
p2380
sg1156
S'** JEN_inarg.attach(): attached: [solve_imp]./MG_JEN_Joneset.JJones()'
p2381
ssg197
g2371
sg847
(dp2382
g872
I00
sg13
I00
sg2
I00
sg774
I00
ssg223
(lp2383
g49
ag774
ag2
ag779
ag778
ag777
ag13
ag872
ag1123
aS'[solve_imp]./MG_JEN_Joneset.GJones()'
p2384
ag1987
ag2157
aS'[solve_imp]./MG_JEN_Joneset.KJones()'
p2385
ag2244
aS'[solve_imp]./MG_JEN_Joneset.EJones_WSRT()'
p2386
ag2063
asg52
(dp2387
g2
g853
sg774
g856
sg872
g1163
sg13
g1164
sg777
g865
sg778
g865
sg1123
g1165
sg779
g865
sssg2384
(dp2388
g27
I00
sg2
S'@@polrep'
p2389
sS'fdeg_Ggain'
p2390
I0
sg30
g31
sg32
I00
sg13
S'@@parmtable'
p2391
sg36
Nsg37
I10
sg38
g39
sg40
g41
sS'subtile_size_Ggain'
p2392
I1
sg44
g45
sg47
Nsg49
(dp2393
g199
S'MG_JEN_Joneset::GJones()'
p2394
sg51
g2384
sg100
(dp2395
g37
I01
sg38
I01
sg2
I01
sg78
I01
sg40
I01
sg774
I01
sg30
I01
sg43
I01
sg44
I01
sg872
I01
sg47
I01
sg92
I01
sg13
I01
sg777
I01
sg778
I01
sg1173
I01
sg36
I01
sg779
I01
ssg105
g1174
sg96
g97
sg109
S'MG_JEN_Joneset::GJones()  version=15dec2005  defined=2006-04-07 15:06'
p2396
sg205
S'GJones'
p2397
sg111
(dp2398
g27
(lp2399
I01
aI00
aS'@@reset_funklet'
p2400
asg2
(lp2401
g3
ag793
ag2389
asg2390
(lp2402
I0
aI1
aI2
aI3
aS'@@fdeg_Ggain'
p2403
asg30
(lp2404
g31
aS'@@color'
p2405
asg32
(lp2406
I01
aI00
aS'@@save_all'
p2407
asg13
(lp2408
Nag1118
ag2391
asg36
(lp2409
NaS'@@unit'
p2410
asg37
(lp2411
I10
aS'@@size'
p2412
asg38
(lp2413
g39
aS'@@style'
p2414
asg40
(lp2415
g41
aS'@@descr'
p2416
asg2392
(lp2417
NaI1
aI2
aI5
aI10
aI20
aI50
aI100
aI200
aI500
aS'@@subtile_size_Ggain'
p2418
asg44
(lp2419
g45
aS'@@condeq_corrs'
p2420
asg47
(lp2421
NaS'@@funklet_shape'
p2422
asg94
(lp2423
I01
aI00
aS'@@auto_save'
p2424
asg777
(lp2425
g1126
aS'@@@Jsequence_KJones'
p2426
asg779
(lp2427
g1126
aS'@@@Jsequence'
p2428
asg78
(lp2429
F1.0
aS'@@c00_default'
p2430
asS'tdeg_Gphase'
p2431
(lp2432
I0
aI1
aI2
aI3
aS'@tdeg_Ggain'
p2433
aS'@@tdeg_Gphase'
p2434
asS'tdeg_Ggain'
p2435
(lp2436
I0
aI1
aI2
aI3
aS'@@tdeg_Ggain'
p2437
asS'fdeg_Gphase'
p2438
(lp2439
I0
aI1
aI2
aI3
aS'@fdeg_Ggain'
p2440
aS'@@fdeg_Gphase'
p2441
asS'subtile_size_Gphase'
p2442
(lp2443
S'@subtile_size_Ggain'
p2444
aNaI1
aI2
aI5
aI10
aI20
aI50
aI100
aI200
aI500
aS'@@subtile_size_Gphase'
p2445
asg1173
(lp2446
I01
aI00
aS'@@Gpolar'
p2447
asg872
(lp2448
I00
aS'@@uvplane_effect'
p2449
asg774
(lp2450
(lp2451
I0
aI1
aI2
aI3
aI4
aa(lp2452
I0
aI1
aI2
aI3
aI4
aI5
aI6
aa(lp2453
I0
aI1
aI2
aI3
aI4
aI5
aI6
aI7
aI8
aI9
aI10
aI11
aI12
aI13
aa(lp2454
I0
aI1
aI2
aI3
aI4
aI5
aI6
aI7
aI8
aI9
aI10
aI11
aI12
aI13
aI14
aag803
aS'@@stations'
p2455
asg88
(lp2456
I01
aI00
aS'@@use_previous'
p2457
asg43
(lp2458
NaS'@@subtile_size'
p2459
asg92
(lp2460
NaS'@@tfdeg'
p2461
asg778
(lp2462
g1126
aS'@@@Jsequence_simul'
p2463
assg195
g2050
sg209
S'** Description of available inarg record(s) for: MG_JEN_Joneset::GJones()  version=15dec2005  defined=2006-04-07 15:06'
p2464
sg211
I00
sg212
S'2006-04-07 15:06'
p2465
sg103
g1223
sg98
S'MG_JEN_Joneset'
p2466
sg107
(dp2467
g27
I00
sg1173
I00
sg32
I00
sg94
I00
sg88
I00
ssg201
S'** Specific description of inarg record for: MG_JEN_Joneset::GJones()  version=15dec2005  defined=2006-04-07 15:06'
p2468
sg847
(dp2469
g872
I00
sg13
I00
sg2
I00
sg774
I00
ssg197
g2465
sg223
(lp2470
g49
ag774
ag2
ag779
ag778
ag777
ag1173
ag13
ag872
ag2435
ag2431
ag2390
ag2438
ag2392
ag2442
ag88
ag94
ag32
ag27
ag40
ag36
ag30
ag38
ag37
ag78
ag92
ag47
ag43
ag44
asg52
(dp2471
g27
g55
sg2
g853
sg2390
S'degree of freq polynomial'
p2472
sg30
g58
sg32
g59
sg13
g1164
sg36
g36
sg37
g63
sg38
g64
sg40
g65
sg2392
S'sub-tile size (None=entire tile)'
p2473
sg44
g68
sg47
g70
sg94
g95
sg777
g865
sg779
g865
sg78
g79
sg2431
S'degree of time polynomial'
p2474
sg2435
g2474
sg2438
g2472
sg2442
g2473
sg1173
g1230
sg872
g1163
sg774
g856
sg88
g89
sg43
g67
sg92
g93
sg778
g865
ssg203
S'MG_JEN_JonesetGJones'
p2475
ssg777
g1126
sg779
g1126
sg78
F1.0
sg2431
g2433
sg2435
I0
sg2438
g2440
sg2442
g2444
sg1173
I01
sg872
g2449
sg774
g2455
sg88
I01
sg43
Nsg92
Nsg778
g1126
sg94
I01
ssg2
g2344
sg778
Nsg2385
(dp2476
g2
S'@@polrep'
p2477
sg774
S'@@stations'
p2478
sg49
(dp2479
g199
S'MG_JEN_Joneset::KJones()'
p2480
sg51
g2385
sg100
(dp2481
g777
I01
sg778
I01
sg779
I01
sg2
I01
sg774
I01
ssg105
g944
sg96
g97
sg109
S'MG_JEN_Joneset::KJones()  version=12dec2005  defined=2006-04-07 15:06'
p2482
sg205
S'KJones'
p2483
sg111
(dp2484
g777
(lp2485
g949
aS'@@@Jsequence_KJones'
p2486
asg778
(lp2487
g949
aS'@@@Jsequence_simul'
p2488
asg779
(lp2489
g949
aS'@@@Jsequence'
p2490
asg2
(lp2491
g3
ag793
ag2477
asg774
(lp2492
(lp2493
I0
aI1
aI2
aI3
aI4
aa(lp2494
I0
aI1
aI2
aI3
aI4
aI5
aI6
aa(lp2495
I0
aI1
aI2
aI3
aI4
aI5
aI6
aI7
aI8
aI9
aI10
aI11
aI12
aI13
aa(lp2496
I0
aI1
aI2
aI3
aI4
aI5
aI6
aI7
aI8
aI9
aI10
aI11
aI12
aI13
aI14
aag803
ag2478
assg195
g2050
sg209
S'** Description of available inarg record(s) for: MG_JEN_Joneset::KJones()  version=12dec2005  defined=2006-04-07 15:06'
p2497
sg211
I00
sg212
S'2006-04-07 15:06'
p2498
sg103
g963
sg98
S'MG_JEN_Joneset'
p2499
sg201
S'** Specific description of inarg record for: MG_JEN_Joneset::KJones()  version=12dec2005  defined=2006-04-07 15:06'
p2500
sg847
(dp2501
g2
I00
sg774
I00
ssg197
g2498
sg223
(lp2502
g49
ag774
ag2
ag779
ag778
ag777
asg52
(dp2503
g777
g865
sg778
g865
sg779
g865
sg2
g853
sg774
g856
ssg203
S'MG_JEN_JonesetKJones'
p2504
ssg777
g949
sg778
g949
sg779
g949
ssg1123
(lp2505
sg2386
(dp2506
g27
I00
sg2
S'@@polrep'
p2507
sg30
g31
sg32
I00
sg36
Nsg13
S'@@parmtable'
p2508
sg94
I01
sg37
I10
sS'tdeg_Edl'
p2509
I0
sS'tdeg_Edm'
p2510
S'@tdeg_Edl'
p2511
sg38
g39
sg40
g41
sg43
Nsg44
g45
sg47
Nsg49
(dp2512
g199
S'MG_JEN_Joneset::EJones_WSRT()'
p2513
sg51
g2386
sg100
(dp2514
g38
I01
sg2
I01
sg78
I01
sg40
I01
sg774
I01
sg30
I01
sg43
I01
sg44
I01
sg872
I01
sg47
I01
sg92
I01
sg13
I01
sg777
I01
sg778
I01
sg37
I01
sg36
I01
sg779
I01
ssg105
g1238
sg96
g97
sg109
S'MG_JEN_Joneset::EJones_WSRT()  version=15dec2005  defined=2006-04-07 15:06'
p2515
sg205
S'EJones_WSRT'
p2516
sg111
(dp2517
g27
(lp2518
I01
aI00
aS'@@reset_funklet'
p2519
asg2
(lp2520
g3
ag793
ag2507
asg30
(lp2521
g31
aS'@@color'
p2522
asg32
(lp2523
I01
aI00
aS'@@save_all'
p2524
asg13
(lp2525
Nag1118
ag2508
asg36
(lp2526
NaS'@@unit'
p2527
asg37
(lp2528
I10
aS'@@size'
p2529
asg2509
(lp2530
I0
aI1
aI2
aI3
aS'@@tdeg_Edl'
p2531
asg2510
(lp2532
I0
aI1
aI2
aI3
ag2511
aS'@@tdeg_Edm'
p2533
asg38
(lp2534
g39
aS'@@style'
p2535
asg40
(lp2536
g41
aS'@@descr'
p2537
asg43
(lp2538
NaS'@@subtile_size'
p2539
asg44
(lp2540
g45
aS'@@condeq_corrs'
p2541
asg47
(lp2542
NaS'@@funklet_shape'
p2543
asg94
(lp2544
I01
aI00
aS'@@auto_save'
p2545
asg777
(lp2546
g1133
aS'@@@Jsequence_KJones'
p2547
asg779
(lp2548
g1133
aS'@@@Jsequence'
p2549
asg78
(lp2550
F1.0
aS'@@c00_default'
p2551
asg872
(lp2552
I00
aS'@@uvplane_effect'
p2553
asg774
(lp2554
(lp2555
I0
aI1
aI2
aI3
aI4
aa(lp2556
I0
aI1
aI2
aI3
aI4
aI5
aI6
aa(lp2557
I0
aI1
aI2
aI3
aI4
aI5
aI6
aI7
aI8
aI9
aI10
aI11
aI12
aI13
aa(lp2558
I0
aI1
aI2
aI3
aI4
aI5
aI6
aI7
aI8
aI9
aI10
aI11
aI12
aI13
aI14
aag803
aS'@@stations'
p2559
asg92
(lp2560
NaS'@@tfdeg'
p2561
asg88
(lp2562
I01
aI00
aS'@@use_previous'
p2563
asS'subtile_size_Edl'
p2564
(lp2565
NaI1
aI2
aI5
aI10
aI20
aI50
aI100
aI200
aI500
aS'@@subtile_size_Edl'
p2566
asS'subtile_size_Edm'
p2567
(lp2568
S'@subtile_size_Edl'
p2569
aNaI1
aI2
aI5
aI10
aI20
aI50
aI100
aI200
aI500
aS'@@subtile_size_Edm'
p2570
asg778
(lp2571
g1133
aS'@@@Jsequence_simul'
p2572
asS'fdeg_Edl'
p2573
(lp2574
I0
aI1
aI2
aI3
aS'@@fdeg_Edl'
p2575
asS'fdeg_Edm'
p2576
(lp2577
I0
aI1
aI2
aI3
aS'@fdeg_Edl'
p2578
aS'@@fdeg_Edm'
p2579
assg195
g2050
sg209
S'** Description of available inarg record(s) for: MG_JEN_Joneset::EJones_WSRT()  version=15dec2005  defined=2006-04-07 15:06'
p2580
sg211
I00
sg212
S'2006-04-07 15:06'
p2581
sg103
g1223
sg98
S'MG_JEN_Joneset'
p2582
sg107
(dp2583
g27
I00
sg32
I00
sg94
I00
sg88
I00
ssg201
S'** Specific description of inarg record for: MG_JEN_Joneset::EJones_WSRT()  version=15dec2005  defined=2006-04-07 15:06'
p2584
sg847
(dp2585
g872
I00
sg13
I00
sg2
I00
sg774
I00
ssg197
g2581
sg223
(lp2586
g49
ag774
ag2
ag779
ag778
ag777
ag13
ag872
ag2509
ag2510
ag2573
ag2576
ag2564
ag2567
ag88
ag94
ag32
ag27
ag40
ag36
ag30
ag38
ag37
ag78
ag92
ag47
ag43
ag44
asg52
(dp2587
g27
g55
sg2
g853
sg30
g58
sg32
g59
sg13
g1164
sg36
g36
sg37
g63
sg2509
S'degree of time polynomial'
p2588
sg2510
g2588
sg38
g64
sg40
g65
sg43
g67
sg44
g68
sg47
g70
sg94
g95
sg777
g865
sg779
g865
sg78
g79
sg872
g1163
sg774
g856
sg92
g93
sg88
g89
sg2564
S'sub-tile size (None=entire tile)'
p2589
sg2567
g2589
sg778
g865
sg2573
S'degree of freq polynomial'
p2590
sg2576
g2590
ssg203
S'MG_JEN_JonesetEJones_WSRT'
p2591
ssg777
g1133
sg779
g1133
sg78
F1.0
sg872
g2553
sg774
g2559
sg92
Nsg88
I01
sg2564
Nsg2567
g2569
sg778
g1133
sg2573
I0
sg2576
g2578
ssg779
Nssg2
S'@@polrep'
p2592
sg774
S'@@stations'
p2593
sg49
(dp2594
g199
g1294
sg51
g1908
sg100
(dp2595
g777
I01
sg778
I01
sg779
I01
sg2
I01
sg774
I01
ssg203
S'MG_JEN_Cohsetpredict_lsm'
p2596
sg96
g97
sg109
S'MG_JEN_Cohset::predict_lsm()  version=20mar2006  defined=2006-04-07 15:06'
p2597
sg205
S'predict_lsm'
p2598
sg111
(dp2599
g2
(lp2600
g3
ag793
ag2592
asg774
(lp2601
(lp2602
I0
aI1
aI2
aI3
aI4
aa(lp2603
I0
aI1
aI2
aI3
aI4
aI5
aI6
aa(lp2604
I0
aI1
aI2
aI3
aI4
aI5
aI6
aI7
aI8
aI9
aI10
aI11
aI12
aI13
aa(lp2605
I0
aI1
aI2
aI3
aI4
aI5
aI6
aI7
aI8
aI9
aI10
aI11
aI12
aI13
aI14
aag803
ag2593
asg1306
(lp2606
I1
aI2
aI3
aI5
aI10
aI20
aI100
aI1000
aI10000
aS'@@nr_lsm_sources'
p2607
asg777
(lp2608
NaS'@@@Jsequence_KJones'
p2609
asg778
(lp2610
NaS'@@@Jsequence_simul'
p2611
asg779
(lp2612
NaS'@@@Jsequence'
p2613
assg195
S'solve'
p2614
sg209
S'** Description of available inarg record(s) for: MG_JEN_Cohset::predict_lsm()  version=20mar2006  defined=2006-04-07 15:06'
p2615
sg211
I00
sg212
S'2006-04-07 15:06'
p2616
sg103
g1317
sg98
S'MG_JEN_Cohset'
p2617
sg201
S'** Specific description of inarg record for: MG_JEN_Cohset::predict_lsm()  version=20mar2006  defined=2006-04-07 15:06'
p2618
sg213
(dp2619
g215
S'** JEN_inarg.attach(): attached: [solve_uvp]./MG_JEN_Cohset.Jones()'
p2620
sg217
S'** JEN_inarg.attach(): attached: [solve_imp]./MG_JEN_Cohset.Jones()'
p2621
ssg197
g2616
sg847
(dp2622
g2
I00
sg774
I00
ssg223
(lp2623
g49
ag1306
ag774
ag2
ag779
ag778
ag777
ag1985
aS'[solve_uvp]./MG_JEN_Cohset.Jones()'
p2624
asg52
(dp2625
g2
g853
sg774
g856
sg1306
g1327
sg777
g865
sg778
g865
sg779
g865
ssg105
g1328
ssg2624
(dp2626
g777
Nsg2
S'@@polrep'
p2627
sg774
S'@@stations'
p2628
sg1123
(lp2629
g1078
asS'[solve_uvp]./MG_JEN_Joneset.KJones()'
p2630
(dp2631
g2
S'@@polrep'
p2632
sg774
S'@@stations'
p2633
sg49
(dp2634
g199
S'MG_JEN_Joneset::KJones()'
p2635
sg51
g2630
sg100
(dp2636
g777
I01
sg778
I01
sg779
I01
sg2
I01
sg774
I01
ssg105
g944
sg96
g97
sg109
S'MG_JEN_Joneset::KJones()  version=12dec2005  defined=2006-04-07 15:06'
p2637
sg205
S'KJones'
p2638
sg111
(dp2639
g777
(lp2640
g949
aS'@@@Jsequence_KJones'
p2641
asg778
(lp2642
g949
aS'@@@Jsequence_simul'
p2643
asg779
(lp2644
g949
aS'@@@Jsequence'
p2645
asg2
(lp2646
g3
ag793
ag2632
asg774
(lp2647
(lp2648
I0
aI1
aI2
aI3
aI4
aa(lp2649
I0
aI1
aI2
aI3
aI4
aI5
aI6
aa(lp2650
I0
aI1
aI2
aI3
aI4
aI5
aI6
aI7
aI8
aI9
aI10
aI11
aI12
aI13
aa(lp2651
I0
aI1
aI2
aI3
aI4
aI5
aI6
aI7
aI8
aI9
aI10
aI11
aI12
aI13
aI14
aag803
ag2633
assg195
S'solve_uvp'
p2652
sg209
S'** Description of available inarg record(s) for: MG_JEN_Joneset::KJones()  version=12dec2005  defined=2006-04-07 15:06'
p2653
sg211
I00
sg212
S'2006-04-07 15:06'
p2654
sg103
g963
sg98
S'MG_JEN_Joneset'
p2655
sg201
S'** Specific description of inarg record for: MG_JEN_Joneset::KJones()  version=12dec2005  defined=2006-04-07 15:06'
p2656
sg847
(dp2657
g2
I00
sg774
I00
ssg197
g2654
sg223
(lp2658
g49
ag774
ag2
ag779
ag778
ag777
asg52
(dp2659
g777
g865
sg778
g865
sg779
g865
sg2
g853
sg774
g856
ssg203
S'MG_JEN_JonesetKJones'
p2660
ssg777
g949
sg778
g949
sg779
g949
ssg872
S'@@uvplane_effect'
p2661
sg13
S'@@parmtable'
p2662
sS'[solve_uvp]./MG_JEN_Joneset.BJones()'
p2663
(dp2664
g27
I00
sg2
S'@@polrep'
p2665
sg30
g31
sg2160
g2161
sg32
I00
sg2162
Nsg36
Nsg37
I10
sg38
g39
sg40
g41
sg2163
I5
sg44
g45
sg47
Nsg49
(dp2666
g199
S'MG_JEN_Joneset::BJones()'
p2667
sg51
g2663
sg100
(dp2668
g38
I01
sg2
I01
sg78
I01
sg40
I01
sg774
I01
sg30
I01
sg43
I01
sg44
I01
sg872
I01
sg47
I01
sg92
I01
sg13
I01
sg777
I01
sg778
I01
sg37
I01
sg36
I01
sg779
I01
ssg105
g880
sg96
g97
sg109
S'MG_JEN_Joneset::BJones()  version=16dec2005  defined=2006-04-07 15:06'
p2669
sg205
S'BJones'
p2670
sg111
(dp2671
g27
(lp2672
I01
aI00
aS'@@reset_funklet'
p2673
asg2
(lp2674
g3
ag793
ag2665
asg30
(lp2675
g31
aS'@@color'
p2676
asg2160
(lp2677
g2161
aNaI1
aI2
aI5
aI10
aI20
aI50
aI100
aI200
aI500
aS'@@subtile_size_Bimag'
p2678
asg32
(lp2679
I01
aI00
aS'@@save_all'
p2680
asg2162
(lp2681
NaI1
aI2
aI5
aI10
aI20
aI50
aI100
aI200
aI500
aS'@@subtile_size_Breal'
p2682
asg36
(lp2683
NaS'@@unit'
p2684
asg37
(lp2685
I10
aS'@@size'
p2686
asg38
(lp2687
g39
aS'@@style'
p2688
asg40
(lp2689
g41
aS'@@descr'
p2690
asg2163
(lp2691
I3
aI4
aI5
aI6
aS'@@fdeg_Breal'
p2692
asg44
(lp2693
g45
aS'@@condeq_corrs'
p2694
asg47
(lp2695
NaS'@@funklet_shape'
p2696
asg94
(lp2697
I01
aI00
aS'@@auto_save'
p2698
asg777
(lp2699
g915
aS'@@@Jsequence_KJones'
p2700
asg2199
(lp2701
I0
aI1
aI2
aI3
ag2201
aS'@@tdeg_Bimag'
p2702
asg779
(lp2703
g915
aS'@@@Jsequence'
p2704
asg78
(lp2705
F1.0
aS'@@c00_default'
p2706
asg2207
(lp2707
I3
aI4
aI5
aI6
ag2209
aS'@@fdeg_Bimag'
p2708
asg872
(lp2709
I00
aS'@@uvplane_effect'
p2710
asg774
(lp2711
(lp2712
I0
aI1
aI2
aI3
aI4
aa(lp2713
I0
aI1
aI2
aI3
aI4
aI5
aI6
aa(lp2714
I0
aI1
aI2
aI3
aI4
aI5
aI6
aI7
aI8
aI9
aI10
aI11
aI12
aI13
aa(lp2715
I0
aI1
aI2
aI3
aI4
aI5
aI6
aI7
aI8
aI9
aI10
aI11
aI12
aI13
aI14
aag803
aS'@@stations'
p2716
asg92
(lp2717
NaS'@@tfdeg'
p2718
asg2221
(lp2719
I0
aI1
aI2
aI3
aS'@@tdeg_Breal'
p2720
asg88
(lp2721
I01
aI00
aS'@@use_previous'
p2722
asg43
(lp2723
NaS'@@subtile_size'
p2724
asg13
(lp2725
Nag1118
aS'@@parmtable'
p2726
asg778
(lp2727
g915
aS'@@@Jsequence_simul'
p2728
assg195
g2652
sg209
S'** Description of available inarg record(s) for: MG_JEN_Joneset::BJones()  version=16dec2005  defined=2006-04-07 15:06'
p2729
sg211
I00
sg212
S'2006-04-07 15:06'
p2730
sg103
g929
sg98
S'MG_JEN_Joneset'
p2731
sg107
(dp2732
g27
I00
sg32
I00
sg94
I00
sg88
I00
ssg201
S'** Specific description of inarg record for: MG_JEN_Joneset::BJones()  version=16dec2005  defined=2006-04-07 15:06'
p2733
sg847
(dp2734
g872
I00
sg13
I00
sg2
I00
sg774
I00
ssg197
g2730
sg223
(lp2735
g49
ag774
ag2
ag779
ag778
ag777
ag13
ag872
ag2221
ag2199
ag2163
ag2207
ag2162
ag2160
ag88
ag94
ag32
ag27
ag40
ag36
ag30
ag38
ag37
ag78
ag92
ag47
ag43
ag44
asg52
(dp2736
g27
g55
sg2
g853
sg30
g58
sg2160
g2240
sg32
g59
sg2162
g2240
sg36
g36
sg37
g63
sg38
g64
sg40
g65
sg2163
g2241
sg44
g68
sg47
g70
sg94
g95
sg777
g865
sg2199
g2242
sg779
g865
sg78
g79
sg2207
g2241
sg872
g1163
sg774
g856
sg92
g93
sg2221
g2242
sg88
g89
sg43
g67
sg13
g1164
sg778
g865
ssg203
S'MG_JEN_JonesetBJones'
p2737
ssg777
g915
sg2199
g2201
sg779
g915
sg78
F1.0
sg2207
g2209
sg872
g2710
sg774
g2716
sg92
Nsg2221
I0
sg88
I01
sg43
Nsg13
g2726
sg778
g915
sg94
I01
ssg49
(dp2738
g199
g1103
sg51
g2624
sg100
(dp2739
g2
I01
sg774
I01
sg872
I01
sg13
I01
sg777
I01
sg778
I01
sg779
I01
ssg203
S'MG_JEN_CohsetJones'
p2740
sg96
g97
sg105
g1106
sg109
S'MG_JEN_Cohset::Jones()  version=25dec2005  defined=2006-04-07 15:06'
p2741
sg205
S'Jones'
p2742
sg111
(dp2743
g2
(lp2744
g3
ag793
ag2627
asg774
(lp2745
(lp2746
I0
aI1
aI2
aI3
aI4
aa(lp2747
I0
aI1
aI2
aI3
aI4
aI5
aI6
aa(lp2748
I0
aI1
aI2
aI3
aI4
aI5
aI6
aI7
aI8
aI9
aI10
aI11
aI12
aI13
aa(lp2749
I0
aI1
aI2
aI3
aI4
aI5
aI6
aI7
aI8
aI9
aI10
aI11
aI12
aI13
aI14
aag803
ag2628
asg872
(lp2750
I00
ag2661
asg13
(lp2751
Nag1118
ag2662
asg777
(lp2752
NaS'@@@Jsequence_KJones'
p2753
asg778
(lp2754
NaS'@@@Jsequence_simul'
p2755
asg1123
(lp2756
(lp2757
g1126
aa(lp2758
g915
aa(lp2759
g1011
aa(lp2760
g949
aa(lp2761
g1078
aa(lp2762
g1126
ag1078
aa(lp2763
g1133
aa(lp2764
g1126
ag1133
aa(lp2765
g830
aa(lp2766
aS'@@Jsequence'
p2767
asg779
(lp2768
NaS'@@@Jsequence'
p2769
assg195
g2652
sg209
S'** Description of available inarg record(s) for: MG_JEN_Cohset::Jones()  version=25dec2005  defined=2006-04-07 15:06'
p2770
sg211
I00
sg212
S'2006-04-07 15:06'
p2771
sg103
g1142
sg98
S'MG_JEN_Cohset'
p2772
sg201
S'** Specific description of inarg record for: MG_JEN_Cohset::Jones()  version=25dec2005  defined=2006-04-07 15:06'
p2773
sg213
(dp2774
g215
S'** JEN_inarg.attach(): attached: [solve_uvp]./MG_JEN_Joneset.FJones()'
p2775
sg217
S'** JEN_inarg.attach(): attached: [solve_uvp]./MG_JEN_Joneset.GJones()'
p2776
sg219
S'** JEN_inarg.attach(): attached: [solve_uvp]./MG_JEN_Joneset.KJones()'
p2777
sg221
S'** JEN_inarg.attach(): attached: [solve_uvp]./MG_JEN_Joneset.BJones()'
p2778
sg1150
S'** JEN_inarg.attach(): attached: [solve_uvp]./MG_JEN_Joneset.EJones_WSRT()'
p2779
sg1152
S'** JEN_inarg.attach(): attached: [solve_uvp]./MG_JEN_Joneset.DJones_WSRT()'
p2780
sg1154
S"  2: ....[solve_uvp]./MG_JEN_Cohset.Jones() (qual=solve_uvp): .modify(Jsequence):   []  ->  ['DJones_WSRT']"
p2781
sg1156
S'** JEN_inarg.attach(): attached: [solve_uvp]./MG_JEN_Joneset.JJones()'
p2782
ssg197
g2771
sg847
(dp2783
g872
I00
sg13
I00
sg2
I00
sg774
I00
ssg223
(lp2784
g49
ag774
ag2
ag779
ag778
ag777
ag13
ag872
ag1123
aS'[solve_uvp]./MG_JEN_Joneset.GJones()'
p2785
aS'[solve_uvp]./MG_JEN_Joneset.FJones()'
p2786
ag2663
ag2630
aS'[solve_uvp]./MG_JEN_Joneset.DJones_WSRT()'
p2787
aS'[solve_uvp]./MG_JEN_Joneset.EJones_WSRT()'
p2788
aS'[solve_uvp]./MG_JEN_Joneset.JJones()'
p2789
asg52
(dp2790
g2
g853
sg774
g856
sg872
g1163
sg13
g1164
sg777
g865
sg778
g865
sg1123
g1165
sg779
g865
sssg2785
(dp2791
g27
I00
sg2
S'@@polrep'
p2792
sg2390
I0
sg30
g31
sg32
I00
sg13
S'@@parmtable'
p2793
sg36
Nsg37
I10
sg38
g39
sg40
g41
sg2392
I1
sg44
g45
sg47
Nsg49
(dp2794
g199
S'MG_JEN_Joneset::GJones()'
p2795
sg51
g2785
sg100
(dp2796
g37
I01
sg38
I01
sg2
I01
sg78
I01
sg40
I01
sg774
I01
sg30
I01
sg43
I01
sg44
I01
sg872
I01
sg47
I01
sg92
I01
sg13
I01
sg777
I01
sg778
I01
sg1173
I01
sg36
I01
sg779
I01
ssg105
g1174
sg96
g97
sg109
S'MG_JEN_Joneset::GJones()  version=15dec2005  defined=2006-04-07 15:06'
p2797
sg205
S'GJones'
p2798
sg111
(dp2799
g27
(lp2800
I01
aI00
aS'@@reset_funklet'
p2801
asg2
(lp2802
g3
ag793
ag2792
asg2390
(lp2803
I0
aI1
aI2
aI3
aS'@@fdeg_Ggain'
p2804
asg30
(lp2805
g31
aS'@@color'
p2806
asg32
(lp2807
I01
aI00
aS'@@save_all'
p2808
asg13
(lp2809
Nag1118
ag2793
asg36
(lp2810
NaS'@@unit'
p2811
asg37
(lp2812
I10
aS'@@size'
p2813
asg38
(lp2814
g39
aS'@@style'
p2815
asg40
(lp2816
g41
aS'@@descr'
p2817
asg2392
(lp2818
NaI1
aI2
aI5
aI10
aI20
aI50
aI100
aI200
aI500
aS'@@subtile_size_Ggain'
p2819
asg44
(lp2820
g45
aS'@@condeq_corrs'
p2821
asg47
(lp2822
NaS'@@funklet_shape'
p2823
asg94
(lp2824
I01
aI00
aS'@@auto_save'
p2825
asg777
(lp2826
g1126
aS'@@@Jsequence_KJones'
p2827
asg779
(lp2828
g1126
aS'@@@Jsequence'
p2829
asg78
(lp2830
F1.0
aS'@@c00_default'
p2831
asg2431
(lp2832
I0
aI1
aI2
aI3
ag2433
aS'@@tdeg_Gphase'
p2833
asg2435
(lp2834
I0
aI1
aI2
aI3
aS'@@tdeg_Ggain'
p2835
asg2438
(lp2836
I0
aI1
aI2
aI3
ag2440
aS'@@fdeg_Gphase'
p2837
asg2442
(lp2838
g2444
aNaI1
aI2
aI5
aI10
aI20
aI50
aI100
aI200
aI500
aS'@@subtile_size_Gphase'
p2839
asg1173
(lp2840
I01
aI00
aS'@@Gpolar'
p2841
asg872
(lp2842
I00
aS'@@uvplane_effect'
p2843
asg774
(lp2844
(lp2845
I0
aI1
aI2
aI3
aI4
aa(lp2846
I0
aI1
aI2
aI3
aI4
aI5
aI6
aa(lp2847
I0
aI1
aI2
aI3
aI4
aI5
aI6
aI7
aI8
aI9
aI10
aI11
aI12
aI13
aa(lp2848
I0
aI1
aI2
aI3
aI4
aI5
aI6
aI7
aI8
aI9
aI10
aI11
aI12
aI13
aI14
aag803
aS'@@stations'
p2849
asg88
(lp2850
I01
aI00
aS'@@use_previous'
p2851
asg43
(lp2852
NaS'@@subtile_size'
p2853
asg92
(lp2854
NaS'@@tfdeg'
p2855
asg778
(lp2856
g1126
aS'@@@Jsequence_simul'
p2857
assg195
g2652
sg209
S'** Description of available inarg record(s) for: MG_JEN_Joneset::GJones()  version=15dec2005  defined=2006-04-07 15:06'
p2858
sg211
I00
sg212
S'2006-04-07 15:06'
p2859
sg103
g1223
sg98
S'MG_JEN_Joneset'
p2860
sg107
(dp2861
g27
I00
sg1173
I00
sg32
I00
sg94
I00
sg88
I00
ssg201
S'** Specific description of inarg record for: MG_JEN_Joneset::GJones()  version=15dec2005  defined=2006-04-07 15:06'
p2862
sg847
(dp2863
g872
I00
sg13
I00
sg2
I00
sg774
I00
ssg197
g2859
sg223
(lp2864
g49
ag774
ag2
ag779
ag778
ag777
ag1173
ag13
ag872
ag2435
ag2431
ag2390
ag2438
ag2392
ag2442
ag88
ag94
ag32
ag27
ag40
ag36
ag30
ag38
ag37
ag78
ag92
ag47
ag43
ag44
asg52
(dp2865
g27
g55
sg2
g853
sg2390
g2472
sg30
g58
sg32
g59
sg13
g1164
sg36
g36
sg37
g63
sg38
g64
sg40
g65
sg2392
g2473
sg44
g68
sg47
g70
sg94
g95
sg777
g865
sg779
g865
sg78
g79
sg2431
g2474
sg2435
g2474
sg2438
g2472
sg2442
g2473
sg1173
g1230
sg872
g1163
sg774
g856
sg88
g89
sg43
g67
sg92
g93
sg778
g865
ssg203
S'MG_JEN_JonesetGJones'
p2866
ssg777
g1126
sg779
g1126
sg78
F1.0
sg2431
g2433
sg2435
I0
sg2438
g2440
sg2442
g2444
sg1173
I01
sg872
g2843
sg774
g2849
sg88
I01
sg43
Nsg92
Nsg778
g1126
sg94
I01
ssg2789
(dp2867
g27
I00
sg2
S'@@polrep'
p2868
sg2066
I0
sg30
g31
sg32
I00
sg766
Nsg13
S'@@parmtable'
p2869
sg2068
Nsg36
Nsg37
I10
sg38
g39
sg2069
g2070
sg40
g41
sg44
g45
sg47
Nsg49
(dp2870
g199
S'MG_JEN_Joneset::JJones()'
p2871
sg51
g2789
sg100
(dp2872
g38
I01
sg2
I01
sg78
I01
sg40
I01
sg774
I01
sg30
I01
sg43
I01
sg44
I01
sg872
I01
sg47
I01
sg92
I01
sg13
I01
sg777
I01
sg778
I01
sg37
I01
sg36
I01
sg779
I01
ssg105
g780
sg96
g97
sg109
S'MG_JEN_Joneset::JJones()  version=14feb2006  defined=2006-04-07 15:06'
p2873
sg205
S'JJones'
p2874
sg111
(dp2875
g27
(lp2876
I01
aI00
aS'@@reset_funklet'
p2877
asg2
(lp2878
g3
ag793
ag2868
asg2066
(lp2879
I0
aI1
aI2
aI3
aS'@@tdeg_Jreal'
p2880
asg30
(lp2881
g31
aS'@@color'
p2882
asg32
(lp2883
I01
aI00
aS'@@save_all'
p2884
asg766
(lp2885
Na(lp2886
I14
aa(lp2887
I1
aag819
aS'@@all4_always'
p2888
asg13
(lp2889
Nag1118
ag2869
asg2068
(lp2890
NaI1
aI2
aI5
aI10
aI20
aI50
aI100
aI200
aI500
aS'@@subtile_size_Jreal'
p2891
asg36
(lp2892
NaS'@@unit'
p2893
asg37
(lp2894
I10
aS'@@size'
p2895
asg38
(lp2896
g39
aS'@@style'
p2897
asg2069
(lp2898
I0
aI1
aI2
aI3
ag2070
aS'@@tdeg_Jimag'
p2899
asg40
(lp2900
g41
aS'@@descr'
p2901
asg44
(lp2902
g45
aS'@@condeq_corrs'
p2903
asg47
(lp2904
NaS'@@funklet_shape'
p2905
asg94
(lp2906
I01
aI00
aS'@@auto_save'
p2907
asg777
(lp2908
g830
aS'@@@Jsequence_KJones'
p2909
asg2111
(lp2910
I0
aI1
aI2
aI3
aS'@@fdeg_Jreal'
p2911
asg78
(lp2912
F1.0
aS'@@c00_default'
p2913
asg872
(lp2914
I00
aS'@@uvplane_effect'
p2915
asg2118
(lp2916
I0
aI1
aI2
aI3
ag2120
aS'@@fdeg_Jimag'
p2917
asg2122
(lp2918
g2124
aNaI1
aI2
aI5
aI10
aI20
aI50
aI100
aI200
aI500
aS'@@subtile_size_Jimag'
p2919
asg774
(lp2920
(lp2921
I0
aI1
aI2
aI3
aI4
aa(lp2922
I0
aI1
aI2
aI3
aI4
aI5
aI6
aa(lp2923
I0
aI1
aI2
aI3
aI4
aI5
aI6
aI7
aI8
aI9
aI10
aI11
aI12
aI13
aa(lp2924
I0
aI1
aI2
aI3
aI4
aI5
aI6
aI7
aI8
aI9
aI10
aI11
aI12
aI13
aI14
aag803
aS'@@stations'
p2925
asg762
(lp2926
I01
aI00
aS'@@diagonal_only'
p2927
asg88
(lp2928
I01
aI00
aS'@@use_previous'
p2929
asg43
(lp2930
NaS'@@subtile_size'
p2931
asg92
(lp2932
NaS'@@tfdeg'
p2933
asg778
(lp2934
g830
aS'@@@Jsequence_simul'
p2935
asg779
(lp2936
g830
aS'@@@Jsequence'
p2937
assg195
g2652
sg209
S'** Description of available inarg record(s) for: MG_JEN_Joneset::JJones()  version=14feb2006  defined=2006-04-07 15:06'
p2938
sg211
I00
sg212
S'2006-04-07 15:06'
p2939
sg103
g843
sg98
S'MG_JEN_Joneset'
p2940
sg107
(dp2941
g27
I00
sg762
I00
sg32
I00
sg94
I00
sg88
I00
ssg201
S'** Specific description of inarg record for: MG_JEN_Joneset::JJones()  version=14feb2006  defined=2006-04-07 15:06'
p2942
sg847
(dp2943
g872
I00
sg13
I00
sg2
I00
sg774
I00
ssg197
g2939
sg223
(lp2944
g49
ag774
ag2
ag779
ag778
ag777
ag762
ag766
ag13
ag872
ag2066
ag2069
ag2111
ag2118
ag2068
ag2122
ag88
ag94
ag32
ag27
ag40
ag36
ag30
ag38
ag37
ag78
ag92
ag47
ag43
ag44
asg52
(dp2945
g27
g55
sg2
g853
sg2066
g2152
sg30
g58
sg32
g59
sg766
g861
sg13
g1164
sg2068
g2153
sg36
g36
sg37
g63
sg38
g64
sg2069
g2152
sg40
g65
sg44
g68
sg47
g70
sg94
g95
sg777
g865
sg2111
g2154
sg78
g79
sg872
g1163
sg2118
g2154
sg2122
g2153
sg774
g856
sg762
g858
sg88
g89
sg43
g67
sg92
g93
sg778
g865
sg779
g865
ssg203
S'MG_JEN_JonesetJJones'
p2946
ssg777
g830
sg2111
I0
sg78
F1.0
sg872
g2915
sg2118
g2120
sg2122
g2124
sg774
g2925
sg762
I00
sg88
I01
sg43
Nsg92
Nsg778
g830
sg779
g830
sg94
I01
ssg2787
(dp2947
g27
I00
sg2
S'@@polrep'
p2948
sg30
g31
sg2247
g2248
sg1035
I01
sg32
I00
sg36
Nsg13
S'@@parmtable'
p2949
sg2250
Nsg94
I01
sg37
I10
sg38
g39
sg40
g41
sg44
g45
sg47
Nsg49
(dp2950
g199
S'MG_JEN_Joneset::DJones_WSRT()'
p2951
sg51
g2787
sg100
(dp2952
g38
I01
sg2
I01
sg78
I01
sg40
I01
sg774
I01
sg30
I01
sg43
I01
sg44
I01
sg872
I01
sg47
I01
sg92
I01
sg13
I01
sg777
I01
sg778
I01
sg37
I01
sg36
I01
sg779
I01
ssg105
g1039
sg96
g97
sg109
S'MG_JEN_Joneset::DJones_WSRT()  version=16dec2005  defined=2006-04-07 15:06'
p2953
sg205
S'DJones_WSRT'
p2954
sg111
(dp2955
g27
(lp2956
I01
aI00
aS'@@reset_funklet'
p2957
asg2
(lp2958
g3
ag793
ag2948
asg30
(lp2959
g31
aS'@@color'
p2960
asg2247
(lp2961
I0
aI1
aI2
aI3
ag2248
aS'@@fdeg_Dell'
p2962
asg1035
(lp2963
I01
aI00
aS'@@coupled_XY_Dell'
p2964
asg32
(lp2965
I01
aI00
aS'@@save_all'
p2966
asg13
(lp2967
Nag1118
ag2949
asg2250
(lp2968
NaI1
aI2
aI5
aI10
aI20
aI50
aI100
aI200
aI500
aS'@@subtile_size_Dang'
p2969
asg36
(lp2970
NaS'@@unit'
p2971
asg37
(lp2972
I10
aS'@@size'
p2973
asg38
(lp2974
g39
aS'@@style'
p2975
asg40
(lp2976
g41
aS'@@descr'
p2977
asg44
(lp2978
g45
aS'@@condeq_corrs'
p2979
asg47
(lp2980
NaS'@@funklet_shape'
p2981
asg94
(lp2982
I01
aI00
aS'@@auto_save'
p2983
asg777
(lp2984
g1078
aS'@@@Jsequence_KJones'
p2985
asg2287
(lp2986
g2289
aNaI1
aI2
aI5
aI10
aI20
aI50
aI100
aI200
aI500
aS'@@subtile_size_Dell'
p2987
asg779
(lp2988
g1078
aS'@@@Jsequence'
p2989
asg2293
(lp2990
I0
aI1
aI2
aI3
aS'@@fdeg_Dang'
p2991
asg78
(lp2992
F1.0
aS'@@c00_default'
p2993
asg872
(lp2994
I00
aS'@@uvplane_effect'
p2995
asg2300
(lp2996
I0
aI1
aI2
aI3
ag2302
aS'@@tdeg_Dell'
p2997
asg1084
(lp2998
I01
aI00
aS'@@coupled_XY_Dang'
p2999
asg2306
(lp3000
I0
aI1
aI2
aI3
aS'@@tdeg_Dang'
p3001
asg774
(lp3002
(lp3003
I0
aI1
aI2
aI3
aI4
aa(lp3004
I0
aI1
aI2
aI3
aI4
aI5
aI6
aa(lp3005
I0
aI1
aI2
aI3
aI4
aI5
aI6
aI7
aI8
aI9
aI10
aI11
aI12
aI13
aa(lp3006
I0
aI1
aI2
aI3
aI4
aI5
aI6
aI7
aI8
aI9
aI10
aI11
aI12
aI13
aI14
aag803
aS'@@stations'
p3007
asg88
(lp3008
I01
aI00
aS'@@use_previous'
p3009
asg43
(lp3010
NaS'@@subtile_size'
p3011
asg92
(lp3012
NaS'@@tfdeg'
p3013
asg778
(lp3014
g1078
aS'@@@Jsequence_simul'
p3015
assg195
g2652
sg209
S'** Description of available inarg record(s) for: MG_JEN_Joneset::DJones_WSRT()  version=16dec2005  defined=2006-04-07 15:06'
p3016
sg211
I00
sg212
S'2006-04-07 15:06'
p3017
sg103
g929
sg98
S'MG_JEN_Joneset'
p3018
sg107
(dp3019
g27
I00
sg1035
I00
sg32
I00
sg1084
I00
sg88
I00
sg94
I00
ssg201
S'** Specific description of inarg record for: MG_JEN_Joneset::DJones_WSRT()  version=16dec2005  defined=2006-04-07 15:06'
p3020
sg847
(dp3021
g872
I00
sg13
I00
sg2
I00
sg774
I00
ssg197
g3017
sg223
(lp3022
g49
ag774
ag2
ag779
ag778
ag777
ag1084
ag1035
ag13
ag872
ag2306
ag2300
ag2293
ag2247
ag2250
ag2287
ag88
ag94
ag32
ag27
ag40
ag36
ag30
ag38
ag37
ag78
ag92
ag47
ag43
ag44
asg52
(dp3023
g27
g55
sg2
g853
sg30
g58
sg2247
g2331
sg1035
g1099
sg32
g59
sg13
g1164
sg2250
g2332
sg36
g36
sg37
g63
sg38
g64
sg40
g65
sg44
g68
sg47
g70
sg94
g95
sg777
g865
sg2287
g2332
sg779
g865
sg2293
g2331
sg78
g79
sg872
g1163
sg2300
g2333
sg1084
g1100
sg2306
g2333
sg774
g856
sg88
g89
sg43
g67
sg92
g93
sg778
g865
ssg203
S'MG_JEN_JonesetDJones_WSRT'
p3024
ssg777
g1078
sg2287
g2289
sg779
g1078
sg2293
I0
sg78
F1.0
sg872
g2995
sg2300
g2302
sg1084
I01
sg2306
I0
sg774
g3007
sg88
I01
sg43
Nsg92
Nsg778
g1078
ssg778
Nsg779
Nsg2788
(dp3025
g27
I00
sg2
S'@@polrep'
p3026
sg30
g31
sg32
I00
sg36
Nsg13
S'@@parmtable'
p3027
sg94
I01
sg37
I10
sg2509
I0
sg2510
g2511
sg38
g39
sg40
g41
sg43
Nsg44
g45
sg47
Nsg49
(dp3028
g199
S'MG_JEN_Joneset::EJones_WSRT()'
p3029
sg51
g2788
sg100
(dp3030
g38
I01
sg2
I01
sg78
I01
sg40
I01
sg774
I01
sg30
I01
sg43
I01
sg44
I01
sg872
I01
sg47
I01
sg92
I01
sg13
I01
sg777
I01
sg778
I01
sg37
I01
sg36
I01
sg779
I01
ssg105
g1238
sg96
g97
sg109
S'MG_JEN_Joneset::EJones_WSRT()  version=15dec2005  defined=2006-04-07 15:06'
p3031
sg205
S'EJones_WSRT'
p3032
sg111
(dp3033
g27
(lp3034
I01
aI00
aS'@@reset_funklet'
p3035
asg2
(lp3036
g3
ag793
ag3026
asg30
(lp3037
g31
aS'@@color'
p3038
asg32
(lp3039
I01
aI00
aS'@@save_all'
p3040
asg13
(lp3041
Nag1118
ag3027
asg36
(lp3042
NaS'@@unit'
p3043
asg37
(lp3044
I10
aS'@@size'
p3045
asg2509
(lp3046
I0
aI1
aI2
aI3
aS'@@tdeg_Edl'
p3047
asg2510
(lp3048
I0
aI1
aI2
aI3
ag2511
aS'@@tdeg_Edm'
p3049
asg38
(lp3050
g39
aS'@@style'
p3051
asg40
(lp3052
g41
aS'@@descr'
p3053
asg43
(lp3054
NaS'@@subtile_size'
p3055
asg44
(lp3056
g45
aS'@@condeq_corrs'
p3057
asg47
(lp3058
NaS'@@funklet_shape'
p3059
asg94
(lp3060
I01
aI00
aS'@@auto_save'
p3061
asg777
(lp3062
g1133
aS'@@@Jsequence_KJones'
p3063
asg779
(lp3064
g1133
aS'@@@Jsequence'
p3065
asg78
(lp3066
F1.0
aS'@@c00_default'
p3067
asg872
(lp3068
I00
aS'@@uvplane_effect'
p3069
asg774
(lp3070
(lp3071
I0
aI1
aI2
aI3
aI4
aa(lp3072
I0
aI1
aI2
aI3
aI4
aI5
aI6
aa(lp3073
I0
aI1
aI2
aI3
aI4
aI5
aI6
aI7
aI8
aI9
aI10
aI11
aI12
aI13
aa(lp3074
I0
aI1
aI2
aI3
aI4
aI5
aI6
aI7
aI8
aI9
aI10
aI11
aI12
aI13
aI14
aag803
aS'@@stations'
p3075
asg92
(lp3076
NaS'@@tfdeg'
p3077
asg88
(lp3078
I01
aI00
aS'@@use_previous'
p3079
asg2564
(lp3080
NaI1
aI2
aI5
aI10
aI20
aI50
aI100
aI200
aI500
aS'@@subtile_size_Edl'
p3081
asg2567
(lp3082
g2569
aNaI1
aI2
aI5
aI10
aI20
aI50
aI100
aI200
aI500
aS'@@subtile_size_Edm'
p3083
asg778
(lp3084
g1133
aS'@@@Jsequence_simul'
p3085
asg2573
(lp3086
I0
aI1
aI2
aI3
aS'@@fdeg_Edl'
p3087
asg2576
(lp3088
I0
aI1
aI2
aI3
ag2578
aS'@@fdeg_Edm'
p3089
assg195
g2652
sg209
S'** Description of available inarg record(s) for: MG_JEN_Joneset::EJones_WSRT()  version=15dec2005  defined=2006-04-07 15:06'
p3090
sg211
I00
sg212
S'2006-04-07 15:06'
p3091
sg103
g1223
sg98
S'MG_JEN_Joneset'
p3092
sg107
(dp3093
g27
I00
sg32
I00
sg94
I00
sg88
I00
ssg201
S'** Specific description of inarg record for: MG_JEN_Joneset::EJones_WSRT()  version=15dec2005  defined=2006-04-07 15:06'
p3094
sg847
(dp3095
g872
I00
sg13
I00
sg2
I00
sg774
I00
ssg197
g3091
sg223
(lp3096
g49
ag774
ag2
ag779
ag778
ag777
ag13
ag872
ag2509
ag2510
ag2573
ag2576
ag2564
ag2567
ag88
ag94
ag32
ag27
ag40
ag36
ag30
ag38
ag37
ag78
ag92
ag47
ag43
ag44
asg52
(dp3097
g27
g55
sg2
g853
sg30
g58
sg32
g59
sg13
g1164
sg36
g36
sg37
g63
sg2509
g2588
sg2510
g2588
sg38
g64
sg40
g65
sg43
g67
sg44
g68
sg47
g70
sg94
g95
sg777
g865
sg779
g865
sg78
g79
sg872
g1163
sg774
g856
sg92
g93
sg88
g89
sg2564
g2589
sg2567
g2589
sg778
g865
sg2573
g2590
sg2576
g2590
ssg203
S'MG_JEN_JonesetEJones_WSRT'
p3098
ssg777
g1133
sg779
g1133
sg78
F1.0
sg872
g3069
sg774
g3075
sg92
Nsg88
I01
sg2564
Nsg2567
g2569
sg778
g1133
sg2573
I0
sg2576
g2578
ssg2786
(dp3099
g27
I00
sg2
S'@@polrep'
p3100
sg30
g31
sg32
I00
sg13
S'@@parmtable'
p3101
sg36
Nsg37
I10
sg38
g39
sg40
g41
sg44
g45
sg47
Nsg49
(dp3102
g199
S'MG_JEN_Joneset::FJones()'
p3103
sg51
g2786
sg100
(dp3104
g38
I01
sg2
I01
sg78
I01
sg40
I01
sg774
I01
sg30
I01
sg43
I01
sg44
I01
sg872
I01
sg47
I01
sg92
I01
sg13
I01
sg777
I01
sg778
I01
sg37
I01
sg36
I01
sg779
I01
ssg105
g976
sg96
g97
sg109
S'MG_JEN_Joneset::FJones()  version=16dec2005  defined=2006-04-07 15:06'
p3105
sg205
S'FJones'
p3106
sg111
(dp3107
g27
(lp3108
I01
aI00
aS'@@reset_funklet'
p3109
asg2
(lp3110
g3
ag793
ag3100
asg30
(lp3111
g31
aS'@@color'
p3112
asg32
(lp3113
I01
aI00
aS'@@save_all'
p3114
asg92
(lp3115
NaS'@@tfdeg'
p3116
asg36
(lp3117
NaS'@@unit'
p3118
asg37
(lp3119
I10
aS'@@size'
p3120
asg38
(lp3121
g39
aS'@@style'
p3122
asg40
(lp3123
g41
aS'@@descr'
p3124
asg44
(lp3125
g45
aS'@@condeq_corrs'
p3126
asg47
(lp3127
NaS'@@funklet_shape'
p3128
asg94
(lp3129
I01
aI00
aS'@@auto_save'
p3130
asg777
(lp3131
g1011
aS'@@@Jsequence_KJones'
p3132
asg779
(lp3133
g1011
aS'@@@Jsequence'
p3134
asg78
(lp3135
F1.0
aS'@@c00_default'
p3136
asg872
(lp3137
I00
aS'@@uvplane_effect'
p3138
asg774
(lp3139
(lp3140
I0
aI1
aI2
aI3
aI4
aa(lp3141
I0
aI1
aI2
aI3
aI4
aI5
aI6
aa(lp3142
I0
aI1
aI2
aI3
aI4
aI5
aI6
aI7
aI8
aI9
aI10
aI11
aI12
aI13
aa(lp3143
I0
aI1
aI2
aI3
aI4
aI5
aI6
aI7
aI8
aI9
aI10
aI11
aI12
aI13
aI14
aag803
aS'@@stations'
p3144
asg2034
(lp3145
I0
aI1
aI2
aI3
aS'@@tdeg_RM'
p3146
asg88
(lp3147
I01
aI00
aS'@@use_previous'
p3148
asg2039
(lp3149
I0
aI1
aI2
aI3
aS'@@fdeg_RM'
p3150
asg43
(lp3151
NaS'@@subtile_size'
p3152
asg13
(lp3153
Nag1118
ag3101
asg2045
(lp3154
NaI1
aI2
aI5
aI10
aI20
aI50
aI100
aI200
aI500
aS'@@subtile_size_RM'
p3155
asg778
(lp3156
g1011
aS'@@@Jsequence_simul'
p3157
assg195
g2652
sg209
S'** Description of available inarg record(s) for: MG_JEN_Joneset::FJones()  version=16dec2005  defined=2006-04-07 15:06'
p3158
sg211
I00
sg212
S'2006-04-07 15:06'
p3159
sg103
g929
sg98
S'MG_JEN_Joneset'
p3160
sg107
(dp3161
g27
I00
sg32
I00
sg94
I00
sg88
I00
ssg201
S'** Specific description of inarg record for: MG_JEN_Joneset::FJones()  version=16dec2005  defined=2006-04-07 15:06'
p3162
sg847
(dp3163
g872
I00
sg13
I00
sg2
I00
sg774
I00
ssg197
g3159
sg223
(lp3164
g49
ag774
ag2
ag779
ag778
ag777
ag13
ag872
ag2034
ag2039
ag2045
ag88
ag94
ag32
ag27
ag40
ag36
ag30
ag38
ag37
ag78
ag92
ag47
ag43
ag44
asg52
(dp3165
g27
g55
sg2
g853
sg30
g58
sg32
g59
sg92
g93
sg36
g36
sg37
g63
sg38
g64
sg40
g65
sg44
g68
sg47
g70
sg94
g95
sg777
g865
sg779
g865
sg78
g79
sg872
g1163
sg774
g856
sg2034
g2059
sg88
g89
sg2039
g2060
sg43
g67
sg13
g1164
sg2045
g2061
sg778
g865
ssg203
S'MG_JEN_JonesetFJones'
p3166
ssg777
g1011
sg779
g1011
sg78
F1.0
sg872
g3138
sg774
g3144
sg2034
I0
sg88
I01
sg2039
I2
sg43
Nsg92
Nsg2045
I1
sg778
g1011
sg94
I01
sssg1306
I10000
sg777
Nsg778
Nsg779
Nssg779
Nsg777
Nsg1804
g1828
sg872
I01
sg1797
Nsg1786
F0.0
sg1788
I00
sg774
g1820
sg1910
(dp3167
g7
S'finishing touches'
p3168
ssg1903
(dp3169
S'channel_start_index'
p3170
I0
sS'data_column_name'
p3171
S'CORRECTED_DATA'
p3172
sS'predict_column'
p3173
g3172
sg11
S'@@ms_name'
p3174
sg49
(dp3175
g51
g1903
sg52
(dp3176
g3170
S'(inputrec.sel) index of first selected freq channel'
p3177
sg3171
S'(inputrec) MS input column'
p3178
sg3173
S'MS output column to be associated with the VisTile predict-column'
p3179
sg11
g1794
sg1799
g1800
sS'channel_increment'
p3180
S'(inputrec.sel) take every nth channel (1=all)'
p3181
sS'channel_end_index'
p3182
S'(inputrec.sel) index of last selected freq channel'
p3183
sS'write_flags'
p3184
S'(outputrec) if True, write flags to MS'
p3185
ssg96
g97
sg98
S'MG_JEN_exec'
p3186
sg100
(dp3187
g11
I01
sg1799
I01
ssg381
(dp3188
g11
g1806
ssg103
S'20jan2006'
p3189
sg847
(dp3190
g11
I00
sg1799
I00
ssg105
S'** Description of script: MG_JEN_exec::stream_control()  version=20jan2006  defined=2006-04-07 15:06'
p3191
sg107
(dp3192
g3184
I00
ssg109
S'MG_JEN_exec::stream_control()  version=20jan2006  defined=2006-04-07 15:06'
p3193
sg111
(dp3194
g3170
(lp3195
I0
aI5
aI10
aI20
aS'@@channel_start_index'
p3196
asg3171
(lp3197
g1934
ag3172
aS'@@data_column_name'
p3198
asg3173
(lp3199
g1934
ag3172
aS'MODEL_DATA'
p3200
aS'@@predict_column'
p3201
asg11
(lp3202
g12
ag3174
asg1799
(lp3203
I1
aI2
aI3
aI5
aI10
aI20
aI50
aI100
aS'@@tile_size'
p3204
asg3180
(lp3205
I1
aI2
aI3
aI5
aI10
aS'@@channel_increment'
p3206
asg3182
(lp3207
I-1
aI25
aI50
aI100
aS'@@channel_end_index'
p3208
asg3184
(lp3209
I01
aI00
aS'@@write_flags'
p3210
assg195
Nsg197
S'2006-04-07 15:06'
p3211
sg199
S'MG_JEN_exec::stream_control()'
p3212
sg201
S'** Specific description of inarg record for: MG_JEN_exec::stream_control()  version=20jan2006  defined=2006-04-07 15:06'
p3213
sg203
S'MG_JEN_execstream_control'
p3214
sg205
S'stream_control'
p3215
sg209
S'** Description of available inarg record(s) for: MG_JEN_exec::stream_control()  version=20jan2006  defined=2006-04-07 15:06'
p3216
sg211
I00
sg212
g3211
sg213
(dp3217
g215
S'  1: .../MG_JEN_exec.stream_control() (qual=None): .modify(channel_start_index):   10  ->  0'
p3218
sg217
S'  1: .../MG_JEN_exec.stream_control() (qual=None): .modify(data_column_name):   DATA  ->  CORRECTED_DATA'
p3219
sg221
S'  1: .../MG_JEN_exec.stream_control() (qual=None): .modify(channel_end_index):   50  ->  -1'
p3220
ssg223
(lp3221
g49
ag11
ag1799
ag3171
ag3170
ag3182
ag3180
ag3184
ag3173
assg1799
g3204
sg3180
I1
sg3182
I-1
sg3184
I00
ssg1791
I00
sg1906
(dp3222
g7
S'solver-branch (ParmSet)'
p3223
ssg1905
(dp3224
g7
S'uv-data simulation (LeafSet)'
p3225
ssg1795
I01
sg778
Nsg1907
(dp3226
g19
Nsg20
g21
sS'[solve]./MG_JEN_lsm.add_double()'
p3227
(dp3228
g331
I20
sS'[solve_double_1]./MG_JEN_Sixpack.newstar_source()'
p3229
(dp3230
g26
F1000000.0
sg27
I00
sg28
F0.0
sg29
I00
sg30
g31
sg32
I00
sg33
g34
sg13
g14
sg35
I-10
sg36
Nsg37
I10
sg38
g39
sg40
g41
sg42
F1.0
sg43
Nsg44
g45
sg46
Nsg47
Nsg48
F0.0
sg49
(dp3231
g51
g3229
sg52
(dp3232
g26
g54
sg27
g55
sg28
g56
sg29
g57
sg30
g58
sg32
g59
sg33
g60
sg13
g61
sg35
g62
sg36
g36
sg37
g63
sg38
g64
sg40
g65
sg42
g66
sg43
g67
sg44
g68
sg46
g69
sg47
g70
sg48
g71
sg72
g73
sg74
g75
sg76
g77
sg78
g79
sg80
g81
sg82
S'name of calibrator source/patch \n- unpol:     unpolarised, I=1Jy \n- unpol2:    idem, I=2Jy \n- unpol10:   idem, I=10Jy \n- RMtest:    Rotation Measure \n- SItest:    Spectral Index \n- ellgauss:  Elliptic Gaussian \n- QUV:       non-zero Q,U,V \n- QU:        non-zero Q,U \n- QU2:       stronger version of QU \n- Qonly:     non-zero Q \n- Uonly:     non-zero U \n- Vonly:     non-zero V \n- 3c286:     \n- 3c48:      \n- 3c295:     \n- 3c147:     \n- D1:        cps in D1.MS \n'
p3233
sg84
g85
sg86
g87
sg88
g89
sg90
g91
sg92
g93
sg94
g95
ssg96
g97
sg98
S'MG_JEN_Sixpack'
p3234
sg100
(dp3235
g26
I01
sg28
I01
sg29
I01
sg102
I01
sg40
I01
sg47
I01
sg30
I01
sg33
I01
sg86
I01
sg82
I00
sg43
I01
sg48
I01
sg44
I01
sg92
I01
sg36
I01
sg78
I01
sg38
I01
sg76
I01
sg37
I01
ssg103
g104
sg105
g106
sg107
(dp3236
g27
I00
sg29
I00
sg86
I00
sg32
I00
sg88
I00
sg94
I00
ssg109
S'MG_JEN_Sixpack::newstar_source()  version=10feb2006  defined=2006-04-07 15:06'
p3237
sg111
(dp3238
g26
(lp3239
F1000000.0
aS'@@f0'
p3240
asg27
(lp3241
I01
aI00
aS'@@reset_funklet'
p3242
asg28
(lp3243
F0.0
aF1.0
aF10.0
aF100.0
aS'@@major'
p3244
asg29
(lp3245
I01
aI00
aS'@@unsolvable'
p3246
asg30
(lp3247
g31
aS'@@color'
p3248
asg32
(lp3249
I01
aI00
aS'@@save_all'
p3250
asg33
(lp3251
g34
ag126
aS'@@shape'
p3252
asg13
(lp3253
NaS'@@parmtable'
p3254
asg35
(lp3255
NaF-0.10000000000000001
aF0.050000000000000003
aF-0.01
aS'@@Upct'
p3256
asg36
(lp3257
NaS'@@unit'
p3258
asg37
(lp3259
I10
aS'@@size'
p3260
asg38
(lp3261
g39
aS'@@style'
p3262
asg40
(lp3263
g41
aS'@@descr'
p3264
asg42
(lp3265
F1.0
aF10.0
aS'@@I0'
p3266
asg43
(lp3267
NaS'@@subtile_size'
p3268
asg44
(lp3269
g45
aS'@@condeq_corrs'
p3270
asg46
(lp3271
NaF0.01
aF-0.0050000000000000001
aF0.001
aS'@@Vpct'
p3272
asg47
(lp3273
NaS'@@funklet_shape'
p3274
asg48
(lp3275
F0.0
aF1.0
aF-0.5
aS'@@pa'
p3276
asg72
(lp3277
F0.0
aF0.5
aF1.0
aF1.4950000000000001
aF4.3570000000000002
aS'@@RA'
p3278
asg74
(lp3279
NaF1.0
aF3.0
aF10.0
aF-10.0
aF60.0
aS'@@RM'
p3280
asg76
(lp3281
F0.0
aF0.5
aF5.0
aF50.0
aS'@@minor'
p3282
asg78
(lp3283
F1.0
aS'@@c00_default'
p3284
asg80
(lp3285
NaF0.10000000000000001
aF-0.050000000000000003
aF0.01
aS'@@Qpct'
p3286
asg82
(lp3287
g163
ag164
ag165
ag166
ag167
ag168
ag169
ag170
ag171
ag172
ag173
ag174
ag175
ag176
ag177
ag178
aS'@@punit'
p3288
asg84
(lp3289
F0.5
aF1.0
aF0.87
aF1.0920000000000001
aS'@@Dec'
p3290
asg102
(lp3291
NaS'@@name'
p3292
asg86
(lp3293
I01
aI00
aS'@@fsr_trace'
p3294
asg88
(lp3295
I01
aI00
aS'@@use_previous'
p3296
asg90
(lp3297
NaF-0.69999999999999996
a(lp3298
F0.44700000000000001
aF-0.184
aaS'@@SI'
p3299
asg92
(lp3300
NaS'@@tfdeg'
p3301
asg94
(lp3302
I01
aI00
aS'@@auto_save'
p3303
assg195
S'solve_double_1'
p3304
sg197
S'2006-04-07 15:06'
p3305
sg199
g200
sg201
S'** Specific description of inarg record for: MG_JEN_Sixpack::newstar_source()  version=10feb2006  defined=2006-04-07 15:06'
p3306
sg203
S'MG_JEN_Sixpacknewstar_source'
p3307
sg205
S'newstar_source'
p3308
sg207
(dp3309
g82
I01
ssg209
S'** Description of available inarg record(s) for: MG_JEN_Sixpack::newstar_source()  version=10feb2006  defined=2006-04-07 15:06'
p3310
sg211
I00
sg212
g3305
sg213
(dp3311
g215
S'  3: ......[solve_double_1]./MG_JEN_Sixpack.newstar_source() (qual=None): .modify(Qpct):   None  ->  10'
p3312
sg217
S'  3: ......[solve_double_1]./MG_JEN_Sixpack.newstar_source() (qual=None): .modify(parmtable):   None  ->  simul_DJones'
p3313
sg219
S'  3: ......[solve_double_1]./MG_JEN_Sixpack.newstar_source() (qual=None): .modify(punit):   unpol  ->  QU'
p3314
sg221
S'  3: ......[solve_double_1]./MG_JEN_Sixpack.newstar_source() (qual=None): .modify(Upct):   None  ->  -10'
p3315
ssg223
(lp3316
g49
ag82
ag102
ag13
ag29
ag42
ag80
ag35
ag46
ag74
ag90
ag26
ag72
ag84
ag86
ag33
ag28
ag76
ag48
ag88
ag94
ag32
ag27
ag40
ag36
ag30
ag38
ag37
ag78
ag92
ag47
ag43
ag44
assg74
Nsg76
F0.0
sg72
F1.4950000000000001
sg78
F1.0
sg80
I10
sg82
g167
sg84
F0.87
sg102
Nsg86
I01
sg88
I01
sg90
Nsg92
Nsg94
I01
ssg358
I20
sg49
(dp3317
g199
g645
sg51
g3227
sg201
S'** Specific description of inarg record for: MG_JEN_lsm::add_double()  version=10feb2006  defined=2006-04-07 15:06'
p3318
sg203
S'MG_JEN_lsmadd_double'
p3319
sg96
g97
sg105
g648
sg109
S'MG_JEN_lsm::add_double()  version=10feb2006  defined=2006-04-07 15:06'
p3320
sg205
S'add_double'
p3321
sg111
(dp3322
g358
(lp3323
I20
aS'@@dRA'
p3324
asg331
(lp3325
I20
aS'@@dDec'
p3326
assg195
g2614
sg209
S'** Description of available inarg record(s) for: MG_JEN_lsm::add_double()  version=10feb2006  defined=2006-04-07 15:06'
p3327
sg211
I00
sg212
S'2006-04-07 15:06'
p3328
sg103
g104
sg98
S'MG_JEN_lsm'
p3329
sg213
(dp3330
g215
S'** JEN_inarg.attach(): attached: [solve_double_2]./MG_JEN_Sixpack.newstar_source()'
p3331
sg217
S'** JEN_inarg.attach(): attached: [solve_double_1]./MG_JEN_Sixpack.newstar_source()'
p3332
ssg197
g3328
sg223
(lp3333
g49
ag3229
aS'[solve_double_2]./MG_JEN_Sixpack.newstar_source()'
p3334
ag358
ag331
asg52
(dp3335
g358
g665
sg331
g666
sssg3334
(dp3336
g26
F1000000.0
sg27
I00
sg28
F0.0
sg29
I00
sg30
g31
sg32
I00
sg33
g34
sg13
g14
sg35
I-10
sg36
Nsg37
I10
sg38
g39
sg40
g41
sg42
F1.0
sg43
Nsg44
g45
sg46
Nsg47
Nsg48
F0.0
sg49
(dp3337
g51
g3334
sg52
(dp3338
g26
g54
sg27
g55
sg28
g56
sg29
g57
sg30
g58
sg32
g59
sg33
g60
sg13
g61
sg35
g62
sg36
g36
sg37
g63
sg38
g64
sg40
g65
sg42
g66
sg43
g67
sg44
g68
sg46
g69
sg47
g70
sg48
g71
sg72
g73
sg74
g75
sg76
g77
sg78
g79
sg80
g81
sg82
S'name of calibrator source/patch \n- unpol:     unpolarised, I=1Jy \n- unpol2:    idem, I=2Jy \n- unpol10:   idem, I=10Jy \n- RMtest:    Rotation Measure \n- SItest:    Spectral Index \n- ellgauss:  Elliptic Gaussian \n- QUV:       non-zero Q,U,V \n- QU:        non-zero Q,U \n- QU2:       stronger version of QU \n- Qonly:     non-zero Q \n- Uonly:     non-zero U \n- Vonly:     non-zero V \n- 3c286:     \n- 3c48:      \n- 3c295:     \n- 3c147:     \n- D1:        cps in D1.MS \n'
p3339
sg84
g85
sg86
g87
sg88
g89
sg90
g91
sg92
g93
sg94
g95
ssg96
g97
sg98
S'MG_JEN_Sixpack'
p3340
sg100
(dp3341
g26
I01
sg28
I01
sg29
I01
sg102
I01
sg40
I01
sg47
I01
sg30
I01
sg33
I01
sg86
I01
sg82
I00
sg43
I01
sg48
I01
sg44
I01
sg92
I01
sg36
I01
sg78
I01
sg38
I01
sg76
I01
sg37
I01
ssg103
g104
sg105
g106
sg107
(dp3342
g27
I00
sg29
I00
sg86
I00
sg32
I00
sg88
I00
sg94
I00
ssg109
S'MG_JEN_Sixpack::newstar_source()  version=10feb2006  defined=2006-04-07 15:06'
p3343
sg111
(dp3344
g26
(lp3345
F1000000.0
aS'@@f0'
p3346
asg27
(lp3347
I01
aI00
aS'@@reset_funklet'
p3348
asg28
(lp3349
F0.0
aF1.0
aF10.0
aF100.0
aS'@@major'
p3350
asg29
(lp3351
I01
aI00
aS'@@unsolvable'
p3352
asg30
(lp3353
g31
aS'@@color'
p3354
asg32
(lp3355
I01
aI00
aS'@@save_all'
p3356
asg33
(lp3357
g34
ag126
aS'@@shape'
p3358
asg13
(lp3359
NaS'@@parmtable'
p3360
asg35
(lp3361
NaF-0.10000000000000001
aF0.050000000000000003
aF-0.01
aS'@@Upct'
p3362
asg36
(lp3363
NaS'@@unit'
p3364
asg37
(lp3365
I10
aS'@@size'
p3366
asg38
(lp3367
g39
aS'@@style'
p3368
asg40
(lp3369
g41
aS'@@descr'
p3370
asg42
(lp3371
F1.0
aF10.0
aS'@@I0'
p3372
asg43
(lp3373
NaS'@@subtile_size'
p3374
asg44
(lp3375
g45
aS'@@condeq_corrs'
p3376
asg46
(lp3377
NaF0.01
aF-0.0050000000000000001
aF0.001
aS'@@Vpct'
p3378
asg47
(lp3379
NaS'@@funklet_shape'
p3380
asg48
(lp3381
F0.0
aF1.0
aF-0.5
aS'@@pa'
p3382
asg72
(lp3383
F0.0
aF0.5
aF1.0
aF1.4950000000000001
aF4.3570000000000002
aS'@@RA'
p3384
asg74
(lp3385
NaF1.0
aF3.0
aF10.0
aF-10.0
aF60.0
aS'@@RM'
p3386
asg76
(lp3387
F0.0
aF0.5
aF5.0
aF50.0
aS'@@minor'
p3388
asg78
(lp3389
F1.0
aS'@@c00_default'
p3390
asg80
(lp3391
NaF0.10000000000000001
aF-0.050000000000000003
aF0.01
aS'@@Qpct'
p3392
asg82
(lp3393
g163
ag164
ag165
ag166
ag167
ag168
ag169
ag170
ag171
ag172
ag173
ag174
ag175
ag176
ag177
ag178
aS'@@punit'
p3394
asg84
(lp3395
F0.5
aF1.0
aF0.87
aF1.0920000000000001
aS'@@Dec'
p3396
asg102
(lp3397
NaS'@@name'
p3398
asg86
(lp3399
I01
aI00
aS'@@fsr_trace'
p3400
asg88
(lp3401
I01
aI00
aS'@@use_previous'
p3402
asg90
(lp3403
NaF-0.69999999999999996
a(lp3404
F0.44700000000000001
aF-0.184
aaS'@@SI'
p3405
asg92
(lp3406
NaS'@@tfdeg'
p3407
asg94
(lp3408
I01
aI00
aS'@@auto_save'
p3409
assg195
S'solve_double_2'
p3410
sg197
S'2006-04-07 15:06'
p3411
sg199
g200
sg201
S'** Specific description of inarg record for: MG_JEN_Sixpack::newstar_source()  version=10feb2006  defined=2006-04-07 15:06'
p3412
sg203
S'MG_JEN_Sixpacknewstar_source'
p3413
sg205
S'newstar_source'
p3414
sg207
(dp3415
g82
I01
ssg209
S'** Description of available inarg record(s) for: MG_JEN_Sixpack::newstar_source()  version=10feb2006  defined=2006-04-07 15:06'
p3416
sg211
I00
sg212
g3411
sg213
(dp3417
g215
S'  3: ......[solve_double_2]./MG_JEN_Sixpack.newstar_source() (qual=None): .modify(Qpct):   None  ->  10'
p3418
sg217
S'  3: ......[solve_double_2]./MG_JEN_Sixpack.newstar_source() (qual=None): .modify(parmtable):   None  ->  simul_DJones'
p3419
sg219
S'  3: ......[solve_double_2]./MG_JEN_Sixpack.newstar_source() (qual=None): .modify(punit):   unpol  ->  QU'
p3420
sg221
S'  3: ......[solve_double_2]./MG_JEN_Sixpack.newstar_source() (qual=None): .modify(Upct):   None  ->  -10'
p3421
ssg223
(lp3422
g49
ag82
ag102
ag13
ag29
ag42
ag80
ag35
ag46
ag74
ag90
ag26
ag72
ag84
ag86
ag33
ag28
ag76
ag48
ag88
ag94
ag32
ag27
ag40
ag36
ag30
ag38
ag37
ag78
ag92
ag47
ag43
ag44
assg74
Nsg76
F0.0
sg72
F1.4950000000000001
sg78
F1.0
sg80
I10
sg82
g167
sg84
F0.87
sg102
Nsg86
I01
sg88
I01
sg90
Nsg92
Nsg94
I01
sssS'[solve]./MG_JEN_lsm.add_single()'
p3423
(dp3424
S'[solve_single]./MG_JEN_Sixpack.newstar_source()'
p3425
(dp3426
g26
F1000000.0
sg27
I00
sg28
F0.0
sg29
I00
sg30
g31
sg32
I00
sg33
g34
sg13
g14
sg35
I-10
sg36
Nsg37
I10
sg38
g39
sg40
g41
sg42
F1.0
sg43
Nsg44
g45
sg46
Nsg47
Nsg48
F0.0
sg49
(dp3427
g51
g3425
sg52
(dp3428
g26
g54
sg27
g55
sg28
g56
sg29
g57
sg30
g58
sg32
g59
sg33
g60
sg13
g61
sg35
g62
sg36
g36
sg37
g63
sg38
g64
sg40
g65
sg42
g66
sg43
g67
sg44
g68
sg46
g69
sg47
g70
sg48
g71
sg72
g73
sg74
g75
sg76
g77
sg78
g79
sg80
g81
sg82
S'name of calibrator source/patch \n- unpol:     unpolarised, I=1Jy \n- unpol2:    idem, I=2Jy \n- unpol10:   idem, I=10Jy \n- RMtest:    Rotation Measure \n- SItest:    Spectral Index \n- ellgauss:  Elliptic Gaussian \n- QUV:       non-zero Q,U,V \n- QU:        non-zero Q,U \n- QU2:       stronger version of QU \n- Qonly:     non-zero Q \n- Uonly:     non-zero U \n- Vonly:     non-zero V \n- 3c286:     \n- 3c48:      \n- 3c295:     \n- 3c147:     \n- D1:        cps in D1.MS \n'
p3429
sg84
g85
sg86
g87
sg88
g89
sg90
g91
sg92
g93
sg94
g95
ssg96
g97
sg98
S'MG_JEN_Sixpack'
p3430
sg100
(dp3431
g26
I01
sg28
I01
sg29
I01
sg102
I01
sg40
I01
sg47
I01
sg30
I01
sg33
I01
sg86
I01
sg82
I00
sg43
I01
sg48
I01
sg44
I01
sg92
I01
sg36
I01
sg78
I01
sg38
I01
sg76
I01
sg37
I01
ssg103
g104
sg105
g106
sg107
(dp3432
g27
I00
sg29
I00
sg86
I00
sg32
I00
sg88
I00
sg94
I00
ssg109
S'MG_JEN_Sixpack::newstar_source()  version=10feb2006  defined=2006-04-07 15:06'
p3433
sg111
(dp3434
g26
(lp3435
F1000000.0
aS'@@f0'
p3436
asg27
(lp3437
I01
aI00
aS'@@reset_funklet'
p3438
asg28
(lp3439
F0.0
aF1.0
aF10.0
aF100.0
aS'@@major'
p3440
asg29
(lp3441
I01
aI00
aS'@@unsolvable'
p3442
asg30
(lp3443
g31
aS'@@color'
p3444
asg32
(lp3445
I01
aI00
aS'@@save_all'
p3446
asg33
(lp3447
g34
ag126
aS'@@shape'
p3448
asg13
(lp3449
NaS'@@parmtable'
p3450
asg35
(lp3451
NaF-0.10000000000000001
aF0.050000000000000003
aF-0.01
aS'@@Upct'
p3452
asg36
(lp3453
NaS'@@unit'
p3454
asg37
(lp3455
I10
aS'@@size'
p3456
asg38
(lp3457
g39
aS'@@style'
p3458
asg40
(lp3459
g41
aS'@@descr'
p3460
asg42
(lp3461
F1.0
aF10.0
aS'@@I0'
p3462
asg43
(lp3463
NaS'@@subtile_size'
p3464
asg44
(lp3465
g45
aS'@@condeq_corrs'
p3466
asg46
(lp3467
NaF0.01
aF-0.0050000000000000001
aF0.001
aS'@@Vpct'
p3468
asg47
(lp3469
NaS'@@funklet_shape'
p3470
asg48
(lp3471
F0.0
aF1.0
aF-0.5
aS'@@pa'
p3472
asg72
(lp3473
F0.0
aF0.5
aF1.0
aF1.4950000000000001
aF4.3570000000000002
aS'@@RA'
p3474
asg74
(lp3475
NaF1.0
aF3.0
aF10.0
aF-10.0
aF60.0
aS'@@RM'
p3476
asg76
(lp3477
F0.0
aF0.5
aF5.0
aF50.0
aS'@@minor'
p3478
asg78
(lp3479
F1.0
aS'@@c00_default'
p3480
asg80
(lp3481
NaF0.10000000000000001
aF-0.050000000000000003
aF0.01
aS'@@Qpct'
p3482
asg82
(lp3483
g163
ag164
ag165
ag166
ag167
ag168
ag169
ag170
ag171
ag172
ag173
ag174
ag175
ag176
ag177
ag178
aS'@@punit'
p3484
asg84
(lp3485
F0.5
aF1.0
aF0.87
aF1.0920000000000001
aS'@@Dec'
p3486
asg102
(lp3487
NaS'@@name'
p3488
asg86
(lp3489
I01
aI00
aS'@@fsr_trace'
p3490
asg88
(lp3491
I01
aI00
aS'@@use_previous'
p3492
asg90
(lp3493
NaF-0.69999999999999996
a(lp3494
F0.44700000000000001
aF-0.184
aaS'@@SI'
p3495
asg92
(lp3496
NaS'@@tfdeg'
p3497
asg94
(lp3498
I01
aI00
aS'@@auto_save'
p3499
assg195
S'solve_single'
p3500
sg197
S'2006-04-07 15:06'
p3501
sg199
g200
sg201
S'** Specific description of inarg record for: MG_JEN_Sixpack::newstar_source()  version=10feb2006  defined=2006-04-07 15:06'
p3502
sg203
S'MG_JEN_Sixpacknewstar_source'
p3503
sg205
S'newstar_source'
p3504
sg207
(dp3505
g82
I01
ssg209
S'** Description of available inarg record(s) for: MG_JEN_Sixpack::newstar_source()  version=10feb2006  defined=2006-04-07 15:06'
p3506
sg211
I00
sg212
g3501
sg213
(dp3507
g215
S'  3: ......[solve_single]./MG_JEN_Sixpack.newstar_source() (qual=None): .modify(Qpct):   None  ->  10'
p3508
sg217
S'  3: ......[solve_single]./MG_JEN_Sixpack.newstar_source() (qual=None): .modify(parmtable):   None  ->  simul_DJones'
p3509
sg219
S'  3: ......[solve_single]./MG_JEN_Sixpack.newstar_source() (qual=None): .modify(punit):   unpol  ->  QU'
p3510
sg221
S'  3: ......[solve_single]./MG_JEN_Sixpack.newstar_source() (qual=None): .modify(Upct):   None  ->  -10'
p3511
ssg223
(lp3512
g49
ag82
ag102
ag13
ag29
ag42
ag80
ag35
ag46
ag74
ag90
ag26
ag72
ag84
ag86
ag33
ag28
ag76
ag48
ag88
ag94
ag32
ag27
ag40
ag36
ag30
ag38
ag37
ag78
ag92
ag47
ag43
ag44
assg74
Nsg76
F0.0
sg72
F1.4950000000000001
sg78
F1.0
sg80
I10
sg82
g167
sg84
F0.87
sg102
Nsg86
I01
sg88
I01
sg90
Nsg92
Nsg94
I01
ssg49
(dp3513
g199
g226
sg51
g3423
sg201
S'** Specific description of inarg record for: MG_JEN_lsm::add_single()  version=10feb2006  defined=2006-04-07 15:06'
p3514
sg105
g228
sg96
g97
sg109
S'MG_JEN_lsm::add_single()  version=10feb2006  defined=2006-04-07 15:06'
p3515
sg205
S'add_single'
p3516
sg195
g2614
sg209
S'** Description of available inarg record(s) for: MG_JEN_lsm::add_single()  version=10feb2006  defined=2006-04-07 15:06'
p3517
sg211
I00
sg212
S'2006-04-07 15:06'
p3518
sg103
g104
sg98
S'MG_JEN_lsm'
p3519
sg213
(dp3520
g217
S'** JEN_inarg.attach(): attached: [solve_single]./MG_JEN_Sixpack.newstar_source()'
p3521
ssg197
g3518
sg223
(lp3522
g49
ag3425
asg203
S'MG_JEN_lsmadd_single'
p3523
sssS'[solve]./MG_JEN_lsm.add_grid()'
p3524
(dp3525
g241
F1.0
sg330
I1
sS'[solve_grid]./MG_JEN_Sixpack.newstar_source()'
p3526
(dp3527
g26
F1000000.0
sg27
I00
sg28
F0.0
sg29
I00
sg30
g31
sg32
I00
sg33
g34
sg13
g14
sg35
I-10
sg36
Nsg37
I10
sg38
g39
sg40
g41
sg42
F1.0
sg43
Nsg44
g45
sg46
Nsg47
Nsg48
F0.0
sg49
(dp3528
g51
g3526
sg52
(dp3529
g26
g54
sg27
g55
sg28
g56
sg29
g57
sg30
g58
sg32
g59
sg33
g60
sg13
g61
sg35
g62
sg36
g36
sg37
g63
sg38
g64
sg40
g65
sg42
g66
sg43
g67
sg44
g68
sg46
g69
sg47
g70
sg48
g71
sg72
g73
sg74
g75
sg76
g77
sg78
g79
sg80
g81
sg82
S'name of calibrator source/patch \n- unpol:     unpolarised, I=1Jy \n- unpol2:    idem, I=2Jy \n- unpol10:   idem, I=10Jy \n- RMtest:    Rotation Measure \n- SItest:    Spectral Index \n- ellgauss:  Elliptic Gaussian \n- QUV:       non-zero Q,U,V \n- QU:        non-zero Q,U \n- QU2:       stronger version of QU \n- Qonly:     non-zero Q \n- Uonly:     non-zero U \n- Vonly:     non-zero V \n- 3c286:     \n- 3c48:      \n- 3c295:     \n- 3c147:     \n- D1:        cps in D1.MS \n'
p3530
sg84
g85
sg86
g87
sg88
g89
sg90
g91
sg92
g93
sg94
g95
ssg96
g97
sg98
S'MG_JEN_Sixpack'
p3531
sg100
(dp3532
g26
I01
sg28
I01
sg29
I01
sg102
I01
sg40
I01
sg47
I01
sg30
I01
sg33
I01
sg86
I01
sg82
I00
sg43
I01
sg48
I01
sg44
I01
sg92
I01
sg36
I01
sg78
I01
sg38
I01
sg76
I01
sg37
I01
ssg103
g104
sg105
g106
sg107
(dp3533
g27
I00
sg29
I00
sg86
I00
sg32
I00
sg88
I00
sg94
I00
ssg109
S'MG_JEN_Sixpack::newstar_source()  version=10feb2006  defined=2006-04-07 15:06'
p3534
sg111
(dp3535
g26
(lp3536
F1000000.0
aS'@@f0'
p3537
asg27
(lp3538
I01
aI00
aS'@@reset_funklet'
p3539
asg28
(lp3540
F0.0
aF1.0
aF10.0
aF100.0
aS'@@major'
p3541
asg29
(lp3542
I01
aI00
aS'@@unsolvable'
p3543
asg30
(lp3544
g31
aS'@@color'
p3545
asg32
(lp3546
I01
aI00
aS'@@save_all'
p3547
asg33
(lp3548
g34
ag126
aS'@@shape'
p3549
asg13
(lp3550
NaS'@@parmtable'
p3551
asg35
(lp3552
NaF-0.10000000000000001
aF0.050000000000000003
aF-0.01
aS'@@Upct'
p3553
asg36
(lp3554
NaS'@@unit'
p3555
asg37
(lp3556
I10
aS'@@size'
p3557
asg38
(lp3558
g39
aS'@@style'
p3559
asg40
(lp3560
g41
aS'@@descr'
p3561
asg42
(lp3562
F1.0
aF10.0
aS'@@I0'
p3563
asg43
(lp3564
NaS'@@subtile_size'
p3565
asg44
(lp3566
g45
aS'@@condeq_corrs'
p3567
asg46
(lp3568
NaF0.01
aF-0.0050000000000000001
aF0.001
aS'@@Vpct'
p3569
asg47
(lp3570
NaS'@@funklet_shape'
p3571
asg48
(lp3572
F0.0
aF1.0
aF-0.5
aS'@@pa'
p3573
asg72
(lp3574
F0.0
aF0.5
aF1.0
aF1.4950000000000001
aF4.3570000000000002
aS'@@RA'
p3575
asg74
(lp3576
NaF1.0
aF3.0
aF10.0
aF-10.0
aF60.0
aS'@@RM'
p3577
asg76
(lp3578
F0.0
aF0.5
aF5.0
aF50.0
aS'@@minor'
p3579
asg78
(lp3580
F1.0
aS'@@c00_default'
p3581
asg80
(lp3582
NaF0.10000000000000001
aF-0.050000000000000003
aF0.01
aS'@@Qpct'
p3583
asg82
(lp3584
g163
ag164
ag165
ag166
ag167
ag168
ag169
ag170
ag171
ag172
ag173
ag174
ag175
ag176
ag177
ag178
aS'@@punit'
p3585
asg84
(lp3586
F0.5
aF1.0
aF0.87
aF1.0920000000000001
aS'@@Dec'
p3587
asg102
(lp3588
NaS'@@name'
p3589
asg86
(lp3590
I01
aI00
aS'@@fsr_trace'
p3591
asg88
(lp3592
I01
aI00
aS'@@use_previous'
p3593
asg90
(lp3594
NaF-0.69999999999999996
a(lp3595
F0.44700000000000001
aF-0.184
aaS'@@SI'
p3596
asg92
(lp3597
NaS'@@tfdeg'
p3598
asg94
(lp3599
I01
aI00
aS'@@auto_save'
p3600
assg195
S'solve_grid'
p3601
sg197
S'2006-04-07 15:06'
p3602
sg199
g200
sg201
S'** Specific description of inarg record for: MG_JEN_Sixpack::newstar_source()  version=10feb2006  defined=2006-04-07 15:06'
p3603
sg203
S'MG_JEN_Sixpacknewstar_source'
p3604
sg205
S'newstar_source'
p3605
sg207
(dp3606
g82
I01
ssg209
S'** Description of available inarg record(s) for: MG_JEN_Sixpack::newstar_source()  version=10feb2006  defined=2006-04-07 15:06'
p3607
sg211
I00
sg212
g3602
sg213
(dp3608
g215
S'  3: ......[solve_grid]./MG_JEN_Sixpack.newstar_source() (qual=None): .modify(Qpct):   None  ->  10'
p3609
sg217
S'  3: ......[solve_grid]./MG_JEN_Sixpack.newstar_source() (qual=None): .modify(parmtable):   None  ->  simul_DJones'
p3610
sg219
S'  3: ......[solve_grid]./MG_JEN_Sixpack.newstar_source() (qual=None): .modify(punit):   unpol  ->  QU'
p3611
sg221
S'  3: ......[solve_grid]./MG_JEN_Sixpack.newstar_source() (qual=None): .modify(Upct):   None  ->  -10'
p3612
ssg223
(lp3613
g49
ag82
ag102
ag13
ag29
ag42
ag80
ag35
ag46
ag74
ag90
ag26
ag72
ag84
ag86
ag33
ag28
ag76
ag48
ag88
ag94
ag32
ag27
ag40
ag36
ag30
ag38
ag37
ag78
ag92
ag47
ag43
ag44
assg74
Nsg76
F0.0
sg72
F1.4950000000000001
sg78
F1.0
sg80
I10
sg82
g167
sg84
F0.87
sg102
Nsg86
I01
sg88
I01
sg90
Nsg92
Nsg94
I01
ssg331
I20
sg332
g333
sg49
(dp3614
g199
g335
sg51
g3524
sg201
S'** Specific description of inarg record for: MG_JEN_lsm::add_grid()  version=10feb2006  defined=2006-04-07 15:06'
p3615
sg203
S'MG_JEN_lsmadd_grid'
p3616
sg96
g97
sg105
g338
sg109
S'MG_JEN_lsm::add_grid()  version=10feb2006  defined=2006-04-07 15:06'
p3617
sg205
S'add_grid'
p3618
sg111
(dp3619
g241
(lp3620
F0.5
aI1
aI2
aI5
aI10
aI100
aNaS'@@taper'
p3621
asg330
(lp3622
I0
aI1
aI2
aI3
aS'@@nRA2'
p3623
asg331
(lp3624
I5
aI10
aI20
aS'@@dDec'
p3625
asg332
(lp3626
g349
ag350
ag351
ag352
ag353
ag354
ag333
ag355
ag356
aS'@@relpos'
p3627
asg358
(lp3628
I5
aI10
aI20
aS'@@dRA'
p3629
asg361
(lp3630
I0
aI1
aI2
aI3
aS'@@nDec2'
p3631
assg195
g2614
sg209
S'** Description of available inarg record(s) for: MG_JEN_lsm::add_grid()  version=10feb2006  defined=2006-04-07 15:06'
p3632
sg211
I00
sg212
S'2006-04-07 15:06'
p3633
sg103
g104
sg98
S'MG_JEN_lsm'
p3634
sg213
(dp3635
g217
S'** JEN_inarg.attach(): attached: [solve_grid]./MG_JEN_Sixpack.newstar_source()'
p3636
ssg197
g3633
sg223
(lp3637
g49
ag330
ag361
ag358
ag331
ag241
ag332
ag3526
asg52
(dp3638
g241
g371
sg330
g372
sg331
g373
sg332
g374
sg358
g375
sg361
g376
sssg358
I20
sg361
I1
ssg49
(dp3639
g199
g378
sg51
g1907
sg201
S'** Specific description of inarg record for: MG_JEN_lsm::get_lsm()  version=02apr2006  defined=2006-04-07 15:06'
p3640
sg203
S'MG_JEN_lsmget_lsm'
p3641
sg381
(dp3642
g383
g384
sg19
g384
ssg96
g97
sg109
S'MG_JEN_lsm::get_lsm()  version=02apr2006  defined=2006-04-07 15:06'
p3643
sg205
S'get_lsm'
p3644
sg111
(dp3645
g383
(lp3646
g389
ag390
ag391
ag392
aNaS'@@input_LSM'
p3647
asg19
(lp3648
g395
aNaS'@@saveAs'
p3649
asg20
(lp3650
Nag21
ag398
ag399
ag400
aS'@@test_pattern'
p3651
asg402
(lp3652
I01
aI00
aS'@@display'
p3653
asg405
(lp3654
I01
aI00
aS'@@save_as_current'
p3655
assg195
g2614
sg209
S'** Description of available inarg record(s) for: MG_JEN_lsm::get_lsm()  version=02apr2006  defined=2006-04-07 15:06'
p3656
sg211
I00
sg212
S'2006-04-07 15:06'
p3657
sg103
g410
sg98
S'MG_JEN_lsm'
p3658
sg107
(dp3659
g402
I00
sg405
I00
ssg213
(dp3660
g215
S'** JEN_inarg.attach(): attached: [solve]./MG_JEN_lsm.add_double()'
p3661
sg217
S'** JEN_inarg.attach(): attached: [solve]./MG_JEN_lsm.add_single()'
p3662
sg219
S'** JEN_inarg.attach(): attached: [solve]./MG_JEN_lsm.add_spiral()'
p3663
sg221
S'** JEN_inarg.attach(): attached: [solve]./MG_JEN_lsm.add_grid()'
p3664
ssg197
g3657
sg223
(lp3665
g49
ag383
ag402
ag405
ag19
ag20
ag3423
ag3227
ag3524
aS'[solve]./MG_JEN_lsm.add_spiral()'
p3666
asg52
(dp3667
g383
g422
sg19
g423
sg20
g424
sg402
g425
sg405
g426
ssg105
g427
ssg405
I01
sg383
Nsg402
I01
sg3666
(dp3668
S'[solve_spiral]./MG_JEN_Sixpack.newstar_source()'
p3669
(dp3670
g26
F1000000.0
sg27
I00
sg28
F0.0
sg29
I00
sg30
g31
sg32
I00
sg33
g34
sg13
g14
sg35
I-10
sg36
Nsg37
I10
sg38
g39
sg40
g41
sg42
F1.0
sg43
Nsg44
g45
sg46
Nsg47
Nsg48
F0.0
sg49
(dp3671
g51
g3669
sg52
(dp3672
g26
g54
sg27
g55
sg28
g56
sg29
g57
sg30
g58
sg32
g59
sg33
g60
sg13
g61
sg35
g62
sg36
g36
sg37
g63
sg38
g64
sg40
g65
sg42
g66
sg43
g67
sg44
g68
sg46
g69
sg47
g70
sg48
g71
sg72
g73
sg74
g75
sg76
g77
sg78
g79
sg80
g81
sg82
S'name of calibrator source/patch \n- unpol:     unpolarised, I=1Jy \n- unpol2:    idem, I=2Jy \n- unpol10:   idem, I=10Jy \n- RMtest:    Rotation Measure \n- SItest:    Spectral Index \n- ellgauss:  Elliptic Gaussian \n- QUV:       non-zero Q,U,V \n- QU:        non-zero Q,U \n- QU2:       stronger version of QU \n- Qonly:     non-zero Q \n- Uonly:     non-zero U \n- Vonly:     non-zero V \n- 3c286:     \n- 3c48:      \n- 3c295:     \n- 3c147:     \n- D1:        cps in D1.MS \n'
p3673
sg84
g85
sg86
g87
sg88
g89
sg90
g91
sg92
g93
sg94
g95
ssg96
g97
sg98
S'MG_JEN_Sixpack'
p3674
sg100
(dp3675
g26
I01
sg28
I01
sg29
I01
sg102
I01
sg40
I01
sg47
I01
sg30
I01
sg33
I01
sg86
I01
sg82
I00
sg43
I01
sg48
I01
sg44
I01
sg92
I01
sg36
I01
sg78
I01
sg38
I01
sg76
I01
sg37
I01
ssg103
g104
sg105
g106
sg107
(dp3676
g27
I00
sg29
I00
sg86
I00
sg32
I00
sg88
I00
sg94
I00
ssg109
S'MG_JEN_Sixpack::newstar_source()  version=10feb2006  defined=2006-04-07 15:06'
p3677
sg111
(dp3678
g26
(lp3679
F1000000.0
aS'@@f0'
p3680
asg27
(lp3681
I01
aI00
aS'@@reset_funklet'
p3682
asg28
(lp3683
F0.0
aF1.0
aF10.0
aF100.0
aS'@@major'
p3684
asg29
(lp3685
I01
aI00
aS'@@unsolvable'
p3686
asg30
(lp3687
g31
aS'@@color'
p3688
asg32
(lp3689
I01
aI00
aS'@@save_all'
p3690
asg33
(lp3691
g34
ag126
aS'@@shape'
p3692
asg13
(lp3693
NaS'@@parmtable'
p3694
asg35
(lp3695
NaF-0.10000000000000001
aF0.050000000000000003
aF-0.01
aS'@@Upct'
p3696
asg36
(lp3697
NaS'@@unit'
p3698
asg37
(lp3699
I10
aS'@@size'
p3700
asg38
(lp3701
g39
aS'@@style'
p3702
asg40
(lp3703
g41
aS'@@descr'
p3704
asg42
(lp3705
F1.0
aF10.0
aS'@@I0'
p3706
asg43
(lp3707
NaS'@@subtile_size'
p3708
asg44
(lp3709
g45
aS'@@condeq_corrs'
p3710
asg46
(lp3711
NaF0.01
aF-0.0050000000000000001
aF0.001
aS'@@Vpct'
p3712
asg47
(lp3713
NaS'@@funklet_shape'
p3714
asg48
(lp3715
F0.0
aF1.0
aF-0.5
aS'@@pa'
p3716
asg72
(lp3717
F0.0
aF0.5
aF1.0
aF1.4950000000000001
aF4.3570000000000002
aS'@@RA'
p3718
asg74
(lp3719
NaF1.0
aF3.0
aF10.0
aF-10.0
aF60.0
aS'@@RM'
p3720
asg76
(lp3721
F0.0
aF0.5
aF5.0
aF50.0
aS'@@minor'
p3722
asg78
(lp3723
F1.0
aS'@@c00_default'
p3724
asg80
(lp3725
NaF0.10000000000000001
aF-0.050000000000000003
aF0.01
aS'@@Qpct'
p3726
asg82
(lp3727
g163
ag164
ag165
ag166
ag167
ag168
ag169
ag170
ag171
ag172
ag173
ag174
ag175
ag176
ag177
ag178
aS'@@punit'
p3728
asg84
(lp3729
F0.5
aF1.0
aF0.87
aF1.0920000000000001
aS'@@Dec'
p3730
asg102
(lp3731
NaS'@@name'
p3732
asg86
(lp3733
I01
aI00
aS'@@fsr_trace'
p3734
asg88
(lp3735
I01
aI00
aS'@@use_previous'
p3736
asg90
(lp3737
NaF-0.69999999999999996
a(lp3738
F0.44700000000000001
aF-0.184
aaS'@@SI'
p3739
asg92
(lp3740
NaS'@@tfdeg'
p3741
asg94
(lp3742
I01
aI00
aS'@@auto_save'
p3743
assg195
S'solve_spiral'
p3744
sg197
S'2006-04-07 15:06'
p3745
sg199
g200
sg201
S'** Specific description of inarg record for: MG_JEN_Sixpack::newstar_source()  version=10feb2006  defined=2006-04-07 15:06'
p3746
sg203
S'MG_JEN_Sixpacknewstar_source'
p3747
sg205
S'newstar_source'
p3748
sg207
(dp3749
g82
I01
ssg209
S'** Description of available inarg record(s) for: MG_JEN_Sixpack::newstar_source()  version=10feb2006  defined=2006-04-07 15:06'
p3750
sg211
I00
sg212
g3745
sg213
(dp3751
g215
S'  3: ......[solve_spiral]./MG_JEN_Sixpack.newstar_source() (qual=None): .modify(Qpct):   None  ->  10'
p3752
sg217
S'  3: ......[solve_spiral]./MG_JEN_Sixpack.newstar_source() (qual=None): .modify(parmtable):   None  ->  simul_DJones'
p3753
sg219
S'  3: ......[solve_spiral]./MG_JEN_Sixpack.newstar_source() (qual=None): .modify(punit):   unpol  ->  QU'
p3754
sg221
S'  3: ......[solve_spiral]./MG_JEN_Sixpack.newstar_source() (qual=None): .modify(Upct):   None  ->  -10'
p3755
ssg223
(lp3756
g49
ag82
ag102
ag13
ag29
ag42
ag80
ag35
ag46
ag74
ag90
ag26
ag72
ag84
ag86
ag33
ag28
ag76
ag48
ag88
ag94
ag32
ag27
ag40
ag36
ag30
ag38
ag37
ag78
ag92
ag47
ag43
ag44
assg74
Nsg76
F0.0
sg72
F1.4950000000000001
sg78
F1.0
sg80
I10
sg82
g167
sg84
F0.87
sg102
Nsg86
I01
sg88
I01
sg90
Nsg92
Nsg94
I01
ssg429
I5
sg241
F1.0
sg518
I0
sg519
F1.1000000000000001
sg520
I20
sg49
(dp3757
g199
g522
sg51
g3666
sg201
S'** Specific description of inarg record for: MG_JEN_lsm::add_spiral()  version=10feb2006  defined=2006-04-07 15:06'
p3758
sg203
S'MG_JEN_lsmadd_spiral'
p3759
sg96
g97
sg105
g525
sg109
S'MG_JEN_lsm::add_spiral()  version=10feb2006  defined=2006-04-07 15:06'
p3760
sg205
S'add_spiral'
p3761
sg111
(dp3762
g429
(lp3763
I2
aI3
aI4
aI5
aI10
aS'@@nr_of_sources'
p3764
asg241
(lp3765
F0.5
aI1
aI2
aI5
aI10
aI100
aNaS'@@taper'
p3766
asg518
(lp3767
I0
aI30
aI45
aI90
aI180
aI270
aS'@@astart'
p3768
asg519
(lp3769
F1.01
aF1.1000000000000001
aF1.2
aF1.5
aI2
aS'@@rmult'
p3770
asg520
(lp3771
I1
aI2
aI5
aI10
aI20
aI50
aI100
aS'@@rstart'
p3772
asg539
(lp3773
I10
aI20
aI30
aI45
aI90
aI180
aI360
aI0
aS'@@ainc'
p3774
assg195
g2614
sg209
S'** Description of available inarg record(s) for: MG_JEN_lsm::add_spiral()  version=10feb2006  defined=2006-04-07 15:06'
p3775
sg211
I00
sg212
S'2006-04-07 15:06'
p3776
sg103
g104
sg98
S'MG_JEN_lsm'
p3777
sg213
(dp3778
g217
S'** JEN_inarg.attach(): attached: [solve_spiral]./MG_JEN_Sixpack.newstar_source()'
p3779
ssg197
g3776
sg223
(lp3780
g49
ag429
ag520
ag518
ag519
ag539
ag241
ag3669
asg52
(dp3781
g429
g549
sg241
g550
sg518
g551
sg519
g552
sg520
g553
sg539
g554
sssg539
I10
sssg1909
(dp3782
S'correct_after'
p3783
I01
sg1788
S'@@master_reqseq'
p3784
sS'condeq_unop'
p3785
Nsg1916
I01
sg1791
S'@@redun'
p3786
sS'solver_subtree'
p3787
NsS'subtract_after'
p3788
I00
sg1795
S'@@chain_solvers'
p3789
sg49
(dp3790
g51
g1909
sg52
(dp3791
g3783
S'if True, correct measured with predicted.Joneset'
p3792
sg1788
g1789
sg3785
S'Optional unary operation on Condeq inputs'
p3793
sg1916
S'if True, include full visualisation'
p3794
sg1791
g1792
sg3787
S'solver subtree qualifier(s)'
p3795
sg3788
S'if True, subtract predicted from measured'
p3796
sg1795
g1796
sS'flag_residuals'
p3797
S'if True, flag the residuals'
p3798
sg1797
g1798
ssg96
g97
sg98
S'MG_JEN_Cohset'
p3799
sg100
(dp3800
g1788
I01
sg1791
I01
sg3787
I01
sg1795
I01
sg3797
I01
sg1797
I01
ssg103
g1142
sg847
(dp3801
g1791
I00
sg1795
I00
sg1788
I00
sg1797
I00
ssg105
S'insert one or more solver subtrees in the data stream'
p3802
sg107
(dp3803
g3783
I00
sg1788
I00
sg1916
I00
sg1791
I00
sg3788
I00
sg3797
I00
ssg109
S'MG_JEN_Cohset::insert_solver()  version=25dec2005  defined=2006-04-07 15:06'
p3804
sg111
(dp3805
g3783
(lp3806
I01
aI00
aS'@@correct_after'
p3807
asg1788
(lp3808
I01
aI00
ag3784
asg3785
(lp3809
NaS'Abs'
p3810
aS'Arg'
p3811
aS'@@condeq_unop'
p3812
asg1916
(lp3813
I01
aI00
aS'@@visu'
p3814
asg1791
(lp3815
I01
aI00
ag3786
asg3787
(lp3816
NaS'@@solver_subtree'
p3817
asg3788
(lp3818
I01
aI00
aS'@@subtract_after'
p3819
asg1795
(lp3820
I01
ag3789
asg3797
(lp3821
I01
aI00
aS'@@flag_residuals'
p3822
asg1797
(lp3823
Na(lp3824
I5
aI2
aa(lp3825
I2
aI2
aa(lp3826
I3
aI3
aaS'@@num_cells'
p3827
assg195
Nsg197
S'2006-04-07 15:06'
p3828
sg199
S'MG_JEN_Cohset::insert_solver()'
p3829
sg201
S'** Specific description of inarg record for: MG_JEN_Cohset::insert_solver()  version=25dec2005  defined=2006-04-07 15:06'
p3830
sg203
S'MG_JEN_Cohsetinsert_solver'
p3831
sg205
S'insert_solver'
p3832
sg209
S'** Description of available inarg record(s) for: MG_JEN_Cohset::insert_solver()  version=25dec2005  defined=2006-04-07 15:06'
p3833
sg211
I00
sg212
g3828
sg213
(dp3834
g217
S'** JEN_inarg.attach(): attached: ./MG_JEN_Cohset.solver_subtree()'
p3835
ssg223
(lp3836
g49
ag3787
ag1791
ag1797
ag1795
ag1788
ag3785
ag1916
ag3788
ag3783
ag3797
aS'./MG_JEN_Cohset.solver_subtree()'
p3837
assg1797
g3827
sg3837
(dp3838
S'rmin'
p3839
NsS'setBalanced'
p3840
I00
sg1916
I01
sS'epsilon'
p3841
F0.0001
sS'rmax'
p3842
NsS'derivative_eps'
p3843
F1e-08
sS'usesvd'
p3844
I01
sS'debug_level'
p3845
I10
sS'solvegroup'
p3846
(lp3847
S'DJones'
p3848
asg49
(dp3849
g199
S'MG_JEN_Cohset::solver_subtree()'
p3850
sg51
g3837
sg213
(dp3851
g215
S'  2: ...../MG_JEN_Cohset.solver_subtree() (qual=None): .modify(num_iter):   5  ->  2'
p3852
sg217
S"  2: ...../MG_JEN_Cohset.solver_subtree() (qual=None): .modify(solvegroup):   []  ->  ['DJones']"
p3853
ssg100
(dp3854
g3845
I01
sg3843
I01
sg3840
I01
sS'epsval'
p3855
I01
sg1797
I00
ssg203
S'MG_JEN_Cohsetsolver_subtree'
p3856
sg96
g97
sg105
S'Make a solver-subtree for the given Condeq Cohset'
p3857
sg109
S'MG_JEN_Cohset::solver_subtree()  version=20dec2005  defined=2006-04-07 15:06'
p3858
sg205
S'solver_subtree'
p3859
sg111
(dp3860
g3839
(lp3861
NaI100
aI200
aI500
aS'@@rmin'
p3862
asg1916
(lp3863
I01
aI00
aS'@@visu'
p3864
asg3841
(lp3865
F0.001
aF0.0001
aF1.0000000000000001e-05
aS'@@epsilon'
p3866
asS'colin_factor'
p3867
(lp3868
F1e-08
aF0.0
aS'@@colin_factor'
p3869
asg3842
(lp3870
NaI500
aI1000
aI2000
aS'@@rmax'
p3871
asg3843
(lp3872
F1e-08
aF0.001
aF0.0001
aF1.0000000000000001e-05
aS'@@derivative_eps'
p3873
asg3844
(lp3874
I01
aI00
aS'@@usesvd'
p3875
asg3845
(lp3876
I10
aS'@@debug_level'
p3877
asg3846
(lp3878
(lp3879
a(lp3880
g1126
aa(lp3881
S'Ggain'
p3882
aa(lp3883
S'Gphase'
p3884
aa(lp3885
S'Gpol1'
p3886
aa(lp3887
S'Gpol2'
p3888
aa(lp3889
g830
aa(lp3890
g830
aS'stokesU'
p3891
aa(lp3892
g830
aS'stokesQ'
p3893
aa(lp3894
g830
aS'stokesV'
p3895
aa(lp3896
S'stokesQU'
p3897
ag830
aa(lp3898
S'stokesQUV'
p3899
ag830
aa(lp3900
g1126
aS'stokesI'
p3901
aa(lp3902
g3901
ag33
aa(lp3903
g3901
aa(lp3904
S'stokesIQU'
p3905
aa(lp3906
S'stokesIQUV'
p3907
aa(lp3908
S'stokesIV'
p3909
aa(lp3910
g3897
aa(lp3911
g3899
aa(lp3912
g1126
ag3848
aa(lp3913
g3848
aa(lp3914
S'Dang'
p3915
aa(lp3916
S'Dell'
p3917
aa(lp3918
S'Dreal'
p3919
aa(lp3920
S'Dimag'
p3921
aa(lp3922
g1126
ag3848
ag1011
aa(lp3923
g1011
aa(lp3924
S'EJones'
p3925
aa(lp3926
S'Epointing'
p3927
aa(lp3928
g1126
ag915
aa(lp3929
g915
aa(lp3930
S'Breal'
p3931
aa(lp3932
S'Bimag'
p3933
aa(lp3934
S'Bpol1'
p3935
aa(lp3936
S'Bpol2'
p3937
aaS'@@solvegroup'
p3938
asg3855
(lp3939
F1e-08
aF0.001
aF0.0001
aF1.0000000000000001e-05
aS'@@epsval'
p3940
asg1797
(lp3941
Na(lp3942
I5
aI2
aa(lp3943
I2
aI2
aa(lp3944
I3
aI3
aaS'@@num_cells'
p3945
asg3840
(lp3946
I01
aI00
aS'@@setBalanced'
p3947
asS'num_iter'
p3948
(lp3949
I1
aI3
aI5
aI10
aI20
aS'@@num_iter'
p3950
asS'condition'
p3951
(lp3952
NaS'Gphase_X_sum=0.0'
p3953
aS'Gphase_Y_sum=0.0'
p3954
a(lp3955
g3953
ag3954
aa(lp3956
S'Gphase_X_first=0.0'
p3957
aS'Gphase_Y_first=0.0'
p3958
aa(lp3959
S'Gphase_X_last=0.0'
p3960
aS'Gphase_Y_last=0.0'
p3961
aaS'Dang_sum=0.0'
p3962
a(lp3963
S'Bimag_X_sum=0.0'
p3964
aS'Bimag_Y_sum=0.0'
p3965
aa(lp3966
S'Breal_X_product=1.0'
p3967
aS'Breal_Y_product=1.0'
p3968
aaS'@@condition'
p3969
asS'history'
p3970
(lp3971
I01
aI00
aS'@@history'
p3972
assg195
Nsg209
S'** Description of available inarg record(s) for: MG_JEN_Cohset::solver_subtree()  version=20dec2005  defined=2006-04-07 15:06'
p3973
sg103
S'20dec2005'
p3974
sg212
S'2006-04-07 15:06'
p3975
sg98
S'MG_JEN_Cohset'
p3976
sg107
(dp3977
g3844
I00
sg3840
I00
sg1916
I00
sg3970
I00
ssg201
S'** Specific description of inarg record for: MG_JEN_Cohset::solver_subtree()  version=20dec2005  defined=2006-04-07 15:06'
p3978
sg211
I00
sg197
g3975
sg223
(lp3979
g49
ag3846
ag3951
ag3839
ag3842
ag1797
ag3948
ag3841
ag3855
ag3843
ag3867
ag3844
ag3840
ag3845
ag1916
ag3970
asg52
(dp3980
g3839
S'if specified, only use baselines>=rmin'
p3981
sg1916
S'if True, include visualisation'
p3982
sg3841
S'iteration control criterion...'
p3983
sg3867
S'colinearity factor'
p3984
sg3842
S'if specified, only use baselines<=rmax'
p3985
sg3843
S'NEW: also iteration control...'
p3986
sg3844
S'if True, use Singular Value Decomposition (SVD)'
p3987
sg3845
S'solver debug_level'
p3988
sg3846
S'solvegroup: list of parmgroups, to be solved for:\n- [GJones]:  all GJones MeqParms\n- [Ggain]:   GJones station gains (both pols)\n- [Gphase]:  GJones station phases (both pols)\n- [Gpol1]:   All GJones MeqParms for pol1 (X or R)\n- [Gpol2]:   All GJones MeqParms for pol2 (Y or L)\n- [JJones,stokesU]:     actually solves for U!\n- [JJones,stokesQ]:     -> zero Q(?), but better freq sol(?)\n- [JJones,stokesV]:     -> punit V(?)...\n- [stokesI]:    stokes I (incl SI(f), if relevant)\n- [shape]:      parameters of extended source(s)\n- [stokesIQU]:  stokes I,Q,U (incl RM and SI(f))\n- [stokesIQUV]: stokes I,Q,U,V (incl RM and SI(f))'
p3989
sg3855
S'NEW: WNB version of epsilon....'
p3990
sg1797
g1798
sg3840
S'NEW: if True, add (..) to diagonal, otherwise multiply (1+lambda)'
p3991
sg3948
S'max number of iterations (now also in fitter)'
p3992
sg3951
S'(list of) extra condition equations:\n- [...phase_sum=0.0]:   sum of phases = zero\n- [...phase_first=0.0]: phase of first station = zero\n- [...phase_last=0.0]:  phase of last station = zero\n- [Dang_sum=0.0]:   sum of dipole pos.angle errors = zero\n- [...imag_sum=0.0]:   sum of imag.parts = zero\n- [...real_product=1.0]:   product of real.parts = unity'
p3993
sg3970
S'if True, include history collection of metrics'
p3994
sssg1797
Nsg3855
F1e-08
sg3970
I01
sg3948
I2
sg3951
Nsg3867
F0.0
ssg3797
I00
ss.