(dp0
S'add_to_existing'
p1
I00
sS'polrep'
p2
S'linear'
p3
sS'_JEN_inarg_separator_record:_1'
p4
(dp5
S'txt'
p6
S'uv-data (MS) stream_control'
p7
ssS'script_name'
p8
S'MG_JEN_simul'
p9
sS'ms_name'
p10
S'D1.MS'
p11
sS'parmtable'
p12
S'simul_lsm_GJones'
p13
sS'insert_solver'
p14
I00
sS'[solve_uvp]./MG_JEN_Cohset.Jones()'
p15
(dp16
g2
S'@@polrep'
p17
sS'_JEN_inarg_CTRL_record:'
p18
(dp19
S'target_definition'
p20
S'MG_JEN_Cohset::Jones()'
p21
sS'localscope'
p22
g15
sS'hide'
p23
(dp24
g2
I01
sS'stations'
p25
I01
sS'uvplane_effect'
p26
I01
sg12
I01
sS'@Jsequence_KJones'
p27
I01
sS'@Jsequence_simul'
p28
I01
sS'@Jsequence'
p29
I01
ssS'barescope'
p30
S'MG_JEN_CohsetJones'
p31
sS'target_dir'
p32
S'.'
p33
sS'oneliner'
p34
S'MG_JEN_Cohset::Jones()  version=25dec2005  defined=2006-03-29 19:26'
p35
sS'target_function'
p36
S'Jones'
p37
sS'choice'
p38
(dp39
g2
(lp40
g3
aS'circular'
p41
ag17
asg25
(lp42
(lp43
I0
aI1
aI2
aI3
aI4
aa(lp44
I0
aI1
aI2
aI3
aI4
aI5
aI6
aa(lp45
I0
aI1
aI2
aI3
aI4
aI5
aI6
aI7
aI8
aI9
aI10
aI11
aI12
aI13
aa(lp46
I0
aI1
aI2
aI3
aI4
aI5
aI6
aI7
aI8
aI9
aI10
aI11
aI12
aI13
aI14
aaS'range(5)'
p47
aS'@@stations'
p48
asS'Jsequence_solve_uvp'
p49
(lp50
(lp51
S'GJones'
p52
aa(lp53
S'BJones'
p54
aa(lp55
S'FJones'
p56
aa(lp57
S'KJones'
p58
aa(lp59
S'DJones_WSRT'
p60
aa(lp61
g52
ag60
aa(lp62
S'JJones'
p63
aa(lp64
aS'@@Jsequence_solve_uvp'
p65
asg26
(lp66
I00
aS'@@uvplane_effect'
p67
asg12
(lp68
NaS'test'
p69
aS'@@parmtable'
p70
asg27
(lp71
NaS'@@@Jsequence_KJones'
p72
asg28
(lp73
NaS'@@@Jsequence_simul'
p74
asg29
(lp75
NaS'@@@Jsequence'
p76
assS'qual'
p77
S'solve_uvp'
p78
sS'protected'
p79
I00
sS'datetime_defined'
p80
S'2006-03-29 19:26'
p81
sS'version'
p82
S'25dec2005'
p83
sS'target_module'
p84
S'MG_JEN_Cohset'
p85
sS'inarg_specific'
p86
S'** Specific description of inarg record for: MG_JEN_Cohset::Jones()  version=25dec2005  defined=2006-03-29 19:26'
p87
sS'MESSAGE'
p88
(dp89
S'1'
p90
S'** JEN_inarg.attach(): attached: [solve_uvp]./MG_JEN_Joneset.FJones()'
p91
sS'0'
p92
S'** JEN_inarg.attach(): attached: [solve_uvp]./MG_JEN_Joneset.GJones()'
p93
sS'3'
p94
S'** JEN_inarg.attach(): attached: [solve_uvp]./MG_JEN_Joneset.KJones()'
p95
sS'2'
p96
S'** JEN_inarg.attach(): attached: [solve_uvp]./MG_JEN_Joneset.BJones()'
p97
sS'5'
p98
S'** JEN_inarg.attach(): attached: [solve_uvp]./MG_JEN_Joneset.JJones()'
p99
sS'4'
p100
S'** JEN_inarg.attach(): attached: [solve_uvp]./MG_JEN_Joneset.DJones_WSRT()'
p101
sS'6'
p102
S"  1: ..[solve_uvp]./MG_JEN_Cohset.Jones() (qual=None): .modify(Jsequence_solve_uvp):   []  ->  ['GJones']"
p103
ssS'last_edited'
p104
g81
sS'mutable'
p105
(dp106
g26
I00
sg12
I00
sg2
I00
sg25
I00
ssS'order'
p107
(lp108
g18
ag25
ag2
ag29
ag28
ag27
ag12
ag26
ag49
aS'[solve_uvp]./MG_JEN_Joneset.GJones()'
p109
aS'[solve_uvp]./MG_JEN_Joneset.FJones()'
p110
aS'[solve_uvp]./MG_JEN_Joneset.BJones()'
p111
aS'[solve_uvp]./MG_JEN_Joneset.KJones()'
p112
aS'[solve_uvp]./MG_JEN_Joneset.DJones_WSRT()'
p113
aS'[solve_uvp]./MG_JEN_Joneset.JJones()'
p114
asS'help'
p115
(dp116
g2
S'polarisation representation'
p117
sg25
S'the (subset of) stations to be used'
p118
sg49
S'sequence of Jones matrices to be used'
p119
sg26
S'if True, the Joneset reprsents uv-plane effects (q=uvp)'
p120
sg12
S'name of the MeqParm table to be used'
p121
sg27
S'list membership indication (used in JEN_inargGui)'
p122
sg28
g122
sg29
g122
ssS'description'
p123
S'Make a Joneset by creating and multiplying a sequence of one ore more Jonesets'
p124
ssg25
g48
sg114
(dp125
S'reset_funklet'
p126
I00
sg2
S'@@polrep'
p127
sS'tdeg_Jreal'
p128
I0
sS'color'
p129
S'red'
p130
sS'save_all'
p131
I00
sS'all4_always'
p132
Nsg12
S'@@parmtable'
p133
sS'subtile_size_Jreal'
p134
NsS'auto_save'
p135
I01
sS'size'
p136
I10
sS'style'
p137
S'circle'
p138
sS'tdeg_Jimag'
p139
S'@tdeg_Jreal'
p140
sS'condeq_corrs'
p141
S'*'
p142
sS'funklet_shape'
p143
Nsg18
(dp144
g20
S'MG_JEN_Joneset::JJones()'
p145
sg22
g114
sg23
(dp146
g137
I01
sg2
I01
sS'c00_default'
p147
I01
sg25
I01
sg129
I01
sg143
I01
sg141
I01
sg26
I01
sS'subtile_size'
p148
I01
sS'tfdeg'
p149
I01
sg12
I01
sg27
I01
sg28
I01
sg29
I01
sg136
I01
ssg30
S'MG_JEN_JonesetJJones'
p150
sg32
g33
sg123
S'Defines diagonal 2x2 Jones matrices for full polarisation:\n    Jjones(station,source) matrix elements:\n    - J_11 = (Jreal_11,Jimag_11)\n    - J_12 = (Jreal_12,Jimag_12)\n    - J_21 = (Jreal_21,Jimag_21)\n    - J_22 = (Jreal_22,Jimag_22)\n    For circular polarisation, R and L are used rather than X and Y\n    '
p151
sg34
S'MG_JEN_Joneset::JJones()  version=14feb2006  defined=2006-03-29 19:26'
p152
sg36
S'JJones'
p153
sg38
(dp154
g126
(lp155
I01
aI00
aS'@@reset_funklet'
p156
asg2
(lp157
g3
ag41
ag127
asg128
(lp158
I0
aI1
aI2
aI3
aS'@@tdeg_Jreal'
p159
asg129
(lp160
g130
aS'@@color'
p161
asg131
(lp162
I01
aI00
aS'@@save_all'
p163
asg132
(lp164
Na(lp165
I14
aa(lp166
I1
aaS'WSRT/WHAT'
p167
aS'@@all4_always'
p168
asg12
(lp169
Nag69
ag133
asg134
(lp170
NaI1
aI2
aI5
aI10
aI20
aI50
aI100
aI200
aI500
aS'@@subtile_size_Jreal'
p171
asg135
(lp172
I01
aI00
aS'@@auto_save'
p173
asg136
(lp174
I10
aS'@@size'
p175
asg137
(lp176
g138
aS'@@style'
p177
asg139
(lp178
I0
aI1
aI2
aI3
ag140
aS'@@tdeg_Jimag'
p179
asg141
(lp180
g142
aS'@@condeq_corrs'
p181
asg143
(lp182
NaS'@@funklet_shape'
p183
asg27
(lp184
g63
aS'@@@Jsequence_KJones'
p185
asS'fdeg_Jreal'
p186
(lp187
I0
aI1
aI2
aI3
aS'@@fdeg_Jreal'
p188
asg147
(lp189
F1.0
aS'@@c00_default'
p190
asg26
(lp191
I00
aS'@@uvplane_effect'
p192
asS'fdeg_Jimag'
p193
(lp194
I0
aI1
aI2
aI3
aS'@fdeg_Jreal'
p195
aS'@@fdeg_Jimag'
p196
asS'subtile_size_Jimag'
p197
(lp198
S'@subtile_size_Jreal'
p199
aNaI1
aI2
aI5
aI10
aI20
aI50
aI100
aI200
aI500
aS'@@subtile_size_Jimag'
p200
asg25
(lp201
(lp202
I0
aI1
aI2
aI3
aI4
aa(lp203
I0
aI1
aI2
aI3
aI4
aI5
aI6
aa(lp204
I0
aI1
aI2
aI3
aI4
aI5
aI6
aI7
aI8
aI9
aI10
aI11
aI12
aI13
aa(lp205
I0
aI1
aI2
aI3
aI4
aI5
aI6
aI7
aI8
aI9
aI10
aI11
aI12
aI13
aI14
aag47
aS'@@stations'
p206
asS'diagonal_only'
p207
(lp208
I01
aI00
aS'@@diagonal_only'
p209
asS'use_previous'
p210
(lp211
I01
aI00
aS'@@use_previous'
p212
asg148
(lp213
NaS'@@subtile_size'
p214
asg149
(lp215
NaS'@@tfdeg'
p216
asg28
(lp217
g63
aS'@@@Jsequence_simul'
p218
asg29
(lp219
g63
aS'@@@Jsequence'
p220
assg77
g78
sg79
I00
sg80
S'2006-03-29 19:26'
p221
sg82
S'14feb2006'
p222
sg84
S'MG_JEN_Joneset'
p223
sS'editable'
p224
(dp225
g126
I00
sg210
I00
sg207
I00
sg135
I00
sg131
I00
ssg86
S'** Specific description of inarg record for: MG_JEN_Joneset::JJones()  version=14feb2006  defined=2006-03-29 19:26'
p226
sg105
(dp227
g26
I00
sg12
I00
sg2
I00
sg25
I00
ssg104
g221
sg107
(lp228
g18
ag25
ag2
ag29
ag28
ag27
ag207
ag132
ag12
ag26
ag128
ag139
ag186
ag193
ag134
ag197
ag210
ag135
ag131
ag126
ag129
ag137
ag136
ag147
ag149
ag143
ag148
ag141
asg115
(dp229
g126
S'if True, do NOT use any MeqParm table values when solvable'
p230
sg2
g117
sg128
S'degree of time polynomial'
p231
sg129
S'plot_color'
p232
sg131
S'if True, save the update result even if not converged'
p233
sg132
S'stations for which all 4 elements will always be solved for'
p234
sg12
g121
sg134
S'sub-tile size (None=entire tile)'
p235
sg135
S'if True, save the result of every iteration (slow!)'
p236
sg136
S'size of plotted symbol'
p237
sg137
S'plot_style'
p238
sg139
g231
sg141
S'correlations to be used for solving'
p239
sg143
S'shape [time,freq] of default funklet'
p240
sg27
g122
sg186
S'degree of freq polynomial'
p241
sg147
S'default value of c[0,0] coefficient'
p242
sg26
g120
sg193
g241
sg197
g235
sg25
g118
sg207
S'if True, solve for diagonal (11,22) elements only'
p243
sg210
S'if True, start with the previous solution'
p244
sg148
S'size (time-slots) of a domain sub-tile'
p245
sg149
S'(time,freq) polynomial degree'
p246
sg28
g122
sg29
g122
sssg27
g63
sg186
I0
sg147
F1.0
sg26
g192
sg193
g195
sg197
g199
sg25
g206
sg207
I00
sg210
I01
sg148
Nsg149
Nsg28
g63
sg29
g63
ssg112
(dp247
g2
S'@@polrep'
p248
sg25
S'@@stations'
p249
sg18
(dp250
g20
S'MG_JEN_Joneset::KJones()'
p251
sg22
g112
sg23
(dp252
g27
I01
sg28
I01
sg25
I01
sg2
I01
sg29
I01
ssg30
S'MG_JEN_JonesetKJones'
p253
sg32
g33
sg123
S'defines diagonal KJones matrices for DFT Fourier kernel'
p254
sg34
S'MG_JEN_Joneset::KJones()  version=12dec2005  defined=2006-03-29 19:26'
p255
sg36
S'KJones'
p256
sg38
(dp257
g27
(lp258
g58
aS'@@@Jsequence_KJones'
p259
asg28
(lp260
g58
aS'@@@Jsequence_simul'
p261
asg25
(lp262
(lp263
I0
aI1
aI2
aI3
aI4
aa(lp264
I0
aI1
aI2
aI3
aI4
aI5
aI6
aa(lp265
I0
aI1
aI2
aI3
aI4
aI5
aI6
aI7
aI8
aI9
aI10
aI11
aI12
aI13
aa(lp266
I0
aI1
aI2
aI3
aI4
aI5
aI6
aI7
aI8
aI9
aI10
aI11
aI12
aI13
aI14
aag47
ag249
asg2
(lp267
g3
ag41
ag248
asg29
(lp268
g58
aS'@@@Jsequence'
p269
assg77
g78
sg79
I00
sg80
S'2006-03-29 19:26'
p270
sg82
S'12dec2005'
p271
sg84
S'MG_JEN_Joneset'
p272
sg86
S'** Specific description of inarg record for: MG_JEN_Joneset::KJones()  version=12dec2005  defined=2006-03-29 19:26'
p273
sg105
(dp274
g2
I00
sg25
I00
ssg104
g270
sg107
(lp275
g18
ag25
ag2
ag29
ag28
ag27
asg115
(dp276
g27
g122
sg28
g122
sg25
g118
sg2
g117
sg29
g122
sssg27
g58
sg28
g58
sg29
g58
ssg49
(lp277
g52
asg26
g67
sg12
g70
sg111
(dp278
g126
I00
sg2
S'@@polrep'
p279
sg129
g130
sS'subtile_size_Bimag'
p280
S'@subtile_size_Breal'
p281
sg131
I00
sS'subtile_size_Breal'
p282
Nsg135
I01
sg136
I10
sg137
g138
sS'fdeg_Breal'
p283
I5
sg141
g142
sg143
Nsg18
(dp284
g20
S'MG_JEN_Joneset::BJones()'
p285
sg22
g111
sg23
(dp286
g137
I01
sg2
I01
sg147
I01
sg25
I01
sg129
I01
sg143
I01
sg141
I01
sg26
I01
sg148
I01
sg149
I01
sg12
I01
sg27
I01
sg28
I01
sg29
I01
sg136
I01
ssg30
S'MG_JEN_JonesetBJones'
p287
sg32
g33
sg123
S'Defines diagonal 2x2 Jones matrices that represent the IF bandpass:\n    Bjones(station,source) matrix elements:\n    - B_11 = (Breal_X,Bimag_X)\n    - B_12 = 0\n    - B_21 = 0\n    - B_22 = (Breal_Y,Bimag_Y)\n    For circular polarisation, R and L are used rather than X and Y\n    NB: The main differences with Gjones are:\n      - the higher-order (~5) freq-polynomial\n      - solving for real/imag rather than gain/phase \n    '
p288
sg34
S'MG_JEN_Joneset::BJones()  version=16dec2005  defined=2006-03-29 19:26'
p289
sg36
S'BJones'
p290
sg38
(dp291
g126
(lp292
I01
aI00
aS'@@reset_funklet'
p293
asg2
(lp294
g3
ag41
ag279
asg129
(lp295
g130
aS'@@color'
p296
asg280
(lp297
g281
aNaI1
aI2
aI5
aI10
aI20
aI50
aI100
aI200
aI500
aS'@@subtile_size_Bimag'
p298
asg131
(lp299
I01
aI00
aS'@@save_all'
p300
asg282
(lp301
NaI1
aI2
aI5
aI10
aI20
aI50
aI100
aI200
aI500
aS'@@subtile_size_Breal'
p302
asg135
(lp303
I01
aI00
aS'@@auto_save'
p304
asg136
(lp305
I10
aS'@@size'
p306
asg137
(lp307
g138
aS'@@style'
p308
asg283
(lp309
I3
aI4
aI5
aI6
aS'@@fdeg_Breal'
p310
asg141
(lp311
g142
aS'@@condeq_corrs'
p312
asg143
(lp313
NaS'@@funklet_shape'
p314
asg27
(lp315
g54
aS'@@@Jsequence_KJones'
p316
asS'tdeg_Bimag'
p317
(lp318
I0
aI1
aI2
aI3
aS'@tdeg_Breal'
p319
aS'@@tdeg_Bimag'
p320
asg29
(lp321
g54
aS'@@@Jsequence'
p322
asg147
(lp323
F1.0
aS'@@c00_default'
p324
asS'fdeg_Bimag'
p325
(lp326
I3
aI4
aI5
aI6
aS'@fdeg_Breal'
p327
aS'@@fdeg_Bimag'
p328
asg26
(lp329
I00
aS'@@uvplane_effect'
p330
asg25
(lp331
(lp332
I0
aI1
aI2
aI3
aI4
aa(lp333
I0
aI1
aI2
aI3
aI4
aI5
aI6
aa(lp334
I0
aI1
aI2
aI3
aI4
aI5
aI6
aI7
aI8
aI9
aI10
aI11
aI12
aI13
aa(lp335
I0
aI1
aI2
aI3
aI4
aI5
aI6
aI7
aI8
aI9
aI10
aI11
aI12
aI13
aI14
aag47
aS'@@stations'
p336
asg149
(lp337
NaS'@@tfdeg'
p338
asS'tdeg_Breal'
p339
(lp340
I0
aI1
aI2
aI3
aS'@@tdeg_Breal'
p341
asg210
(lp342
I01
aI00
aS'@@use_previous'
p343
asg148
(lp344
NaS'@@subtile_size'
p345
asg12
(lp346
Nag69
aS'@@parmtable'
p347
asg28
(lp348
g54
aS'@@@Jsequence_simul'
p349
assg77
g78
sg79
I00
sg80
S'2006-03-29 19:26'
p350
sg82
S'16dec2005'
p351
sg84
S'MG_JEN_Joneset'
p352
sg224
(dp353
g126
I00
sg210
I00
sg135
I00
sg131
I00
ssg86
S'** Specific description of inarg record for: MG_JEN_Joneset::BJones()  version=16dec2005  defined=2006-03-29 19:26'
p354
sg105
(dp355
g26
I00
sg12
I00
sg2
I00
sg25
I00
ssg104
g350
sg107
(lp356
g18
ag25
ag2
ag29
ag28
ag27
ag12
ag26
ag339
ag317
ag283
ag325
ag282
ag280
ag210
ag135
ag131
ag126
ag129
ag137
ag136
ag147
ag149
ag143
ag148
ag141
asg115
(dp357
g126
g230
sg2
g117
sg129
g232
sg280
S'sub-tile size (None=entire tile)'
p358
sg131
g233
sg282
g358
sg135
g236
sg136
g237
sg137
g238
sg283
S'degree of freq polynomial'
p359
sg141
g239
sg143
g240
sg27
g122
sg317
S'degree of time polynomial'
p360
sg29
g122
sg147
g242
sg325
g359
sg26
g120
sg25
g118
sg149
g246
sg339
g360
sg210
g244
sg148
g245
sg12
g121
sg28
g122
sssg27
g54
sg317
g319
sg29
g54
sg147
F1.0
sg325
g327
sg26
g330
sg12
g347
sg25
g336
sg339
I0
sg210
I01
sg148
Nsg149
Nsg28
g54
ssg110
(dp361
g126
I00
sg2
S'@@polrep'
p362
sg129
g130
sg131
I00
sg149
Nsg135
I01
sg136
I10
sg137
g138
sg141
g142
sg143
Nsg18
(dp363
g20
S'MG_JEN_Joneset::FJones()'
p364
sg22
g110
sg23
(dp365
g137
I01
sg2
I01
sg147
I01
sg25
I01
sg129
I01
sg143
I01
sg141
I01
sg26
I01
sg148
I01
sg149
I01
sg12
I01
sg27
I01
sg28
I01
sg29
I01
sg136
I01
ssg30
S'MG_JEN_JonesetFJones'
p366
sg32
g33
sg123
S'defines diagonal FJones Faraday rotation matrices'
p367
sg34
S'MG_JEN_Joneset::FJones()  version=16dec2005  defined=2006-03-29 19:26'
p368
sg36
S'FJones'
p369
sg38
(dp370
g126
(lp371
I01
aI00
aS'@@reset_funklet'
p372
asg2
(lp373
g3
ag41
ag362
asg129
(lp374
g130
aS'@@color'
p375
asg131
(lp376
I01
aI00
aS'@@save_all'
p377
asg149
(lp378
NaS'@@tfdeg'
p379
asg135
(lp380
I01
aI00
aS'@@auto_save'
p381
asg136
(lp382
I10
aS'@@size'
p383
asg137
(lp384
g138
aS'@@style'
p385
asg141
(lp386
g142
aS'@@condeq_corrs'
p387
asg143
(lp388
NaS'@@funklet_shape'
p389
asg27
(lp390
g56
aS'@@@Jsequence_KJones'
p391
asg29
(lp392
g56
aS'@@@Jsequence'
p393
asg147
(lp394
F1.0
aS'@@c00_default'
p395
asg26
(lp396
I00
aS'@@uvplane_effect'
p397
asg25
(lp398
(lp399
I0
aI1
aI2
aI3
aI4
aa(lp400
I0
aI1
aI2
aI3
aI4
aI5
aI6
aa(lp401
I0
aI1
aI2
aI3
aI4
aI5
aI6
aI7
aI8
aI9
aI10
aI11
aI12
aI13
aa(lp402
I0
aI1
aI2
aI3
aI4
aI5
aI6
aI7
aI8
aI9
aI10
aI11
aI12
aI13
aI14
aag47
aS'@@stations'
p403
asS'tdeg_RM'
p404
(lp405
I0
aI1
aI2
aI3
aS'@@tdeg_RM'
p406
asg210
(lp407
I01
aI00
aS'@@use_previous'
p408
asS'fdeg_RM'
p409
(lp410
I0
aI1
aI2
aI3
aS'@@fdeg_RM'
p411
asg148
(lp412
NaS'@@subtile_size'
p413
asg12
(lp414
Nag69
aS'@@parmtable'
p415
asS'subtile_size_RM'
p416
(lp417
NaI1
aI2
aI5
aI10
aI20
aI50
aI100
aI200
aI500
aS'@@subtile_size_RM'
p418
asg28
(lp419
g56
aS'@@@Jsequence_simul'
p420
assg77
g78
sg79
I00
sg80
S'2006-03-29 19:26'
p421
sg82
g351
sg84
S'MG_JEN_Joneset'
p422
sg224
(dp423
g126
I00
sg210
I00
sg135
I00
sg131
I00
ssg86
S'** Specific description of inarg record for: MG_JEN_Joneset::FJones()  version=16dec2005  defined=2006-03-29 19:26'
p424
sg105
(dp425
g26
I00
sg12
I00
sg2
I00
sg25
I00
ssg104
g421
sg107
(lp426
g18
ag25
ag2
ag29
ag28
ag27
ag12
ag26
ag404
ag409
ag416
ag210
ag135
ag131
ag126
ag129
ag137
ag136
ag147
ag149
ag143
ag148
ag141
asg115
(dp427
g126
g230
sg2
g117
sg129
g232
sg131
g233
sg149
g246
sg135
g236
sg136
g237
sg137
g238
sg141
g239
sg143
g240
sg27
g122
sg29
g122
sg147
g242
sg26
g120
sg25
g118
sg404
S'degree of time polynomial'
p428
sg210
g244
sg409
S'degree of freq polynomial'
p429
sg148
g245
sg12
g121
sg416
S'sub-tile size (None=entire tile)'
p430
sg28
g122
sssg27
g56
sg29
g56
sg147
F1.0
sg26
g397
sg25
g403
sg404
I0
sg210
I01
sg409
I2
sg148
Nsg12
g415
sg416
I1
sg28
g56
ssg109
(dp431
g126
I00
sg2
S'@@polrep'
p432
sS'fdeg_Ggain'
p433
I0
sg129
g130
sg131
I00
sg12
S'@@parmtable'
p434
sg135
I01
sg136
I10
sg137
g138
sS'subtile_size_Ggain'
p435
I1
sg141
g142
sg143
Nsg18
(dp436
g20
S'MG_JEN_Joneset::GJones()'
p437
sg22
g109
sg23
(dp438
g137
I01
sg2
I01
sg147
I01
sg25
I01
sg129
I01
sg29
I01
sg143
I01
sg141
I01
sg26
I01
sg148
I01
sg149
I01
sg12
I01
sg27
I01
sg28
I01
sS'Gpolar'
p439
I01
sg136
I01
ssg30
S'MG_JEN_JonesetGJones'
p440
sg32
g33
sg123
S'Defines diagonal 2x2 Jones matrices that represent complex gain:\n    Gjones(station,source) matrix elements:\n    - G_11 = Ggain_X*exp(iGphase_X)\n    - G_12 = 0\n    - G_21 = 0\n    - G_22 = Ggain_Y*exp(iGphase_Y)\n    For circular polarisation, R and L are used rather than X and Y\n    '
p441
sg34
S'MG_JEN_Joneset::GJones()  version=15dec2005  defined=2006-03-29 19:26'
p442
sg36
S'GJones'
p443
sg38
(dp444
g126
(lp445
I01
aI00
aS'@@reset_funklet'
p446
asg2
(lp447
g3
ag41
ag432
asg433
(lp448
I0
aI1
aI2
aI3
aS'@@fdeg_Ggain'
p449
asg129
(lp450
g130
aS'@@color'
p451
asg131
(lp452
I01
aI00
aS'@@save_all'
p453
asg12
(lp454
Nag69
ag434
asg135
(lp455
I01
aI00
aS'@@auto_save'
p456
asg136
(lp457
I10
aS'@@size'
p458
asg137
(lp459
g138
aS'@@style'
p460
asg435
(lp461
NaI1
aI2
aI5
aI10
aI20
aI50
aI100
aI200
aI500
aS'@@subtile_size_Ggain'
p462
asg141
(lp463
g142
aS'@@condeq_corrs'
p464
asg143
(lp465
NaS'@@funklet_shape'
p466
asg27
(lp467
g52
aS'@@@Jsequence_KJones'
p468
asg29
(lp469
g52
aS'@@@Jsequence'
p470
asg147
(lp471
F1.0
aS'@@c00_default'
p472
asS'tdeg_Gphase'
p473
(lp474
I0
aI1
aI2
aI3
aS'@tdeg_Ggain'
p475
aS'@@tdeg_Gphase'
p476
asS'tdeg_Ggain'
p477
(lp478
I0
aI1
aI2
aI3
aS'@@tdeg_Ggain'
p479
asS'fdeg_Gphase'
p480
(lp481
I0
aI1
aI2
aI3
aS'@fdeg_Ggain'
p482
aS'@@fdeg_Gphase'
p483
asS'subtile_size_Gphase'
p484
(lp485
S'@subtile_size_Ggain'
p486
aNaI1
aI2
aI5
aI10
aI20
aI50
aI100
aI200
aI500
aS'@@subtile_size_Gphase'
p487
asg439
(lp488
I01
aI00
aS'@@Gpolar'
p489
asg26
(lp490
I00
aS'@@uvplane_effect'
p491
asg25
(lp492
(lp493
I0
aI1
aI2
aI3
aI4
aa(lp494
I0
aI1
aI2
aI3
aI4
aI5
aI6
aa(lp495
I0
aI1
aI2
aI3
aI4
aI5
aI6
aI7
aI8
aI9
aI10
aI11
aI12
aI13
aa(lp496
I0
aI1
aI2
aI3
aI4
aI5
aI6
aI7
aI8
aI9
aI10
aI11
aI12
aI13
aI14
aag47
aS'@@stations'
p497
asg210
(lp498
I01
aI00
aS'@@use_previous'
p499
asg148
(lp500
NaS'@@subtile_size'
p501
asg149
(lp502
NaS'@@tfdeg'
p503
asg28
(lp504
g52
aS'@@@Jsequence_simul'
p505
assg77
g78
sg79
I00
sg80
S'2006-03-29 19:26'
p506
sg82
S'15dec2005'
p507
sg84
S'MG_JEN_Joneset'
p508
sg224
(dp509
g126
I00
sg210
I00
sg439
I00
sg135
I00
sg131
I00
ssg86
S'** Specific description of inarg record for: MG_JEN_Joneset::GJones()  version=15dec2005  defined=2006-03-29 19:26'
p510
sg105
(dp511
g26
I00
sg12
I00
sg2
I00
sg25
I00
ssg104
g506
sg107
(lp512
g18
ag25
ag2
ag29
ag28
ag27
ag439
ag12
ag26
ag477
ag473
ag433
ag480
ag435
ag484
ag210
ag135
ag131
ag126
ag129
ag137
ag136
ag147
ag149
ag143
ag148
ag141
asg115
(dp513
g126
g230
sg2
g117
sg433
S'degree of freq polynomial'
p514
sg129
g232
sg131
g233
sg12
g121
sg135
g236
sg136
g237
sg137
g238
sg435
S'sub-tile size (None=entire tile)'
p515
sg141
g239
sg143
g240
sg27
g122
sg29
g122
sg147
g242
sg473
S'degree of time polynomial'
p516
sg477
g516
sg480
g514
sg484
g515
sg439
S'obsolete, kept only for upward compatibility'
p517
sg26
g120
sg25
g118
sg210
g244
sg148
g245
sg149
g246
sg28
g122
sssg27
g52
sg29
g52
sg147
F1.0
sg473
g475
sg477
I0
sg480
g482
sg484
g486
sg439
I01
sg26
g491
sg25
g497
sg210
I01
sg148
Nsg149
Nsg28
g52
ssg113
(dp518
g126
I00
sg2
S'@@polrep'
p519
sg129
g130
sS'fdeg_Dell'
p520
S'@fdeg_Dang'
p521
sS'coupled_XY_Dell'
p522
I01
sg131
I00
sg12
S'@@parmtable'
p523
sS'subtile_size_Dang'
p524
Nsg135
I01
sg136
I10
sg137
g138
sg141
g142
sg143
Nsg18
(dp525
g20
S'MG_JEN_Joneset::DJones_WSRT()'
p526
sg22
g113
sg23
(dp527
g137
I01
sg2
I01
sg147
I01
sg25
I01
sg129
I01
sg143
I01
sg141
I01
sg26
I01
sg148
I01
sg149
I01
sg12
I01
sg27
I01
sg28
I01
sg29
I01
sg136
I01
ssg30
S'MG_JEN_JonesetDJones_WSRT'
p528
sg32
g33
sg123
S'defines 2x2 DJones_WSRT (polarisation leakage) matrices'
p529
sg34
S'MG_JEN_Joneset::DJones_WSRT()  version=16dec2005  defined=2006-03-29 19:26'
p530
sg36
S'DJones_WSRT'
p531
sg38
(dp532
g126
(lp533
I01
aI00
aS'@@reset_funklet'
p534
asg2
(lp535
g3
ag41
ag519
asg129
(lp536
g130
aS'@@color'
p537
asg520
(lp538
I0
aI1
aI2
aI3
ag521
aS'@@fdeg_Dell'
p539
asg522
(lp540
I01
aI00
aS'@@coupled_XY_Dell'
p541
asg131
(lp542
I01
aI00
aS'@@save_all'
p543
asg12
(lp544
Nag69
ag523
asg524
(lp545
NaI1
aI2
aI5
aI10
aI20
aI50
aI100
aI200
aI500
aS'@@subtile_size_Dang'
p546
asg135
(lp547
I01
aI00
aS'@@auto_save'
p548
asg136
(lp549
I10
aS'@@size'
p550
asg137
(lp551
g138
aS'@@style'
p552
asg141
(lp553
g142
aS'@@condeq_corrs'
p554
asg143
(lp555
NaS'@@funklet_shape'
p556
asg27
(lp557
g60
aS'@@@Jsequence_KJones'
p558
asS'subtile_size_Dell'
p559
(lp560
S'@subtile_size_Dang'
p561
aNaI1
aI2
aI5
aI10
aI20
aI50
aI100
aI200
aI500
aS'@@subtile_size_Dell'
p562
asg29
(lp563
g60
aS'@@@Jsequence'
p564
asS'fdeg_Dang'
p565
(lp566
I0
aI1
aI2
aI3
aS'@@fdeg_Dang'
p567
asg147
(lp568
F1.0
aS'@@c00_default'
p569
asg26
(lp570
I00
aS'@@uvplane_effect'
p571
asS'tdeg_Dell'
p572
(lp573
I0
aI1
aI2
aI3
aS'@tdeg_Dang'
p574
aS'@@tdeg_Dell'
p575
asS'coupled_XY_Dang'
p576
(lp577
I01
aI00
aS'@@coupled_XY_Dang'
p578
asS'tdeg_Dang'
p579
(lp580
I0
aI1
aI2
aI3
aS'@@tdeg_Dang'
p581
asg25
(lp582
(lp583
I0
aI1
aI2
aI3
aI4
aa(lp584
I0
aI1
aI2
aI3
aI4
aI5
aI6
aa(lp585
I0
aI1
aI2
aI3
aI4
aI5
aI6
aI7
aI8
aI9
aI10
aI11
aI12
aI13
aa(lp586
I0
aI1
aI2
aI3
aI4
aI5
aI6
aI7
aI8
aI9
aI10
aI11
aI12
aI13
aI14
aag47
aS'@@stations'
p587
asg210
(lp588
I01
aI00
aS'@@use_previous'
p589
asg148
(lp590
NaS'@@subtile_size'
p591
asg149
(lp592
NaS'@@tfdeg'
p593
asg28
(lp594
g60
aS'@@@Jsequence_simul'
p595
assg77
g78
sg79
I00
sg80
S'2006-03-29 19:26'
p596
sg82
g351
sg84
S'MG_JEN_Joneset'
p597
sg224
(dp598
g126
I00
sg522
I00
sg210
I00
sg576
I00
sg131
I00
sg135
I00
ssg86
S'** Specific description of inarg record for: MG_JEN_Joneset::DJones_WSRT()  version=16dec2005  defined=2006-03-29 19:26'
p599
sg105
(dp600
g26
I00
sg12
I00
sg2
I00
sg25
I00
ssg104
g596
sg107
(lp601
g18
ag25
ag2
ag29
ag28
ag27
ag576
ag522
ag12
ag26
ag579
ag572
ag565
ag520
ag524
ag559
ag210
ag135
ag131
ag126
ag129
ag137
ag136
ag147
ag149
ag143
ag148
ag141
asg115
(dp602
g126
g230
sg2
g117
sg129
g232
sg520
S'degree of freq polynomial'
p603
sg522
S'if True, XDell = -YDell per station'
p604
sg131
g233
sg12
g121
sg524
S'sub-tile size (None=entire tile)'
p605
sg135
g236
sg136
g237
sg137
g238
sg141
g239
sg143
g240
sg27
g122
sg559
g605
sg29
g122
sg565
g603
sg147
g242
sg26
g120
sg572
S'degree of time polynomial'
p606
sg576
S'if True, XDang = YDang per station'
p607
sg579
g606
sg25
g118
sg210
g244
sg148
g245
sg149
g246
sg28
g122
sssg27
g60
sg559
g561
sg29
g60
sg565
I0
sg147
F1.0
sg26
g571
sg572
g574
sg576
I01
sg579
I0
sg25
g587
sg210
I01
sg148
Nsg149
Nsg28
g60
ssg27
Nsg28
Nsg29
NssS'LSM_solve'
p608
S'lsm_current.lsm'
p609
sS'[simul_uvp]./MG_JEN_Cohset.Jones()'
p610
(dp611
S'[simul_uvp]./MG_JEN_Joneset.JJones()'
p612
(dp613
S'unop'
p614
S'Cos'
p615
sg207
I00
sg2
S'@@polrep'
p616
sg129
S'yellow'
p617
sS'stddev_period'
p618
F0.10000000000000001
sg132
NsS'fdeg'
p619
I0
sg136
I5
sS'mean_period_s'
p620
I500
sS'mean_tampl'
p621
F0.20000000000000001
sg18
(dp622
g20
S'MG_JEN_Joneset::JJones()'
p623
sg22
g612
sg23
(dp624
g614
I00
sg137
I01
sg2
I01
sg147
I01
sg25
I01
sg129
I01
sS'timescale_min'
p625
I01
sg619
I01
sg27
I01
sS'c00_scale'
p626
I01
sg28
I01
sg29
I01
sg136
I01
ssg30
S'MG_JEN_JonesetJJones'
p627
sg32
g33
sg123
g151
sg34
S'MG_JEN_Joneset::JJones()  version=14feb2006  defined=2006-03-29 19:26'
p628
sg36
S'JJones'
p629
sg38
(dp630
g614
(lp631
g615
aS'Sin'
p632
a(lp633
g615
ag632
aaNaS'@@unop'
p634
asg27
(lp635
g63
aS'@@@Jsequence_KJones'
p636
asg137
(lp637
S'triangle'
p638
aS'@@style'
p639
asg207
(lp640
I01
aI00
aS'@@diagonal_only'
p641
asg2
(lp642
g3
ag41
ag616
asg147
(lp643
F1.0
aS'@@c00_default'
p644
asg25
(lp645
(lp646
I0
aI1
aI2
aI3
aI4
aa(lp647
I0
aI1
aI2
aI3
aI4
aI5
aI6
aa(lp648
I0
aI1
aI2
aI3
aI4
aI5
aI6
aI7
aI8
aI9
aI10
aI11
aI12
aI13
aa(lp649
I0
aI1
aI2
aI3
aI4
aI5
aI6
aI7
aI8
aI9
aI10
aI11
aI12
aI13
aI14
aag47
aS'@@stations'
p650
asg129
(lp651
g617
aS'@@color'
p652
asg618
(lp653
I0
aF0.01
aF0.10000000000000001
aF0.20000000000000001
aF0.5
aS'@@stddev_period'
p654
asg625
(lp655
I20
aS'@@timescale_min'
p656
asg132
(lp657
Na(lp658
I14
aa(lp659
I1
aag167
aS'@@all4_always'
p660
asS'mean_period'
p661
(lp662
F0.29999999999999999
aF0.5
aI1
aI2
aI3
aS'@@mean_period'
p663
asS'stddev_c00'
p664
(lp665
I0
aF0.0001
aF0.001
aF0.01
aF0.10000000000000001
aI1
aS'@@stddev_c00'
p666
asg619
(lp667
I0
aS'@@fdeg'
p668
asS'mean_c00'
p669
(lp670
I0
aF0.10000000000000001
aF0.20000000000000001
aF0.5
aF-0.10000000000000001
aS'@@mean_c00'
p671
asg626
(lp672
F1.0
aS'@@c00_scale'
p673
asg28
(lp674
g63
aS'@@@Jsequence_simul'
p675
asg29
(lp676
g63
aS'@@@Jsequence'
p677
asg136
(lp678
I5
aS'@@size'
p679
assg77
S'simul_uvp'
p680
sg79
I00
sg80
S'2006-03-29 19:26'
p681
sg82
g222
sg84
S'MG_JEN_Joneset'
p682
sg224
(dp683
g207
I00
ssg86
S'** Specific description of inarg record for: MG_JEN_Joneset::JJones()  version=14feb2006  defined=2006-03-29 19:26'
p684
sg105
(dp685
g2
I00
sg25
I00
ssg104
g681
sg107
(lp686
g18
ag25
ag2
ag29
ag28
ag27
ag207
ag132
ag669
ag664
ag661
ag618
ag614
ag625
ag619
ag129
ag137
ag136
ag147
ag626
asg115
(dp687
g614
S'time-variability function'
p688
sg27
g122
sg137
g238
sg207
g243
sg2
g117
sg147
S'default value of c00'
p689
sg25
g118
sg129
g232
sg618
S'scatter in period T (fraction of timescale_min)'
p690
sg625
S'group timescale in minutes'
p691
sg132
g234
sg661
S'mean time-period T (fraction of timescale_min)'
p692
sg664
S'scatter in EXTRA c00 (fraction of c00_scale'
p693
sg619
S'degree of freq polynomial'
p694
sg669
S'mean of EXTRA c00 (fraction of c00_scale)'
p695
sg626
S'scale of c00'
p696
sg28
g122
sg29
g122
sg136
S'size of plotted symbol'
p697
sssg27
g63
sg29
g63
sS'stddev_period_s'
p698
I50
sg147
F1.0
sg137
g638
sg669
F0.10000000000000001
sg25
g650
sg625
I20
sg661
F1.0
sg664
F0.01
sg626
F1.0
sg28
g63
sS'stddev_tampl'
p699
F0.02
ssg2
S'@@polrep'
p700
sS'[simul_uvp]./MG_JEN_Joneset.KJones()'
p701
(dp702
g2
S'@@polrep'
p703
sg25
S'@@stations'
p704
sg18
(dp705
g20
S'MG_JEN_Joneset::KJones()'
p706
sg22
g701
sg23
(dp707
g27
I01
sg28
I01
sg25
I01
sg2
I01
sg29
I01
ssg30
S'MG_JEN_JonesetKJones'
p708
sg32
g33
sg123
g254
sg34
S'MG_JEN_Joneset::KJones()  version=12dec2005  defined=2006-03-29 19:26'
p709
sg36
S'KJones'
p710
sg38
(dp711
g27
(lp712
g58
aS'@@@Jsequence_KJones'
p713
asg28
(lp714
g58
aS'@@@Jsequence_simul'
p715
asg25
(lp716
(lp717
I0
aI1
aI2
aI3
aI4
aa(lp718
I0
aI1
aI2
aI3
aI4
aI5
aI6
aa(lp719
I0
aI1
aI2
aI3
aI4
aI5
aI6
aI7
aI8
aI9
aI10
aI11
aI12
aI13
aa(lp720
I0
aI1
aI2
aI3
aI4
aI5
aI6
aI7
aI8
aI9
aI10
aI11
aI12
aI13
aI14
aag47
ag704
asg2
(lp721
g3
ag41
ag703
asg29
(lp722
g58
aS'@@@Jsequence'
p723
assg77
g680
sg79
I00
sg80
S'2006-03-29 19:26'
p724
sg82
g271
sg84
S'MG_JEN_Joneset'
p725
sg86
S'** Specific description of inarg record for: MG_JEN_Joneset::KJones()  version=12dec2005  defined=2006-03-29 19:26'
p726
sg105
(dp727
g2
I00
sg25
I00
ssg104
g724
sg107
(lp728
g18
ag25
ag2
ag29
ag28
ag27
asg115
(dp729
g27
g122
sg28
g122
sg25
g118
sg2
g117
sg29
g122
sssg27
g58
sg28
g58
sg29
g58
ssS'[simul_uvp]./MG_JEN_Joneset.BJones()'
p730
(dp731
g614
g615
sg2
S'@@polrep'
p732
sg129
g617
sg618
F0.10000000000000001
sg619
I0
sg136
I5
sg137
g638
sg621
F0.20000000000000001
sg18
(dp733
g20
S'MG_JEN_Joneset::BJones()'
p734
sg22
g730
sg23
(dp735
g614
I00
sg137
I01
sg2
I01
sg147
I01
sg25
I01
sg129
I01
sg625
I01
sg619
I01
sg27
I01
sg626
I01
sg28
I01
sg29
I01
sg136
I01
ssg30
S'MG_JEN_JonesetBJones'
p736
sg32
g33
sg123
g288
sg34
S'MG_JEN_Joneset::BJones()  version=16dec2005  defined=2006-03-29 19:26'
p737
sg36
S'BJones'
p738
sg38
(dp739
g614
(lp740
g615
ag632
a(lp741
g615
ag632
aaNaS'@@unop'
p742
asg137
(lp743
g638
aS'@@style'
p744
asg2
(lp745
g3
ag41
ag732
asg147
(lp746
F1.0
aS'@@c00_default'
p747
asg25
(lp748
(lp749
I0
aI1
aI2
aI3
aI4
aa(lp750
I0
aI1
aI2
aI3
aI4
aI5
aI6
aa(lp751
I0
aI1
aI2
aI3
aI4
aI5
aI6
aI7
aI8
aI9
aI10
aI11
aI12
aI13
aa(lp752
I0
aI1
aI2
aI3
aI4
aI5
aI6
aI7
aI8
aI9
aI10
aI11
aI12
aI13
aI14
aag47
aS'@@stations'
p753
asg129
(lp754
g617
aS'@@color'
p755
asg618
(lp756
I0
aF0.01
aF0.10000000000000001
aF0.20000000000000001
aF0.5
aS'@@stddev_period'
p757
asg669
(lp758
I0
aF0.10000000000000001
aF0.20000000000000001
aF0.5
aF-0.10000000000000001
aS'@@mean_c00'
p759
asg625
(lp760
I20
aS'@@timescale_min'
p761
asg661
(lp762
F0.29999999999999999
aF0.5
aI1
aI2
aI3
aS'@@mean_period'
p763
asg664
(lp764
I0
aF0.0001
aF0.001
aF0.01
aF0.10000000000000001
aI1
aS'@@stddev_c00'
p765
asg619
(lp766
I0
aS'@@fdeg'
p767
asg27
(lp768
g54
aS'@@@Jsequence_KJones'
p769
asg626
(lp770
F1.0
aS'@@c00_scale'
p771
asg28
(lp772
g54
aS'@@@Jsequence_simul'
p773
asg29
(lp774
g54
aS'@@@Jsequence'
p775
asg136
(lp776
I5
aS'@@size'
p777
assg77
g680
sg79
I00
sg80
S'2006-03-29 19:26'
p778
sg82
g351
sg84
S'MG_JEN_Joneset'
p779
sg86
S'** Specific description of inarg record for: MG_JEN_Joneset::BJones()  version=16dec2005  defined=2006-03-29 19:26'
p780
sg105
(dp781
g2
I00
sg25
I00
ssg104
g778
sg107
(lp782
g18
ag25
ag2
ag29
ag28
ag27
ag669
ag664
ag661
ag618
ag614
ag625
ag619
ag129
ag137
ag136
ag147
ag626
asg115
(dp783
g614
g688
sg137
g238
sg2
g117
sg147
g689
sg25
g118
sg129
g232
sg618
g690
sg669
g695
sg625
g691
sg661
g692
sg664
g693
sg619
g694
sg27
g122
sg626
g696
sg28
g122
sg29
g122
sg136
g697
sssg27
g54
sg29
g54
sg698
I100
sg147
F1.0
sg620
I5000
sg669
F0.10000000000000001
sg25
g753
sg625
I20
sg661
F1.0
sg664
F0.01
sg626
F1.0
sg28
g54
sg699
F0.02
ssg25
S'@@stations'
p784
sg26
S'@@uvplane_effect'
p785
sg12
S'@@parmtable'
p786
sS'[simul_uvp]./MG_JEN_Joneset.DJones_WSRT()'
p787
(dp788
g614
g615
sg2
S'@@polrep'
p789
sg129
g617
sg618
F0.10000000000000001
sg522
I01
sg619
I0
sg136
I5
sg137
g638
sg621
F0.002
sg18
(dp790
g20
S'MG_JEN_Joneset::DJones_WSRT()'
p791
sg22
g787
sg23
(dp792
g614
I00
sg137
I01
sg2
I01
sg147
I01
sg25
I01
sg129
I01
sg625
I01
sg619
I01
sg27
I01
sg626
I01
sg28
I01
sg29
I01
sg136
I01
ssg30
S'MG_JEN_JonesetDJones_WSRT'
p793
sg32
g33
sg123
g529
sg34
S'MG_JEN_Joneset::DJones_WSRT()  version=16dec2005  defined=2006-03-29 19:26'
p794
sg36
S'DJones_WSRT'
p795
sg38
(dp796
g614
(lp797
g615
ag632
a(lp798
g615
ag632
aaNaS'@@unop'
p799
asg27
(lp800
g60
aS'@@@Jsequence_KJones'
p801
asg137
(lp802
g638
aS'@@style'
p803
asg522
(lp804
I01
aI00
aS'@@coupled_XY_Dell'
p805
asg2
(lp806
g3
ag41
ag789
asg147
(lp807
F1.0
aS'@@c00_default'
p808
asg25
(lp809
(lp810
I0
aI1
aI2
aI3
aI4
aa(lp811
I0
aI1
aI2
aI3
aI4
aI5
aI6
aa(lp812
I0
aI1
aI2
aI3
aI4
aI5
aI6
aI7
aI8
aI9
aI10
aI11
aI12
aI13
aa(lp813
I0
aI1
aI2
aI3
aI4
aI5
aI6
aI7
aI8
aI9
aI10
aI11
aI12
aI13
aI14
aag47
aS'@@stations'
p814
asg129
(lp815
g617
aS'@@color'
p816
asg618
(lp817
I0
aF0.01
aF0.10000000000000001
aF0.20000000000000001
aF0.5
aS'@@stddev_period'
p818
asg625
(lp819
I20
aS'@@timescale_min'
p820
asg661
(lp821
F0.29999999999999999
aF0.5
aI1
aI2
aI3
aS'@@mean_period'
p822
asg664
(lp823
I0
aF0.0001
aF0.001
aF0.01
aF0.10000000000000001
aI1
aS'@@stddev_c00'
p824
asg619
(lp825
I0
aS'@@fdeg'
p826
asg669
(lp827
I0
aF0.10000000000000001
aF0.20000000000000001
aF0.5
aF-0.10000000000000001
aS'@@mean_c00'
p828
asg626
(lp829
F1.0
aS'@@c00_scale'
p830
asg28
(lp831
g60
aS'@@@Jsequence_simul'
p832
asg29
(lp833
g60
aS'@@@Jsequence'
p834
asg576
(lp835
I01
aI00
aS'@@coupled_XY_Dang'
p836
asg136
(lp837
I5
aS'@@size'
p838
assg77
g680
sg79
I00
sg80
S'2006-03-29 19:26'
p839
sg82
g351
sg84
S'MG_JEN_Joneset'
p840
sg224
(dp841
g576
I00
sg522
I00
ssg86
S'** Specific description of inarg record for: MG_JEN_Joneset::DJones_WSRT()  version=16dec2005  defined=2006-03-29 19:26'
p842
sg105
(dp843
g2
I00
sg25
I00
ssg104
g839
sg107
(lp844
g18
ag25
ag2
ag29
ag28
ag27
ag576
ag522
ag669
ag664
ag661
ag618
ag614
ag625
ag619
ag129
ag137
ag136
ag147
ag626
asg115
(dp845
g614
g688
sg27
g122
sg137
g238
sg522
g604
sg2
g117
sg147
g689
sg25
g118
sg129
g232
sg618
g690
sg625
g691
sg661
g692
sg664
g693
sg619
g694
sg669
g695
sg626
g696
sg28
g122
sg29
g122
sg576
g607
sg136
g697
sssg27
g60
sg29
g60
sg698
I100
sg147
F1.0
sg620
I3000
sg669
F0.10000000000000001
sg576
I01
sg25
g814
sg625
I20
sg661
F1.0
sg664
F0.01
sg626
F1.0
sg28
g60
sg699
F0.00020000000000000001
ssg18
(dp846
g20
g21
sg22
g610
sg23
(dp847
g2
I01
sg25
I01
sg26
I01
sg12
I01
sg27
I01
sg28
I01
sg29
I01
ssg30
S'MG_JEN_CohsetJones'
p848
sg32
g33
sg34
S'MG_JEN_Cohset::Jones()  version=25dec2005  defined=2006-03-29 19:26'
p849
sg36
S'Jones'
p850
sg38
(dp851
g2
(lp852
g3
ag41
ag700
asg25
(lp853
(lp854
I0
aI1
aI2
aI3
aI4
aa(lp855
I0
aI1
aI2
aI3
aI4
aI5
aI6
aa(lp856
I0
aI1
aI2
aI3
aI4
aI5
aI6
aI7
aI8
aI9
aI10
aI11
aI12
aI13
aa(lp857
I0
aI1
aI2
aI3
aI4
aI5
aI6
aI7
aI8
aI9
aI10
aI11
aI12
aI13
aI14
aag47
ag784
asg26
(lp858
I00
ag785
asg12
(lp859
Nag69
ag786
asg27
(lp860
NaS'@@@Jsequence_KJones'
p861
asg28
(lp862
NaS'@@@Jsequence_simul'
p863
asS'Jsequence_simul_uvp'
p864
(lp865
(lp866
g52
aa(lp867
g54
aa(lp868
g56
aa(lp869
g58
aa(lp870
g60
aa(lp871
g52
ag60
aa(lp872
g63
aa(lp873
aS'@@Jsequence_simul_uvp'
p874
asg29
(lp875
NaS'@@@Jsequence'
p876
assg77
g680
sg79
I00
sg80
S'2006-03-29 19:26'
p877
sg82
g83
sg84
S'MG_JEN_Cohset'
p878
sg86
S'** Specific description of inarg record for: MG_JEN_Cohset::Jones()  version=25dec2005  defined=2006-03-29 19:26'
p879
sg88
(dp880
g90
S'** JEN_inarg.attach(): attached: [simul_uvp]./MG_JEN_Joneset.FJones()'
p881
sg92
S'** JEN_inarg.attach(): attached: [simul_uvp]./MG_JEN_Joneset.GJones()'
p882
sg94
S'** JEN_inarg.attach(): attached: [simul_uvp]./MG_JEN_Joneset.KJones()'
p883
sg96
S'** JEN_inarg.attach(): attached: [simul_uvp]./MG_JEN_Joneset.BJones()'
p884
sg98
S'** JEN_inarg.attach(): attached: [simul_uvp]./MG_JEN_Joneset.JJones()'
p885
sg100
S'** JEN_inarg.attach(): attached: [simul_uvp]./MG_JEN_Joneset.DJones_WSRT()'
p886
sg102
S"  1: ..[simul_uvp]./MG_JEN_Cohset.Jones() (qual=None): .modify(Jsequence_simul_uvp):   []  ->  ['GJones']"
p887
ssg104
g877
sg105
(dp888
g26
I00
sg12
I00
sg2
I00
sg25
I00
ssg107
(lp889
g18
ag25
ag2
ag29
ag28
ag27
ag12
ag26
ag864
aS'[simul_uvp]./MG_JEN_Joneset.GJones()'
p890
aS'[simul_uvp]./MG_JEN_Joneset.FJones()'
p891
ag730
ag701
ag787
ag612
asg115
(dp892
g2
g117
sg25
g118
sg26
g120
sg12
g121
sg27
g122
sg28
g122
sg864
g119
sg29
g122
ssg123
g124
ssg27
Nsg28
Nsg864
(lp893
g52
asg890
(dp894
g614
g615
sg27
g52
sg137
g638
sg2
S'@@polrep'
p895
sg147
F1.0
sg25
S'@@stations'
p896
sg129
g617
sg618
F0.10000000000000001
sg625
I20
sg29
g52
sg661
F1.0
sg664
F0.01
sg18
(dp897
g20
S'MG_JEN_Joneset::GJones()'
p898
sg22
g890
sg23
(dp899
g614
I00
sg137
I01
sg2
I01
sg147
I01
sg25
I01
sg129
I01
sg625
I01
sg29
I01
sg619
I01
sg27
I01
sg626
I01
sg28
I01
sg439
I01
sg136
I01
ssg30
S'MG_JEN_JonesetGJones'
p900
sg32
g33
sg123
g441
sg34
S'MG_JEN_Joneset::GJones()  version=15dec2005  defined=2006-03-29 19:26'
p901
sg36
S'GJones'
p902
sg38
(dp903
g614
(lp904
g615
ag632
a(lp905
g615
ag632
aaNaS'@@unop'
p906
asg27
(lp907
g52
aS'@@@Jsequence_KJones'
p908
asg137
(lp909
g638
aS'@@style'
p910
asg2
(lp911
g3
ag41
ag895
asg147
(lp912
F1.0
aS'@@c00_default'
p913
asg25
(lp914
(lp915
I0
aI1
aI2
aI3
aI4
aa(lp916
I0
aI1
aI2
aI3
aI4
aI5
aI6
aa(lp917
I0
aI1
aI2
aI3
aI4
aI5
aI6
aI7
aI8
aI9
aI10
aI11
aI12
aI13
aa(lp918
I0
aI1
aI2
aI3
aI4
aI5
aI6
aI7
aI8
aI9
aI10
aI11
aI12
aI13
aI14
aag47
ag896
asg129
(lp919
g617
aS'@@color'
p920
asg618
(lp921
I0
aF0.01
aF0.10000000000000001
aF0.20000000000000001
aF0.5
aS'@@stddev_period'
p922
asg625
(lp923
I20
aS'@@timescale_min'
p924
asg29
(lp925
g52
aS'@@@Jsequence'
p926
asg661
(lp927
F0.29999999999999999
aF0.5
aI1
aI2
aI3
aS'@@mean_period'
p928
asg664
(lp929
I0
aF0.0001
aF0.001
aF0.01
aF0.10000000000000001
aI1
aS'@@stddev_c00'
p930
asg619
(lp931
I0
aS'@@fdeg'
p932
asg669
(lp933
I0
aF0.10000000000000001
aF0.20000000000000001
aF0.5
aF-0.10000000000000001
aS'@@mean_c00'
p934
asg626
(lp935
F1.0
aS'@@c00_scale'
p936
asg28
(lp937
g52
aS'@@@Jsequence_simul'
p938
asg439
(lp939
I01
aI00
aS'@@Gpolar'
p940
asg136
(lp941
I5
aS'@@size'
p942
assg77
g680
sg79
I00
sg80
S'2006-03-29 19:26'
p943
sg82
g507
sg84
S'MG_JEN_Joneset'
p944
sg224
(dp945
g439
I00
ssg86
S'** Specific description of inarg record for: MG_JEN_Joneset::GJones()  version=15dec2005  defined=2006-03-29 19:26'
p946
sg105
(dp947
g2
I00
sg25
I00
ssg104
g943
sg107
(lp948
g18
ag25
ag2
ag29
ag28
ag27
ag439
ag669
ag664
ag661
ag618
ag614
ag625
ag619
ag129
ag137
ag136
ag147
ag626
asg115
(dp949
g614
g688
sg27
g122
sg137
g238
sg2
g117
sg147
g689
sg25
g118
sg129
g232
sg618
g690
sg625
g691
sg29
g122
sg661
g692
sg664
g693
sg619
g694
sg669
g695
sg626
g696
sg28
g122
sg439
g517
sg136
g697
sssg619
I0
sg626
F1.0
sg669
F0.10000000000000001
sg28
g52
sg439
I01
sg136
I5
ssg891
(dp950
g614
g615
sg2
S'@@polrep'
p951
sg129
g617
sg618
F0.10000000000000001
sg619
I0
sg136
I5
sg137
g638
sg621
F0.20000000000000001
sg18
(dp952
g20
S'MG_JEN_Joneset::FJones()'
p953
sg22
g891
sg23
(dp954
g614
I00
sg137
I01
sg2
I01
sg147
I01
sg25
I01
sg129
I01
sg625
I01
sg619
I01
sg27
I01
sg626
I01
sg28
I01
sg29
I01
sg136
I01
ssg30
S'MG_JEN_JonesetFJones'
p955
sg32
g33
sg123
g367
sg34
S'MG_JEN_Joneset::FJones()  version=16dec2005  defined=2006-03-29 19:26'
p956
sg36
S'FJones'
p957
sg38
(dp958
g614
(lp959
g615
ag632
a(lp960
g615
ag632
aaNaS'@@unop'
p961
asg137
(lp962
g638
aS'@@style'
p963
asg2
(lp964
g3
ag41
ag951
asg147
(lp965
F1.0
aS'@@c00_default'
p966
asg25
(lp967
(lp968
I0
aI1
aI2
aI3
aI4
aa(lp969
I0
aI1
aI2
aI3
aI4
aI5
aI6
aa(lp970
I0
aI1
aI2
aI3
aI4
aI5
aI6
aI7
aI8
aI9
aI10
aI11
aI12
aI13
aa(lp971
I0
aI1
aI2
aI3
aI4
aI5
aI6
aI7
aI8
aI9
aI10
aI11
aI12
aI13
aI14
aag47
aS'@@stations'
p972
asg129
(lp973
g617
aS'@@color'
p974
asg618
(lp975
I0
aF0.01
aF0.10000000000000001
aF0.20000000000000001
aF0.5
aS'@@stddev_period'
p976
asg669
(lp977
I0
aF0.10000000000000001
aF0.20000000000000001
aF0.5
aF-0.10000000000000001
aS'@@mean_c00'
p978
asg625
(lp979
I20
aS'@@timescale_min'
p980
asg661
(lp981
F0.29999999999999999
aF0.5
aI1
aI2
aI3
aS'@@mean_period'
p982
asg664
(lp983
I0
aF0.0001
aF0.001
aF0.01
aF0.10000000000000001
aI1
aS'@@stddev_c00'
p984
asg619
(lp985
I0
aS'@@fdeg'
p986
asg27
(lp987
g56
aS'@@@Jsequence_KJones'
p988
asg626
(lp989
F1.0
aS'@@c00_scale'
p990
asg28
(lp991
g56
aS'@@@Jsequence_simul'
p992
asg29
(lp993
g56
aS'@@@Jsequence'
p994
asg136
(lp995
I5
aS'@@size'
p996
assg77
g680
sg79
I00
sg80
S'2006-03-29 19:26'
p997
sg82
g351
sg84
S'MG_JEN_Joneset'
p998
sg86
S'** Specific description of inarg record for: MG_JEN_Joneset::FJones()  version=16dec2005  defined=2006-03-29 19:26'
p999
sg105
(dp1000
g2
I00
sg25
I00
ssg104
g997
sg107
(lp1001
g18
ag25
ag2
ag29
ag28
ag27
ag669
ag664
ag661
ag618
ag614
ag625
ag619
ag129
ag137
ag136
ag147
ag626
asg115
(dp1002
g614
g688
sg137
g238
sg2
g117
sg147
g689
sg25
g118
sg129
g232
sg618
g690
sg669
g695
sg625
g691
sg661
g692
sg664
g693
sg619
g694
sg27
g122
sg626
g696
sg28
g122
sg29
g122
sg136
g697
sssg27
g56
sg29
g56
sg698
I50
sg147
F1.0
sg620
I500
sg669
F0.10000000000000001
sg25
g972
sg625
I20
sg661
F1.0
sg664
F0.01
sg626
F1.0
sg28
g56
sg699
F0.02
ssg29
NssS'[solve]./MG_JEN_Sixpack.newstar_source()'
p1003
(dp1004
S'f0'
p1005
F1000000.0
sg126
I00
sS'major'
p1006
F0.0
sS'unsolvable'
p1007
I00
sg129
g130
sg131
I00
sS'shape'
p1008
S'point'
p1009
sg12
g13
sS'Upct'
p1010
Nsg135
I01
sg136
I10
sg137
g138
sS'I0'
p1011
F1.0
sg148
Nsg141
g142
sS'Vpct'
p1012
Nsg143
NsS'pa'
p1013
F0.0
sg18
(dp1014
g20
S'MG_JEN_Sixpack::newstar_source()'
p1015
sg22
g1003
sg104
S'2006-03-29 19:26'
p1016
sg23
(dp1017
g1005
I01
sg1006
I01
sg1007
I01
sS'name'
p1018
I01
sg147
I01
sg143
I01
sg129
I01
sg1008
I01
sS'fsr_trace'
p1019
I01
sS'punit'
p1020
I00
sg148
I01
sg1013
I01
sg141
I01
sg149
I01
sg137
I01
sS'minor'
p1021
I01
sg136
I01
ssg30
S'MG_JEN_Sixpacknewstar_source'
p1022
sg77
S'solve'
p1023
sg32
g33
sg34
S'MG_JEN_Sixpack::newstar_source()  version=10feb2006  defined=2006-03-29 19:26'
p1024
sg36
S'newstar_source'
p1025
sg38
(dp1026
g1005
(lp1027
F1000000.0
aS'@@f0'
p1028
asg126
(lp1029
I01
aI00
aS'@@reset_funklet'
p1030
asg1006
(lp1031
F0.0
aF1.0
aF10.0
aF100.0
aS'@@major'
p1032
asg1007
(lp1033
I01
aI00
aS'@@unsolvable'
p1034
asg129
(lp1035
g130
aS'@@color'
p1036
asg131
(lp1037
I01
aI00
aS'@@save_all'
p1038
asg1008
(lp1039
g1009
aS'ell.gauss'
p1040
aS'@@shape'
p1041
asg12
(lp1042
NaS'@@parmtable'
p1043
asg1010
(lp1044
NaF-0.10000000000000001
aF0.050000000000000003
aF-0.01
aS'@@Upct'
p1045
asg135
(lp1046
I01
aI00
aS'@@auto_save'
p1047
asg136
(lp1048
I10
aS'@@size'
p1049
asg137
(lp1050
g138
aS'@@style'
p1051
asg1011
(lp1052
F1.0
aF10.0
aS'@@I0'
p1053
asg148
(lp1054
NaS'@@subtile_size'
p1055
asg141
(lp1056
g142
aS'@@condeq_corrs'
p1057
asg1012
(lp1058
NaF0.01
aF-0.0050000000000000001
aF0.001
aS'@@Vpct'
p1059
asg143
(lp1060
NaS'@@funklet_shape'
p1061
asg1013
(lp1062
F0.0
aF1.0
aF-0.5
aS'@@pa'
p1063
asS'RA'
p1064
(lp1065
F0.0
aF0.5
aF1.0
aF1.4950000000000001
aF4.3570000000000002
aS'@@RA'
p1066
asS'RM'
p1067
(lp1068
NaF1.0
aF3.0
aF10.0
aF-10.0
aF60.0
aS'@@RM'
p1069
asg1021
(lp1070
F0.0
aF0.5
aF5.0
aF50.0
aS'@@minor'
p1071
asg147
(lp1072
F1.0
aS'@@c00_default'
p1073
asS'Qpct'
p1074
(lp1075
NaF0.10000000000000001
aF-0.050000000000000003
aF0.01
aS'@@Qpct'
p1076
asg1020
(lp1077
S'unpol'
p1078
aS'unpol2'
p1079
aS'unpol10'
p1080
aS'QUV'
p1081
aS'QU'
p1082
aS'Qonly'
p1083
aS'Uonly'
p1084
aS'Vonly'
p1085
aS'3c147'
p1086
aS'3c286'
p1087
aS'3c48'
p1088
aS'3c295'
p1089
aS'D1'
p1090
aS'RMtest'
p1091
aS'SItest'
p1092
aS'@@punit'
p1093
asS'Dec'
p1094
(lp1095
F0.5
aF1.0
aF0.87
aF1.0920000000000001
aS'@@Dec'
p1096
asg1018
(lp1097
NaS'@@name'
p1098
asg1019
(lp1099
I01
aI00
aS'@@fsr_trace'
p1100
asg210
(lp1101
I01
aI00
aS'@@use_previous'
p1102
asS'SI'
p1103
(lp1104
NaF-0.69999999999999996
a(lp1105
F0.44700000000000001
aF-0.184
aaS'@@SI'
p1106
asg149
(lp1107
NaS'@@tfdeg'
p1108
assS'callback'
p1109
(dp1110
g1020
I01
ssg82
S'10feb2006'
p1111
sg80
g1016
sg84
S'MG_JEN_Sixpack'
p1112
sg224
(dp1113
g126
I00
sg1007
I00
sg1019
I00
sg131
I00
sg210
I00
sg135
I00
ssg86
S'** Specific description of inarg record for: MG_JEN_Sixpack::newstar_source()  version=10feb2006  defined=2006-03-29 19:26'
p1114
sg88
(dp1115
g92
S'  1: ..[solve]./MG_JEN_Sixpack.newstar_source() (qual=None): .modify(parmtable):   None  ->  simul_lsm_GJones'
p1116
ssg79
I00
sg107
(lp1117
g18
ag1020
ag1018
ag12
ag1007
ag1011
ag1074
ag1010
ag1012
ag1067
ag1103
ag1005
ag1064
ag1094
ag1019
ag1008
ag1006
ag1021
ag1013
ag210
ag135
ag131
ag126
ag129
ag137
ag136
ag147
ag149
ag143
ag148
ag141
asg115
(dp1118
g1005
S'reference freq (Hz): I=I0 @ f=f0'
p1119
sg126
g230
sg1006
S'major axis (arcsec)'
p1120
sg1007
S'if True, do NOT store solvegroup/parmgroup info'
p1121
sg129
g232
sg131
g233
sg1008
S'source shape'
p1122
sg12
S'name of the MeqParm table (AIPS++)'
p1123
sg1010
S'Stokes U (percentage of I)'
p1124
sg135
g236
sg136
g237
sg137
g238
sg1011
S'Stokes I: Total intensity @ f=f0 (usually 1 MHz)'
p1125
sg148
g245
sg141
g239
sg1012
S'Stokes V (percentage of I)'
p1126
sg143
g240
sg1013
S'position angle (rad)'
p1127
sg1064
S'Right Ascension (rad, J2000)'
p1128
sg1067
S'Intrinsic Rotation Measure (rad/m2)'
p1129
sg1021
S'minor axis (arcsec)'
p1130
sg147
g242
sg1074
S'Stokes Q (percentage of I)'
p1131
sg1020
S'name of calibrator source/patch \n- unpol:   unpolarised, I=1Jy \n- unpol2:  idem, I=2Jy \n- unpol10: idem, I=10Jy \n- RMtest:  Rotation Measure \n- SItest:  Spectral Index \n- QUV:     non-zero Q,U,V \n- QU:      non-zero Q,U \n- QU2:     stronger version of QU \n- Qonly:   non-zero Q \n- Uonly:   non-zero U \n- Vonly:   non-zero V \n- 3c286:   \n- 3c48:    \n- 3c295:   \n- 3c147:   \n- D1:      cps in D1.MS \n'
p1132
sg1094
S'Declination (rad, J2000)'
p1133
sg1019
S'If True, attach to forest state record'
p1134
sg210
g244
sg1103
S'Spectral Index (generalised)\n   A scalar represents the classical SI: I(f)=I0*(f/f0)^SI\n   A vector represents a freq-dependent SI (....)'
p1135
sg149
g246
ssg123
S'Make a Sixpack (I,Q,U,V,Ra,Dec) for a source with NEWSTAR parametrisation'
p1136
ssg1067
Nsg1021
F0.0
sg1064
F1.4950000000000001
sg147
F1.0
sg1074
Nsg1020
g1078
sg1094
F0.87
sg1018
Nsg1019
I01
sg210
I01
sg1103
Nsg149
NssS'[simul]./MG_JEN_Cohset.predict_lsm()'
p1137
(dp1138
g2
S'@@polrep'
p1139
sg25
S'@@stations'
p1140
sg18
(dp1141
g20
S'MG_JEN_Cohset::predict_lsm()'
p1142
sg22
g1137
sg23
(dp1143
g27
I01
sg28
I01
sg29
I01
sg2
I01
sg25
I01
ssg30
S'MG_JEN_Cohsetpredict_lsm'
p1144
sg32
g33
sg34
S'MG_JEN_Cohset::predict_lsm()  version=20mar2006  defined=2006-03-29 19:26'
p1145
sg36
S'predict_lsm'
p1146
sg38
(dp1147
g2
(lp1148
g3
ag41
ag1139
asg25
(lp1149
(lp1150
I0
aI1
aI2
aI3
aI4
aa(lp1151
I0
aI1
aI2
aI3
aI4
aI5
aI6
aa(lp1152
I0
aI1
aI2
aI3
aI4
aI5
aI6
aI7
aI8
aI9
aI10
aI11
aI12
aI13
aa(lp1153
I0
aI1
aI2
aI3
aI4
aI5
aI6
aI7
aI8
aI9
aI10
aI11
aI12
aI13
aI14
aag47
ag1140
asS'nr_lsm_sources'
p1154
(lp1155
I1
aI2
aI3
aI5
aI10
aI20
aI100
aS'@@nr_lsm_sources'
p1156
asg27
(lp1157
NaS'@@@Jsequence_KJones'
p1158
asg28
(lp1159
NaS'@@@Jsequence_simul'
p1160
asg29
(lp1161
NaS'@@@Jsequence'
p1162
assg77
S'simul'
p1163
sg79
I00
sg80
S'2006-03-29 19:26'
p1164
sg82
S'20mar2006'
p1165
sg84
S'MG_JEN_Cohset'
p1166
sg86
S'** Specific description of inarg record for: MG_JEN_Cohset::predict_lsm()  version=20mar2006  defined=2006-03-29 19:26'
p1167
sg88
(dp1168
g90
S'  1: ..[simul]./MG_JEN_Cohset.predict_lsm() (qual=None): .modify(nr_lsm_sources):   1  ->  100'
p1169
sg92
S'** JEN_inarg.attach(): attached: [simul_imp]./MG_JEN_Cohset.Jones()'
p1170
ssg104
g1164
sg105
(dp1171
g2
I00
sg25
I00
ssg107
(lp1172
g18
ag1154
ag25
ag2
ag29
ag28
ag27
aS'[simul_imp]./MG_JEN_Cohset.Jones()'
p1173
asg115
(dp1174
g2
g117
sg25
g118
sg1154
S'nr of lsm sources to be included (in order of brightness'
p1175
sg27
g122
sg28
g122
sg29
g122
ssg123
S'Obsolete (upward compatibility) version of .predict_cps()'
p1176
ssg1154
I100
sg27
Nsg28
Nsg1173
(dp1177
S'[simul_imp]./MG_JEN_Joneset.BJones()'
p1178
(dp1179
g126
I00
sg2
S'@@polrep'
p1180
sg129
g130
sg280
g281
sg131
I00
sg282
Nsg135
I01
sg136
I10
sg137
g138
sg283
I5
sg141
g142
sg143
Nsg18
(dp1181
g20
S'MG_JEN_Joneset::BJones()'
p1182
sg22
g1178
sg23
(dp1183
g137
I01
sg2
I01
sg147
I01
sg25
I01
sg129
I01
sg148
I01
sg141
I01
sg26
I01
sg143
I01
sg149
I01
sg12
I01
sg27
I01
sg28
I01
sg136
I01
sg29
I01
ssg123
g288
sg32
g33
sg34
S'MG_JEN_Joneset::BJones()  version=16dec2005  defined=2006-03-29 19:26'
p1184
sg36
S'BJones'
p1185
sg38
(dp1186
g126
(lp1187
I01
aI00
aS'@@reset_funklet'
p1188
asg2
(lp1189
g3
ag41
ag1180
asg129
(lp1190
g130
aS'@@color'
p1191
asg280
(lp1192
g281
aNaI1
aI2
aI5
aI10
aI20
aI50
aI100
aI200
aI500
aS'@@subtile_size_Bimag'
p1193
asg131
(lp1194
I01
aI00
aS'@@save_all'
p1195
asg282
(lp1196
NaI1
aI2
aI5
aI10
aI20
aI50
aI100
aI200
aI500
aS'@@subtile_size_Breal'
p1197
asg135
(lp1198
I01
aI00
aS'@@auto_save'
p1199
asg136
(lp1200
I10
aS'@@size'
p1201
asg137
(lp1202
g138
aS'@@style'
p1203
asg283
(lp1204
I3
aI4
aI5
aI6
aS'@@fdeg_Breal'
p1205
asg141
(lp1206
g142
aS'@@condeq_corrs'
p1207
asg143
(lp1208
NaS'@@funklet_shape'
p1209
asg27
(lp1210
g54
aS'@@@Jsequence_KJones'
p1211
asg317
(lp1212
I0
aI1
aI2
aI3
ag319
aS'@@tdeg_Bimag'
p1213
asg29
(lp1214
g54
aS'@@@Jsequence'
p1215
asg147
(lp1216
F1.0
aS'@@c00_default'
p1217
asg325
(lp1218
I3
aI4
aI5
aI6
ag327
aS'@@fdeg_Bimag'
p1219
asg26
(lp1220
I00
aS'@@uvplane_effect'
p1221
asg12
(lp1222
Nag69
aS'@@parmtable'
p1223
asg25
(lp1224
(lp1225
I0
aI1
aI2
aI3
aI4
aa(lp1226
I0
aI1
aI2
aI3
aI4
aI5
aI6
aa(lp1227
I0
aI1
aI2
aI3
aI4
aI5
aI6
aI7
aI8
aI9
aI10
aI11
aI12
aI13
aa(lp1228
I0
aI1
aI2
aI3
aI4
aI5
aI6
aI7
aI8
aI9
aI10
aI11
aI12
aI13
aI14
aag47
aS'@@stations'
p1229
asg339
(lp1230
I0
aI1
aI2
aI3
aS'@@tdeg_Breal'
p1231
asg210
(lp1232
I01
aI00
aS'@@use_previous'
p1233
asg148
(lp1234
NaS'@@subtile_size'
p1235
asg149
(lp1236
NaS'@@tfdeg'
p1237
asg28
(lp1238
g54
aS'@@@Jsequence_simul'
p1239
assg77
S'simul_imp'
p1240
sg79
I00
sg80
S'2006-03-29 19:26'
p1241
sg82
g351
sg84
S'MG_JEN_Joneset'
p1242
sg224
(dp1243
g126
I00
sg131
I00
sg135
I00
sg210
I00
ssg86
S'** Specific description of inarg record for: MG_JEN_Joneset::BJones()  version=16dec2005  defined=2006-03-29 19:26'
p1244
sg105
(dp1245
g26
I00
sg12
I00
sg2
I00
sg25
I00
ssg104
g1241
sg107
(lp1246
g18
ag25
ag2
ag29
ag28
ag27
ag12
ag26
ag339
ag317
ag283
ag325
ag282
ag280
ag210
ag135
ag131
ag126
ag129
ag137
ag136
ag147
ag149
ag143
ag148
ag141
asg115
(dp1247
g126
g230
sg2
g117
sg129
g232
sg280
g358
sg131
g233
sg282
g358
sg135
g236
sg136
g237
sg137
g238
sg283
g359
sg141
g239
sg143
g240
sg27
g122
sg317
g360
sg29
g122
sg147
g242
sg325
g359
sg26
g120
sg12
g121
sg25
g118
sg339
g360
sg210
g244
sg148
g245
sg149
g246
sg28
g122
ssg30
S'MG_JEN_JonesetBJones'
p1248
ssg27
g54
sg317
g319
sg29
g54
sg147
F1.0
sg325
g327
sg26
g1221
sg25
g1229
sg149
Nsg339
I0
sg210
I01
sg148
Nsg12
g1223
sg28
g54
ssg2
S'@@polrep'
p1249
sg25
S'@@stations'
p1250
sS'[simul_imp]./MG_JEN_Joneset.GJones()'
p1251
(dp1252
g126
I00
sg2
S'@@polrep'
p1253
sg433
I0
sg129
g130
sg131
I00
sg12
S'@@parmtable'
p1254
sg135
I01
sg136
I10
sg137
g138
sg435
I1
sg141
g142
sg143
Nsg18
(dp1255
g20
S'MG_JEN_Joneset::GJones()'
p1256
sg22
g1251
sg23
(dp1257
g136
I01
sg137
I01
sg2
I01
sg147
I01
sg25
I01
sg129
I01
sg148
I01
sg141
I01
sg26
I01
sg143
I01
sg149
I01
sg12
I01
sg27
I01
sg28
I01
sg439
I01
sg29
I01
ssg123
g441
sg32
g33
sg34
S'MG_JEN_Joneset::GJones()  version=15dec2005  defined=2006-03-29 19:26'
p1258
sg36
S'GJones'
p1259
sg38
(dp1260
g126
(lp1261
I01
aI00
aS'@@reset_funklet'
p1262
asg2
(lp1263
g3
ag41
ag1253
asg433
(lp1264
I0
aI1
aI2
aI3
aS'@@fdeg_Ggain'
p1265
asg129
(lp1266
g130
aS'@@color'
p1267
asg131
(lp1268
I01
aI00
aS'@@save_all'
p1269
asg12
(lp1270
Nag69
ag1254
asg135
(lp1271
I01
aI00
aS'@@auto_save'
p1272
asg136
(lp1273
I10
aS'@@size'
p1274
asg137
(lp1275
g138
aS'@@style'
p1276
asg435
(lp1277
NaI1
aI2
aI5
aI10
aI20
aI50
aI100
aI200
aI500
aS'@@subtile_size_Ggain'
p1278
asg141
(lp1279
g142
aS'@@condeq_corrs'
p1280
asg143
(lp1281
NaS'@@funklet_shape'
p1282
asg27
(lp1283
g52
aS'@@@Jsequence_KJones'
p1284
asg29
(lp1285
g52
aS'@@@Jsequence'
p1286
asg147
(lp1287
F1.0
aS'@@c00_default'
p1288
asg473
(lp1289
I0
aI1
aI2
aI3
ag475
aS'@@tdeg_Gphase'
p1290
asg477
(lp1291
I0
aI1
aI2
aI3
aS'@@tdeg_Ggain'
p1292
asg480
(lp1293
I0
aI1
aI2
aI3
ag482
aS'@@fdeg_Gphase'
p1294
asg484
(lp1295
g486
aNaI1
aI2
aI5
aI10
aI20
aI50
aI100
aI200
aI500
aS'@@subtile_size_Gphase'
p1296
asg439
(lp1297
I01
aI00
aS'@@Gpolar'
p1298
asg26
(lp1299
I00
aS'@@uvplane_effect'
p1300
asg25
(lp1301
(lp1302
I0
aI1
aI2
aI3
aI4
aa(lp1303
I0
aI1
aI2
aI3
aI4
aI5
aI6
aa(lp1304
I0
aI1
aI2
aI3
aI4
aI5
aI6
aI7
aI8
aI9
aI10
aI11
aI12
aI13
aa(lp1305
I0
aI1
aI2
aI3
aI4
aI5
aI6
aI7
aI8
aI9
aI10
aI11
aI12
aI13
aI14
aag47
aS'@@stations'
p1306
asg210
(lp1307
I01
aI00
aS'@@use_previous'
p1308
asg148
(lp1309
NaS'@@subtile_size'
p1310
asg149
(lp1311
NaS'@@tfdeg'
p1312
asg28
(lp1313
g52
aS'@@@Jsequence_simul'
p1314
assg77
g1240
sg79
I00
sg80
S'2006-03-29 19:26'
p1315
sg82
g507
sg84
S'MG_JEN_Joneset'
p1316
sg224
(dp1317
g126
I00
sg439
I00
sg131
I00
sg135
I00
sg210
I00
ssg86
S'** Specific description of inarg record for: MG_JEN_Joneset::GJones()  version=15dec2005  defined=2006-03-29 19:26'
p1318
sg105
(dp1319
g26
I00
sg12
I00
sg2
I00
sg25
I00
ssg104
g1315
sg107
(lp1320
g18
ag25
ag2
ag29
ag28
ag27
ag439
ag12
ag26
ag477
ag473
ag433
ag480
ag435
ag484
ag210
ag135
ag131
ag126
ag129
ag137
ag136
ag147
ag149
ag143
ag148
ag141
asg115
(dp1321
g126
g230
sg2
g117
sg433
g514
sg129
g232
sg131
g233
sg12
g121
sg135
g236
sg136
g237
sg137
g238
sg435
g515
sg141
g239
sg143
g240
sg27
g122
sg29
g122
sg147
g242
sg473
g516
sg477
g516
sg480
g514
sg484
g515
sg439
g517
sg26
g120
sg25
g118
sg210
g244
sg148
g245
sg149
g246
sg28
g122
ssg30
S'MG_JEN_JonesetGJones'
p1322
ssg27
g52
sg29
g52
sg147
F1.0
sg473
g475
sg477
I0
sg480
g482
sg484
g486
sg439
I01
sg26
g1300
sg25
g1306
sg210
I01
sg148
Nsg149
Nsg28
g52
ssS'[simul_imp]./MG_JEN_Joneset.DJones_WSRT()'
p1323
(dp1324
g126
I00
sg2
S'@@polrep'
p1325
sg129
g130
sg520
g521
sg522
I01
sg131
I00
sg12
S'@@parmtable'
p1326
sg524
Nsg135
I01
sg136
I10
sg137
g138
sg141
g142
sg143
Nsg18
(dp1327
g20
S'MG_JEN_Joneset::DJones_WSRT()'
p1328
sg22
g1323
sg23
(dp1329
g137
I01
sg2
I01
sg147
I01
sg25
I01
sg129
I01
sg148
I01
sg141
I01
sg26
I01
sg143
I01
sg149
I01
sg12
I01
sg27
I01
sg28
I01
sg136
I01
sg29
I01
ssg123
g529
sg32
g33
sg34
S'MG_JEN_Joneset::DJones_WSRT()  version=16dec2005  defined=2006-03-29 19:26'
p1330
sg36
S'DJones_WSRT'
p1331
sg38
(dp1332
g126
(lp1333
I01
aI00
aS'@@reset_funklet'
p1334
asg2
(lp1335
g3
ag41
ag1325
asg129
(lp1336
g130
aS'@@color'
p1337
asg520
(lp1338
I0
aI1
aI2
aI3
ag521
aS'@@fdeg_Dell'
p1339
asg522
(lp1340
I01
aI00
aS'@@coupled_XY_Dell'
p1341
asg131
(lp1342
I01
aI00
aS'@@save_all'
p1343
asg12
(lp1344
Nag69
ag1326
asg524
(lp1345
NaI1
aI2
aI5
aI10
aI20
aI50
aI100
aI200
aI500
aS'@@subtile_size_Dang'
p1346
asg135
(lp1347
I01
aI00
aS'@@auto_save'
p1348
asg136
(lp1349
I10
aS'@@size'
p1350
asg137
(lp1351
g138
aS'@@style'
p1352
asg141
(lp1353
g142
aS'@@condeq_corrs'
p1354
asg143
(lp1355
NaS'@@funklet_shape'
p1356
asg27
(lp1357
g60
aS'@@@Jsequence_KJones'
p1358
asg559
(lp1359
g561
aNaI1
aI2
aI5
aI10
aI20
aI50
aI100
aI200
aI500
aS'@@subtile_size_Dell'
p1360
asg29
(lp1361
g60
aS'@@@Jsequence'
p1362
asg565
(lp1363
I0
aI1
aI2
aI3
aS'@@fdeg_Dang'
p1364
asg147
(lp1365
F1.0
aS'@@c00_default'
p1366
asg26
(lp1367
I00
aS'@@uvplane_effect'
p1368
asg572
(lp1369
I0
aI1
aI2
aI3
ag574
aS'@@tdeg_Dell'
p1370
asg576
(lp1371
I01
aI00
aS'@@coupled_XY_Dang'
p1372
asg579
(lp1373
I0
aI1
aI2
aI3
aS'@@tdeg_Dang'
p1374
asg25
(lp1375
(lp1376
I0
aI1
aI2
aI3
aI4
aa(lp1377
I0
aI1
aI2
aI3
aI4
aI5
aI6
aa(lp1378
I0
aI1
aI2
aI3
aI4
aI5
aI6
aI7
aI8
aI9
aI10
aI11
aI12
aI13
aa(lp1379
I0
aI1
aI2
aI3
aI4
aI5
aI6
aI7
aI8
aI9
aI10
aI11
aI12
aI13
aI14
aag47
aS'@@stations'
p1380
asg210
(lp1381
I01
aI00
aS'@@use_previous'
p1382
asg148
(lp1383
NaS'@@subtile_size'
p1384
asg149
(lp1385
NaS'@@tfdeg'
p1386
asg28
(lp1387
g60
aS'@@@Jsequence_simul'
p1388
assg77
g1240
sg79
I00
sg80
S'2006-03-29 19:26'
p1389
sg82
g351
sg84
S'MG_JEN_Joneset'
p1390
sg224
(dp1391
g126
I00
sg522
I00
sg131
I00
sg576
I00
sg210
I00
sg135
I00
ssg86
S'** Specific description of inarg record for: MG_JEN_Joneset::DJones_WSRT()  version=16dec2005  defined=2006-03-29 19:26'
p1392
sg105
(dp1393
g26
I00
sg12
I00
sg2
I00
sg25
I00
ssg104
g1389
sg107
(lp1394
g18
ag25
ag2
ag29
ag28
ag27
ag576
ag522
ag12
ag26
ag579
ag572
ag565
ag520
ag524
ag559
ag210
ag135
ag131
ag126
ag129
ag137
ag136
ag147
ag149
ag143
ag148
ag141
asg115
(dp1395
g126
g230
sg2
g117
sg129
g232
sg520
g603
sg522
g604
sg131
g233
sg12
g121
sg524
g605
sg135
g236
sg136
g237
sg137
g238
sg141
g239
sg143
g240
sg27
g122
sg559
g605
sg29
g122
sg565
g603
sg147
g242
sg26
g120
sg572
g606
sg576
g607
sg579
g606
sg25
g118
sg210
g244
sg148
g245
sg149
g246
sg28
g122
ssg30
S'MG_JEN_JonesetDJones_WSRT'
p1396
ssg27
g60
sg559
g561
sg29
g60
sg565
I0
sg147
F1.0
sg26
g1368
sg572
g574
sg576
I01
sg579
I0
sg25
g1380
sg210
I01
sg148
Nsg149
Nsg28
g60
ssg26
S'@@uvplane_effect'
p1397
sg12
S'@@parmtable'
p1398
sg18
(dp1399
g20
g21
sg22
g1173
sg23
(dp1400
g2
I01
sg25
I01
sg26
I01
sg12
I01
sg27
I01
sg28
I01
sg29
I01
ssg30
S'MG_JEN_CohsetJones'
p1401
sg32
g33
sg123
g124
sg34
S'MG_JEN_Cohset::Jones()  version=25dec2005  defined=2006-03-29 19:26'
p1402
sg36
S'Jones'
p1403
sg38
(dp1404
g2
(lp1405
g3
ag41
ag1249
asg25
(lp1406
(lp1407
I0
aI1
aI2
aI3
aI4
aa(lp1408
I0
aI1
aI2
aI3
aI4
aI5
aI6
aa(lp1409
I0
aI1
aI2
aI3
aI4
aI5
aI6
aI7
aI8
aI9
aI10
aI11
aI12
aI13
aa(lp1410
I0
aI1
aI2
aI3
aI4
aI5
aI6
aI7
aI8
aI9
aI10
aI11
aI12
aI13
aI14
aag47
ag1250
asg26
(lp1411
I00
ag1397
asg12
(lp1412
Nag69
ag1398
asg27
(lp1413
NaS'@@@Jsequence_KJones'
p1414
asg28
(lp1415
NaS'@@@Jsequence_simul'
p1416
asS'Jsequence_simul_imp'
p1417
(lp1418
(lp1419
g52
aa(lp1420
g54
aa(lp1421
g56
aa(lp1422
g58
aa(lp1423
g60
aa(lp1424
g52
ag60
aa(lp1425
g63
aa(lp1426
aS'@@Jsequence_simul_imp'
p1427
asg29
(lp1428
NaS'@@@Jsequence'
p1429
assg77
g1240
sg79
I00
sg80
S'2006-03-29 19:26'
p1430
sg82
g83
sg84
S'MG_JEN_Cohset'
p1431
sg86
S'** Specific description of inarg record for: MG_JEN_Cohset::Jones()  version=25dec2005  defined=2006-03-29 19:26'
p1432
sg88
(dp1433
g90
S'** JEN_inarg.attach(): attached: [simul_imp]./MG_JEN_Joneset.FJones()'
p1434
sg92
S'** JEN_inarg.attach(): attached: [simul_imp]./MG_JEN_Joneset.GJones()'
p1435
sg94
S'** JEN_inarg.attach(): attached: [simul_imp]./MG_JEN_Joneset.KJones()'
p1436
sg96
S'** JEN_inarg.attach(): attached: [simul_imp]./MG_JEN_Joneset.BJones()'
p1437
sg98
S'** JEN_inarg.attach(): attached: [simul_imp]./MG_JEN_Joneset.JJones()'
p1438
sg100
S'** JEN_inarg.attach(): attached: [simul_imp]./MG_JEN_Joneset.DJones_WSRT()'
p1439
ssg104
g1430
sg105
(dp1440
g26
I00
sg12
I00
sg2
I00
sg25
I00
ssg107
(lp1441
g18
ag25
ag2
ag29
ag28
ag27
ag12
ag26
ag1417
ag1251
aS'[simul_imp]./MG_JEN_Joneset.FJones()'
p1442
ag1178
aS'[simul_imp]./MG_JEN_Joneset.KJones()'
p1443
ag1323
aS'[simul_imp]./MG_JEN_Joneset.JJones()'
p1444
asg115
(dp1445
g2
g117
sg25
g118
sg26
g120
sg12
g121
sg27
g122
sg28
g122
sg1417
g119
sg29
g122
sssg1444
(dp1446
g126
I00
sg2
S'@@polrep'
p1447
sg128
I0
sg129
g130
sg131
I00
sg132
Nsg12
S'@@parmtable'
p1448
sg134
Nsg135
I01
sg136
I10
sg137
g138
sg139
g140
sg141
g142
sg143
Nsg18
(dp1449
g20
S'MG_JEN_Joneset::JJones()'
p1450
sg22
g1444
sg23
(dp1451
g137
I01
sg2
I01
sg147
I01
sg25
I01
sg129
I01
sg148
I01
sg141
I01
sg26
I01
sg143
I01
sg149
I01
sg12
I01
sg27
I01
sg28
I01
sg136
I01
sg29
I01
ssg123
g151
sg32
g33
sg34
S'MG_JEN_Joneset::JJones()  version=14feb2006  defined=2006-03-29 19:26'
p1452
sg36
S'JJones'
p1453
sg38
(dp1454
g126
(lp1455
I01
aI00
aS'@@reset_funklet'
p1456
asg2
(lp1457
g3
ag41
ag1447
asg128
(lp1458
I0
aI1
aI2
aI3
aS'@@tdeg_Jreal'
p1459
asg129
(lp1460
g130
aS'@@color'
p1461
asg131
(lp1462
I01
aI00
aS'@@save_all'
p1463
asg132
(lp1464
Na(lp1465
I14
aa(lp1466
I1
aag167
aS'@@all4_always'
p1467
asg12
(lp1468
Nag69
ag1448
asg134
(lp1469
NaI1
aI2
aI5
aI10
aI20
aI50
aI100
aI200
aI500
aS'@@subtile_size_Jreal'
p1470
asg135
(lp1471
I01
aI00
aS'@@auto_save'
p1472
asg136
(lp1473
I10
aS'@@size'
p1474
asg137
(lp1475
g138
aS'@@style'
p1476
asg139
(lp1477
I0
aI1
aI2
aI3
ag140
aS'@@tdeg_Jimag'
p1478
asg141
(lp1479
g142
aS'@@condeq_corrs'
p1480
asg143
(lp1481
NaS'@@funklet_shape'
p1482
asg27
(lp1483
g63
aS'@@@Jsequence_KJones'
p1484
asg186
(lp1485
I0
aI1
aI2
aI3
aS'@@fdeg_Jreal'
p1486
asg147
(lp1487
F1.0
aS'@@c00_default'
p1488
asg26
(lp1489
I00
aS'@@uvplane_effect'
p1490
asg193
(lp1491
I0
aI1
aI2
aI3
ag195
aS'@@fdeg_Jimag'
p1492
asg197
(lp1493
g199
aNaI1
aI2
aI5
aI10
aI20
aI50
aI100
aI200
aI500
aS'@@subtile_size_Jimag'
p1494
asg25
(lp1495
(lp1496
I0
aI1
aI2
aI3
aI4
aa(lp1497
I0
aI1
aI2
aI3
aI4
aI5
aI6
aa(lp1498
I0
aI1
aI2
aI3
aI4
aI5
aI6
aI7
aI8
aI9
aI10
aI11
aI12
aI13
aa(lp1499
I0
aI1
aI2
aI3
aI4
aI5
aI6
aI7
aI8
aI9
aI10
aI11
aI12
aI13
aI14
aag47
aS'@@stations'
p1500
asg207
(lp1501
I01
aI00
aS'@@diagonal_only'
p1502
asg210
(lp1503
I01
aI00
aS'@@use_previous'
p1504
asg148
(lp1505
NaS'@@subtile_size'
p1506
asg149
(lp1507
NaS'@@tfdeg'
p1508
asg28
(lp1509
g63
aS'@@@Jsequence_simul'
p1510
asg29
(lp1511
g63
aS'@@@Jsequence'
p1512
assg77
g1240
sg79
I00
sg80
S'2006-03-29 19:26'
p1513
sg82
g222
sg84
S'MG_JEN_Joneset'
p1514
sg224
(dp1515
g126
I00
sg207
I00
sg131
I00
sg135
I00
sg210
I00
ssg86
S'** Specific description of inarg record for: MG_JEN_Joneset::JJones()  version=14feb2006  defined=2006-03-29 19:26'
p1516
sg105
(dp1517
g26
I00
sg12
I00
sg2
I00
sg25
I00
ssg104
g1513
sg107
(lp1518
g18
ag25
ag2
ag29
ag28
ag27
ag207
ag132
ag12
ag26
ag128
ag139
ag186
ag193
ag134
ag197
ag210
ag135
ag131
ag126
ag129
ag137
ag136
ag147
ag149
ag143
ag148
ag141
asg115
(dp1519
g126
g230
sg2
g117
sg128
g231
sg129
g232
sg131
g233
sg132
g234
sg12
g121
sg134
g235
sg135
g236
sg136
g237
sg137
g238
sg139
g231
sg141
g239
sg143
g240
sg27
g122
sg186
g241
sg147
g242
sg26
g120
sg193
g241
sg197
g235
sg25
g118
sg207
g243
sg210
g244
sg148
g245
sg149
g246
sg28
g122
sg29
g122
ssg30
S'MG_JEN_JonesetJJones'
p1520
ssg27
g63
sg186
I0
sg147
F1.0
sg26
g1490
sg193
g195
sg197
g199
sg25
g1500
sg207
I00
sg210
I01
sg148
Nsg149
Nsg28
g63
sg29
g63
ssg27
Nsg28
Nsg29
Nsg1443
(dp1521
g2
S'@@polrep'
p1522
sg25
S'@@stations'
p1523
sg18
(dp1524
g20
S'MG_JEN_Joneset::KJones()'
p1525
sg22
g1443
sg23
(dp1526
g27
I01
sg28
I01
sg29
I01
sg2
I01
sg25
I01
ssg123
g254
sg32
g33
sg34
S'MG_JEN_Joneset::KJones()  version=12dec2005  defined=2006-03-29 19:26'
p1527
sg36
S'KJones'
p1528
sg38
(dp1529
g27
(lp1530
g58
aS'@@@Jsequence_KJones'
p1531
asg28
(lp1532
g58
aS'@@@Jsequence_simul'
p1533
asg29
(lp1534
g58
aS'@@@Jsequence'
p1535
asg2
(lp1536
g3
ag41
ag1522
asg25
(lp1537
(lp1538
I0
aI1
aI2
aI3
aI4
aa(lp1539
I0
aI1
aI2
aI3
aI4
aI5
aI6
aa(lp1540
I0
aI1
aI2
aI3
aI4
aI5
aI6
aI7
aI8
aI9
aI10
aI11
aI12
aI13
aa(lp1541
I0
aI1
aI2
aI3
aI4
aI5
aI6
aI7
aI8
aI9
aI10
aI11
aI12
aI13
aI14
aag47
ag1523
assg77
g1240
sg79
I00
sg80
S'2006-03-29 19:26'
p1542
sg82
g271
sg84
S'MG_JEN_Joneset'
p1543
sg86
S'** Specific description of inarg record for: MG_JEN_Joneset::KJones()  version=12dec2005  defined=2006-03-29 19:26'
p1544
sg105
(dp1545
g2
I00
sg25
I00
ssg104
g1542
sg107
(lp1546
g18
ag25
ag2
ag29
ag28
ag27
asg115
(dp1547
g27
g122
sg28
g122
sg29
g122
sg2
g117
sg25
g118
ssg30
S'MG_JEN_JonesetKJones'
p1548
ssg27
g58
sg28
g58
sg29
g58
ssg1417
(lp1549
sg1442
(dp1550
g126
I00
sg2
S'@@polrep'
p1551
sg129
g130
sg131
I00
sg149
Nsg135
I01
sg136
I10
sg137
g138
sg141
g142
sg143
Nsg18
(dp1552
g20
S'MG_JEN_Joneset::FJones()'
p1553
sg22
g1442
sg23
(dp1554
g137
I01
sg2
I01
sg147
I01
sg25
I01
sg129
I01
sg148
I01
sg141
I01
sg26
I01
sg143
I01
sg149
I01
sg12
I01
sg27
I01
sg28
I01
sg136
I01
sg29
I01
ssg123
g367
sg32
g33
sg34
S'MG_JEN_Joneset::FJones()  version=16dec2005  defined=2006-03-29 19:26'
p1555
sg36
S'FJones'
p1556
sg38
(dp1557
g126
(lp1558
I01
aI00
aS'@@reset_funklet'
p1559
asg2
(lp1560
g3
ag41
ag1551
asg129
(lp1561
g130
aS'@@color'
p1562
asg131
(lp1563
I01
aI00
aS'@@save_all'
p1564
asg149
(lp1565
NaS'@@tfdeg'
p1566
asg135
(lp1567
I01
aI00
aS'@@auto_save'
p1568
asg136
(lp1569
I10
aS'@@size'
p1570
asg137
(lp1571
g138
aS'@@style'
p1572
asg141
(lp1573
g142
aS'@@condeq_corrs'
p1574
asg143
(lp1575
NaS'@@funklet_shape'
p1576
asg27
(lp1577
g56
aS'@@@Jsequence_KJones'
p1578
asg29
(lp1579
g56
aS'@@@Jsequence'
p1580
asg147
(lp1581
F1.0
aS'@@c00_default'
p1582
asg26
(lp1583
I00
aS'@@uvplane_effect'
p1584
asg25
(lp1585
(lp1586
I0
aI1
aI2
aI3
aI4
aa(lp1587
I0
aI1
aI2
aI3
aI4
aI5
aI6
aa(lp1588
I0
aI1
aI2
aI3
aI4
aI5
aI6
aI7
aI8
aI9
aI10
aI11
aI12
aI13
aa(lp1589
I0
aI1
aI2
aI3
aI4
aI5
aI6
aI7
aI8
aI9
aI10
aI11
aI12
aI13
aI14
aag47
aS'@@stations'
p1590
asg404
(lp1591
I0
aI1
aI2
aI3
aS'@@tdeg_RM'
p1592
asg210
(lp1593
I01
aI00
aS'@@use_previous'
p1594
asg409
(lp1595
I0
aI1
aI2
aI3
aS'@@fdeg_RM'
p1596
asg148
(lp1597
NaS'@@subtile_size'
p1598
asg12
(lp1599
Nag69
aS'@@parmtable'
p1600
asg416
(lp1601
NaI1
aI2
aI5
aI10
aI20
aI50
aI100
aI200
aI500
aS'@@subtile_size_RM'
p1602
asg28
(lp1603
g56
aS'@@@Jsequence_simul'
p1604
assg77
g1240
sg79
I00
sg80
S'2006-03-29 19:26'
p1605
sg82
g351
sg84
S'MG_JEN_Joneset'
p1606
sg224
(dp1607
g126
I00
sg131
I00
sg135
I00
sg210
I00
ssg86
S'** Specific description of inarg record for: MG_JEN_Joneset::FJones()  version=16dec2005  defined=2006-03-29 19:26'
p1608
sg105
(dp1609
g26
I00
sg12
I00
sg2
I00
sg25
I00
ssg104
g1605
sg107
(lp1610
g18
ag25
ag2
ag29
ag28
ag27
ag12
ag26
ag404
ag409
ag416
ag210
ag135
ag131
ag126
ag129
ag137
ag136
ag147
ag149
ag143
ag148
ag141
asg115
(dp1611
g126
g230
sg2
g117
sg129
g232
sg131
g233
sg149
g246
sg135
g236
sg136
g237
sg137
g238
sg141
g239
sg143
g240
sg27
g122
sg29
g122
sg147
g242
sg26
g120
sg25
g118
sg404
g428
sg210
g244
sg409
g429
sg148
g245
sg12
g121
sg416
g430
sg28
g122
ssg30
S'MG_JEN_JonesetFJones'
p1612
ssg27
g56
sg29
g56
sg147
F1.0
sg26
g1584
sg25
g1590
sg404
I0
sg210
I01
sg409
I2
sg148
Nsg12
g1600
sg416
I1
sg28
g56
sssg29
NssS'[solve]./MG_JEN_Cohset.predict_cps()'
p1613
(dp1614
g2
S'@@polrep'
p1615
sg25
S'@@stations'
p1616
sg18
(dp1617
g20
S'MG_JEN_Cohset::predict_cps()'
p1618
sg22
g1613
sg23
(dp1619
g27
I01
sg28
I01
sg29
I01
sg2
I01
sg25
I01
ssg30
S'MG_JEN_Cohsetpredict_cps'
p1620
sg32
g33
sg34
S'MG_JEN_Cohset::predict_cps()  version=20mar2006  defined=2006-03-29 19:26'
p1621
sg36
S'predict_cps'
p1622
sg38
(dp1623
g27
(lp1624
NaS'@@@Jsequence_KJones'
p1625
asg28
(lp1626
NaS'@@@Jsequence_simul'
p1627
asg29
(lp1628
NaS'@@@Jsequence'
p1629
asg2
(lp1630
g3
ag41
ag1615
asg25
(lp1631
(lp1632
I0
aI1
aI2
aI3
aI4
aa(lp1633
I0
aI1
aI2
aI3
aI4
aI5
aI6
aa(lp1634
I0
aI1
aI2
aI3
aI4
aI5
aI6
aI7
aI8
aI9
aI10
aI11
aI12
aI13
aa(lp1635
I0
aI1
aI2
aI3
aI4
aI5
aI6
aI7
aI8
aI9
aI10
aI11
aI12
aI13
aI14
aag47
ag1616
assg77
g1023
sg79
I00
sg80
S'2006-03-29 19:26'
p1636
sg82
g1165
sg84
S'MG_JEN_Cohset'
p1637
sg86
S'** Specific description of inarg record for: MG_JEN_Cohset::predict_cps()  version=20mar2006  defined=2006-03-29 19:26'
p1638
sg105
(dp1639
g2
I00
sg25
I00
ssg104
g1636
sg107
(lp1640
g18
ag25
ag2
ag29
ag28
ag27
asg115
(dp1641
g27
g122
sg28
g122
sg29
g122
sg2
g117
sg25
g118
ssg123
g1176
ssg27
Nsg28
Nsg29
Nssg18
(dp1642
g22
S'./MG_JEN_simul.'
p1643
sg115
(dp1644
g27
g122
sg1
S'if True, add to existing uv-data (from MS column)'
p1645
sS'rms_noise_Jy'
p1646
S'rms noise, to be added'
p1647
sg2
g117
sS'master_reqseq'
p1648
S'if True, use a master reqseq for solver(s)'
p1649
sS'LSM_simul'
p1650
S'(file)name of a Local Sky Model to be used for simulation(instead of a predefined punit)'
p1651
sg25
g118
sS'redun'
p1652
S'if True, redundant spacing calibration'
p1653
sg14
S'if True, insert a solver'
p1654
sg10
S'name of the (AIPS++) Measurement Set'
p1655
sS'chain_solvers'
p1656
S'if True, chain the solvers (recommended)'
p1657
sS'num_cells'
p1658
S'if defined, ModRes argument [ntime,nfreq]'
p1659
sg12
g121
sg608
S'(file)name of a Local Sky Model to be used for solving(instead of a predefined punit)'
p1660
sg28
g122
sS'tile_size'
p1661
S'(inputrec) size (in time-slots) of the input data-tile'
p1662
sg26
g120
sg29
g122
ssS'reference'
p1663
I00
sg32
g33
sg84
S'MG_JEN_simul'
p1664
sg23
(dp1665
g27
I01
sg2
I00
sg1648
I01
sg1650
I00
sg25
I00
sS'last_changed'
p1666
I01
sg1652
I00
sg26
I00
sg1656
I01
sg1658
I00
sg608
I00
sg28
I01
sg29
I01
ssS'browse'
p1667
(dp1668
g10
S'*.MS'
p1669
sg1650
S'*.lsm'
p1670
sg608
g1670
ssg82
g507
sg123
S"\n    -------------------------------------------------------------\n    General description of the MeqTree TDL script MG_JEN_simul.py\n    -------------------------------------------------------------\n\n    The MG_JEN_simul.py script is used to put simulated visibilities into the\n    CORRECTED_DATA column of an existing Measurement Set (MS). The original DATA\n    in the MS are untouched. The advantage of this approach is that it is not\n    necessary to specify pointing centre, uv-coverage, spectral-window etc.\n\n    * The input source model is either an existing Local Sky Model (LSM),\n    or a 'punit' point source in the centre of the field.\n\n    * The nominal source visibilities may be corrupted by:\n      - various (uv-plane) Jones matrices\n      - image-plane effects from EJones and IJones (MIM)\n      - ifr-based errors (additive, multiplicative)\n      - noise\n\n    * Optionally, the simulated visibilities may be added to the existing uv-data,\n    either from the DATA column or the CORRECTED_DATA column of the MS\n\n    * Optionally, a parallel solver branch may be inserted, which uses the simulated\n    uv-data to solve for instrumental parameters. The latter may be compared with\n    the simulated instrumental parameters.\n\n    Different types of simulations may be specified by loading (and editing) socalled\n    'inarg' records from files (like this one). These contain input arguments\n    for generating a suitable MeqTree forest for the desired operation.\n    "
p1671
sg224
(dp1672
g1
I00
sg1648
I00
sg1652
I00
sg14
I00
sg1666
I00
ssg34
S'** Top-level CTRL-record of: MG_JEN_simul.inarg'
p1673
sg38
(dp1674
g27
(lp1675
NaS'@@@Jsequence_KJones'
p1676
asg1
(lp1677
I01
aI00
aS'@@add_to_existing'
p1678
asg1646
(lp1679
I0
aF0.01
aF0.10000000000000001
aI1
aS'@@rms_noise_Jy'
p1680
asg2
(lp1681
g3
ag41
aS'@@polrep'
p1682
asg1648
(lp1683
I01
aI00
aS'@@master_reqseq'
p1684
asg1650
(lp1685
NaS'@@LSM_simul'
p1686
asg25
(lp1687
(lp1688
I0
aI1
aI2
aI3
aI4
aa(lp1689
I0
aI1
aI2
aI3
aI4
aI5
aI6
aa(lp1690
I0
aI1
aI2
aI3
aI4
aI5
aI6
aI7
aI8
aI9
aI10
aI11
aI12
aI13
aa(lp1691
I0
aI1
aI2
aI3
aI4
aI5
aI6
aI7
aI8
aI9
aI10
aI11
aI12
aI13
aI14
aag47
aS'@@stations'
p1692
asg1666
(lp1693
S'd30jan2006'
p1694
aS'@@last_changed'
p1695
asg14
(lp1696
I01
aI00
aS'@@insert_solver'
p1697
asg1652
(lp1698
I01
aI00
aS'@@redun'
p1699
asg10
(lp1700
g11
aS'@@ms_name'
p1701
asg1656
(lp1702
I01
aS'@@chain_solvers'
p1703
asg1658
(lp1704
Na(lp1705
I5
aI2
aa(lp1706
I2
aI2
aa(lp1707
I3
aI3
aaS'@@num_cells'
p1708
asg12
(lp1709
Nag69
aS'@@parmtable'
p1710
asg608
(lp1711
NaS'@@LSM_solve'
p1712
asg28
(lp1713
NaS'@@@Jsequence_simul'
p1714
asg1661
(lp1715
I1
aI2
aI3
aI5
aI10
aI20
aI50
aI100
aS'@@tile_size'
p1716
asg26
(lp1717
I00
aS'@@uvplane_effect'
p1718
asg29
(lp1719
NaS'@@@Jsequence'
p1720
assg77
Nsg104
S'2006-03-29 19:26'
p1721
sS'HISTORY'
p1722
(dp1723
g90
S'2006-03-29 19:26: Derived from: MG_JEN_simul_lsm_GJones.inarg'
p1724
sg92
S'2006-03-29 19:26: Derived from: MG_JEN_simul.inarg'
p1725
ssg20
g9
sg86
S'Predefined inarg record for simulating with GJones corruption'
p1726
sS'save_file'
p1727
S'MG_JEN_simul_lsm_GJones_protected.inarg'
p1728
sS'file_filter'
p1729
S'MG_JEN_simul*.inarg'
p1730
sg36
S''
p1731
sg79
I01
sg80
g1721
sg88
(dp1732
S'20'
p1733
S'  0: ./MG_JEN_simul. (qual=None): .modify(insert_solver):   True  ->  False'
p1734
sS'21'
p1735
S'  0: ./MG_JEN_simul. (qual=None): .modify(parmtable):   None  ->  simul_lsm_GJones'
p1736
sS'22'
p1737
S'  0: ./MG_JEN_simul. (qual=None): .modify(LSM_solve):   None  ->  lsm_current.lsm'
p1738
sS'23'
p1739
S".modify():   ** OK ** (['LSM_simul', 'Jsequence_solve_uvp', 'insert_solver', 'parmtable', 'solvegroup', 'nr_lsm_sources', 'LSM_solve', 'num_iter', 'Jsequence_simul_uvp'])"
p1740
sg90
S'  0: ./MG_JEN_simul. (qual=None): .modify(tile_size):   10  ->  1'
p1741
sg92
S'  0: ./MG_JEN_simul. (qual=None): .modify(uvplane_effect):   False  ->  True'
p1742
sg94
S'** JEN_inarg.separator(): : uv-data (MS) stream_control'
p1743
sg96
S".modify():   ** OK ** (['uvplane_effect', 'tile_size'])"
p1744
sg98
S'** JEN_inarg.attach(): attached: ./MG_JEN_Cohset.make_spigots()'
p1745
sg100
S'** JEN_inarg.attach(): attached: ./MG_JEN_exec.stream_control()'
p1746
sS'7'
p1747
S'** JEN_inarg.attach(): attached: [simul]./MG_JEN_Sixpack.newstar_source()'
p1748
sg102
S'** JEN_inarg.separator(): : uv-data simulation (LeafSet)'
p1749
sS'9'
p1750
S'** JEN_inarg.attach(): attached: [simul]./MG_JEN_Cohset.predict_cps()'
p1751
sS'8'
p1752
S'** JEN_inarg.attach(): attached: [simul_uvp]./MG_JEN_Cohset.Jones()'
p1753
sS'11'
p1754
S'** JEN_inarg.separator(): : solver-branch (ParmSet)'
p1755
sS'10'
p1756
S'** JEN_inarg.attach(): attached: [simul]./MG_JEN_Cohset.predict_lsm()'
p1757
sS'13'
p1758
S'** JEN_inarg.attach(): attached: [solve_uvp]./MG_JEN_Cohset.Jones()'
p1759
sS'12'
p1760
S'** JEN_inarg.attach(): attached: [solve]./MG_JEN_Sixpack.newstar_source()'
p1761
sS'15'
p1762
S'** JEN_inarg.attach(): attached: [solve]./MG_JEN_Cohset.predict_lsm()'
p1763
sS'14'
p1764
S'** JEN_inarg.attach(): attached: [solve]./MG_JEN_Cohset.predict_cps()'
p1765
sS'17'
p1766
S'** JEN_inarg.separator(): : finishing touches'
p1767
sS'16'
p1768
S'** JEN_inarg.attach(): attached: ./MG_JEN_Cohset.insert_solver()'
p1769
sS'19'
p1770
S'  0: ./MG_JEN_simul. (qual=None): .modify(LSM_simul):   None  ->  lsm_current.lsm'
p1771
sS'18'
p1772
S'** JEN_inarg.attach(): attached: ./MG_JEN_Cohset.make_sinks()'
p1773
ssg107
(lp1774
g18
ag8
ag1666
ag10
ag1661
ag25
ag2
ag29
ag28
ag27
ag12
ag26
ag1656
ag1648
ag1652
ag1658
ag1
ag1646
ag14
ag4
aS'./MG_JEN_exec.stream_control()'
p1775
aS'./MG_JEN_Cohset.make_spigots()'
p1776
aS'_JEN_inarg_separator_record:_2'
p1777
ag1650
aS'[simul]./MG_JEN_Sixpack.newstar_source()'
p1778
ag610
aS'[simul]./MG_JEN_Cohset.predict_cps()'
p1779
ag1137
aS'_JEN_inarg_separator_record:_3'
p1780
ag608
ag1003
ag15
ag1613
aS'[solve]./MG_JEN_Cohset.predict_lsm()'
p1781
aS'./MG_JEN_Cohset.insert_solver()'
p1782
aS'_JEN_inarg_separator_record:_4'
p1783
aS'./MG_JEN_Cohset.make_sinks()'
p1784
assg1784
(dp1785
S'fullDomainMux'
p1786
I01
sS'output_col'
p1787
S'PREDICT'
p1788
sS'visu'
p1789
I01
sS'flag'
p1790
I00
sg18
(dp1791
g20
S'MG_JEN_Cohset::make_sinks()'
p1792
sg22
g1784
sg104
S'2006-03-29 19:26'
p1793
sg86
S'** Specific description of inarg record for: MG_JEN_Cohset::make_sinks()  version=25dec2005  defined=2006-03-29 19:26'
p1794
sg30
S'MG_JEN_Cohsetmake_sinks'
p1795
sg32
g33
sg34
S'MG_JEN_Cohset::make_sinks()  version=25dec2005  defined=2006-03-29 19:26'
p1796
sg36
S'make_sinks'
p1797
sg38
(dp1798
g1790
(lp1799
I01
aI00
aS'@@flag'
p1800
asg1789
(lp1801
I01
aI00
aS'@@visu'
p1802
asg1786
(lp1803
I01
aI00
aS'@@fullDomainMux'
p1804
asg1787
(lp1805
g1788
aS'RESIDUALS'
p1806
aS'DATA'
p1807
aS'@@output_col'
p1808
asS'visu_array_config'
p1809
(lp1810
I01
aI00
aS'@@visu_array_config'
p1811
assg77
Nsg82
g83
sg80
g1793
sg84
S'MG_JEN_Cohset'
p1812
sg224
(dp1813
g1790
I00
sg1789
I00
sg1786
I00
sg1809
I00
ssg79
I00
sg107
(lp1814
g18
ag1787
ag1809
ag1789
ag1790
ag1786
asg115
(dp1815
g1790
S'if True, insert a flagger for the output uv-data'
p1816
sg1789
S'if True, visualise the output uv-data'
p1817
sg1786
S'if True, attach an extra VisDataMux'
p1818
sg1787
S'name of the logical (VisTile) output column'
p1819
sg1809
S'if True, visualise the array config (from MS)'
p1820
ssg123
S'Make sink nodes in the given Cohset object'
p1821
ssg1809
I01
ssg27
Nsg1776
(dp1822
g1790
I00
sg1789
I01
sg18
(dp1823
g20
S'MG_JEN_Cohset::make_spigots()'
p1824
sg22
g1776
sg104
S'2006-03-29 19:26'
p1825
sg23
(dp1826
S'input_col'
p1827
I01
ssg30
S'MG_JEN_Cohsetmake_spigots'
p1828
sg32
g33
sg34
S'MG_JEN_Cohset::make_spigots()  version=25dec2005  defined=2006-03-29 19:26'
p1829
sg36
S'make_spigots'
p1830
sg38
(dp1831
g1790
(lp1832
I01
aI00
aS'@@flag'
p1833
asS'MS_corr_index'
p1834
(lp1835
(lp1836
I0
aI1
aI2
aI3
aa(lp1837
I0
aI-1
aI-1
aI1
aa(lp1838
I0
aI-1
aI-1
aI3
aaS'@@MS_corr_index'
p1839
asg1827
(lp1840
g1807
ag1788
ag1806
aS'@@input_col'
p1841
asg1789
(lp1842
I01
aI00
aS'@@visu'
p1843
assg77
Nsg82
g83
sg80
g1825
sg84
S'MG_JEN_Cohset'
p1844
sg224
(dp1845
g1790
I00
sg1789
I00
ssg86
S'** Specific description of inarg record for: MG_JEN_Cohset::make_spigots()  version=25dec2005  defined=2006-03-29 19:26'
p1846
sg79
I00
sg107
(lp1847
g18
ag1827
ag1834
ag1789
ag1790
asg115
(dp1848
g1790
S'if True, insert a flagger for the input uv-data'
p1849
sg1834
S'correlations to be used: \n- [0,1,2,3]:   all corrs available, use all \n- [0,-1,-1,1]: only XX/YY (or RR/LL) available \n- [0,-1,-1,3]: all available, but use only XX/YY or RR/LL'
p1850
sg1827
S'name of the logical (VisTile) input column'
p1851
sg1789
S'if True, visualise the input uv-data'
p1852
ssg123
S'Make spigot nodes in the given Cohset object'
p1853
ssg1827
g1807
sg1834
(lp1854
I0
aI1
aI2
aI3
assg1781
(dp1855
S'[solve_imp]./MG_JEN_Cohset.Jones()'
p1856
(dp1857
S'[solve_imp]./MG_JEN_Joneset.FJones()'
p1858
(dp1859
g126
I00
sg2
S'@@polrep'
p1860
sg129
g130
sg131
I00
sg149
Nsg135
I01
sg136
I10
sg137
g138
sg141
g142
sg143
Nsg18
(dp1861
g20
S'MG_JEN_Joneset::FJones()'
p1862
sg22
g1858
sg23
(dp1863
g137
I01
sg2
I01
sg147
I01
sg25
I01
sg129
I01
sg148
I01
sg141
I01
sg26
I01
sg143
I01
sg149
I01
sg12
I01
sg27
I01
sg28
I01
sg136
I01
sg29
I01
ssg123
g367
sg32
g33
sg34
S'MG_JEN_Joneset::FJones()  version=16dec2005  defined=2006-03-29 19:26'
p1864
sg36
S'FJones'
p1865
sg38
(dp1866
g126
(lp1867
I01
aI00
aS'@@reset_funklet'
p1868
asg2
(lp1869
g3
ag41
ag1860
asg129
(lp1870
g130
aS'@@color'
p1871
asg131
(lp1872
I01
aI00
aS'@@save_all'
p1873
asg149
(lp1874
NaS'@@tfdeg'
p1875
asg135
(lp1876
I01
aI00
aS'@@auto_save'
p1877
asg136
(lp1878
I10
aS'@@size'
p1879
asg137
(lp1880
g138
aS'@@style'
p1881
asg141
(lp1882
g142
aS'@@condeq_corrs'
p1883
asg143
(lp1884
NaS'@@funklet_shape'
p1885
asg27
(lp1886
g56
aS'@@@Jsequence_KJones'
p1887
asg29
(lp1888
g56
aS'@@@Jsequence'
p1889
asg147
(lp1890
F1.0
aS'@@c00_default'
p1891
asg26
(lp1892
I00
aS'@@uvplane_effect'
p1893
asg25
(lp1894
(lp1895
I0
aI1
aI2
aI3
aI4
aa(lp1896
I0
aI1
aI2
aI3
aI4
aI5
aI6
aa(lp1897
I0
aI1
aI2
aI3
aI4
aI5
aI6
aI7
aI8
aI9
aI10
aI11
aI12
aI13
aa(lp1898
I0
aI1
aI2
aI3
aI4
aI5
aI6
aI7
aI8
aI9
aI10
aI11
aI12
aI13
aI14
aag47
aS'@@stations'
p1899
asg404
(lp1900
I0
aI1
aI2
aI3
aS'@@tdeg_RM'
p1901
asg210
(lp1902
I01
aI00
aS'@@use_previous'
p1903
asg409
(lp1904
I0
aI1
aI2
aI3
aS'@@fdeg_RM'
p1905
asg148
(lp1906
NaS'@@subtile_size'
p1907
asg12
(lp1908
Nag69
aS'@@parmtable'
p1909
asg416
(lp1910
NaI1
aI2
aI5
aI10
aI20
aI50
aI100
aI200
aI500
aS'@@subtile_size_RM'
p1911
asg28
(lp1912
g56
aS'@@@Jsequence_simul'
p1913
assg77
S'solve_imp'
p1914
sg79
I00
sg80
S'2006-03-29 19:26'
p1915
sg82
g351
sg84
S'MG_JEN_Joneset'
p1916
sg224
(dp1917
g126
I00
sg131
I00
sg135
I00
sg210
I00
ssg86
S'** Specific description of inarg record for: MG_JEN_Joneset::FJones()  version=16dec2005  defined=2006-03-29 19:26'
p1918
sg105
(dp1919
g26
I00
sg12
I00
sg2
I00
sg25
I00
ssg104
g1915
sg107
(lp1920
g18
ag25
ag2
ag29
ag28
ag27
ag12
ag26
ag404
ag409
ag416
ag210
ag135
ag131
ag126
ag129
ag137
ag136
ag147
ag149
ag143
ag148
ag141
asg115
(dp1921
g126
g230
sg2
g117
sg129
g232
sg131
g233
sg149
g246
sg135
g236
sg136
g237
sg137
g238
sg141
g239
sg143
g240
sg27
g122
sg29
g122
sg147
g242
sg26
g120
sg25
g118
sg404
g428
sg210
g244
sg409
g429
sg148
g245
sg12
g121
sg416
g430
sg28
g122
ssg30
S'MG_JEN_JonesetFJones'
p1922
ssg27
g56
sg29
g56
sg147
F1.0
sg26
g1893
sg25
g1899
sg404
I0
sg210
I01
sg409
I2
sg148
Nsg12
g1909
sg416
I1
sg28
g56
ssg27
NsS'[solve_imp]./MG_JEN_Joneset.JJones()'
p1923
(dp1924
g126
I00
sg2
S'@@polrep'
p1925
sg128
I0
sg129
g130
sg131
I00
sg132
Nsg12
S'@@parmtable'
p1926
sg134
Nsg135
I01
sg136
I10
sg137
g138
sg139
g140
sg141
g142
sg143
Nsg18
(dp1927
g20
S'MG_JEN_Joneset::JJones()'
p1928
sg22
g1923
sg23
(dp1929
g137
I01
sg2
I01
sg147
I01
sg25
I01
sg129
I01
sg148
I01
sg141
I01
sg26
I01
sg143
I01
sg149
I01
sg12
I01
sg27
I01
sg28
I01
sg136
I01
sg29
I01
ssg123
g151
sg32
g33
sg34
S'MG_JEN_Joneset::JJones()  version=14feb2006  defined=2006-03-29 19:26'
p1930
sg36
S'JJones'
p1931
sg38
(dp1932
g126
(lp1933
I01
aI00
aS'@@reset_funklet'
p1934
asg2
(lp1935
g3
ag41
ag1925
asg128
(lp1936
I0
aI1
aI2
aI3
aS'@@tdeg_Jreal'
p1937
asg129
(lp1938
g130
aS'@@color'
p1939
asg131
(lp1940
I01
aI00
aS'@@save_all'
p1941
asg132
(lp1942
Na(lp1943
I14
aa(lp1944
I1
aag167
aS'@@all4_always'
p1945
asg12
(lp1946
Nag69
ag1926
asg134
(lp1947
NaI1
aI2
aI5
aI10
aI20
aI50
aI100
aI200
aI500
aS'@@subtile_size_Jreal'
p1948
asg135
(lp1949
I01
aI00
aS'@@auto_save'
p1950
asg136
(lp1951
I10
aS'@@size'
p1952
asg137
(lp1953
g138
aS'@@style'
p1954
asg139
(lp1955
I0
aI1
aI2
aI3
ag140
aS'@@tdeg_Jimag'
p1956
asg141
(lp1957
g142
aS'@@condeq_corrs'
p1958
asg143
(lp1959
NaS'@@funklet_shape'
p1960
asg27
(lp1961
g63
aS'@@@Jsequence_KJones'
p1962
asg186
(lp1963
I0
aI1
aI2
aI3
aS'@@fdeg_Jreal'
p1964
asg147
(lp1965
F1.0
aS'@@c00_default'
p1966
asg26
(lp1967
I00
aS'@@uvplane_effect'
p1968
asg193
(lp1969
I0
aI1
aI2
aI3
ag195
aS'@@fdeg_Jimag'
p1970
asg197
(lp1971
g199
aNaI1
aI2
aI5
aI10
aI20
aI50
aI100
aI200
aI500
aS'@@subtile_size_Jimag'
p1972
asg25
(lp1973
(lp1974
I0
aI1
aI2
aI3
aI4
aa(lp1975
I0
aI1
aI2
aI3
aI4
aI5
aI6
aa(lp1976
I0
aI1
aI2
aI3
aI4
aI5
aI6
aI7
aI8
aI9
aI10
aI11
aI12
aI13
aa(lp1977
I0
aI1
aI2
aI3
aI4
aI5
aI6
aI7
aI8
aI9
aI10
aI11
aI12
aI13
aI14
aag47
aS'@@stations'
p1978
asg207
(lp1979
I01
aI00
aS'@@diagonal_only'
p1980
asg210
(lp1981
I01
aI00
aS'@@use_previous'
p1982
asg148
(lp1983
NaS'@@subtile_size'
p1984
asg149
(lp1985
NaS'@@tfdeg'
p1986
asg28
(lp1987
g63
aS'@@@Jsequence_simul'
p1988
asg29
(lp1989
g63
aS'@@@Jsequence'
p1990
assg77
g1914
sg79
I00
sg80
S'2006-03-29 19:26'
p1991
sg82
g222
sg84
S'MG_JEN_Joneset'
p1992
sg224
(dp1993
g126
I00
sg207
I00
sg131
I00
sg135
I00
sg210
I00
ssg86
S'** Specific description of inarg record for: MG_JEN_Joneset::JJones()  version=14feb2006  defined=2006-03-29 19:26'
p1994
sg105
(dp1995
g26
I00
sg12
I00
sg2
I00
sg25
I00
ssg104
g1991
sg107
(lp1996
g18
ag25
ag2
ag29
ag28
ag27
ag207
ag132
ag12
ag26
ag128
ag139
ag186
ag193
ag134
ag197
ag210
ag135
ag131
ag126
ag129
ag137
ag136
ag147
ag149
ag143
ag148
ag141
asg115
(dp1997
g126
g230
sg2
g117
sg128
g231
sg129
g232
sg131
g233
sg132
g234
sg12
g121
sg134
g235
sg135
g236
sg136
g237
sg137
g238
sg139
g231
sg141
g239
sg143
g240
sg27
g122
sg186
g241
sg147
g242
sg26
g120
sg193
g241
sg197
g235
sg25
g118
sg207
g243
sg210
g244
sg148
g245
sg149
g246
sg28
g122
sg29
g122
ssg30
S'MG_JEN_JonesetJJones'
p1998
ssg27
g63
sg186
I0
sg147
F1.0
sg26
g1968
sg193
g195
sg197
g199
sg25
g1978
sg207
I00
sg210
I01
sg148
Nsg149
Nsg28
g63
sg29
g63
ssg25
S'@@stations'
p1999
sS'[solve_imp]./MG_JEN_Joneset.BJones()'
p2000
(dp2001
g126
I00
sg2
S'@@polrep'
p2002
sg129
g130
sg280
g281
sg131
I00
sg282
Nsg135
I01
sg136
I10
sg137
g138
sg283
I5
sg141
g142
sg143
Nsg18
(dp2003
g20
S'MG_JEN_Joneset::BJones()'
p2004
sg22
g2000
sg23
(dp2005
g137
I01
sg2
I01
sg147
I01
sg25
I01
sg129
I01
sg148
I01
sg141
I01
sg26
I01
sg143
I01
sg149
I01
sg12
I01
sg27
I01
sg28
I01
sg136
I01
sg29
I01
ssg123
g288
sg32
g33
sg34
S'MG_JEN_Joneset::BJones()  version=16dec2005  defined=2006-03-29 19:26'
p2006
sg36
S'BJones'
p2007
sg38
(dp2008
g126
(lp2009
I01
aI00
aS'@@reset_funklet'
p2010
asg2
(lp2011
g3
ag41
ag2002
asg129
(lp2012
g130
aS'@@color'
p2013
asg280
(lp2014
g281
aNaI1
aI2
aI5
aI10
aI20
aI50
aI100
aI200
aI500
aS'@@subtile_size_Bimag'
p2015
asg131
(lp2016
I01
aI00
aS'@@save_all'
p2017
asg282
(lp2018
NaI1
aI2
aI5
aI10
aI20
aI50
aI100
aI200
aI500
aS'@@subtile_size_Breal'
p2019
asg135
(lp2020
I01
aI00
aS'@@auto_save'
p2021
asg136
(lp2022
I10
aS'@@size'
p2023
asg137
(lp2024
g138
aS'@@style'
p2025
asg283
(lp2026
I3
aI4
aI5
aI6
aS'@@fdeg_Breal'
p2027
asg141
(lp2028
g142
aS'@@condeq_corrs'
p2029
asg143
(lp2030
NaS'@@funklet_shape'
p2031
asg27
(lp2032
g54
aS'@@@Jsequence_KJones'
p2033
asg317
(lp2034
I0
aI1
aI2
aI3
ag319
aS'@@tdeg_Bimag'
p2035
asg29
(lp2036
g54
aS'@@@Jsequence'
p2037
asg147
(lp2038
F1.0
aS'@@c00_default'
p2039
asg325
(lp2040
I3
aI4
aI5
aI6
ag327
aS'@@fdeg_Bimag'
p2041
asg26
(lp2042
I00
aS'@@uvplane_effect'
p2043
asg12
(lp2044
Nag69
aS'@@parmtable'
p2045
asg25
(lp2046
(lp2047
I0
aI1
aI2
aI3
aI4
aa(lp2048
I0
aI1
aI2
aI3
aI4
aI5
aI6
aa(lp2049
I0
aI1
aI2
aI3
aI4
aI5
aI6
aI7
aI8
aI9
aI10
aI11
aI12
aI13
aa(lp2050
I0
aI1
aI2
aI3
aI4
aI5
aI6
aI7
aI8
aI9
aI10
aI11
aI12
aI13
aI14
aag47
aS'@@stations'
p2051
asg339
(lp2052
I0
aI1
aI2
aI3
aS'@@tdeg_Breal'
p2053
asg210
(lp2054
I01
aI00
aS'@@use_previous'
p2055
asg148
(lp2056
NaS'@@subtile_size'
p2057
asg149
(lp2058
NaS'@@tfdeg'
p2059
asg28
(lp2060
g54
aS'@@@Jsequence_simul'
p2061
assg77
g1914
sg79
I00
sg80
S'2006-03-29 19:26'
p2062
sg82
g351
sg84
S'MG_JEN_Joneset'
p2063
sg224
(dp2064
g126
I00
sg131
I00
sg135
I00
sg210
I00
ssg86
S'** Specific description of inarg record for: MG_JEN_Joneset::BJones()  version=16dec2005  defined=2006-03-29 19:26'
p2065
sg105
(dp2066
g26
I00
sg12
I00
sg2
I00
sg25
I00
ssg104
g2062
sg107
(lp2067
g18
ag25
ag2
ag29
ag28
ag27
ag12
ag26
ag339
ag317
ag283
ag325
ag282
ag280
ag210
ag135
ag131
ag126
ag129
ag137
ag136
ag147
ag149
ag143
ag148
ag141
asg115
(dp2068
g126
g230
sg2
g117
sg129
g232
sg280
g358
sg131
g233
sg282
g358
sg135
g236
sg136
g237
sg137
g238
sg283
g359
sg141
g239
sg143
g240
sg27
g122
sg317
g360
sg29
g122
sg147
g242
sg325
g359
sg26
g120
sg12
g121
sg25
g118
sg339
g360
sg210
g244
sg148
g245
sg149
g246
sg28
g122
ssg30
S'MG_JEN_JonesetBJones'
p2069
ssg27
g54
sg317
g319
sg29
g54
sg147
F1.0
sg325
g327
sg26
g2043
sg25
g2051
sg149
Nsg339
I0
sg210
I01
sg148
Nsg12
g2045
sg28
g54
ssS'[solve_imp]./MG_JEN_Joneset.DJones_WSRT()'
p2070
(dp2071
g126
I00
sg2
S'@@polrep'
p2072
sg129
g130
sg520
g521
sg522
I01
sg131
I00
sg12
S'@@parmtable'
p2073
sg524
Nsg135
I01
sg136
I10
sg137
g138
sg141
g142
sg143
Nsg18
(dp2074
g20
S'MG_JEN_Joneset::DJones_WSRT()'
p2075
sg22
g2070
sg23
(dp2076
g137
I01
sg2
I01
sg147
I01
sg25
I01
sg129
I01
sg148
I01
sg141
I01
sg26
I01
sg143
I01
sg149
I01
sg12
I01
sg27
I01
sg28
I01
sg136
I01
sg29
I01
ssg123
g529
sg32
g33
sg34
S'MG_JEN_Joneset::DJones_WSRT()  version=16dec2005  defined=2006-03-29 19:26'
p2077
sg36
S'DJones_WSRT'
p2078
sg38
(dp2079
g126
(lp2080
I01
aI00
aS'@@reset_funklet'
p2081
asg2
(lp2082
g3
ag41
ag2072
asg129
(lp2083
g130
aS'@@color'
p2084
asg520
(lp2085
I0
aI1
aI2
aI3
ag521
aS'@@fdeg_Dell'
p2086
asg522
(lp2087
I01
aI00
aS'@@coupled_XY_Dell'
p2088
asg131
(lp2089
I01
aI00
aS'@@save_all'
p2090
asg12
(lp2091
Nag69
ag2073
asg524
(lp2092
NaI1
aI2
aI5
aI10
aI20
aI50
aI100
aI200
aI500
aS'@@subtile_size_Dang'
p2093
asg135
(lp2094
I01
aI00
aS'@@auto_save'
p2095
asg136
(lp2096
I10
aS'@@size'
p2097
asg137
(lp2098
g138
aS'@@style'
p2099
asg141
(lp2100
g142
aS'@@condeq_corrs'
p2101
asg143
(lp2102
NaS'@@funklet_shape'
p2103
asg27
(lp2104
g60
aS'@@@Jsequence_KJones'
p2105
asg559
(lp2106
g561
aNaI1
aI2
aI5
aI10
aI20
aI50
aI100
aI200
aI500
aS'@@subtile_size_Dell'
p2107
asg29
(lp2108
g60
aS'@@@Jsequence'
p2109
asg565
(lp2110
I0
aI1
aI2
aI3
aS'@@fdeg_Dang'
p2111
asg147
(lp2112
F1.0
aS'@@c00_default'
p2113
asg26
(lp2114
I00
aS'@@uvplane_effect'
p2115
asg572
(lp2116
I0
aI1
aI2
aI3
ag574
aS'@@tdeg_Dell'
p2117
asg576
(lp2118
I01
aI00
aS'@@coupled_XY_Dang'
p2119
asg579
(lp2120
I0
aI1
aI2
aI3
aS'@@tdeg_Dang'
p2121
asg25
(lp2122
(lp2123
I0
aI1
aI2
aI3
aI4
aa(lp2124
I0
aI1
aI2
aI3
aI4
aI5
aI6
aa(lp2125
I0
aI1
aI2
aI3
aI4
aI5
aI6
aI7
aI8
aI9
aI10
aI11
aI12
aI13
aa(lp2126
I0
aI1
aI2
aI3
aI4
aI5
aI6
aI7
aI8
aI9
aI10
aI11
aI12
aI13
aI14
aag47
aS'@@stations'
p2127
asg210
(lp2128
I01
aI00
aS'@@use_previous'
p2129
asg148
(lp2130
NaS'@@subtile_size'
p2131
asg149
(lp2132
NaS'@@tfdeg'
p2133
asg28
(lp2134
g60
aS'@@@Jsequence_simul'
p2135
assg77
g1914
sg79
I00
sg80
S'2006-03-29 19:26'
p2136
sg82
g351
sg84
S'MG_JEN_Joneset'
p2137
sg224
(dp2138
g126
I00
sg522
I00
sg131
I00
sg576
I00
sg210
I00
sg135
I00
ssg86
S'** Specific description of inarg record for: MG_JEN_Joneset::DJones_WSRT()  version=16dec2005  defined=2006-03-29 19:26'
p2139
sg105
(dp2140
g26
I00
sg12
I00
sg2
I00
sg25
I00
ssg104
g2136
sg107
(lp2141
g18
ag25
ag2
ag29
ag28
ag27
ag576
ag522
ag12
ag26
ag579
ag572
ag565
ag520
ag524
ag559
ag210
ag135
ag131
ag126
ag129
ag137
ag136
ag147
ag149
ag143
ag148
ag141
asg115
(dp2142
g126
g230
sg2
g117
sg129
g232
sg520
g603
sg522
g604
sg131
g233
sg12
g121
sg524
g605
sg135
g236
sg136
g237
sg137
g238
sg141
g239
sg143
g240
sg27
g122
sg559
g605
sg29
g122
sg565
g603
sg147
g242
sg26
g120
sg572
g606
sg576
g607
sg579
g606
sg25
g118
sg210
g244
sg148
g245
sg149
g246
sg28
g122
ssg30
S'MG_JEN_JonesetDJones_WSRT'
p2143
ssg27
g60
sg559
g561
sg29
g60
sg565
I0
sg147
F1.0
sg26
g2115
sg572
g574
sg576
I01
sg579
I0
sg25
g2127
sg210
I01
sg148
Nsg149
Nsg28
g60
ssg26
S'@@uvplane_effect'
p2144
sg12
S'@@parmtable'
p2145
sg18
(dp2146
g20
g21
sg22
g1856
sg23
(dp2147
g2
I01
sg25
I01
sg26
I01
sg12
I01
sg27
I01
sg28
I01
sg29
I01
ssg30
S'MG_JEN_CohsetJones'
p2148
sg32
g33
sg123
g124
sg34
S'MG_JEN_Cohset::Jones()  version=25dec2005  defined=2006-03-29 19:26'
p2149
sg36
S'Jones'
p2150
sg38
(dp2151
g2
(lp2152
g3
ag41
aS'@@polrep'
p2153
asg25
(lp2154
(lp2155
I0
aI1
aI2
aI3
aI4
aa(lp2156
I0
aI1
aI2
aI3
aI4
aI5
aI6
aa(lp2157
I0
aI1
aI2
aI3
aI4
aI5
aI6
aI7
aI8
aI9
aI10
aI11
aI12
aI13
aa(lp2158
I0
aI1
aI2
aI3
aI4
aI5
aI6
aI7
aI8
aI9
aI10
aI11
aI12
aI13
aI14
aag47
ag1999
asg26
(lp2159
I00
ag2144
asg12
(lp2160
Nag69
ag2145
asg27
(lp2161
NaS'@@@Jsequence_KJones'
p2162
asg28
(lp2163
NaS'@@@Jsequence_simul'
p2164
asS'Jsequence_solve_imp'
p2165
(lp2166
(lp2167
g52
aa(lp2168
g54
aa(lp2169
g56
aa(lp2170
g58
aa(lp2171
g60
aa(lp2172
g52
ag60
aa(lp2173
g63
aa(lp2174
aS'@@Jsequence_solve_imp'
p2175
asg29
(lp2176
NaS'@@@Jsequence'
p2177
assg77
g1914
sg79
I00
sg80
S'2006-03-29 19:26'
p2178
sg82
g83
sg84
S'MG_JEN_Cohset'
p2179
sg86
S'** Specific description of inarg record for: MG_JEN_Cohset::Jones()  version=25dec2005  defined=2006-03-29 19:26'
p2180
sg88
(dp2181
g90
S'** JEN_inarg.attach(): attached: [solve_imp]./MG_JEN_Joneset.FJones()'
p2182
sg92
S'** JEN_inarg.attach(): attached: [solve_imp]./MG_JEN_Joneset.GJones()'
p2183
sg94
S'** JEN_inarg.attach(): attached: [solve_imp]./MG_JEN_Joneset.KJones()'
p2184
sg96
S'** JEN_inarg.attach(): attached: [solve_imp]./MG_JEN_Joneset.BJones()'
p2185
sg98
S'** JEN_inarg.attach(): attached: [solve_imp]./MG_JEN_Joneset.JJones()'
p2186
sg100
S'** JEN_inarg.attach(): attached: [solve_imp]./MG_JEN_Joneset.DJones_WSRT()'
p2187
ssg104
g2178
sg105
(dp2188
g26
I00
sg12
I00
sg2
I00
sg25
I00
ssg107
(lp2189
g18
ag25
ag2
ag29
ag28
ag27
ag12
ag26
ag2165
aS'[solve_imp]./MG_JEN_Joneset.GJones()'
p2190
ag1858
ag2000
aS'[solve_imp]./MG_JEN_Joneset.KJones()'
p2191
ag2070
ag1923
asg115
(dp2192
g2
g117
sg25
g118
sg26
g120
sg12
g121
sg27
g122
sg28
g122
sg2165
g119
sg29
g122
sssg2190
(dp2193
g126
I00
sg2
S'@@polrep'
p2194
sg433
I0
sg129
g130
sg131
I00
sg12
S'@@parmtable'
p2195
sg135
I01
sg136
I10
sg137
g138
sg435
I1
sg141
g142
sg143
Nsg18
(dp2196
g20
S'MG_JEN_Joneset::GJones()'
p2197
sg22
g2190
sg23
(dp2198
g136
I01
sg137
I01
sg2
I01
sg147
I01
sg25
I01
sg129
I01
sg148
I01
sg141
I01
sg26
I01
sg143
I01
sg149
I01
sg12
I01
sg27
I01
sg28
I01
sg439
I01
sg29
I01
ssg123
g441
sg32
g33
sg34
S'MG_JEN_Joneset::GJones()  version=15dec2005  defined=2006-03-29 19:26'
p2199
sg36
S'GJones'
p2200
sg38
(dp2201
g126
(lp2202
I01
aI00
aS'@@reset_funklet'
p2203
asg2
(lp2204
g3
ag41
ag2194
asg433
(lp2205
I0
aI1
aI2
aI3
aS'@@fdeg_Ggain'
p2206
asg129
(lp2207
g130
aS'@@color'
p2208
asg131
(lp2209
I01
aI00
aS'@@save_all'
p2210
asg12
(lp2211
Nag69
ag2195
asg135
(lp2212
I01
aI00
aS'@@auto_save'
p2213
asg136
(lp2214
I10
aS'@@size'
p2215
asg137
(lp2216
g138
aS'@@style'
p2217
asg435
(lp2218
NaI1
aI2
aI5
aI10
aI20
aI50
aI100
aI200
aI500
aS'@@subtile_size_Ggain'
p2219
asg141
(lp2220
g142
aS'@@condeq_corrs'
p2221
asg143
(lp2222
NaS'@@funklet_shape'
p2223
asg27
(lp2224
g52
aS'@@@Jsequence_KJones'
p2225
asg29
(lp2226
g52
aS'@@@Jsequence'
p2227
asg147
(lp2228
F1.0
aS'@@c00_default'
p2229
asg473
(lp2230
I0
aI1
aI2
aI3
ag475
aS'@@tdeg_Gphase'
p2231
asg477
(lp2232
I0
aI1
aI2
aI3
aS'@@tdeg_Ggain'
p2233
asg480
(lp2234
I0
aI1
aI2
aI3
ag482
aS'@@fdeg_Gphase'
p2235
asg484
(lp2236
g486
aNaI1
aI2
aI5
aI10
aI20
aI50
aI100
aI200
aI500
aS'@@subtile_size_Gphase'
p2237
asg439
(lp2238
I01
aI00
aS'@@Gpolar'
p2239
asg26
(lp2240
I00
aS'@@uvplane_effect'
p2241
asg25
(lp2242
(lp2243
I0
aI1
aI2
aI3
aI4
aa(lp2244
I0
aI1
aI2
aI3
aI4
aI5
aI6
aa(lp2245
I0
aI1
aI2
aI3
aI4
aI5
aI6
aI7
aI8
aI9
aI10
aI11
aI12
aI13
aa(lp2246
I0
aI1
aI2
aI3
aI4
aI5
aI6
aI7
aI8
aI9
aI10
aI11
aI12
aI13
aI14
aag47
aS'@@stations'
p2247
asg210
(lp2248
I01
aI00
aS'@@use_previous'
p2249
asg148
(lp2250
NaS'@@subtile_size'
p2251
asg149
(lp2252
NaS'@@tfdeg'
p2253
asg28
(lp2254
g52
aS'@@@Jsequence_simul'
p2255
assg77
g1914
sg79
I00
sg80
S'2006-03-29 19:26'
p2256
sg82
g507
sg84
S'MG_JEN_Joneset'
p2257
sg224
(dp2258
g126
I00
sg439
I00
sg131
I00
sg135
I00
sg210
I00
ssg86
S'** Specific description of inarg record for: MG_JEN_Joneset::GJones()  version=15dec2005  defined=2006-03-29 19:26'
p2259
sg105
(dp2260
g26
I00
sg12
I00
sg2
I00
sg25
I00
ssg104
g2256
sg107
(lp2261
g18
ag25
ag2
ag29
ag28
ag27
ag439
ag12
ag26
ag477
ag473
ag433
ag480
ag435
ag484
ag210
ag135
ag131
ag126
ag129
ag137
ag136
ag147
ag149
ag143
ag148
ag141
asg115
(dp2262
g126
g230
sg2
g117
sg433
g514
sg129
g232
sg131
g233
sg12
g121
sg135
g236
sg136
g237
sg137
g238
sg435
g515
sg141
g239
sg143
g240
sg27
g122
sg29
g122
sg147
g242
sg473
g516
sg477
g516
sg480
g514
sg484
g515
sg439
g517
sg26
g120
sg25
g118
sg210
g244
sg148
g245
sg149
g246
sg28
g122
ssg30
S'MG_JEN_JonesetGJones'
p2263
ssg27
g52
sg29
g52
sg147
F1.0
sg473
g475
sg477
I0
sg480
g482
sg484
g486
sg439
I01
sg26
g2241
sg25
g2247
sg210
I01
sg148
Nsg149
Nsg28
g52
ssg2
g2153
sg28
Nsg2191
(dp2264
g2
S'@@polrep'
p2265
sg25
S'@@stations'
p2266
sg18
(dp2267
g20
S'MG_JEN_Joneset::KJones()'
p2268
sg22
g2191
sg23
(dp2269
g27
I01
sg28
I01
sg29
I01
sg2
I01
sg25
I01
ssg123
g254
sg32
g33
sg34
S'MG_JEN_Joneset::KJones()  version=12dec2005  defined=2006-03-29 19:26'
p2270
sg36
S'KJones'
p2271
sg38
(dp2272
g27
(lp2273
g58
aS'@@@Jsequence_KJones'
p2274
asg28
(lp2275
g58
aS'@@@Jsequence_simul'
p2276
asg29
(lp2277
g58
aS'@@@Jsequence'
p2278
asg2
(lp2279
g3
ag41
ag2265
asg25
(lp2280
(lp2281
I0
aI1
aI2
aI3
aI4
aa(lp2282
I0
aI1
aI2
aI3
aI4
aI5
aI6
aa(lp2283
I0
aI1
aI2
aI3
aI4
aI5
aI6
aI7
aI8
aI9
aI10
aI11
aI12
aI13
aa(lp2284
I0
aI1
aI2
aI3
aI4
aI5
aI6
aI7
aI8
aI9
aI10
aI11
aI12
aI13
aI14
aag47
ag2266
assg77
g1914
sg79
I00
sg80
S'2006-03-29 19:26'
p2285
sg82
g271
sg84
S'MG_JEN_Joneset'
p2286
sg86
S'** Specific description of inarg record for: MG_JEN_Joneset::KJones()  version=12dec2005  defined=2006-03-29 19:26'
p2287
sg105
(dp2288
g2
I00
sg25
I00
ssg104
g2285
sg107
(lp2289
g18
ag25
ag2
ag29
ag28
ag27
asg115
(dp2290
g27
g122
sg28
g122
sg29
g122
sg2
g117
sg25
g118
ssg30
S'MG_JEN_JonesetKJones'
p2291
ssg27
g58
sg28
g58
sg29
g58
ssg2165
(lp2292
sg29
Nssg2
S'@@polrep'
p2293
sg25
S'@@stations'
p2294
sg18
(dp2295
g20
g1142
sg22
g1781
sg23
(dp2296
g27
I01
sg28
I01
sg29
I01
sg2
I01
sg25
I01
ssg30
S'MG_JEN_Cohsetpredict_lsm'
p2297
sg32
g33
sg34
S'MG_JEN_Cohset::predict_lsm()  version=20mar2006  defined=2006-03-29 19:26'
p2298
sg36
S'predict_lsm'
p2299
sg38
(dp2300
g2
(lp2301
g3
ag41
ag2293
asg25
(lp2302
(lp2303
I0
aI1
aI2
aI3
aI4
aa(lp2304
I0
aI1
aI2
aI3
aI4
aI5
aI6
aa(lp2305
I0
aI1
aI2
aI3
aI4
aI5
aI6
aI7
aI8
aI9
aI10
aI11
aI12
aI13
aa(lp2306
I0
aI1
aI2
aI3
aI4
aI5
aI6
aI7
aI8
aI9
aI10
aI11
aI12
aI13
aI14
aag47
ag2294
asg1154
(lp2307
I1
aI2
aI3
aI5
aI10
aI20
aI100
aS'@@nr_lsm_sources'
p2308
asg27
(lp2309
NaS'@@@Jsequence_KJones'
p2310
asg28
(lp2311
NaS'@@@Jsequence_simul'
p2312
asg29
(lp2313
NaS'@@@Jsequence'
p2314
assg77
g1023
sg79
I00
sg80
S'2006-03-29 19:26'
p2315
sg82
g1165
sg84
S'MG_JEN_Cohset'
p2316
sg86
S'** Specific description of inarg record for: MG_JEN_Cohset::predict_lsm()  version=20mar2006  defined=2006-03-29 19:26'
p2317
sg88
(dp2318
g90
S'  1: ..[solve]./MG_JEN_Cohset.predict_lsm() (qual=None): .modify(nr_lsm_sources):   1  ->  100'
p2319
sg92
S'** JEN_inarg.attach(): attached: [solve_imp]./MG_JEN_Cohset.Jones()'
p2320
ssg104
g2315
sg105
(dp2321
g2
I00
sg25
I00
ssg107
(lp2322
g18
ag1154
ag25
ag2
ag29
ag28
ag27
ag1856
asg115
(dp2323
g2
g117
sg25
g118
sg1154
g1175
sg27
g122
sg28
g122
sg29
g122
ssg123
g1176
ssg1154
I100
sg27
Nsg28
Nsg29
Nssg29
Nsg1650
g609
sg1666
g1694
sg26
I01
sg1658
Nsg1779
(dp2324
g2
S'@@polrep'
p2325
sg25
S'@@stations'
p2326
sg18
(dp2327
g20
g1618
sg22
g1779
sg23
(dp2328
g27
I01
sg28
I01
sg29
I01
sg2
I01
sg25
I01
ssg30
S'MG_JEN_Cohsetpredict_cps'
p2329
sg32
g33
sg34
S'MG_JEN_Cohset::predict_cps()  version=20mar2006  defined=2006-03-29 19:26'
p2330
sg36
S'predict_cps'
p2331
sg38
(dp2332
g27
(lp2333
NaS'@@@Jsequence_KJones'
p2334
asg28
(lp2335
NaS'@@@Jsequence_simul'
p2336
asg29
(lp2337
NaS'@@@Jsequence'
p2338
asg2
(lp2339
g3
ag41
ag2325
asg25
(lp2340
(lp2341
I0
aI1
aI2
aI3
aI4
aa(lp2342
I0
aI1
aI2
aI3
aI4
aI5
aI6
aa(lp2343
I0
aI1
aI2
aI3
aI4
aI5
aI6
aI7
aI8
aI9
aI10
aI11
aI12
aI13
aa(lp2344
I0
aI1
aI2
aI3
aI4
aI5
aI6
aI7
aI8
aI9
aI10
aI11
aI12
aI13
aI14
aag47
ag2326
assg77
g1163
sg79
I00
sg80
S'2006-03-29 19:26'
p2345
sg82
g1165
sg84
S'MG_JEN_Cohset'
p2346
sg86
S'** Specific description of inarg record for: MG_JEN_Cohset::predict_cps()  version=20mar2006  defined=2006-03-29 19:26'
p2347
sg105
(dp2348
g2
I00
sg25
I00
ssg104
g2345
sg107
(lp2349
g18
ag25
ag2
ag29
ag28
ag27
asg115
(dp2350
g27
g122
sg28
g122
sg29
g122
sg2
g117
sg25
g118
ssg123
g1176
ssg27
Nsg28
Nsg29
Nssg1646
F0.0
sg1648
I00
sg1661
I1
sg25
g1688
sg1783
(dp2351
g6
S'finishing touches'
p2352
ssg1775
(dp2353
S'channel_start_index'
p2354
I0
sS'data_column_name'
p2355
S'CORRECTED_DATA'
p2356
sS'predict_column'
p2357
g2356
sg10
S'@@ms_name'
p2358
sg18
(dp2359
g22
g1775
sg115
(dp2360
g2354
S'(inputrec.sel) index of first selected freq channel'
p2361
sg2355
S'(inputrec) MS input column'
p2362
sg2357
S'MS output column to be associated with the VisTile predict-column'
p2363
sg10
g1655
sg1661
g1662
sS'channel_increment'
p2364
S'(inputrec.sel) take every nth channel (1=all)'
p2365
sS'channel_end_index'
p2366
S'(inputrec.sel) index of last selected freq channel'
p2367
sS'write_flags'
p2368
S'(outputrec) if True, write flags to MS'
p2369
ssg32
g33
sg84
S'MG_JEN_exec'
p2370
sg23
(dp2371
g10
I01
sg1661
I01
ssg1667
(dp2372
g10
g1669
ssg82
S'20jan2006'
p2373
sg105
(dp2374
g10
I00
sg1661
I00
ssg123
S'** Description of script: MG_JEN_exec::stream_control()  version=20jan2006  defined=2006-03-29 19:26'
p2375
sg224
(dp2376
g2368
I00
ssg34
S'MG_JEN_exec::stream_control()  version=20jan2006  defined=2006-03-29 19:26'
p2377
sg38
(dp2378
g2354
(lp2379
I0
aI5
aI10
aI20
aS'@@channel_start_index'
p2380
asg2355
(lp2381
g1807
ag2356
aS'@@data_column_name'
p2382
asg2357
(lp2383
g1807
ag2356
aS'MODEL_DATA'
p2384
aS'@@predict_column'
p2385
asg10
(lp2386
g11
ag2358
asg1661
(lp2387
I1
aI2
aI3
aI5
aI10
aI20
aI50
aI100
aS'@@tile_size'
p2388
asg2364
(lp2389
I1
aI2
aI3
aI5
aI10
aS'@@channel_increment'
p2390
asg2366
(lp2391
I-1
aI25
aI50
aI100
aS'@@channel_end_index'
p2392
asg2368
(lp2393
I01
aI00
aS'@@write_flags'
p2394
assg77
Nsg104
S'2006-03-29 19:26'
p2395
sg20
S'MG_JEN_exec::stream_control()'
p2396
sg86
S'** Specific description of inarg record for: MG_JEN_exec::stream_control()  version=20jan2006  defined=2006-03-29 19:26'
p2397
sg30
S'MG_JEN_execstream_control'
p2398
sg36
S'stream_control'
p2399
sg79
I00
sg80
g2395
sg88
(dp2400
g90
S'  1: .../MG_JEN_exec.stream_control() (qual=None): .modify(channel_start_index):   10  ->  0'
p2401
sg92
S'  1: .../MG_JEN_exec.stream_control() (qual=None): .modify(data_column_name):   DATA  ->  CORRECTED_DATA'
p2402
sg96
S'  1: .../MG_JEN_exec.stream_control() (qual=None): .modify(channel_end_index):   50  ->  -1'
p2403
ssg107
(lp2404
g18
ag10
ag1661
ag2355
ag2354
ag2366
ag2364
ag2368
ag2357
assg1661
g2388
sg2364
I1
sg2366
I-1
sg2368
I00
ssg1652
I00
sg1780
(dp2405
g6
S'solver-branch (ParmSet)'
p2406
ssg1777
(dp2407
g6
S'uv-data simulation (LeafSet)'
p2408
ssg1656
I01
sg28
Nsg1778
(dp2409
g1005
F1000000.0
sg126
I00
sg1006
F0.0
sg1007
I00
sg129
g130
sg131
I00
sg1008
g1009
sg12
g13
sg1010
Nsg135
I01
sg136
I10
sg137
g138
sg1011
F1.0
sg148
Nsg141
g142
sg1012
Nsg143
Nsg1013
F0.0
sg18
(dp2410
g20
g1015
sg22
g1778
sg104
S'2006-03-29 19:26'
p2411
sg23
(dp2412
g1005
I01
sg1006
I01
sg1007
I01
sg1018
I01
sg147
I01
sg143
I01
sg129
I01
sg1008
I01
sg1019
I01
sg1020
I00
sg148
I01
sg1013
I01
sg141
I01
sg149
I01
sg137
I01
sg1021
I01
sg136
I01
ssg30
S'MG_JEN_Sixpacknewstar_source'
p2413
sg77
g1163
sg32
g33
sg34
S'MG_JEN_Sixpack::newstar_source()  version=10feb2006  defined=2006-03-29 19:26'
p2414
sg36
S'newstar_source'
p2415
sg38
(dp2416
g1005
(lp2417
F1000000.0
aS'@@f0'
p2418
asg126
(lp2419
I01
aI00
aS'@@reset_funklet'
p2420
asg1006
(lp2421
F0.0
aF1.0
aF10.0
aF100.0
aS'@@major'
p2422
asg1007
(lp2423
I01
aI00
aS'@@unsolvable'
p2424
asg129
(lp2425
g130
aS'@@color'
p2426
asg131
(lp2427
I01
aI00
aS'@@save_all'
p2428
asg1008
(lp2429
g1009
ag1040
aS'@@shape'
p2430
asg12
(lp2431
NaS'@@parmtable'
p2432
asg1010
(lp2433
NaF-0.10000000000000001
aF0.050000000000000003
aF-0.01
aS'@@Upct'
p2434
asg135
(lp2435
I01
aI00
aS'@@auto_save'
p2436
asg136
(lp2437
I10
aS'@@size'
p2438
asg137
(lp2439
g138
aS'@@style'
p2440
asg1011
(lp2441
F1.0
aF10.0
aS'@@I0'
p2442
asg148
(lp2443
NaS'@@subtile_size'
p2444
asg141
(lp2445
g142
aS'@@condeq_corrs'
p2446
asg1012
(lp2447
NaF0.01
aF-0.0050000000000000001
aF0.001
aS'@@Vpct'
p2448
asg143
(lp2449
NaS'@@funklet_shape'
p2450
asg1013
(lp2451
F0.0
aF1.0
aF-0.5
aS'@@pa'
p2452
asg1064
(lp2453
F0.0
aF0.5
aF1.0
aF1.4950000000000001
aF4.3570000000000002
aS'@@RA'
p2454
asg1067
(lp2455
NaF1.0
aF3.0
aF10.0
aF-10.0
aF60.0
aS'@@RM'
p2456
asg1021
(lp2457
F0.0
aF0.5
aF5.0
aF50.0
aS'@@minor'
p2458
asg147
(lp2459
F1.0
aS'@@c00_default'
p2460
asg1074
(lp2461
NaF0.10000000000000001
aF-0.050000000000000003
aF0.01
aS'@@Qpct'
p2462
asg1020
(lp2463
g1078
ag1079
ag1080
ag1081
ag1082
ag1083
ag1084
ag1085
ag1086
ag1087
ag1088
ag1089
ag1090
ag1091
ag1092
aS'@@punit'
p2464
asg1094
(lp2465
F0.5
aF1.0
aF0.87
aF1.0920000000000001
aS'@@Dec'
p2466
asg1018
(lp2467
NaS'@@name'
p2468
asg1019
(lp2469
I01
aI00
aS'@@fsr_trace'
p2470
asg210
(lp2471
I01
aI00
aS'@@use_previous'
p2472
asg1103
(lp2473
NaF-0.69999999999999996
a(lp2474
F0.44700000000000001
aF-0.184
aaS'@@SI'
p2475
asg149
(lp2476
NaS'@@tfdeg'
p2477
assg1109
(dp2478
g1020
I01
ssg82
g1111
sg80
g2411
sg84
S'MG_JEN_Sixpack'
p2479
sg224
(dp2480
g126
I00
sg1007
I00
sg1019
I00
sg131
I00
sg210
I00
sg135
I00
ssg86
S'** Specific description of inarg record for: MG_JEN_Sixpack::newstar_source()  version=10feb2006  defined=2006-03-29 19:26'
p2481
sg88
(dp2482
g92
S'  1: ..[simul]./MG_JEN_Sixpack.newstar_source() (qual=None): .modify(parmtable):   None  ->  simul_lsm_GJones'
p2483
ssg79
I00
sg107
(lp2484
g18
ag1020
ag1018
ag12
ag1007
ag1011
ag1074
ag1010
ag1012
ag1067
ag1103
ag1005
ag1064
ag1094
ag1019
ag1008
ag1006
ag1021
ag1013
ag210
ag135
ag131
ag126
ag129
ag137
ag136
ag147
ag149
ag143
ag148
ag141
asg115
(dp2485
g1005
g1119
sg126
g230
sg1006
g1120
sg1007
g1121
sg129
g232
sg131
g233
sg1008
g1122
sg12
g1123
sg1010
g1124
sg135
g236
sg136
g237
sg137
g238
sg1011
g1125
sg148
g245
sg141
g239
sg1012
g1126
sg143
g240
sg1013
g1127
sg1064
g1128
sg1067
g1129
sg1021
g1130
sg147
g242
sg1074
g1131
sg1020
S'name of calibrator source/patch \n- unpol:   unpolarised, I=1Jy \n- unpol2:  idem, I=2Jy \n- unpol10: idem, I=10Jy \n- RMtest:  Rotation Measure \n- SItest:  Spectral Index \n- QUV:     non-zero Q,U,V \n- QU:      non-zero Q,U \n- QU2:     stronger version of QU \n- Qonly:   non-zero Q \n- Uonly:   non-zero U \n- Vonly:   non-zero V \n- 3c286:   \n- 3c48:    \n- 3c295:   \n- 3c147:   \n- D1:      cps in D1.MS \n'
p2486
sg1094
g1133
sg1019
g1134
sg210
g244
sg1103
g1135
sg149
g246
ssg123
g1136
ssg1067
Nsg1021
F0.0
sg1064
F1.4950000000000001
sg147
F1.0
sg1074
Nsg1020
g1078
sg1094
F0.87
sg1018
Nsg1019
I01
sg210
I01
sg1103
Nsg149
Nssg1782
(dp2487
S'correct_after'
p2488
I01
sg1648
S'@@master_reqseq'
p2489
sS'condeq_unop'
p2490
Nsg1789
I01
sg1652
S'@@redun'
p2491
sS'solver_subtree'
p2492
NsS'subtract_after'
p2493
I00
sg1656
S'@@chain_solvers'
p2494
sg18
(dp2495
g20
S'MG_JEN_Cohset::insert_solver()'
p2496
sg22
g1782
sg23
(dp2497
g1648
I01
sg1652
I01
sg2492
I01
sg1656
I01
sS'flag_residuals'
p2498
I01
sg1658
I01
ssg30
S'MG_JEN_Cohsetinsert_solver'
p2499
sg32
g33
sg34
S'MG_JEN_Cohset::insert_solver()  version=25dec2005  defined=2006-03-29 19:26'
p2500
sg36
S'insert_solver'
p2501
sg38
(dp2502
g2488
(lp2503
I01
aI00
aS'@@correct_after'
p2504
asg1648
(lp2505
I01
aI00
ag2489
asg2490
(lp2506
NaS'Abs'
p2507
aS'Arg'
p2508
aS'@@condeq_unop'
p2509
asg1789
(lp2510
I01
aI00
aS'@@visu'
p2511
asg1652
(lp2512
I01
aI00
ag2491
asg2492
(lp2513
NaS'@@solver_subtree'
p2514
asg2493
(lp2515
I01
aI00
aS'@@subtract_after'
p2516
asg1656
(lp2517
I01
ag2494
asg2498
(lp2518
I01
aI00
aS'@@flag_residuals'
p2519
asg1658
(lp2520
Na(lp2521
I5
aI2
aa(lp2522
I2
aI2
aa(lp2523
I3
aI3
aaS'@@num_cells'
p2524
assg77
Nsg79
I00
sg80
S'2006-03-29 19:26'
p2525
sg82
g83
sg84
S'MG_JEN_Cohset'
p2526
sg224
(dp2527
g2488
I00
sg1648
I00
sg1789
I00
sg1652
I00
sg2493
I00
sg2498
I00
ssg86
S'** Specific description of inarg record for: MG_JEN_Cohset::insert_solver()  version=25dec2005  defined=2006-03-29 19:26'
p2528
sg88
(dp2529
g92
S'** JEN_inarg.attach(): attached: ./MG_JEN_Cohset.solver_subtree()'
p2530
ssg104
g2525
sg105
(dp2531
g1652
I00
sg1656
I00
sg1648
I00
sg1658
I00
ssg107
(lp2532
g18
ag2492
ag1652
ag1658
ag1656
ag1648
ag2490
ag1789
ag2493
ag2488
ag2498
aS'./MG_JEN_Cohset.solver_subtree()'
p2533
asg115
(dp2534
g2488
S'if True, correct measured with predicted.Joneset'
p2535
sg1648
g1649
sg2490
S'Optional unary operation on Condeq inputs'
p2536
sg1789
S'if True, include full visualisation'
p2537
sg1652
g1653
sg2492
S'solver subtree qualifier(s)'
p2538
sg2493
S'if True, subtract predicted from measured'
p2539
sg1656
g1657
sg2498
S'if True, flag the residuals'
p2540
sg1658
g1659
ssg123
S'insert one or more solver subtrees in the data stream'
p2541
ssg1658
g2524
sg2533
(dp2542
S'rmin'
p2543
NsS'setBalanced'
p2544
I00
sg1789
I01
sS'epsilon'
p2545
F0.0001
sS'rmax'
p2546
NsS'derivative_eps'
p2547
F1e-08
sS'usesvd'
p2548
I01
sS'debug_level'
p2549
I10
sS'solvegroup'
p2550
(lp2551
g52
asg18
(dp2552
g20
S'MG_JEN_Cohset::solver_subtree()'
p2553
sg22
g2533
sg88
(dp2554
g90
S'  2: ...../MG_JEN_Cohset.solver_subtree() (qual=None): .modify(num_iter):   5  ->  2'
p2555
sg92
S"  2: ...../MG_JEN_Cohset.solver_subtree() (qual=None): .modify(solvegroup):   []  ->  ['GJones']"
p2556
ssg23
(dp2557
g2549
I01
sg2547
I01
sg2544
I01
sS'epsval'
p2558
I01
sg1658
I00
ssg30
S'MG_JEN_Cohsetsolver_subtree'
p2559
sg32
g33
sg123
S'Make a solver-subtree for the given Condeq Cohset'
p2560
sg34
S'MG_JEN_Cohset::solver_subtree()  version=20dec2005  defined=2006-03-29 19:26'
p2561
sg36
S'solver_subtree'
p2562
sg38
(dp2563
g2543
(lp2564
NaI100
aI200
aI500
aS'@@rmin'
p2565
asg1789
(lp2566
I01
aI00
aS'@@visu'
p2567
asg2545
(lp2568
F0.001
aF0.0001
aF1.0000000000000001e-05
aS'@@epsilon'
p2569
asS'colin_factor'
p2570
(lp2571
F1e-08
aF0.0
aS'@@colin_factor'
p2572
asg2546
(lp2573
NaI500
aI1000
aI2000
aS'@@rmax'
p2574
asg2547
(lp2575
F1e-08
aF0.001
aF0.0001
aF1.0000000000000001e-05
aS'@@derivative_eps'
p2576
asg2548
(lp2577
I01
aI00
aS'@@usesvd'
p2578
asg2549
(lp2579
I10
aS'@@debug_level'
p2580
asg2550
(lp2581
(lp2582
a(lp2583
g52
aa(lp2584
S'Ggain'
p2585
aa(lp2586
S'Gphase'
p2587
aa(lp2588
S'Gpol1'
p2589
aa(lp2590
S'Gpol2'
p2591
aa(lp2592
g63
aa(lp2593
g63
aS'stokesU'
p2594
aa(lp2595
g63
aS'stokesQ'
p2596
aa(lp2597
g63
aS'stokesV'
p2598
aa(lp2599
S'stokesQU'
p2600
ag63
aa(lp2601
S'stokesQUV'
p2602
ag63
aa(lp2603
g52
aS'stokesI'
p2604
aa(lp2605
g2604
aa(lp2606
S'stokesIQU'
p2607
aa(lp2608
S'stokesIQUV'
p2609
aa(lp2610
S'stokesIV'
p2611
aa(lp2612
g2600
aa(lp2613
g2602
aa(lp2614
g52
aS'DJones'
p2615
aa(lp2616
g2615
aa(lp2617
S'Dang'
p2618
aa(lp2619
S'Dell'
p2620
aa(lp2621
S'Dreal'
p2622
aa(lp2623
S'Dimag'
p2624
aa(lp2625
g52
ag2615
ag56
aa(lp2626
g56
aa(lp2627
g52
ag54
aa(lp2628
g54
aa(lp2629
S'Breal'
p2630
aa(lp2631
S'Bimag'
p2632
aa(lp2633
S'Bpol1'
p2634
aa(lp2635
S'Bpol2'
p2636
aaS'@@solvegroup'
p2637
asg2558
(lp2638
F1e-08
aF0.001
aF0.0001
aF1.0000000000000001e-05
aS'@@epsval'
p2639
asg1658
(lp2640
Na(lp2641
I5
aI2
aa(lp2642
I2
aI2
aa(lp2643
I3
aI3
aaS'@@num_cells'
p2644
asg2544
(lp2645
I01
aI00
aS'@@setBalanced'
p2646
asS'num_iter'
p2647
(lp2648
I1
aI3
aI5
aI10
aI20
aS'@@num_iter'
p2649
asS'condition'
p2650
(lp2651
NaS'Gphase_X_sum=0.0'
p2652
aS'Gphase_Y_sum=0.0'
p2653
a(lp2654
g2652
ag2653
aa(lp2655
S'Gphase_X_first=0.0'
p2656
aS'Gphase_Y_first=0.0'
p2657
aa(lp2658
S'Gphase_X_last=0.0'
p2659
aS'Gphase_Y_last=0.0'
p2660
aaS'Dang_sum=0.0'
p2661
a(lp2662
S'Bimag_X_sum=0.0'
p2663
aS'Bimag_Y_sum=0.0'
p2664
aa(lp2665
S'Breal_X_product=1.0'
p2666
aS'Breal_Y_product=1.0'
p2667
aaS'@@condition'
p2668
asS'history'
p2669
(lp2670
I01
aI00
aS'@@history'
p2671
assg77
Nsg82
S'20dec2005'
p2672
sg80
S'2006-03-29 19:26'
p2673
sg84
S'MG_JEN_Cohset'
p2674
sg224
(dp2675
g2548
I00
sg2544
I00
sg1789
I00
sg2669
I00
ssg86
S'** Specific description of inarg record for: MG_JEN_Cohset::solver_subtree()  version=20dec2005  defined=2006-03-29 19:26'
p2676
sg79
I00
sg104
g2673
sg107
(lp2677
g18
ag2550
ag2650
ag2543
ag2546
ag1658
ag2647
ag2545
ag2558
ag2547
ag2570
ag2548
ag2544
ag2549
ag1789
ag2669
asg115
(dp2678
g2543
S'if specified, only use baselines>=rmin'
p2679
sg1789
S'if True, include visualisation'
p2680
sg2545
S'iteration control criterion...'
p2681
sg2570
S'colinearity factor'
p2682
sg2546
S'if specified, only use baselines<=rmax'
p2683
sg2547
S'NEW: also iteration control...'
p2684
sg2548
S'if True, use Singular Value Decomposition (SVD)'
p2685
sg2549
S'solver debug_level'
p2686
sg2550
S'group (list) of parmgroups, to be solved for:\n- [GJones]:  all GJones MeqParms\n- [Ggain]:   GJones station gains (both pols)\n- [Gphase]:  GJones station phases (both pols)\n- [Gpol1]:   All GJones MeqParms for pol1 (X or R)\n- [Gpol2]:   All GJones MeqParms for pol2 (Y or L)\n- [JJones,stokesU]:     actually solves for U!\n- [JJones,stokesQ]:     -> zero Q(?), but better freq sol(?)\n- [JJones,stokesV]:     -> punit V(?)...\n- [stokesI]:    stokes I (incl SI(f), if relevant)\n- [stokesIQU]:  stokes I,Q,U (incl RM and SI(f))\n- [stokesIQUV]: stokes I,Q,U,V (incl RM and SI(f))'
p2687
sg2558
S'NEW: WNB version of epsilon....'
p2688
sg1658
g1659
sg2544
S'NEW: if True, add (..) to diagonal, otherwise multiply (1+lambda)'
p2689
sg2647
S'max number of iterations (now also in fitter)'
p2690
sg2650
S'(list of) extra condition equations:\n- [...phase_sum=0.0]:   sum of phases = zero\n- [...phase_first=0.0]: phase of first station = zero\n- [...phase_last=0.0]:  phase of last station = zero\n- [Dang_sum=0.0]:   sum of dipole pos.angle errors = zero\n- [...imag_sum=0.0]:   sum of imag.parts = zero\n- [...real_product=1.0]:   product of real.parts = unity'
p2691
sg2669
S'if True, include history collection of metrics'
p2692
sssg1658
Nsg2558
F1e-08
sg2669
I01
sg2647
I2
sg2650
Nsg2570
F0.0
ssg2498
I00
ss.