(dp0
S'add_to_existing'
p1
I00
sS'polrep'
p2
S'linear'
p3
sS'external_uvp_Joneset'
p4
I00
sS'_JEN_inarg_separator_record:_1'
p5
(dp6
S'txt'
p7
S'uv-data (MS) stream_control'
p8
ssS'script_name'
p9
S'MG_JEN_simul'
p10
sS'ms_name'
p11
S'D1.MS'
p12
sS'parmtable'
p13
S'simul_DJones'
p14
sS'insert_solver'
p15
I00
sS'use_same_LSM'
p16
I01
sS'[simul]./MG_JEN_lsm.get_lsm()'
p17
(dp18
S'saveAs'
p19
NsS'test_pattern'
p20
S'single'
p21
sS'[simul]./MG_JEN_lsm.add_single()'
p22
(dp23
S'[simul_single]./MG_JEN_Sixpack.newstar_source()'
p24
(dp25
S'f0'
p26
F1000000.0
sS'reset_funklet'
p27
I00
sS'major'
p28
F0.0
sS'unsolvable'
p29
I00
sS'color'
p30
S'red'
p31
sS'save_all'
p32
I00
sS'shape'
p33
S'point'
p34
sg13
g14
sS'Upct'
p35
I-10
sS'unit'
p36
NsS'size'
p37
I10
sS'style'
p38
S'circle'
p39
sS'descr'
p40
S'<descr>'
p41
sS'I0'
p42
F1.0
sS'subtile_size'
p43
NsS'condeq_corrs'
p44
S'*'
p45
sS'Vpct'
p46
NsS'funklet_shape'
p47
NsS'pa'
p48
F0.0
sS'_JEN_inarg_CTRL_record:'
p49
(dp50
S'localscope'
p51
g24
sS'help'
p52
(dp53
g26
S'reference freq (Hz): I=I0 @ f=f0'
p54
sg27
S'if True, do NOT use any MeqParm table values when solvable'
p55
sg28
S'major axis (arcsec)'
p56
sg29
S'if True, do NOT store solvegroup/parmgroup info'
p57
sg30
S'plot_color'
p58
sg32
S'if True, save the update result even if not converged'
p59
sg33
S'source shape'
p60
sg13
S'name of the MeqParm table (AIPS++)'
p61
sg35
S'Stokes U (percentage of I)'
p62
sg36
g36
sg37
S'size of plotted symbol'
p63
sg38
S'plot_style'
p64
sg40
S'brief description'
p65
sg42
S'Stokes I: Total intensity @ f=f0 (usually 1 MHz)'
p66
sg43
S'size (time-slots) of a domain sub-tile'
p67
sg44
S'correlations to be used for solving'
p68
sg46
S'Stokes V (percentage of I)'
p69
sg47
S'shape [time,freq] of default funklet'
p70
sg48
S'position angle (rad)'
p71
sS'RA'
p72
S'Right Ascension (rad, J2000)'
p73
sS'RM'
p74
S'Intrinsic Rotation Measure (rad/m2)'
p75
sS'minor'
p76
S'minor axis (arcsec)'
p77
sS'c00_default'
p78
S'default value of c[0,0] coefficient'
p79
sS'Qpct'
p80
S'Stokes Q (percentage of I)'
p81
sS'punit'
p82
S'name of calibrator source/patch \n- unpol:     unpolarised, I=1Jy \n- unpol2:    idem, I=2Jy \n- unpol10:   idem, I=10Jy \n- RMtest:    Rotation Measure \n- SItest:    Spectral Index \n- ellgauss:  Elliptic Gaussian \n- QUV:       non-zero Q,U,V \n- QU:        non-zero Q,U \n- QU2:       stronger version of QU \n- Qonly:     non-zero Q \n- Uonly:     non-zero U \n- Vonly:     non-zero V \n- 3c286:     \n- 3c48:      \n- 3c295:     \n- 3c147:     \n- D1:        cps in D1.MS \n'
p83
sS'Dec'
p84
S'Declination (rad, J2000)'
p85
sS'fsr_trace'
p86
S'If True, attach to forest state record'
p87
sS'use_previous'
p88
S'if True, start with the previous solution'
p89
sS'SI'
p90
S'Spectral Index (generalised)\n   A scalar represents the classical SI: I(f)=I0*(f/f0)^SI\n   A vector represents a freq-dependent SI (....)'
p91
sS'tfdeg'
p92
S'(time,freq) polynomial degree'
p93
sS'auto_save'
p94
S'if True, save the result of every iteration (slow!)'
p95
ssS'target_dir'
p96
S'.'
p97
sS'target_module'
p98
S'MG_JEN_Sixpack'
p99
sS'hide'
p100
(dp101
g26
I01
sg28
I01
sg29
I01
sS'name'
p102
I01
sg40
I01
sg47
I01
sg30
I01
sg33
I01
sg86
I01
sg82
I00
sg43
I01
sg48
I01
sg44
I01
sg92
I01
sg36
I01
sg78
I01
sg38
I01
sg76
I01
sg37
I01
ssS'version'
p103
S'10feb2006'
p104
sS'description'
p105
S'Make a Sixpack (I,Q,U,V,Ra,Dec) for a source with NEWSTAR parametrisation'
p106
sS'editable'
p107
(dp108
g27
I00
sg29
I00
sg86
I00
sg32
I00
sg88
I00
sg94
I00
ssS'oneliner'
p109
S'MG_JEN_Sixpack::newstar_source()  version=10feb2006  defined=2006-04-13 11:08'
p110
sS'choice'
p111
(dp112
g26
(lp113
F1000000.0
aS'@@f0'
p114
asg27
(lp115
I01
aI00
aS'@@reset_funklet'
p116
asg28
(lp117
F0.0
aF1.0
aF10.0
aF100.0
aS'@@major'
p118
asg29
(lp119
I01
aI00
aS'@@unsolvable'
p120
asg30
(lp121
g31
aS'@@color'
p122
asg32
(lp123
I01
aI00
aS'@@save_all'
p124
asg33
(lp125
g34
aS'ell.gauss'
p126
aS'@@shape'
p127
asg13
(lp128
NaS'@@parmtable'
p129
asg35
(lp130
NaF-0.10000000000000001
aF0.050000000000000003
aF-0.01
aS'@@Upct'
p131
asg36
(lp132
NaS'@@unit'
p133
asg37
(lp134
I10
aS'@@size'
p135
asg38
(lp136
g39
aS'@@style'
p137
asg40
(lp138
g41
aS'@@descr'
p139
asg42
(lp140
F1.0
aF10.0
aS'@@I0'
p141
asg43
(lp142
NaS'@@subtile_size'
p143
asg44
(lp144
g45
aS'@@condeq_corrs'
p145
asg46
(lp146
NaF0.01
aF-0.0050000000000000001
aF0.001
aS'@@Vpct'
p147
asg47
(lp148
NaS'@@funklet_shape'
p149
asg48
(lp150
F0.0
aF1.0
aF-0.5
aS'@@pa'
p151
asg72
(lp152
F0.0
aF0.5
aF1.0
aF1.4950000000000001
aF4.3570000000000002
aS'@@RA'
p153
asg74
(lp154
NaF1.0
aF3.0
aF10.0
aF-10.0
aF60.0
aS'@@RM'
p155
asg76
(lp156
F0.0
aF0.5
aF5.0
aF50.0
aS'@@minor'
p157
asg78
(lp158
F1.0
aS'@@c00_default'
p159
asg80
(lp160
NaF0.10000000000000001
aF-0.050000000000000003
aF0.01
aS'@@Qpct'
p161
asg82
(lp162
S'unpol'
p163
aS'unpol2'
p164
aS'unpol10'
p165
aS'QUV'
p166
aS'QU'
p167
aS'Qonly'
p168
aS'Uonly'
p169
aS'Vonly'
p170
aS'3c147'
p171
aS'3c286'
p172
aS'3c48'
p173
aS'3c295'
p174
aS'D1'
p175
aS'RMtest'
p176
aS'SItest'
p177
aS'ellgauss'
p178
aS'@@punit'
p179
asg84
(lp180
F0.5
aF1.0
aF0.87
aF1.0920000000000001
aS'@@Dec'
p181
asg102
(lp182
NaS'@@name'
p183
asg86
(lp184
I01
aI00
aS'@@fsr_trace'
p185
asg88
(lp186
I01
aI00
aS'@@use_previous'
p187
asg90
(lp188
NaF-0.69999999999999996
a(lp189
F0.44700000000000001
aF-0.184
aaS'@@SI'
p190
asg92
(lp191
NaS'@@tfdeg'
p192
asg94
(lp193
I01
aI00
aS'@@auto_save'
p194
assS'qual'
p195
S'simul_single'
p196
sS'last_edited'
p197
S'2006-04-13 11:08'
p198
sS'target_definition'
p199
S'MG_JEN_Sixpack::newstar_source()'
p200
sS'inarg_specific'
p201
S'** Specific description of inarg record for: MG_JEN_Sixpack::newstar_source()  version=10feb2006  defined=2006-04-13 11:08'
p202
sS'barescope'
p203
S'MG_JEN_Sixpacknewstar_source'
p204
sS'target_function'
p205
S'newstar_source'
p206
sS'callback'
p207
(dp208
g82
I01
ssS'available_inargs'
p209
S'** Description of available inarg record(s) for: MG_JEN_Sixpack::newstar_source()  version=10feb2006  defined=2006-04-13 11:08'
p210
sS'protected'
p211
I00
sS'datetime_defined'
p212
g198
sS'MESSAGE'
p213
(dp214
S'1'
p215
S'  3: ......[simul_single]./MG_JEN_Sixpack.newstar_source() (qual=None): .modify(Qpct):   None  ->  10'
p216
sS'0'
p217
S'  3: ......[simul_single]./MG_JEN_Sixpack.newstar_source() (qual=None): .modify(parmtable):   None  ->  simul_DJones'
p218
sS'3'
p219
S'  3: ......[simul_single]./MG_JEN_Sixpack.newstar_source() (qual=None): .modify(punit):   unpol  ->  QU'
p220
sS'2'
p221
S'  3: ......[simul_single]./MG_JEN_Sixpack.newstar_source() (qual=None): .modify(Upct):   None  ->  -10'
p222
ssS'order'
p223
(lp224
g49
ag82
ag102
ag13
ag29
ag42
ag80
ag35
ag46
ag74
ag90
ag26
ag72
ag84
ag86
ag33
ag28
ag76
ag48
ag88
ag94
ag32
ag27
ag40
ag36
ag30
ag38
ag37
ag78
ag92
ag47
ag43
ag44
assg74
Nsg76
F0.0
sg72
F1.4950000000000001
sg78
F1.0
sg80
I10
sg82
g167
sg84
F0.87
sg102
Nsg86
I01
sg88
I01
sg90
Nsg92
Nsg94
I01
ssg49
(dp225
g199
S'MG_JEN_lsm::add_single()'
p226
sg51
g22
sg201
S'** Specific description of inarg record for: MG_JEN_lsm::add_single()  version=10feb2006  defined=2006-04-13 11:08'
p227
sg105
S'Add a test-source (Sixpack) to the given lsm'
p228
sg96
g97
sg109
S'MG_JEN_lsm::add_single()  version=10feb2006  defined=2006-04-13 11:08'
p229
sg205
S'add_single'
p230
sg195
S'simul'
p231
sg209
S'** Description of available inarg record(s) for: MG_JEN_lsm::add_single()  version=10feb2006  defined=2006-04-13 11:08'
p232
sg211
I00
sg212
S'2006-04-13 11:08'
p233
sg103
g104
sg98
S'MG_JEN_lsm'
p234
sg213
(dp235
g217
S'** JEN_inarg.attach(): attached: [simul_single]./MG_JEN_Sixpack.newstar_source()'
p236
ssg197
g233
sg223
(lp237
g49
ag24
asg203
S'MG_JEN_lsmadd_single'
p238
sssS'[simul]./MG_JEN_lsm.add_grid()'
p239
(dp240
S'taper'
p241
F1.0
sS'[simul_grid]./MG_JEN_Sixpack.newstar_source()'
p242
(dp243
g26
F1000000.0
sg27
I00
sg28
F0.0
sg29
I00
sg30
g31
sg32
I00
sg33
g34
sg13
g14
sg35
I-10
sg36
Nsg37
I10
sg38
g39
sg40
g41
sg42
F1.0
sg43
Nsg44
g45
sg46
Nsg47
Nsg48
F0.0
sg49
(dp244
g51
g242
sg52
(dp245
g26
g54
sg27
g55
sg28
g56
sg29
g57
sg30
g58
sg32
g59
sg33
g60
sg13
g61
sg35
g62
sg36
g36
sg37
g63
sg38
g64
sg40
g65
sg42
g66
sg43
g67
sg44
g68
sg46
g69
sg47
g70
sg48
g71
sg72
g73
sg74
g75
sg76
g77
sg78
g79
sg80
g81
sg82
S'name of calibrator source/patch \n- unpol:     unpolarised, I=1Jy \n- unpol2:    idem, I=2Jy \n- unpol10:   idem, I=10Jy \n- RMtest:    Rotation Measure \n- SItest:    Spectral Index \n- ellgauss:  Elliptic Gaussian \n- QUV:       non-zero Q,U,V \n- QU:        non-zero Q,U \n- QU2:       stronger version of QU \n- Qonly:     non-zero Q \n- Uonly:     non-zero U \n- Vonly:     non-zero V \n- 3c286:     \n- 3c48:      \n- 3c295:     \n- 3c147:     \n- D1:        cps in D1.MS \n'
p246
sg84
g85
sg86
g87
sg88
g89
sg90
g91
sg92
g93
sg94
g95
ssg96
g97
sg98
S'MG_JEN_Sixpack'
p247
sg100
(dp248
g26
I01
sg28
I01
sg29
I01
sg102
I01
sg40
I01
sg47
I01
sg30
I01
sg33
I01
sg86
I01
sg82
I00
sg43
I01
sg48
I01
sg44
I01
sg92
I01
sg36
I01
sg78
I01
sg38
I01
sg76
I01
sg37
I01
ssg103
g104
sg105
g106
sg107
(dp249
g27
I00
sg29
I00
sg86
I00
sg32
I00
sg88
I00
sg94
I00
ssg109
S'MG_JEN_Sixpack::newstar_source()  version=10feb2006  defined=2006-04-13 11:08'
p250
sg111
(dp251
g26
(lp252
F1000000.0
aS'@@f0'
p253
asg27
(lp254
I01
aI00
aS'@@reset_funklet'
p255
asg28
(lp256
F0.0
aF1.0
aF10.0
aF100.0
aS'@@major'
p257
asg29
(lp258
I01
aI00
aS'@@unsolvable'
p259
asg30
(lp260
g31
aS'@@color'
p261
asg32
(lp262
I01
aI00
aS'@@save_all'
p263
asg33
(lp264
g34
ag126
aS'@@shape'
p265
asg13
(lp266
NaS'@@parmtable'
p267
asg35
(lp268
NaF-0.10000000000000001
aF0.050000000000000003
aF-0.01
aS'@@Upct'
p269
asg36
(lp270
NaS'@@unit'
p271
asg37
(lp272
I10
aS'@@size'
p273
asg38
(lp274
g39
aS'@@style'
p275
asg40
(lp276
g41
aS'@@descr'
p277
asg42
(lp278
F1.0
aF10.0
aS'@@I0'
p279
asg43
(lp280
NaS'@@subtile_size'
p281
asg44
(lp282
g45
aS'@@condeq_corrs'
p283
asg46
(lp284
NaF0.01
aF-0.0050000000000000001
aF0.001
aS'@@Vpct'
p285
asg47
(lp286
NaS'@@funklet_shape'
p287
asg48
(lp288
F0.0
aF1.0
aF-0.5
aS'@@pa'
p289
asg72
(lp290
F0.0
aF0.5
aF1.0
aF1.4950000000000001
aF4.3570000000000002
aS'@@RA'
p291
asg74
(lp292
NaF1.0
aF3.0
aF10.0
aF-10.0
aF60.0
aS'@@RM'
p293
asg76
(lp294
F0.0
aF0.5
aF5.0
aF50.0
aS'@@minor'
p295
asg78
(lp296
F1.0
aS'@@c00_default'
p297
asg80
(lp298
NaF0.10000000000000001
aF-0.050000000000000003
aF0.01
aS'@@Qpct'
p299
asg82
(lp300
g163
ag164
ag165
ag166
ag167
ag168
ag169
ag170
ag171
ag172
ag173
ag174
ag175
ag176
ag177
ag178
aS'@@punit'
p301
asg84
(lp302
F0.5
aF1.0
aF0.87
aF1.0920000000000001
aS'@@Dec'
p303
asg102
(lp304
NaS'@@name'
p305
asg86
(lp306
I01
aI00
aS'@@fsr_trace'
p307
asg88
(lp308
I01
aI00
aS'@@use_previous'
p309
asg90
(lp310
NaF-0.69999999999999996
a(lp311
F0.44700000000000001
aF-0.184
aaS'@@SI'
p312
asg92
(lp313
NaS'@@tfdeg'
p314
asg94
(lp315
I01
aI00
aS'@@auto_save'
p316
assg195
S'simul_grid'
p317
sg197
S'2006-04-13 11:08'
p318
sg199
g200
sg201
S'** Specific description of inarg record for: MG_JEN_Sixpack::newstar_source()  version=10feb2006  defined=2006-04-13 11:08'
p319
sg203
S'MG_JEN_Sixpacknewstar_source'
p320
sg205
S'newstar_source'
p321
sg207
(dp322
g82
I01
ssg209
S'** Description of available inarg record(s) for: MG_JEN_Sixpack::newstar_source()  version=10feb2006  defined=2006-04-13 11:08'
p323
sg211
I00
sg212
g318
sg213
(dp324
g215
S'  3: ......[simul_grid]./MG_JEN_Sixpack.newstar_source() (qual=None): .modify(Qpct):   None  ->  10'
p325
sg217
S'  3: ......[simul_grid]./MG_JEN_Sixpack.newstar_source() (qual=None): .modify(parmtable):   None  ->  simul_DJones'
p326
sg219
S'  3: ......[simul_grid]./MG_JEN_Sixpack.newstar_source() (qual=None): .modify(punit):   unpol  ->  QU'
p327
sg221
S'  3: ......[simul_grid]./MG_JEN_Sixpack.newstar_source() (qual=None): .modify(Upct):   None  ->  -10'
p328
ssg223
(lp329
g49
ag82
ag102
ag13
ag29
ag42
ag80
ag35
ag46
ag74
ag90
ag26
ag72
ag84
ag86
ag33
ag28
ag76
ag48
ag88
ag94
ag32
ag27
ag40
ag36
ag30
ag38
ag37
ag78
ag92
ag47
ag43
ag44
assg74
Nsg76
F0.0
sg72
F1.4950000000000001
sg78
F1.0
sg80
I10
sg82
g167
sg84
F0.87
sg102
Nsg86
I01
sg88
I01
sg90
Nsg92
Nsg94
I01
ssS'nRA2'
p330
I1
sS'dDec'
p331
I20
sS'relpos'
p332
S'trq'
p333
sg49
(dp334
g199
S'MG_JEN_lsm::add_grid()'
p335
sg51
g239
sg201
S'** Specific description of inarg record for: MG_JEN_lsm::add_grid()  version=10feb2006  defined=2006-04-13 11:08'
p336
sg203
S'MG_JEN_lsmadd_grid'
p337
sg96
g97
sg105
S'Add a rectangular grid of identical test-sources to the given lsm'
p338
sg109
S'MG_JEN_lsm::add_grid()  version=10feb2006  defined=2006-04-13 11:08'
p339
sg205
S'add_grid'
p340
sg111
(dp341
g241
(lp342
F0.5
aI1
aI2
aI5
aI10
aI100
aNaS'@@taper'
p343
asg330
(lp344
I0
aI1
aI2
aI3
aS'@@nRA2'
p345
asg331
(lp346
I5
aI10
aI20
aS'@@dDec'
p347
asg332
(lp348
S'center'
p349
aS'top'
p350
aS'bottom'
p351
aS'left'
p352
aS'right'
p353
aS'tlq'
p354
ag333
aS'blq'
p355
aS'brq'
p356
aS'@@relpos'
p357
asS'dRA'
p358
(lp359
I5
aI10
aI20
aS'@@dRA'
p360
asS'nDec2'
p361
(lp362
I0
aI1
aI2
aI3
aS'@@nDec2'
p363
assg195
g231
sg209
S'** Description of available inarg record(s) for: MG_JEN_lsm::add_grid()  version=10feb2006  defined=2006-04-13 11:08'
p364
sg211
I00
sg212
S'2006-04-13 11:08'
p365
sg103
g104
sg98
S'MG_JEN_lsm'
p366
sg213
(dp367
g217
S'** JEN_inarg.attach(): attached: [simul_grid]./MG_JEN_Sixpack.newstar_source()'
p368
ssg197
g365
sg223
(lp369
g49
ag330
ag361
ag358
ag331
ag241
ag332
ag242
asg52
(dp370
g241
S'Scale (degr) of gaussian FOV taper'
p371
sg330
S'(half) nr of sources in RA direction'
p372
sg331
S'Dec grid spacing (arcmin)'
p373
sg332
S'Relative position w.r.t. the nominal punit (RA,Dec)'
p374
sg358
S'RA grid spacing (arcmin)'
p375
sg361
S'(half) nr of sources in DEC direction'
p376
sssg358
I20
sg361
I1
ssg49
(dp377
g199
S'MG_JEN_lsm::get_lsm()'
p378
sg51
g17
sg201
S'** Specific description of inarg record for: MG_JEN_lsm::get_lsm()  version=02apr2006  defined=2006-04-13 11:08'
p379
sg203
S'MG_JEN_lsmget_lsm'
p380
sS'browse'
p381
(dp382
S'input_LSM'
p383
S'*.lsm'
p384
sg19
g384
ssg96
g97
sg109
S'MG_JEN_lsm::get_lsm()  version=02apr2006  defined=2006-04-13 11:08'
p385
sg205
S'get_lsm'
p386
sg111
(dp387
g383
(lp388
S'lsm_current.lsm'
p389
aS'3c343_nvss.lsm'
p390
aS'abel963.lsm'
p391
aS'D1.lsm'
p392
aNaS'@@input_LSM'
p393
asg19
(lp394
S'<automatic>'
p395
aNaS'@@saveAs'
p396
asg20
(lp397
Nag21
aS'double'
p398
aS'grid'
p399
aS'spiral'
p400
aS'@@test_pattern'
p401
asS'display'
p402
(lp403
I01
aI00
aS'@@display'
p404
asS'save_as_current'
p405
(lp406
I01
aI00
aS'@@save_as_current'
p407
assg195
g231
sg209
S'** Description of available inarg record(s) for: MG_JEN_lsm::get_lsm()  version=02apr2006  defined=2006-04-13 11:08'
p408
sg211
I00
sg212
S'2006-04-13 11:08'
p409
sg103
S'02apr2006'
p410
sg98
S'MG_JEN_lsm'
p411
sg107
(dp412
g402
I00
sg405
I00
ssg213
(dp413
g215
S'** JEN_inarg.attach(): attached: [simul]./MG_JEN_lsm.add_double()'
p414
sg217
S'** JEN_inarg.attach(): attached: [simul]./MG_JEN_lsm.add_single()'
p415
sg219
S'** JEN_inarg.attach(): attached: [simul]./MG_JEN_lsm.add_spiral()'
p416
sg221
S'** JEN_inarg.attach(): attached: [simul]./MG_JEN_lsm.add_grid()'
p417
ssg197
g409
sg223
(lp418
g49
ag383
ag402
ag405
ag19
ag20
ag22
aS'[simul]./MG_JEN_lsm.add_double()'
p419
ag239
aS'[simul]./MG_JEN_lsm.add_spiral()'
p420
asg52
(dp421
g383
S'(file)name of the Local Sky Model to be added to'
p422
sg19
S'Save the new/modified LSM afterwards as...'
p423
sg20
S'pattern of test-sources to be generated'
p424
sg402
S'Display the new/modified LSM'
p425
sg405
S'Save the new/modified LSM afterwards as lsm_current.lsm'
p426
ssg105
S'Generate an existing/new/modified Local Sky Model'
p427
ssg420
(dp428
S'nr_of_sources'
p429
I5
sg241
F1.0
sS'[simul_spiral]./MG_JEN_Sixpack.newstar_source()'
p430
(dp431
g26
F1000000.0
sg27
I00
sg28
F0.0
sg29
I00
sg30
g31
sg32
I00
sg33
g34
sg13
g14
sg35
I-10
sg36
Nsg37
I10
sg38
g39
sg40
g41
sg42
F1.0
sg43
Nsg44
g45
sg46
Nsg47
Nsg48
F0.0
sg49
(dp432
g51
g430
sg52
(dp433
g26
g54
sg27
g55
sg28
g56
sg29
g57
sg30
g58
sg32
g59
sg33
g60
sg13
g61
sg35
g62
sg36
g36
sg37
g63
sg38
g64
sg40
g65
sg42
g66
sg43
g67
sg44
g68
sg46
g69
sg47
g70
sg48
g71
sg72
g73
sg74
g75
sg76
g77
sg78
g79
sg80
g81
sg82
S'name of calibrator source/patch \n- unpol:     unpolarised, I=1Jy \n- unpol2:    idem, I=2Jy \n- unpol10:   idem, I=10Jy \n- RMtest:    Rotation Measure \n- SItest:    Spectral Index \n- ellgauss:  Elliptic Gaussian \n- QUV:       non-zero Q,U,V \n- QU:        non-zero Q,U \n- QU2:       stronger version of QU \n- Qonly:     non-zero Q \n- Uonly:     non-zero U \n- Vonly:     non-zero V \n- 3c286:     \n- 3c48:      \n- 3c295:     \n- 3c147:     \n- D1:        cps in D1.MS \n'
p434
sg84
g85
sg86
g87
sg88
g89
sg90
g91
sg92
g93
sg94
g95
ssg96
g97
sg98
S'MG_JEN_Sixpack'
p435
sg100
(dp436
g26
I01
sg28
I01
sg29
I01
sg102
I01
sg40
I01
sg47
I01
sg30
I01
sg33
I01
sg86
I01
sg82
I00
sg43
I01
sg48
I01
sg44
I01
sg92
I01
sg36
I01
sg78
I01
sg38
I01
sg76
I01
sg37
I01
ssg103
g104
sg105
g106
sg107
(dp437
g27
I00
sg29
I00
sg86
I00
sg32
I00
sg88
I00
sg94
I00
ssg109
S'MG_JEN_Sixpack::newstar_source()  version=10feb2006  defined=2006-04-13 11:08'
p438
sg111
(dp439
g26
(lp440
F1000000.0
aS'@@f0'
p441
asg27
(lp442
I01
aI00
aS'@@reset_funklet'
p443
asg28
(lp444
F0.0
aF1.0
aF10.0
aF100.0
aS'@@major'
p445
asg29
(lp446
I01
aI00
aS'@@unsolvable'
p447
asg30
(lp448
g31
aS'@@color'
p449
asg32
(lp450
I01
aI00
aS'@@save_all'
p451
asg33
(lp452
g34
ag126
aS'@@shape'
p453
asg13
(lp454
NaS'@@parmtable'
p455
asg35
(lp456
NaF-0.10000000000000001
aF0.050000000000000003
aF-0.01
aS'@@Upct'
p457
asg36
(lp458
NaS'@@unit'
p459
asg37
(lp460
I10
aS'@@size'
p461
asg38
(lp462
g39
aS'@@style'
p463
asg40
(lp464
g41
aS'@@descr'
p465
asg42
(lp466
F1.0
aF10.0
aS'@@I0'
p467
asg43
(lp468
NaS'@@subtile_size'
p469
asg44
(lp470
g45
aS'@@condeq_corrs'
p471
asg46
(lp472
NaF0.01
aF-0.0050000000000000001
aF0.001
aS'@@Vpct'
p473
asg47
(lp474
NaS'@@funklet_shape'
p475
asg48
(lp476
F0.0
aF1.0
aF-0.5
aS'@@pa'
p477
asg72
(lp478
F0.0
aF0.5
aF1.0
aF1.4950000000000001
aF4.3570000000000002
aS'@@RA'
p479
asg74
(lp480
NaF1.0
aF3.0
aF10.0
aF-10.0
aF60.0
aS'@@RM'
p481
asg76
(lp482
F0.0
aF0.5
aF5.0
aF50.0
aS'@@minor'
p483
asg78
(lp484
F1.0
aS'@@c00_default'
p485
asg80
(lp486
NaF0.10000000000000001
aF-0.050000000000000003
aF0.01
aS'@@Qpct'
p487
asg82
(lp488
g163
ag164
ag165
ag166
ag167
ag168
ag169
ag170
ag171
ag172
ag173
ag174
ag175
ag176
ag177
ag178
aS'@@punit'
p489
asg84
(lp490
F0.5
aF1.0
aF0.87
aF1.0920000000000001
aS'@@Dec'
p491
asg102
(lp492
NaS'@@name'
p493
asg86
(lp494
I01
aI00
aS'@@fsr_trace'
p495
asg88
(lp496
I01
aI00
aS'@@use_previous'
p497
asg90
(lp498
NaF-0.69999999999999996
a(lp499
F0.44700000000000001
aF-0.184
aaS'@@SI'
p500
asg92
(lp501
NaS'@@tfdeg'
p502
asg94
(lp503
I01
aI00
aS'@@auto_save'
p504
assg195
S'simul_spiral'
p505
sg197
S'2006-04-13 11:08'
p506
sg199
g200
sg201
S'** Specific description of inarg record for: MG_JEN_Sixpack::newstar_source()  version=10feb2006  defined=2006-04-13 11:08'
p507
sg203
S'MG_JEN_Sixpacknewstar_source'
p508
sg205
S'newstar_source'
p509
sg207
(dp510
g82
I01
ssg209
S'** Description of available inarg record(s) for: MG_JEN_Sixpack::newstar_source()  version=10feb2006  defined=2006-04-13 11:08'
p511
sg211
I00
sg212
g506
sg213
(dp512
g215
S'  3: ......[simul_spiral]./MG_JEN_Sixpack.newstar_source() (qual=None): .modify(Qpct):   None  ->  10'
p513
sg217
S'  3: ......[simul_spiral]./MG_JEN_Sixpack.newstar_source() (qual=None): .modify(parmtable):   None  ->  simul_DJones'
p514
sg219
S'  3: ......[simul_spiral]./MG_JEN_Sixpack.newstar_source() (qual=None): .modify(punit):   unpol  ->  QU'
p515
sg221
S'  3: ......[simul_spiral]./MG_JEN_Sixpack.newstar_source() (qual=None): .modify(Upct):   None  ->  -10'
p516
ssg223
(lp517
g49
ag82
ag102
ag13
ag29
ag42
ag80
ag35
ag46
ag74
ag90
ag26
ag72
ag84
ag86
ag33
ag28
ag76
ag48
ag88
ag94
ag32
ag27
ag40
ag36
ag30
ag38
ag37
ag78
ag92
ag47
ag43
ag44
assg74
Nsg76
F0.0
sg72
F1.4950000000000001
sg78
F1.0
sg80
I10
sg82
g167
sg84
F0.87
sg102
Nsg86
I01
sg88
I01
sg90
Nsg92
Nsg94
I01
ssS'astart'
p518
I0
sS'rmult'
p519
F1.1000000000000001
sS'rstart'
p520
I20
sg49
(dp521
g199
S'MG_JEN_lsm::add_spiral()'
p522
sg51
g420
sg201
S'** Specific description of inarg record for: MG_JEN_lsm::add_spiral()  version=10feb2006  defined=2006-04-13 11:08'
p523
sg203
S'MG_JEN_lsmadd_spiral'
p524
sg96
g97
sg105
S'Add a spiral pattern of identical test-sources to the given lsm'
p525
sg109
S'MG_JEN_lsm::add_spiral()  version=10feb2006  defined=2006-04-13 11:08'
p526
sg205
S'add_spiral'
p527
sg111
(dp528
g429
(lp529
I2
aI3
aI4
aI5
aI10
aS'@@nr_of_sources'
p530
asg241
(lp531
F0.5
aI1
aI2
aI5
aI10
aI100
aNaS'@@taper'
p532
asg518
(lp533
I0
aI30
aI45
aI90
aI180
aI270
aS'@@astart'
p534
asg519
(lp535
F1.01
aF1.1000000000000001
aF1.2
aF1.5
aI2
aS'@@rmult'
p536
asg520
(lp537
I1
aI2
aI5
aI10
aI20
aI50
aI100
aS'@@rstart'
p538
asS'ainc'
p539
(lp540
I10
aI20
aI30
aI45
aI90
aI180
aI360
aI0
aS'@@ainc'
p541
assg195
g231
sg209
S'** Description of available inarg record(s) for: MG_JEN_lsm::add_spiral()  version=10feb2006  defined=2006-04-13 11:08'
p542
sg211
I00
sg212
S'2006-04-13 11:08'
p543
sg103
g104
sg98
S'MG_JEN_lsm'
p544
sg213
(dp545
g217
S'** JEN_inarg.attach(): attached: [simul_spiral]./MG_JEN_Sixpack.newstar_source()'
p546
ssg197
g543
sg223
(lp547
g49
ag429
ag520
ag518
ag519
ag539
ag241
ag430
asg52
(dp548
g429
S'nr of sources'
p549
sg241
S'Scale (degr) of gaussian FOV taper'
p550
sg518
S'start position angle (deg)'
p551
sg519
S'radius multiplication factor'
p552
sg520
S'start position radius (arcmin)'
p553
sg539
S'position angle increment (deg)'
p554
sssg539
I10
ssg405
I01
sg383
Nsg419
(dp555
g331
I20
sg358
I20
sS'[simul_double_2]./MG_JEN_Sixpack.newstar_source()'
p556
(dp557
g26
F1000000.0
sg27
I00
sg28
F0.0
sg29
I00
sg30
g31
sg32
I00
sg33
g34
sg13
g14
sg35
I-10
sg36
Nsg37
I10
sg38
g39
sg40
g41
sg42
F1.0
sg43
Nsg44
g45
sg46
Nsg47
Nsg48
F0.0
sg49
(dp558
g51
g556
sg52
(dp559
g26
g54
sg27
g55
sg28
g56
sg29
g57
sg30
g58
sg32
g59
sg33
g60
sg13
g61
sg35
g62
sg36
g36
sg37
g63
sg38
g64
sg40
g65
sg42
g66
sg43
g67
sg44
g68
sg46
g69
sg47
g70
sg48
g71
sg72
g73
sg74
g75
sg76
g77
sg78
g79
sg80
g81
sg82
S'name of calibrator source/patch \n- unpol:     unpolarised, I=1Jy \n- unpol2:    idem, I=2Jy \n- unpol10:   idem, I=10Jy \n- RMtest:    Rotation Measure \n- SItest:    Spectral Index \n- ellgauss:  Elliptic Gaussian \n- QUV:       non-zero Q,U,V \n- QU:        non-zero Q,U \n- QU2:       stronger version of QU \n- Qonly:     non-zero Q \n- Uonly:     non-zero U \n- Vonly:     non-zero V \n- 3c286:     \n- 3c48:      \n- 3c295:     \n- 3c147:     \n- D1:        cps in D1.MS \n'
p560
sg84
g85
sg86
g87
sg88
g89
sg90
g91
sg92
g93
sg94
g95
ssg96
g97
sg98
S'MG_JEN_Sixpack'
p561
sg100
(dp562
g26
I01
sg28
I01
sg29
I01
sg102
I01
sg40
I01
sg47
I01
sg30
I01
sg33
I01
sg86
I01
sg82
I00
sg43
I01
sg48
I01
sg44
I01
sg92
I01
sg36
I01
sg78
I01
sg38
I01
sg76
I01
sg37
I01
ssg103
g104
sg105
g106
sg107
(dp563
g27
I00
sg29
I00
sg86
I00
sg32
I00
sg88
I00
sg94
I00
ssg109
S'MG_JEN_Sixpack::newstar_source()  version=10feb2006  defined=2006-04-13 11:08'
p564
sg111
(dp565
g26
(lp566
F1000000.0
aS'@@f0'
p567
asg27
(lp568
I01
aI00
aS'@@reset_funklet'
p569
asg28
(lp570
F0.0
aF1.0
aF10.0
aF100.0
aS'@@major'
p571
asg29
(lp572
I01
aI00
aS'@@unsolvable'
p573
asg30
(lp574
g31
aS'@@color'
p575
asg32
(lp576
I01
aI00
aS'@@save_all'
p577
asg33
(lp578
g34
ag126
aS'@@shape'
p579
asg13
(lp580
NaS'@@parmtable'
p581
asg35
(lp582
NaF-0.10000000000000001
aF0.050000000000000003
aF-0.01
aS'@@Upct'
p583
asg36
(lp584
NaS'@@unit'
p585
asg37
(lp586
I10
aS'@@size'
p587
asg38
(lp588
g39
aS'@@style'
p589
asg40
(lp590
g41
aS'@@descr'
p591
asg42
(lp592
F1.0
aF10.0
aS'@@I0'
p593
asg43
(lp594
NaS'@@subtile_size'
p595
asg44
(lp596
g45
aS'@@condeq_corrs'
p597
asg46
(lp598
NaF0.01
aF-0.0050000000000000001
aF0.001
aS'@@Vpct'
p599
asg47
(lp600
NaS'@@funklet_shape'
p601
asg48
(lp602
F0.0
aF1.0
aF-0.5
aS'@@pa'
p603
asg72
(lp604
F0.0
aF0.5
aF1.0
aF1.4950000000000001
aF4.3570000000000002
aS'@@RA'
p605
asg74
(lp606
NaF1.0
aF3.0
aF10.0
aF-10.0
aF60.0
aS'@@RM'
p607
asg76
(lp608
F0.0
aF0.5
aF5.0
aF50.0
aS'@@minor'
p609
asg78
(lp610
F1.0
aS'@@c00_default'
p611
asg80
(lp612
NaF0.10000000000000001
aF-0.050000000000000003
aF0.01
aS'@@Qpct'
p613
asg82
(lp614
g163
ag164
ag165
ag166
ag167
ag168
ag169
ag170
ag171
ag172
ag173
ag174
ag175
ag176
ag177
ag178
aS'@@punit'
p615
asg84
(lp616
F0.5
aF1.0
aF0.87
aF1.0920000000000001
aS'@@Dec'
p617
asg102
(lp618
NaS'@@name'
p619
asg86
(lp620
I01
aI00
aS'@@fsr_trace'
p621
asg88
(lp622
I01
aI00
aS'@@use_previous'
p623
asg90
(lp624
NaF-0.69999999999999996
a(lp625
F0.44700000000000001
aF-0.184
aaS'@@SI'
p626
asg92
(lp627
NaS'@@tfdeg'
p628
asg94
(lp629
I01
aI00
aS'@@auto_save'
p630
assg195
S'simul_double_2'
p631
sg197
S'2006-04-13 11:08'
p632
sg199
g200
sg201
S'** Specific description of inarg record for: MG_JEN_Sixpack::newstar_source()  version=10feb2006  defined=2006-04-13 11:08'
p633
sg203
S'MG_JEN_Sixpacknewstar_source'
p634
sg205
S'newstar_source'
p635
sg207
(dp636
g82
I01
ssg209
S'** Description of available inarg record(s) for: MG_JEN_Sixpack::newstar_source()  version=10feb2006  defined=2006-04-13 11:08'
p637
sg211
I00
sg212
g632
sg213
(dp638
g215
S'  3: ......[simul_double_2]./MG_JEN_Sixpack.newstar_source() (qual=None): .modify(Qpct):   None  ->  10'
p639
sg217
S'  3: ......[simul_double_2]./MG_JEN_Sixpack.newstar_source() (qual=None): .modify(parmtable):   None  ->  simul_DJones'
p640
sg219
S'  3: ......[simul_double_2]./MG_JEN_Sixpack.newstar_source() (qual=None): .modify(punit):   unpol  ->  QU'
p641
sg221
S'  3: ......[simul_double_2]./MG_JEN_Sixpack.newstar_source() (qual=None): .modify(Upct):   None  ->  -10'
p642
ssg223
(lp643
g49
ag82
ag102
ag13
ag29
ag42
ag80
ag35
ag46
ag74
ag90
ag26
ag72
ag84
ag86
ag33
ag28
ag76
ag48
ag88
ag94
ag32
ag27
ag40
ag36
ag30
ag38
ag37
ag78
ag92
ag47
ag43
ag44
assg74
Nsg76
F0.0
sg72
F1.4950000000000001
sg78
F1.0
sg80
I10
sg82
g167
sg84
F0.87
sg102
Nsg86
I01
sg88
I01
sg90
Nsg92
Nsg94
I01
ssg49
(dp644
g199
S'MG_JEN_lsm::add_double()'
p645
sg51
g419
sg201
S'** Specific description of inarg record for: MG_JEN_lsm::add_double()  version=10feb2006  defined=2006-04-13 11:08'
p646
sg203
S'MG_JEN_lsmadd_double'
p647
sg96
g97
sg105
S'Add a double test-source (Sixpack) to the given lsm'
p648
sg109
S'MG_JEN_lsm::add_double()  version=10feb2006  defined=2006-04-13 11:08'
p649
sg205
S'add_double'
p650
sg111
(dp651
g358
(lp652
I20
aS'@@dRA'
p653
asg331
(lp654
I20
aS'@@dDec'
p655
assg195
g231
sg209
S'** Description of available inarg record(s) for: MG_JEN_lsm::add_double()  version=10feb2006  defined=2006-04-13 11:08'
p656
sg211
I00
sg212
S'2006-04-13 11:08'
p657
sg103
g104
sg98
S'MG_JEN_lsm'
p658
sg213
(dp659
g215
S'** JEN_inarg.attach(): attached: [simul_double_2]./MG_JEN_Sixpack.newstar_source()'
p660
sg217
S'** JEN_inarg.attach(): attached: [simul_double_1]./MG_JEN_Sixpack.newstar_source()'
p661
ssg197
g657
sg223
(lp662
g49
aS'[simul_double_1]./MG_JEN_Sixpack.newstar_source()'
p663
ag556
ag358
ag331
asg52
(dp664
g358
S'distance of 2nd source in RA (arcmin)'
p665
sg331
S'distance of 2nd source in Dec (arcmin)'
p666
sssg663
(dp667
g26
F1000000.0
sg27
I00
sg28
F0.0
sg29
I00
sg30
g31
sg32
I00
sg33
g34
sg13
g14
sg35
I-10
sg36
Nsg37
I10
sg38
g39
sg40
g41
sg42
F1.0
sg43
Nsg44
g45
sg46
Nsg47
Nsg48
F0.0
sg49
(dp668
g51
g663
sg52
(dp669
g26
g54
sg27
g55
sg28
g56
sg29
g57
sg30
g58
sg32
g59
sg33
g60
sg13
g61
sg35
g62
sg36
g36
sg37
g63
sg38
g64
sg40
g65
sg42
g66
sg43
g67
sg44
g68
sg46
g69
sg47
g70
sg48
g71
sg72
g73
sg74
g75
sg76
g77
sg78
g79
sg80
g81
sg82
S'name of calibrator source/patch \n- unpol:     unpolarised, I=1Jy \n- unpol2:    idem, I=2Jy \n- unpol10:   idem, I=10Jy \n- RMtest:    Rotation Measure \n- SItest:    Spectral Index \n- ellgauss:  Elliptic Gaussian \n- QUV:       non-zero Q,U,V \n- QU:        non-zero Q,U \n- QU2:       stronger version of QU \n- Qonly:     non-zero Q \n- Uonly:     non-zero U \n- Vonly:     non-zero V \n- 3c286:     \n- 3c48:      \n- 3c295:     \n- 3c147:     \n- D1:        cps in D1.MS \n'
p670
sg84
g85
sg86
g87
sg88
g89
sg90
g91
sg92
g93
sg94
g95
ssg96
g97
sg98
S'MG_JEN_Sixpack'
p671
sg100
(dp672
g26
I01
sg28
I01
sg29
I01
sg102
I01
sg40
I01
sg47
I01
sg30
I01
sg33
I01
sg86
I01
sg82
I00
sg43
I01
sg48
I01
sg44
I01
sg92
I01
sg36
I01
sg78
I01
sg38
I01
sg76
I01
sg37
I01
ssg103
g104
sg105
g106
sg107
(dp673
g27
I00
sg29
I00
sg86
I00
sg32
I00
sg88
I00
sg94
I00
ssg109
S'MG_JEN_Sixpack::newstar_source()  version=10feb2006  defined=2006-04-13 11:08'
p674
sg111
(dp675
g26
(lp676
F1000000.0
aS'@@f0'
p677
asg27
(lp678
I01
aI00
aS'@@reset_funklet'
p679
asg28
(lp680
F0.0
aF1.0
aF10.0
aF100.0
aS'@@major'
p681
asg29
(lp682
I01
aI00
aS'@@unsolvable'
p683
asg30
(lp684
g31
aS'@@color'
p685
asg32
(lp686
I01
aI00
aS'@@save_all'
p687
asg33
(lp688
g34
ag126
aS'@@shape'
p689
asg13
(lp690
NaS'@@parmtable'
p691
asg35
(lp692
NaF-0.10000000000000001
aF0.050000000000000003
aF-0.01
aS'@@Upct'
p693
asg36
(lp694
NaS'@@unit'
p695
asg37
(lp696
I10
aS'@@size'
p697
asg38
(lp698
g39
aS'@@style'
p699
asg40
(lp700
g41
aS'@@descr'
p701
asg42
(lp702
F1.0
aF10.0
aS'@@I0'
p703
asg43
(lp704
NaS'@@subtile_size'
p705
asg44
(lp706
g45
aS'@@condeq_corrs'
p707
asg46
(lp708
NaF0.01
aF-0.0050000000000000001
aF0.001
aS'@@Vpct'
p709
asg47
(lp710
NaS'@@funklet_shape'
p711
asg48
(lp712
F0.0
aF1.0
aF-0.5
aS'@@pa'
p713
asg72
(lp714
F0.0
aF0.5
aF1.0
aF1.4950000000000001
aF4.3570000000000002
aS'@@RA'
p715
asg74
(lp716
NaF1.0
aF3.0
aF10.0
aF-10.0
aF60.0
aS'@@RM'
p717
asg76
(lp718
F0.0
aF0.5
aF5.0
aF50.0
aS'@@minor'
p719
asg78
(lp720
F1.0
aS'@@c00_default'
p721
asg80
(lp722
NaF0.10000000000000001
aF-0.050000000000000003
aF0.01
aS'@@Qpct'
p723
asg82
(lp724
g163
ag164
ag165
ag166
ag167
ag168
ag169
ag170
ag171
ag172
ag173
ag174
ag175
ag176
ag177
ag178
aS'@@punit'
p725
asg84
(lp726
F0.5
aF1.0
aF0.87
aF1.0920000000000001
aS'@@Dec'
p727
asg102
(lp728
NaS'@@name'
p729
asg86
(lp730
I01
aI00
aS'@@fsr_trace'
p731
asg88
(lp732
I01
aI00
aS'@@use_previous'
p733
asg90
(lp734
NaF-0.69999999999999996
a(lp735
F0.44700000000000001
aF-0.184
aaS'@@SI'
p736
asg92
(lp737
NaS'@@tfdeg'
p738
asg94
(lp739
I01
aI00
aS'@@auto_save'
p740
assg195
S'simul_double_1'
p741
sg197
S'2006-04-13 11:08'
p742
sg199
g200
sg201
S'** Specific description of inarg record for: MG_JEN_Sixpack::newstar_source()  version=10feb2006  defined=2006-04-13 11:08'
p743
sg203
S'MG_JEN_Sixpacknewstar_source'
p744
sg205
S'newstar_source'
p745
sg207
(dp746
g82
I01
ssg209
S'** Description of available inarg record(s) for: MG_JEN_Sixpack::newstar_source()  version=10feb2006  defined=2006-04-13 11:08'
p747
sg211
I00
sg212
g742
sg213
(dp748
g215
S'  3: ......[simul_double_1]./MG_JEN_Sixpack.newstar_source() (qual=None): .modify(Qpct):   None  ->  10'
p749
sg217
S'  3: ......[simul_double_1]./MG_JEN_Sixpack.newstar_source() (qual=None): .modify(parmtable):   None  ->  simul_DJones'
p750
sg219
S'  3: ......[simul_double_1]./MG_JEN_Sixpack.newstar_source() (qual=None): .modify(punit):   unpol  ->  QU'
p751
sg221
S'  3: ......[simul_double_1]./MG_JEN_Sixpack.newstar_source() (qual=None): .modify(Upct):   None  ->  -10'
p752
ssg223
(lp753
g49
ag82
ag102
ag13
ag29
ag42
ag80
ag35
ag46
ag74
ag90
ag26
ag72
ag84
ag86
ag33
ag28
ag76
ag48
ag88
ag94
ag32
ag27
ag40
ag36
ag30
ag38
ag37
ag78
ag92
ag47
ag43
ag44
assg74
Nsg76
F0.0
sg72
F1.4950000000000001
sg78
F1.0
sg80
I10
sg82
g167
sg84
F0.87
sg102
Nsg86
I01
sg88
I01
sg90
Nsg92
Nsg94
I01
sssg402
I01
ssS'stddev_noise_Jy'
p754
F0.01
sS'[simul]./MG_JEN_Cohset.predict_lsm()'
p755
(dp756
S'[simul_uvp]./MG_JEN_Cohset.Jones()'
p757
(dp758
S'[simul_uvp]./MG_JEN_Joneset.JJones()'
p759
(dp760
S'unop'
p761
S'Cos'
p762
sS'diagonal_only'
p763
I00
sg2
S'@@polrep'
p764
sg30
S'yellow'
p765
sS'stddev_period'
p766
F0.10000000000000001
sS'p7_mean_stddev'
p767
(lp768
F0.0
aF0.0
asS'p8_mean_stddev'
p769
(lp770
F0.0
aF0.0
asS'all4_always'
p771
NsS'fdeg'
p772
I0
sg36
Nsg37
I5
sg38
S'triangle'
p773
sS'p1_mean_stddev'
p774
(lp775
F0.0
aF0.0
asg40
S'<descr>'
p776
sS'mean_tampl'
p777
F0.20000000000000001
sS'p5_mean_stddev'
p778
(lp779
F0.0
aF0.0
asg49
(dp780
g199
S'MG_JEN_Joneset::JJones()'
p781
sg51
g759
sg100
(dp782
g761
I00
sg2
I01
sg30
I01
sg767
I01
sg769
I01
sg772
I01
sg36
I01
sS'simul_funklet'
p783
I01
sg38
I01
sg774
I01
sg40
I01
sg778
I01
sS'p0_mean_stddev'
p784
I01
sg37
I01
sS'@Jsequence'
p785
I01
sg78
I01
sS'@Jsequence_KJones'
p786
I01
sS'p9_mean_stddev'
p787
I01
sS'stations'
p788
I01
sS'timescale_min'
p789
I01
sS'p3_mean_stddev'
p790
I01
sS'p6_mean_stddev'
p791
I01
sS'p2_mean_stddev'
p792
I01
sS'p4_mean_stddev'
p793
I01
sS'c00_scale'
p794
I01
sS'@Jsequence_simul'
p795
I01
ssg105
S'Defines diagonal 2x2 Jones matrices for full polarisation:\n    Jjones(station,source) matrix elements:\n    - J_11 = (Jreal_11,Jimag_11)\n    - J_12 = (Jreal_12,Jimag_12)\n    - J_21 = (Jreal_21,Jimag_21)\n    - J_22 = (Jreal_22,Jimag_22)\n    For circular polarisation, R and L are used rather than X and Y\n    '
p796
sg96
g97
sg109
S'MG_JEN_Joneset::JJones()  version=14feb2006  defined=2006-04-13 11:08'
p797
sg205
S'JJones'
p798
sg111
(dp799
g761
(lp800
g762
aS'Sin'
p801
a(lp802
g762
ag801
aaNaS'@@unop'
p803
asg763
(lp804
I01
aI00
aS'@@diagonal_only'
p805
asg2
(lp806
g3
aS'circular'
p807
ag764
asg30
(lp808
g765
aS'@@color'
p809
asg766
(lp810
I0
aF0.01
aF0.10000000000000001
aF0.20000000000000001
aF0.5
aS'@@stddev_period'
p811
asg767
(lp812
g768
aS'@@p7_mean_stddev'
p813
asg769
(lp814
g770
aS'@@p8_mean_stddev'
p815
asg771
(lp816
Na(lp817
I14
aa(lp818
I1
aaS'WSRT/WHAT'
p819
aS'@@all4_always'
p820
asg772
(lp821
I0
aS'@@fdeg'
p822
asg36
(lp823
NaS'@@unit'
p824
asg783
(lp825
S'p0*cos(6.28*x0/p1)'
p826
aNaS'@@simul_funklet'
p827
asg38
(lp828
g773
aS'@@style'
p829
asg774
(lp830
g775
aS'@@p1_mean_stddev'
p831
asg40
(lp832
g776
aS'@@descr'
p833
asg778
(lp834
g779
aS'@@p5_mean_stddev'
p835
asg786
(lp836
S'JJones'
p837
aS'@@@Jsequence_KJones'
p838
asg37
(lp839
I5
aS'@@size'
p840
asg785
(lp841
g837
aS'@@@Jsequence'
p842
asg78
(lp843
F1.0
aS'@@c00_default'
p844
asg784
(lp845
(lp846
F0.0
aF0.0
aaS'@@p0_mean_stddev'
p847
asS'mean_c00'
p848
(lp849
I0
aF0.10000000000000001
aF0.20000000000000001
aF0.5
aF-0.10000000000000001
aS'@@mean_c00'
p850
asg787
(lp851
(lp852
F0.0
aF0.0
aaS'@@p9_mean_stddev'
p853
asg788
(lp854
(lp855
I0
aI1
aI2
aI3
aI4
aa(lp856
I0
aI1
aI2
aI3
aI4
aI5
aI6
aa(lp857
I0
aI1
aI2
aI3
aI4
aI5
aI6
aI7
aI8
aI9
aI10
aI11
aI12
aI13
aa(lp858
I0
aI1
aI2
aI3
aI4
aI5
aI6
aI7
aI8
aI9
aI10
aI11
aI12
aI13
aI14
aaS'range(5)'
p859
aS'@@stations'
p860
asg789
(lp861
I20
aS'@@timescale_min'
p862
asg790
(lp863
(lp864
F0.0
aF0.0
aaS'@@p3_mean_stddev'
p865
asg791
(lp866
(lp867
F0.0
aF0.0
aaS'@@p6_mean_stddev'
p868
asS'mean_period'
p869
(lp870
F0.29999999999999999
aF0.5
aI1
aI2
aI3
aS'@@mean_period'
p871
asg792
(lp872
(lp873
F0.0
aF0.0
aaS'@@p2_mean_stddev'
p874
asS'stddev_c00'
p875
(lp876
I0
aF0.0001
aF0.001
aF0.01
aF0.10000000000000001
aI1
aS'@@stddev_c00'
p877
asg793
(lp878
(lp879
F0.0
aF0.0
aaS'@@p4_mean_stddev'
p880
asg794
(lp881
F1.0
aS'@@c00_scale'
p882
asg795
(lp883
g837
aS'@@@Jsequence_simul'
p884
assg195
S'simul_uvp'
p885
sg209
S'** Description of available inarg record(s) for: MG_JEN_Joneset::JJones()  version=14feb2006  defined=2006-04-13 11:08'
p886
sg211
I00
sg212
S'2006-04-13 11:08'
p887
sg103
S'14feb2006'
p888
sg98
S'MG_JEN_Joneset'
p889
sg107
(dp890
g763
I00
ssg201
S'** Specific description of inarg record for: MG_JEN_Joneset::JJones()  version=14feb2006  defined=2006-04-13 11:08'
p891
sS'mutable'
p892
(dp893
g2
I00
sg788
I00
ssg197
g887
sg223
(lp894
g49
ag788
ag2
ag785
ag795
ag786
ag763
ag771
ag848
ag875
ag869
ag766
ag761
ag789
ag772
ag30
ag38
ag37
ag78
ag794
ag40
ag36
ag783
ag784
ag774
ag792
ag790
ag793
ag778
ag791
ag767
ag769
ag787
asg52
(dp895
g761
S'time-variability function'
p896
sg763
S'if True, solve for diagonal (11,22) elements only'
p897
sg2
S'polarisation representation'
p898
sg30
g58
sg766
S'scatter in period T (fraction of timescale_min)'
p899
sg767
S'[mean, stddev] of funklet coeff p7'
p900
sg769
S'[mean, stddev] of funklet coeff p8'
p901
sg771
S'stations for which all 4 elements will always be solved for'
p902
sg772
S'degree of freq polynomial'
p903
sg36
g36
sg783
S'(x0=time, x1=freq)'
p904
sg38
g64
sg774
S'[mean, stddev] of funklet coeff p1'
p905
sg40
S'brief description'
p906
sg778
S'[mean, stddev] of funklet coeff p5'
p907
sg786
S'list membership indication (used in JEN_inargGui)'
p908
sg37
S'size of plotted symbol'
p909
sg785
g908
sg78
S'default value of c00'
p910
sg784
S'[mean, stddev] of funklet coeff p0'
p911
sg848
S'mean of EXTRA c00 (fraction of c00_scale)'
p912
sg787
S'[mean, stddev] of funklet coeff p9'
p913
sg788
S'the (subset of) stations to be used'
p914
sg789
S'group timescale in minutes'
p915
sg790
S'[mean, stddev] of funklet coeff p3'
p916
sg791
S'[mean, stddev] of funklet coeff p6'
p917
sg869
S'mean time-period T (fraction of timescale_min)'
p918
sg792
S'[mean, stddev] of funklet coeff p2'
p919
sg875
S'scatter in EXTRA c00 (fraction of c00_scale'
p920
sg793
S'[mean, stddev] of funklet coeff p4'
p921
sg794
S'scale of c00'
p922
sg795
g908
ssg203
S'MG_JEN_JonesetJJones'
p923
ssg786
g837
sg783
Nsg785
g837
sS'stddev_period_s'
p924
I50
sg78
F1.0
sS'mean_period_s'
p925
I500
sg784
g846
sg848
F0.10000000000000001
sg787
g852
sg788
g860
sg789
I20
sg790
g864
sg791
g867
sg869
F1.0
sg792
g873
sg875
F0.01
sg793
g879
sg794
F1.0
sg795
g837
sS'stddev_tampl'
p926
F0.02
ssg2
S'@@polrep'
p927
sS'uvplane_effect'
p928
S'@@uvplane_effect'
p929
sS'[simul_uvp]./MG_JEN_Joneset.BJones()'
p930
(dp931
g761
g762
sg2
S'@@polrep'
p932
sg30
g765
sg766
F0.10000000000000001
sg767
(lp933
F0.0
aF0.0
asg769
(lp934
F0.0
aF0.0
asg772
I0
sg36
Nsg783
Nsg38
g773
sg774
(lp935
F0.0
aF0.0
asg40
g776
sg777
F0.20000000000000001
sg778
(lp936
F0.0
aF0.0
asg49
(dp937
g199
S'MG_JEN_Joneset::BJones()'
p938
sg51
g930
sg100
(dp939
g761
I00
sg2
I01
sg30
I01
sg767
I01
sg769
I01
sg772
I01
sg36
I01
sg783
I01
sg38
I01
sg774
I01
sg40
I01
sg778
I01
sg784
I01
sg37
I01
sg785
I01
sg78
I01
sg786
I01
sg787
I01
sg788
I01
sg789
I01
sg790
I01
sg791
I01
sg792
I01
sg793
I01
sg794
I01
sg795
I01
ssg105
S'Defines diagonal 2x2 Jones matrices that represent the IF bandpass:\n    Bjones(station,source) matrix elements:\n    - B_11 = (Breal_X,Bimag_X)\n    - B_12 = 0\n    - B_21 = 0\n    - B_22 = (Breal_Y,Bimag_Y)\n    For circular polarisation, R and L are used rather than X and Y\n    NB: The main differences with Gjones are:\n      - the higher-order (~5) freq-polynomial\n      - solving for real/imag rather than gain/phase \n    '
p940
sg96
g97
sg109
S'MG_JEN_Joneset::BJones()  version=16dec2005  defined=2006-04-13 11:08'
p941
sg205
S'BJones'
p942
sg111
(dp943
g761
(lp944
g762
ag801
a(lp945
g762
ag801
aaNaS'@@unop'
p946
asg2
(lp947
g3
ag807
ag932
asg30
(lp948
g765
aS'@@color'
p949
asg766
(lp950
I0
aF0.01
aF0.10000000000000001
aF0.20000000000000001
aF0.5
aS'@@stddev_period'
p951
asg767
(lp952
g933
aS'@@p7_mean_stddev'
p953
asg769
(lp954
g934
aS'@@p8_mean_stddev'
p955
asg772
(lp956
I0
aS'@@fdeg'
p957
asg36
(lp958
NaS'@@unit'
p959
asg783
(lp960
g826
aNaS'@@simul_funklet'
p961
asg38
(lp962
g773
aS'@@style'
p963
asg774
(lp964
g935
aS'@@p1_mean_stddev'
p965
asg40
(lp966
g776
aS'@@descr'
p967
asg778
(lp968
g936
aS'@@p5_mean_stddev'
p969
asg784
(lp970
(lp971
F0.0
aF0.0
aaS'@@p0_mean_stddev'
p972
asg37
(lp973
I5
aS'@@size'
p974
asg785
(lp975
S'BJones'
p976
aS'@@@Jsequence'
p977
asg78
(lp978
F1.0
aS'@@c00_default'
p979
asg786
(lp980
g976
aS'@@@Jsequence_KJones'
p981
asg848
(lp982
I0
aF0.10000000000000001
aF0.20000000000000001
aF0.5
aF-0.10000000000000001
aS'@@mean_c00'
p983
asg787
(lp984
(lp985
F0.0
aF0.0
aaS'@@p9_mean_stddev'
p986
asg788
(lp987
(lp988
I0
aI1
aI2
aI3
aI4
aa(lp989
I0
aI1
aI2
aI3
aI4
aI5
aI6
aa(lp990
I0
aI1
aI2
aI3
aI4
aI5
aI6
aI7
aI8
aI9
aI10
aI11
aI12
aI13
aa(lp991
I0
aI1
aI2
aI3
aI4
aI5
aI6
aI7
aI8
aI9
aI10
aI11
aI12
aI13
aI14
aag859
aS'@@stations'
p992
asg789
(lp993
I20
aS'@@timescale_min'
p994
asg790
(lp995
(lp996
F0.0
aF0.0
aaS'@@p3_mean_stddev'
p997
asg791
(lp998
(lp999
F0.0
aF0.0
aaS'@@p6_mean_stddev'
p1000
asg869
(lp1001
F0.29999999999999999
aF0.5
aI1
aI2
aI3
aS'@@mean_period'
p1002
asg792
(lp1003
(lp1004
F0.0
aF0.0
aaS'@@p2_mean_stddev'
p1005
asg875
(lp1006
I0
aF0.0001
aF0.001
aF0.01
aF0.10000000000000001
aI1
aS'@@stddev_c00'
p1007
asg793
(lp1008
(lp1009
F0.0
aF0.0
aaS'@@p4_mean_stddev'
p1010
asg794
(lp1011
F1.0
aS'@@c00_scale'
p1012
asg795
(lp1013
g976
aS'@@@Jsequence_simul'
p1014
assg195
g885
sg209
S'** Description of available inarg record(s) for: MG_JEN_Joneset::BJones()  version=16dec2005  defined=2006-04-13 11:08'
p1015
sg211
I00
sg212
S'2006-04-13 11:08'
p1016
sg103
S'16dec2005'
p1017
sg98
S'MG_JEN_Joneset'
p1018
sg201
S'** Specific description of inarg record for: MG_JEN_Joneset::BJones()  version=16dec2005  defined=2006-04-13 11:08'
p1019
sg892
(dp1020
g2
I00
sg788
I00
ssg197
g1016
sg223
(lp1021
g49
ag788
ag2
ag785
ag795
ag786
ag848
ag875
ag869
ag766
ag761
ag789
ag772
ag30
ag38
ag37
ag78
ag794
ag40
ag36
ag783
ag784
ag774
ag792
ag790
ag793
ag778
ag791
ag767
ag769
ag787
asg52
(dp1022
g761
g896
sg2
g898
sg30
g58
sg766
g899
sg767
g900
sg769
g901
sg772
g903
sg36
g36
sg783
g904
sg38
g64
sg774
g905
sg40
g906
sg778
g907
sg784
g911
sg37
g909
sg785
g908
sg78
g910
sg786
g908
sg848
g912
sg787
g913
sg788
g914
sg789
g915
sg790
g916
sg791
g917
sg869
g918
sg792
g919
sg875
g920
sg793
g921
sg794
g922
sg795
g908
ssg203
S'MG_JEN_JonesetBJones'
p1023
ssg786
g976
sg37
I5
sg785
g976
sg924
I100
sg78
F1.0
sg925
I5000
sg784
g971
sg848
F0.10000000000000001
sg787
g985
sg788
g992
sg789
I20
sg790
g996
sg791
g999
sg869
F1.0
sg792
g1004
sg875
F0.01
sg793
g1009
sg794
F1.0
sg795
g976
sg926
F0.02
ssg788
S'@@stations'
p1024
sS'[simul_uvp]./MG_JEN_Joneset.KJones()'
p1025
(dp1026
g2
S'@@polrep'
p1027
sg788
S'@@stations'
p1028
sg49
(dp1029
g199
S'MG_JEN_Joneset::KJones()'
p1030
sg51
g1025
sg100
(dp1031
g786
I01
sg795
I01
sg785
I01
sg2
I01
sg788
I01
ssg105
S'defines diagonal KJones matrices for DFT Fourier kernel'
p1032
sg96
g97
sg109
S'MG_JEN_Joneset::KJones()  version=12dec2005  defined=2006-04-13 11:08'
p1033
sg205
S'KJones'
p1034
sg111
(dp1035
g786
(lp1036
S'KJones'
p1037
aS'@@@Jsequence_KJones'
p1038
asg795
(lp1039
g1037
aS'@@@Jsequence_simul'
p1040
asg785
(lp1041
g1037
aS'@@@Jsequence'
p1042
asg2
(lp1043
g3
ag807
ag1027
asg788
(lp1044
(lp1045
I0
aI1
aI2
aI3
aI4
aa(lp1046
I0
aI1
aI2
aI3
aI4
aI5
aI6
aa(lp1047
I0
aI1
aI2
aI3
aI4
aI5
aI6
aI7
aI8
aI9
aI10
aI11
aI12
aI13
aa(lp1048
I0
aI1
aI2
aI3
aI4
aI5
aI6
aI7
aI8
aI9
aI10
aI11
aI12
aI13
aI14
aag859
ag1028
assg195
g885
sg209
S'** Description of available inarg record(s) for: MG_JEN_Joneset::KJones()  version=12dec2005  defined=2006-04-13 11:08'
p1049
sg211
I00
sg212
S'2006-04-13 11:08'
p1050
sg103
S'12dec2005'
p1051
sg98
S'MG_JEN_Joneset'
p1052
sg201
S'** Specific description of inarg record for: MG_JEN_Joneset::KJones()  version=12dec2005  defined=2006-04-13 11:08'
p1053
sg892
(dp1054
g2
I00
sg788
I00
ssg197
g1050
sg223
(lp1055
g49
ag788
ag2
ag785
ag795
ag786
asg52
(dp1056
g786
g908
sg795
g908
sg785
g908
sg2
g898
sg788
g914
ssg203
S'MG_JEN_JonesetKJones'
p1057
ssg786
g1037
sg795
g1037
sg785
g1037
ssS'[simul_uvp]./MG_JEN_Joneset.FJones()'
p1058
(dp1059
g761
g762
sg2
S'@@polrep'
p1060
sg30
g765
sg766
F0.10000000000000001
sg767
(lp1061
F0.0
aF0.0
asg769
(lp1062
F0.0
aF0.0
asg772
I0
sg36
Nsg783
Nsg38
g773
sg774
(lp1063
F0.0
aF0.0
asg40
g776
sg777
F0.20000000000000001
sg778
(lp1064
F0.0
aF0.0
asg49
(dp1065
g199
S'MG_JEN_Joneset::FJones()'
p1066
sg51
g1058
sg100
(dp1067
g761
I00
sg2
I01
sg30
I01
sg767
I01
sg769
I01
sg772
I01
sg36
I01
sg783
I01
sg38
I01
sg774
I01
sg40
I01
sg778
I01
sg784
I01
sg37
I01
sg785
I01
sg78
I01
sg786
I01
sg787
I01
sg788
I01
sg789
I01
sg790
I01
sg791
I01
sg792
I01
sg793
I01
sg794
I01
sg795
I01
ssg105
S'defines diagonal FJones Faraday rotation matrices'
p1068
sg96
g97
sg109
S'MG_JEN_Joneset::FJones()  version=16dec2005  defined=2006-04-13 11:08'
p1069
sg205
S'FJones'
p1070
sg111
(dp1071
g761
(lp1072
g762
ag801
a(lp1073
g762
ag801
aaNaS'@@unop'
p1074
asg2
(lp1075
g3
ag807
ag1060
asg30
(lp1076
g765
aS'@@color'
p1077
asg766
(lp1078
I0
aF0.01
aF0.10000000000000001
aF0.20000000000000001
aF0.5
aS'@@stddev_period'
p1079
asg767
(lp1080
g1061
aS'@@p7_mean_stddev'
p1081
asg769
(lp1082
g1062
aS'@@p8_mean_stddev'
p1083
asg772
(lp1084
I0
aS'@@fdeg'
p1085
asg36
(lp1086
NaS'@@unit'
p1087
asg783
(lp1088
g826
aNaS'@@simul_funklet'
p1089
asg38
(lp1090
g773
aS'@@style'
p1091
asg774
(lp1092
g1063
aS'@@p1_mean_stddev'
p1093
asg40
(lp1094
g776
aS'@@descr'
p1095
asg778
(lp1096
g1064
aS'@@p5_mean_stddev'
p1097
asg784
(lp1098
(lp1099
F0.0
aF0.0
aaS'@@p0_mean_stddev'
p1100
asg37
(lp1101
I5
aS'@@size'
p1102
asg785
(lp1103
S'FJones'
p1104
aS'@@@Jsequence'
p1105
asg78
(lp1106
F1.0
aS'@@c00_default'
p1107
asg786
(lp1108
g1104
aS'@@@Jsequence_KJones'
p1109
asg848
(lp1110
I0
aF0.10000000000000001
aF0.20000000000000001
aF0.5
aF-0.10000000000000001
aS'@@mean_c00'
p1111
asg787
(lp1112
(lp1113
F0.0
aF0.0
aaS'@@p9_mean_stddev'
p1114
asg788
(lp1115
(lp1116
I0
aI1
aI2
aI3
aI4
aa(lp1117
I0
aI1
aI2
aI3
aI4
aI5
aI6
aa(lp1118
I0
aI1
aI2
aI3
aI4
aI5
aI6
aI7
aI8
aI9
aI10
aI11
aI12
aI13
aa(lp1119
I0
aI1
aI2
aI3
aI4
aI5
aI6
aI7
aI8
aI9
aI10
aI11
aI12
aI13
aI14
aag859
aS'@@stations'
p1120
asg789
(lp1121
I20
aS'@@timescale_min'
p1122
asg790
(lp1123
(lp1124
F0.0
aF0.0
aaS'@@p3_mean_stddev'
p1125
asg791
(lp1126
(lp1127
F0.0
aF0.0
aaS'@@p6_mean_stddev'
p1128
asg869
(lp1129
F0.29999999999999999
aF0.5
aI1
aI2
aI3
aS'@@mean_period'
p1130
asg792
(lp1131
(lp1132
F0.0
aF0.0
aaS'@@p2_mean_stddev'
p1133
asg875
(lp1134
I0
aF0.0001
aF0.001
aF0.01
aF0.10000000000000001
aI1
aS'@@stddev_c00'
p1135
asg793
(lp1136
(lp1137
F0.0
aF0.0
aaS'@@p4_mean_stddev'
p1138
asg794
(lp1139
F1.0
aS'@@c00_scale'
p1140
asg795
(lp1141
g1104
aS'@@@Jsequence_simul'
p1142
assg195
g885
sg209
S'** Description of available inarg record(s) for: MG_JEN_Joneset::FJones()  version=16dec2005  defined=2006-04-13 11:08'
p1143
sg211
I00
sg212
S'2006-04-13 11:08'
p1144
sg103
g1017
sg98
S'MG_JEN_Joneset'
p1145
sg201
S'** Specific description of inarg record for: MG_JEN_Joneset::FJones()  version=16dec2005  defined=2006-04-13 11:08'
p1146
sg892
(dp1147
g2
I00
sg788
I00
ssg197
g1144
sg223
(lp1148
g49
ag788
ag2
ag785
ag795
ag786
ag848
ag875
ag869
ag766
ag761
ag789
ag772
ag30
ag38
ag37
ag78
ag794
ag40
ag36
ag783
ag784
ag774
ag792
ag790
ag793
ag778
ag791
ag767
ag769
ag787
asg52
(dp1149
g761
g896
sg2
g898
sg30
g58
sg766
g899
sg767
g900
sg769
g901
sg772
g903
sg36
g36
sg783
g904
sg38
g64
sg774
g905
sg40
g906
sg778
g907
sg784
g911
sg37
g909
sg785
g908
sg78
g910
sg786
g908
sg848
g912
sg787
g913
sg788
g914
sg789
g915
sg790
g916
sg791
g917
sg869
g918
sg792
g919
sg875
g920
sg793
g921
sg794
g922
sg795
g908
ssg203
S'MG_JEN_JonesetFJones'
p1150
ssg786
g1104
sg37
I5
sg785
g1104
sg924
I50
sg78
F1.0
sg925
I500
sg784
g1099
sg848
F0.10000000000000001
sg787
g1113
sg788
g1120
sg789
I20
sg790
g1124
sg791
g1127
sg869
F1.0
sg792
g1132
sg875
F0.01
sg793
g1137
sg794
F1.0
sg795
g1104
sg926
F0.02
ssg13
S'@@parmtable'
p1151
sS'[simul_uvp]./MG_JEN_Joneset.DJones_WSRT()'
p1152
(dp1153
g761
g762
sg2
S'@@polrep'
p1154
sg30
g765
sg766
F0.10000000000000001
sg767
(lp1155
F0.0
aF0.0
asS'coupled_XY_Dell'
p1156
I01
sg769
(lp1157
F0.0
aF0.0
asg772
I0
sg36
Nsg37
I5
sg38
g773
sg774
(lp1158
F0.0
aF0.0
asg40
g776
sg777
F0.002
sg778
(lp1159
F0.0
aF0.0
asg49
(dp1160
g199
S'MG_JEN_Joneset::DJones_WSRT()'
p1161
sg51
g1152
sg100
(dp1162
g761
I00
sg2
I01
sg30
I01
sg767
I01
sg769
I01
sg772
I01
sg36
I01
sg783
I01
sg38
I01
sg774
I01
sg40
I01
sg778
I01
sg784
I01
sg37
I01
sg785
I01
sg78
I01
sg786
I01
sg787
I01
sg788
I01
sg789
I01
sg790
I01
sg791
I01
sg792
I01
sg793
I01
sg794
I01
sg795
I01
ssg105
S'defines 2x2 DJones_WSRT (polarisation leakage) matrices'
p1163
sg96
g97
sg109
S'MG_JEN_Joneset::DJones_WSRT()  version=16dec2005  defined=2006-04-13 11:08'
p1164
sg205
S'DJones_WSRT'
p1165
sg111
(dp1166
g761
(lp1167
g762
ag801
a(lp1168
g762
ag801
aaNaS'@@unop'
p1169
asg2
(lp1170
g3
ag807
ag1154
asg30
(lp1171
g765
aS'@@color'
p1172
asg766
(lp1173
I0
aF0.01
aF0.10000000000000001
aF0.20000000000000001
aF0.5
aS'@@stddev_period'
p1174
asg767
(lp1175
g1155
aS'@@p7_mean_stddev'
p1176
asg1156
(lp1177
I01
aI00
aS'@@coupled_XY_Dell'
p1178
asg769
(lp1179
g1157
aS'@@p8_mean_stddev'
p1180
asg772
(lp1181
I0
aS'@@fdeg'
p1182
asg36
(lp1183
NaS'@@unit'
p1184
asg783
(lp1185
g826
aNaS'@@simul_funklet'
p1186
asg38
(lp1187
g773
aS'@@style'
p1188
asg774
(lp1189
g1158
aS'@@p1_mean_stddev'
p1190
asg40
(lp1191
g776
aS'@@descr'
p1192
asg778
(lp1193
g1159
aS'@@p5_mean_stddev'
p1194
asg786
(lp1195
S'DJones_WSRT'
p1196
aS'@@@Jsequence_KJones'
p1197
asg37
(lp1198
I5
aS'@@size'
p1199
asg785
(lp1200
g1196
aS'@@@Jsequence'
p1201
asg78
(lp1202
F1.0
aS'@@c00_default'
p1203
asg784
(lp1204
(lp1205
F0.0
aF0.0
aaS'@@p0_mean_stddev'
p1206
asg848
(lp1207
I0
aF0.10000000000000001
aF0.20000000000000001
aF0.5
aF-0.10000000000000001
aS'@@mean_c00'
p1208
asS'coupled_XY_Dang'
p1209
(lp1210
I01
aI00
aS'@@coupled_XY_Dang'
p1211
asg787
(lp1212
(lp1213
F0.0
aF0.0
aaS'@@p9_mean_stddev'
p1214
asg788
(lp1215
(lp1216
I0
aI1
aI2
aI3
aI4
aa(lp1217
I0
aI1
aI2
aI3
aI4
aI5
aI6
aa(lp1218
I0
aI1
aI2
aI3
aI4
aI5
aI6
aI7
aI8
aI9
aI10
aI11
aI12
aI13
aa(lp1219
I0
aI1
aI2
aI3
aI4
aI5
aI6
aI7
aI8
aI9
aI10
aI11
aI12
aI13
aI14
aag859
aS'@@stations'
p1220
asg789
(lp1221
I20
aS'@@timescale_min'
p1222
asg790
(lp1223
(lp1224
F0.0
aF0.0
aaS'@@p3_mean_stddev'
p1225
asg791
(lp1226
(lp1227
F0.0
aF0.0
aaS'@@p6_mean_stddev'
p1228
asg869
(lp1229
F0.29999999999999999
aF0.5
aI1
aI2
aI3
aS'@@mean_period'
p1230
asg792
(lp1231
(lp1232
F0.0
aF0.0
aaS'@@p2_mean_stddev'
p1233
asg875
(lp1234
I0
aF0.0001
aF0.001
aF0.01
aF0.10000000000000001
aI1
aS'@@stddev_c00'
p1235
asg793
(lp1236
(lp1237
F0.0
aF0.0
aaS'@@p4_mean_stddev'
p1238
asg794
(lp1239
F1.0
aS'@@c00_scale'
p1240
asg795
(lp1241
g1196
aS'@@@Jsequence_simul'
p1242
assg195
g885
sg209
S'** Description of available inarg record(s) for: MG_JEN_Joneset::DJones_WSRT()  version=16dec2005  defined=2006-04-13 11:08'
p1243
sg211
I00
sg212
S'2006-04-13 11:08'
p1244
sg103
g1017
sg98
S'MG_JEN_Joneset'
p1245
sg107
(dp1246
g1209
I00
sg1156
I00
ssg201
S'** Specific description of inarg record for: MG_JEN_Joneset::DJones_WSRT()  version=16dec2005  defined=2006-04-13 11:08'
p1247
sg892
(dp1248
g2
I00
sg788
I00
ssg197
g1244
sg223
(lp1249
g49
ag788
ag2
ag785
ag795
ag786
ag1209
ag1156
ag848
ag875
ag869
ag766
ag761
ag789
ag772
ag30
ag38
ag37
ag78
ag794
ag40
ag36
ag783
ag784
ag774
ag792
ag790
ag793
ag778
ag791
ag767
ag769
ag787
asg52
(dp1250
g761
g896
sg2
g898
sg30
g58
sg766
g899
sg767
g900
sg1156
S'if True, XDell = -YDell per station'
p1251
sg769
g901
sg772
g903
sg36
g36
sg783
g904
sg38
g64
sg774
g905
sg40
g906
sg778
g907
sg786
g908
sg37
g909
sg785
g908
sg78
g910
sg784
g911
sg848
g912
sg1209
S'if True, XDang = YDang per station'
p1252
sg787
g913
sg788
g914
sg789
g915
sg790
g916
sg791
g917
sg869
g918
sg792
g919
sg875
g920
sg793
g921
sg794
g922
sg795
g908
ssg203
S'MG_JEN_JonesetDJones_WSRT'
p1253
ssg786
g1196
sg783
Nsg785
g1196
sg924
I100
sg78
F1.0
sg925
I3000
sg784
g1205
sg848
F0.10000000000000001
sg1209
I01
sg787
g1213
sg788
g1220
sg789
I20
sg790
g1224
sg791
g1227
sg869
F1.0
sg792
g1232
sg875
F0.01
sg793
g1237
sg794
F1.0
sg795
g1196
sg926
F0.00020000000000000001
ssg49
(dp1254
g199
S'MG_JEN_Cohset::Jones()'
p1255
sg51
g757
sg100
(dp1256
g2
I01
sg788
I01
sg928
I01
sg13
I01
sg786
I01
sg795
I01
sg785
I01
ssg203
S'MG_JEN_CohsetJones'
p1257
sg96
g97
sg105
S'Make a Joneset by creating and multiplying a sequence of one ore more Jonesets'
p1258
sg109
S'MG_JEN_Cohset::Jones()  version=25dec2005  defined=2006-04-13 11:08'
p1259
sg205
S'Jones'
p1260
sg111
(dp1261
g2
(lp1262
g3
ag807
ag927
asg788
(lp1263
(lp1264
I0
aI1
aI2
aI3
aI4
aa(lp1265
I0
aI1
aI2
aI3
aI4
aI5
aI6
aa(lp1266
I0
aI1
aI2
aI3
aI4
aI5
aI6
aI7
aI8
aI9
aI10
aI11
aI12
aI13
aa(lp1267
I0
aI1
aI2
aI3
aI4
aI5
aI6
aI7
aI8
aI9
aI10
aI11
aI12
aI13
aI14
aag859
ag1024
asg928
(lp1268
I00
ag929
asg13
(lp1269
NaS'test'
p1270
ag1151
asg786
(lp1271
NaS'@@@Jsequence_KJones'
p1272
asg795
(lp1273
NaS'@@@Jsequence_simul'
p1274
asS'Jsequence'
p1275
(lp1276
(lp1277
S'GJones'
p1278
aa(lp1279
g976
aa(lp1280
g1104
aa(lp1281
g1037
aa(lp1282
g1196
aa(lp1283
g1278
ag1196
aa(lp1284
S'EJones_WSRT'
p1285
aa(lp1286
g1278
ag1285
aa(lp1287
g837
aa(lp1288
aS'@@Jsequence'
p1289
asg785
(lp1290
NaS'@@@Jsequence'
p1291
assg195
g885
sg209
S'** Description of available inarg record(s) for: MG_JEN_Cohset::Jones()  version=25dec2005  defined=2006-04-13 11:08'
p1292
sg211
I00
sg212
S'2006-04-13 11:08'
p1293
sg103
S'25dec2005'
p1294
sg98
S'MG_JEN_Cohset'
p1295
sg201
S'** Specific description of inarg record for: MG_JEN_Cohset::Jones()  version=25dec2005  defined=2006-04-13 11:08'
p1296
sg213
(dp1297
g215
S'** JEN_inarg.attach(): attached: [simul_uvp]./MG_JEN_Joneset.FJones()'
p1298
sg217
S'** JEN_inarg.attach(): attached: [simul_uvp]./MG_JEN_Joneset.GJones()'
p1299
sg219
S'** JEN_inarg.attach(): attached: [simul_uvp]./MG_JEN_Joneset.KJones()'
p1300
sg221
S'** JEN_inarg.attach(): attached: [simul_uvp]./MG_JEN_Joneset.BJones()'
p1301
sS'5'
p1302
S'** JEN_inarg.attach(): attached: [simul_uvp]./MG_JEN_Joneset.EJones_WSRT()'
p1303
sS'4'
p1304
S'** JEN_inarg.attach(): attached: [simul_uvp]./MG_JEN_Joneset.DJones_WSRT()'
p1305
sS'7'
p1306
S"  2: ....[simul_uvp]./MG_JEN_Cohset.Jones() (qual=simul_uvp): .modify(Jsequence):   []  ->  ['DJones_WSRT']"
p1307
sS'6'
p1308
S'** JEN_inarg.attach(): attached: [simul_uvp]./MG_JEN_Joneset.JJones()'
p1309
ssg197
g1293
sg892
(dp1310
g928
I00
sg13
I00
sg2
I00
sg788
I00
ssg223
(lp1311
g49
ag788
ag2
ag785
ag795
ag786
ag13
ag928
ag1275
aS'[simul_uvp]./MG_JEN_Joneset.GJones()'
p1312
ag1058
ag930
ag1025
ag1152
aS'[simul_uvp]./MG_JEN_Joneset.EJones_WSRT()'
p1313
ag759
asg52
(dp1314
g2
g898
sg788
g914
sg928
S'if True, the Joneset reprsents uv-plane effects (q=uvp)'
p1315
sg13
S'name of the MeqParm table to be used'
p1316
sg786
g908
sg795
g908
sg1275
S'sequence of Jones matrices to be used'
p1317
sg785
g908
sssg786
Nsg795
Nsg1275
(lp1318
g1196
asg1312
(dp1319
g761
g762
sg2
S'@@polrep'
p1320
sg30
g765
sg766
F0.10000000000000001
sg767
(lp1321
F0.0
aF0.0
asg769
(lp1322
F0.0
aF0.0
asg772
I0
sg36
Nsg37
I5
sg38
g773
sg774
(lp1323
F0.0
aF0.0
asg40
g776
sg778
(lp1324
F0.0
aF0.0
asg49
(dp1325
g199
S'MG_JEN_Joneset::GJones()'
p1326
sg51
g1312
sg100
(dp1327
g761
I00
sg2
I01
sg30
I01
sg767
I01
sg769
I01
sg772
I01
sg36
I01
sg783
I01
sg38
I01
sg774
I01
sg40
I01
sg778
I01
sg784
I01
sg37
I01
sg785
I01
sg78
I01
sg786
I01
sS'Gpolar'
p1328
I01
sg787
I01
sg788
I01
sg789
I01
sg790
I01
sg791
I01
sg792
I01
sg793
I01
sg794
I01
sg795
I01
ssg105
S'Defines diagonal 2x2 Jones matrices that represent complex gain:\n    Gjones(station,source) matrix elements:\n    - G_11 = Ggain_X*exp(iGphase_X)\n    - G_12 = 0\n    - G_21 = 0\n    - G_22 = Ggain_Y*exp(iGphase_Y)\n    For circular polarisation, R and L are used rather than X and Y\n    '
p1329
sg96
g97
sg109
S'MG_JEN_Joneset::GJones()  version=15dec2005  defined=2006-04-13 11:08'
p1330
sg205
S'GJones'
p1331
sg111
(dp1332
g761
(lp1333
g762
ag801
a(lp1334
g762
ag801
aaNaS'@@unop'
p1335
asg2
(lp1336
g3
ag807
ag1320
asg30
(lp1337
g765
aS'@@color'
p1338
asg766
(lp1339
I0
aF0.01
aF0.10000000000000001
aF0.20000000000000001
aF0.5
aS'@@stddev_period'
p1340
asg767
(lp1341
g1321
aS'@@p7_mean_stddev'
p1342
asg769
(lp1343
g1322
aS'@@p8_mean_stddev'
p1344
asg772
(lp1345
I0
aS'@@fdeg'
p1346
asg36
(lp1347
NaS'@@unit'
p1348
asg783
(lp1349
g826
aNaS'@@simul_funklet'
p1350
asg38
(lp1351
g773
aS'@@style'
p1352
asg774
(lp1353
g1323
aS'@@p1_mean_stddev'
p1354
asg40
(lp1355
g776
aS'@@descr'
p1356
asg778
(lp1357
g1324
aS'@@p5_mean_stddev'
p1358
asg784
(lp1359
(lp1360
F0.0
aF0.0
aaS'@@p0_mean_stddev'
p1361
asg37
(lp1362
I5
aS'@@size'
p1363
asg785
(lp1364
g1278
aS'@@@Jsequence'
p1365
asg78
(lp1366
F1.0
aS'@@c00_default'
p1367
asg786
(lp1368
g1278
aS'@@@Jsequence_KJones'
p1369
asg848
(lp1370
I0
aF0.10000000000000001
aF0.20000000000000001
aF0.5
aF-0.10000000000000001
aS'@@mean_c00'
p1371
asg1328
(lp1372
I01
aI00
aS'@@Gpolar'
p1373
asg787
(lp1374
(lp1375
F0.0
aF0.0
aaS'@@p9_mean_stddev'
p1376
asg788
(lp1377
(lp1378
I0
aI1
aI2
aI3
aI4
aa(lp1379
I0
aI1
aI2
aI3
aI4
aI5
aI6
aa(lp1380
I0
aI1
aI2
aI3
aI4
aI5
aI6
aI7
aI8
aI9
aI10
aI11
aI12
aI13
aa(lp1381
I0
aI1
aI2
aI3
aI4
aI5
aI6
aI7
aI8
aI9
aI10
aI11
aI12
aI13
aI14
aag859
aS'@@stations'
p1382
asg789
(lp1383
I20
aS'@@timescale_min'
p1384
asg790
(lp1385
(lp1386
F0.0
aF0.0
aaS'@@p3_mean_stddev'
p1387
asg791
(lp1388
(lp1389
F0.0
aF0.0
aaS'@@p6_mean_stddev'
p1390
asg869
(lp1391
F0.29999999999999999
aF0.5
aI1
aI2
aI3
aS'@@mean_period'
p1392
asg792
(lp1393
(lp1394
F0.0
aF0.0
aaS'@@p2_mean_stddev'
p1395
asg875
(lp1396
I0
aF0.0001
aF0.001
aF0.01
aF0.10000000000000001
aI1
aS'@@stddev_c00'
p1397
asg793
(lp1398
(lp1399
F0.0
aF0.0
aaS'@@p4_mean_stddev'
p1400
asg794
(lp1401
F1.0
aS'@@c00_scale'
p1402
asg795
(lp1403
g1278
aS'@@@Jsequence_simul'
p1404
assg195
g885
sg209
S'** Description of available inarg record(s) for: MG_JEN_Joneset::GJones()  version=15dec2005  defined=2006-04-13 11:08'
p1405
sg211
I00
sg212
S'2006-04-13 11:08'
p1406
sg103
S'15dec2005'
p1407
sg98
S'MG_JEN_Joneset'
p1408
sg107
(dp1409
g1328
I00
ssg201
S'** Specific description of inarg record for: MG_JEN_Joneset::GJones()  version=15dec2005  defined=2006-04-13 11:08'
p1410
sg892
(dp1411
g2
I00
sg788
I00
ssg197
g1406
sg223
(lp1412
g49
ag788
ag2
ag785
ag795
ag786
ag1328
ag848
ag875
ag869
ag766
ag761
ag789
ag772
ag30
ag38
ag37
ag78
ag794
ag40
ag36
ag783
ag784
ag774
ag792
ag790
ag793
ag778
ag791
ag767
ag769
ag787
asg52
(dp1413
g761
g896
sg2
g898
sg30
g58
sg766
g899
sg767
g900
sg769
g901
sg772
g903
sg36
g36
sg783
g904
sg38
g64
sg774
g905
sg40
g906
sg778
g907
sg784
g911
sg37
g909
sg785
g908
sg78
g910
sg786
g908
sg848
g912
sg1328
S'obsolete, kept only for upward compatibility'
p1414
sg787
g913
sg788
g914
sg789
g915
sg790
g916
sg791
g917
sg869
g918
sg792
g919
sg875
g920
sg793
g921
sg794
g922
sg795
g908
ssg203
S'MG_JEN_JonesetGJones'
p1415
ssg786
g1278
sg783
Nsg785
g1278
sg78
F1.0
sg784
g1360
sg848
F0.10000000000000001
sg1328
I01
sg787
g1375
sg788
g1382
sg789
I20
sg790
g1386
sg791
g1389
sg869
F1.0
sg792
g1394
sg875
F0.01
sg793
g1399
sg794
F1.0
sg795
g1278
ssg1313
(dp1416
g761
g762
sg2
S'@@polrep'
p1417
sg30
g765
sg766
F0.10000000000000001
sg767
(lp1418
F0.0
aF0.0
asg769
(lp1419
F0.0
aF0.0
asg772
I0
sg36
Nsg783
Nsg38
g773
sg774
(lp1420
F0.0
aF0.0
asg40
g776
sg778
(lp1421
F0.0
aF0.0
asg49
(dp1422
g199
S'MG_JEN_Joneset::EJones_WSRT()'
p1423
sg51
g1313
sg100
(dp1424
g761
I00
sg2
I01
sg30
I01
sg767
I01
sg769
I01
sg772
I01
sg36
I01
sg783
I01
sg38
I01
sg774
I01
sg40
I01
sg778
I01
sg784
I01
sg37
I01
sg785
I01
sg78
I01
sg786
I01
sg787
I01
sg788
I01
sg789
I01
sg790
I01
sg791
I01
sg792
I01
sg793
I01
sg794
I01
sg795
I01
ssg105
S'defines EJones (voltage beamshape) matrices for WSRT (l,m interpolatable)\n    Ejones(station,source) matrix elements:\n    - E_11 = Egain_X*exp(iEphase_X)\n    - E_12 = 0\n    - E_21 = 0\n    - E_22 = Egain_Y*exp(iEphase_Y)\n    For circular polarisation, R and L are used rather than X and Y\n    '
p1425
sg96
g97
sg109
S'MG_JEN_Joneset::EJones_WSRT()  version=15dec2005  defined=2006-04-13 11:08'
p1426
sg205
S'EJones_WSRT'
p1427
sg111
(dp1428
g761
(lp1429
g762
ag801
a(lp1430
g762
ag801
aaNaS'@@unop'
p1431
asg2
(lp1432
g3
ag807
ag1417
asg30
(lp1433
g765
aS'@@color'
p1434
asg766
(lp1435
I0
aF0.01
aF0.10000000000000001
aF0.20000000000000001
aF0.5
aS'@@stddev_period'
p1436
asg767
(lp1437
g1418
aS'@@p7_mean_stddev'
p1438
asg769
(lp1439
g1419
aS'@@p8_mean_stddev'
p1440
asg772
(lp1441
I0
aS'@@fdeg'
p1442
asg36
(lp1443
NaS'@@unit'
p1444
asg783
(lp1445
g826
aNaS'@@simul_funklet'
p1446
asg38
(lp1447
g773
aS'@@style'
p1448
asg774
(lp1449
g1420
aS'@@p1_mean_stddev'
p1450
asg40
(lp1451
g776
aS'@@descr'
p1452
asg778
(lp1453
g1421
aS'@@p5_mean_stddev'
p1454
asg784
(lp1455
(lp1456
F0.0
aF0.0
aaS'@@p0_mean_stddev'
p1457
asg37
(lp1458
I5
aS'@@size'
p1459
asg785
(lp1460
g1285
aS'@@@Jsequence'
p1461
asg78
(lp1462
F1.0
aS'@@c00_default'
p1463
asg786
(lp1464
g1285
aS'@@@Jsequence_KJones'
p1465
asg848
(lp1466
I0
aF0.10000000000000001
aF0.20000000000000001
aF0.5
aF-0.10000000000000001
aS'@@mean_c00'
p1467
asg787
(lp1468
(lp1469
F0.0
aF0.0
aaS'@@p9_mean_stddev'
p1470
asg788
(lp1471
(lp1472
I0
aI1
aI2
aI3
aI4
aa(lp1473
I0
aI1
aI2
aI3
aI4
aI5
aI6
aa(lp1474
I0
aI1
aI2
aI3
aI4
aI5
aI6
aI7
aI8
aI9
aI10
aI11
aI12
aI13
aa(lp1475
I0
aI1
aI2
aI3
aI4
aI5
aI6
aI7
aI8
aI9
aI10
aI11
aI12
aI13
aI14
aag859
aS'@@stations'
p1476
asg789
(lp1477
I20
aS'@@timescale_min'
p1478
asg790
(lp1479
(lp1480
F0.0
aF0.0
aaS'@@p3_mean_stddev'
p1481
asg791
(lp1482
(lp1483
F0.0
aF0.0
aaS'@@p6_mean_stddev'
p1484
asg869
(lp1485
F0.29999999999999999
aF0.5
aI1
aI2
aI3
aS'@@mean_period'
p1486
asg792
(lp1487
(lp1488
F0.0
aF0.0
aaS'@@p2_mean_stddev'
p1489
asg875
(lp1490
I0
aF0.0001
aF0.001
aF0.01
aF0.10000000000000001
aI1
aS'@@stddev_c00'
p1491
asg793
(lp1492
(lp1493
F0.0
aF0.0
aaS'@@p4_mean_stddev'
p1494
asg794
(lp1495
F1.0
aS'@@c00_scale'
p1496
asg795
(lp1497
g1285
aS'@@@Jsequence_simul'
p1498
assg195
g885
sg209
S'** Description of available inarg record(s) for: MG_JEN_Joneset::EJones_WSRT()  version=15dec2005  defined=2006-04-13 11:08'
p1499
sg211
I00
sg212
S'2006-04-13 11:08'
p1500
sg103
g1407
sg98
S'MG_JEN_Joneset'
p1501
sg201
S'** Specific description of inarg record for: MG_JEN_Joneset::EJones_WSRT()  version=15dec2005  defined=2006-04-13 11:08'
p1502
sg892
(dp1503
g2
I00
sg788
I00
ssg197
g1500
sg223
(lp1504
g49
ag788
ag2
ag785
ag795
ag786
ag848
ag875
ag869
ag766
ag761
ag789
ag772
ag30
ag38
ag37
ag78
ag794
ag40
ag36
ag783
ag784
ag774
ag792
ag790
ag793
ag778
ag791
ag767
ag769
ag787
asg52
(dp1505
g761
g896
sg2
g898
sg30
g58
sg766
g899
sg767
g900
sg769
g901
sg772
g903
sg36
g36
sg783
g904
sg38
g64
sg774
g905
sg40
g906
sg778
g907
sg784
g911
sg37
g909
sg785
g908
sg78
g910
sg786
g908
sg848
g912
sg787
g913
sg788
g914
sg789
g915
sg790
g916
sg791
g917
sg869
g918
sg792
g919
sg875
g920
sg793
g921
sg794
g922
sg795
g908
ssg203
S'MG_JEN_JonesetEJones_WSRT'
p1506
ssg786
g1285
sg37
I5
sg785
g1285
sg78
F1.0
sg784
g1456
sg848
F0.10000000000000001
sg787
g1469
sg788
g1476
sg789
I20
sg790
g1480
sg791
g1483
sg869
F1.0
sg792
g1488
sg875
F0.01
sg793
g1493
sg794
F1.0
sg795
g1285
ssg785
Nssg2
S'@@polrep'
p1507
sg788
S'@@stations'
p1508
sS'visu'
p1509
I01
sg49
(dp1510
g51
g755
sg52
(dp1511
g2
g898
sg788
g914
sg1509
S'if True, visualise the source contribitions'
p1512
sS'nr_lsm_sources'
p1513
S'nr of lsm sources to be included (in order of brightness)'
p1514
sg786
g908
sg795
g908
sg785
g908
ssg96
g97
sg98
S'MG_JEN_Cohset'
p1515
sg100
(dp1516
g786
I01
sg795
I01
sg785
I01
sg2
I01
sg788
I01
ssg103
S'20mar2006'
p1517
sg892
(dp1518
g2
I00
sg788
I00
ssg105
S'Obsolete (upward compatibility) version of .predict_cps()'
p1519
sg107
(dp1520
g1509
I00
ssg109
S'MG_JEN_Cohset::predict_lsm()  version=20mar2006  defined=2006-04-13 11:08'
p1521
sg111
(dp1522
g2
(lp1523
g3
ag807
ag1507
asg788
(lp1524
(lp1525
I0
aI1
aI2
aI3
aI4
aa(lp1526
I0
aI1
aI2
aI3
aI4
aI5
aI6
aa(lp1527
I0
aI1
aI2
aI3
aI4
aI5
aI6
aI7
aI8
aI9
aI10
aI11
aI12
aI13
aa(lp1528
I0
aI1
aI2
aI3
aI4
aI5
aI6
aI7
aI8
aI9
aI10
aI11
aI12
aI13
aI14
aag859
ag1508
asg1509
(lp1529
I01
aI00
aS'@@visu'
p1530
asg1513
(lp1531
I1
aI2
aI3
aI5
aI10
aI20
aI100
aI1000
aI10000
aS'@@nr_lsm_sources'
p1532
asg786
(lp1533
NaS'@@@Jsequence_KJones'
p1534
asg795
(lp1535
NaS'@@@Jsequence_simul'
p1536
asg785
(lp1537
NaS'@@@Jsequence'
p1538
assg195
g231
sg197
S'2006-04-13 11:08'
p1539
sg199
S'MG_JEN_Cohset::predict_lsm()'
p1540
sg201
S'** Specific description of inarg record for: MG_JEN_Cohset::predict_lsm()  version=20mar2006  defined=2006-04-13 11:08'
p1541
sg203
S'MG_JEN_Cohsetpredict_lsm'
p1542
sg205
S'predict_lsm'
p1543
sg209
S'** Description of available inarg record(s) for: MG_JEN_Cohset::predict_lsm()  version=20mar2006  defined=2006-04-13 11:08'
p1544
sg211
I00
sg212
g1539
sg213
(dp1545
g215
S'** JEN_inarg.attach(): attached: [simul_uvp]./MG_JEN_Cohset.Jones()'
p1546
sg217
S'** JEN_inarg.attach(): attached: [simul_imp]./MG_JEN_Cohset.Jones()'
p1547
ssg223
(lp1548
g49
ag1513
ag1509
ag788
ag2
ag785
ag795
ag786
aS'[simul_imp]./MG_JEN_Cohset.Jones()'
p1549
ag757
assg1513
I10000
sg786
Nsg795
Nsg1549
(dp1550
S'[simul_imp]./MG_JEN_Joneset.BJones()'
p1551
(dp1552
g761
g762
sg2
S'@@polrep'
p1553
sg30
g765
sg766
F0.10000000000000001
sg767
(lp1554
F0.0
aF0.0
asg769
(lp1555
F0.0
aF0.0
asg772
I0
sg36
Nsg783
Nsg38
g773
sg774
(lp1556
F0.0
aF0.0
asg40
g776
sg777
F0.20000000000000001
sg778
(lp1557
F0.0
aF0.0
asg49
(dp1558
g199
S'MG_JEN_Joneset::BJones()'
p1559
sg51
g1551
sg100
(dp1560
g761
I00
sg2
I01
sg30
I01
sg767
I01
sg769
I01
sg772
I01
sg36
I01
sg783
I01
sg38
I01
sg774
I01
sg40
I01
sg778
I01
sg784
I01
sg37
I01
sg785
I01
sg78
I01
sg786
I01
sg787
I01
sg788
I01
sg789
I01
sg790
I01
sg791
I01
sg792
I01
sg793
I01
sg794
I01
sg795
I01
ssg105
g940
sg96
g97
sg109
S'MG_JEN_Joneset::BJones()  version=16dec2005  defined=2006-04-13 11:08'
p1561
sg205
S'BJones'
p1562
sg111
(dp1563
g761
(lp1564
g762
ag801
a(lp1565
g762
ag801
aaNaS'@@unop'
p1566
asg2
(lp1567
g3
ag807
ag1553
asg30
(lp1568
g765
aS'@@color'
p1569
asg766
(lp1570
I0
aF0.01
aF0.10000000000000001
aF0.20000000000000001
aF0.5
aS'@@stddev_period'
p1571
asg767
(lp1572
g1554
aS'@@p7_mean_stddev'
p1573
asg769
(lp1574
g1555
aS'@@p8_mean_stddev'
p1575
asg772
(lp1576
I0
aS'@@fdeg'
p1577
asg36
(lp1578
NaS'@@unit'
p1579
asg783
(lp1580
g826
aNaS'@@simul_funklet'
p1581
asg38
(lp1582
g773
aS'@@style'
p1583
asg774
(lp1584
g1556
aS'@@p1_mean_stddev'
p1585
asg40
(lp1586
g776
aS'@@descr'
p1587
asg778
(lp1588
g1557
aS'@@p5_mean_stddev'
p1589
asg784
(lp1590
(lp1591
F0.0
aF0.0
aaS'@@p0_mean_stddev'
p1592
asg37
(lp1593
I5
aS'@@size'
p1594
asg785
(lp1595
g976
aS'@@@Jsequence'
p1596
asg78
(lp1597
F1.0
aS'@@c00_default'
p1598
asg786
(lp1599
g976
aS'@@@Jsequence_KJones'
p1600
asg848
(lp1601
I0
aF0.10000000000000001
aF0.20000000000000001
aF0.5
aF-0.10000000000000001
aS'@@mean_c00'
p1602
asg787
(lp1603
(lp1604
F0.0
aF0.0
aaS'@@p9_mean_stddev'
p1605
asg788
(lp1606
(lp1607
I0
aI1
aI2
aI3
aI4
aa(lp1608
I0
aI1
aI2
aI3
aI4
aI5
aI6
aa(lp1609
I0
aI1
aI2
aI3
aI4
aI5
aI6
aI7
aI8
aI9
aI10
aI11
aI12
aI13
aa(lp1610
I0
aI1
aI2
aI3
aI4
aI5
aI6
aI7
aI8
aI9
aI10
aI11
aI12
aI13
aI14
aag859
aS'@@stations'
p1611
asg789
(lp1612
I20
aS'@@timescale_min'
p1613
asg790
(lp1614
(lp1615
F0.0
aF0.0
aaS'@@p3_mean_stddev'
p1616
asg791
(lp1617
(lp1618
F0.0
aF0.0
aaS'@@p6_mean_stddev'
p1619
asg869
(lp1620
F0.29999999999999999
aF0.5
aI1
aI2
aI3
aS'@@mean_period'
p1621
asg792
(lp1622
(lp1623
F0.0
aF0.0
aaS'@@p2_mean_stddev'
p1624
asg875
(lp1625
I0
aF0.0001
aF0.001
aF0.01
aF0.10000000000000001
aI1
aS'@@stddev_c00'
p1626
asg793
(lp1627
(lp1628
F0.0
aF0.0
aaS'@@p4_mean_stddev'
p1629
asg794
(lp1630
F1.0
aS'@@c00_scale'
p1631
asg795
(lp1632
g976
aS'@@@Jsequence_simul'
p1633
assg195
S'simul_imp'
p1634
sg209
S'** Description of available inarg record(s) for: MG_JEN_Joneset::BJones()  version=16dec2005  defined=2006-04-13 11:08'
p1635
sg211
I00
sg212
S'2006-04-13 11:08'
p1636
sg103
g1017
sg98
S'MG_JEN_Joneset'
p1637
sg201
S'** Specific description of inarg record for: MG_JEN_Joneset::BJones()  version=16dec2005  defined=2006-04-13 11:08'
p1638
sg892
(dp1639
g2
I00
sg788
I00
ssg197
g1636
sg223
(lp1640
g49
ag788
ag2
ag785
ag795
ag786
ag848
ag875
ag869
ag766
ag761
ag789
ag772
ag30
ag38
ag37
ag78
ag794
ag40
ag36
ag783
ag784
ag774
ag792
ag790
ag793
ag778
ag791
ag767
ag769
ag787
asg52
(dp1641
g761
g896
sg2
g898
sg30
g58
sg766
g899
sg767
g900
sg769
g901
sg772
g903
sg36
g36
sg783
g904
sg38
g64
sg774
g905
sg40
g906
sg778
g907
sg784
g911
sg37
g909
sg785
g908
sg78
g910
sg786
g908
sg848
g912
sg787
g913
sg788
g914
sg789
g915
sg790
g916
sg791
g917
sg869
g918
sg792
g919
sg875
g920
sg793
g921
sg794
g922
sg795
g908
ssg203
S'MG_JEN_JonesetBJones'
p1642
ssg786
g976
sg37
I5
sg785
g976
sg924
I100
sg78
F1.0
sg925
I5000
sg784
g1591
sg848
F0.10000000000000001
sg787
g1604
sg788
g1611
sg789
I20
sg790
g1615
sg791
g1618
sg869
F1.0
sg792
g1623
sg875
F0.01
sg793
g1628
sg794
F1.0
sg795
g976
sg926
F0.02
ssg2
S'@@polrep'
p1643
sS'[simul_imp]./MG_JEN_Joneset.EJones_WSRT()'
p1644
(dp1645
g761
g762
sg2
S'@@polrep'
p1646
sg30
g765
sg766
F0.10000000000000001
sg767
(lp1647
F0.0
aF0.0
asg769
(lp1648
F0.0
aF0.0
asg772
I0
sg36
Nsg783
Nsg38
g773
sg774
(lp1649
F0.0
aF0.0
asg40
g776
sg778
(lp1650
F0.0
aF0.0
asg49
(dp1651
g199
S'MG_JEN_Joneset::EJones_WSRT()'
p1652
sg51
g1644
sg100
(dp1653
g761
I00
sg2
I01
sg30
I01
sg767
I01
sg769
I01
sg772
I01
sg36
I01
sg783
I01
sg38
I01
sg774
I01
sg40
I01
sg778
I01
sg784
I01
sg37
I01
sg785
I01
sg78
I01
sg786
I01
sg787
I01
sg788
I01
sg789
I01
sg790
I01
sg791
I01
sg792
I01
sg793
I01
sg794
I01
sg795
I01
ssg105
g1425
sg96
g97
sg109
S'MG_JEN_Joneset::EJones_WSRT()  version=15dec2005  defined=2006-04-13 11:08'
p1654
sg205
S'EJones_WSRT'
p1655
sg111
(dp1656
g761
(lp1657
g762
ag801
a(lp1658
g762
ag801
aaNaS'@@unop'
p1659
asg2
(lp1660
g3
ag807
ag1646
asg30
(lp1661
g765
aS'@@color'
p1662
asg766
(lp1663
I0
aF0.01
aF0.10000000000000001
aF0.20000000000000001
aF0.5
aS'@@stddev_period'
p1664
asg767
(lp1665
g1647
aS'@@p7_mean_stddev'
p1666
asg769
(lp1667
g1648
aS'@@p8_mean_stddev'
p1668
asg772
(lp1669
I0
aS'@@fdeg'
p1670
asg36
(lp1671
NaS'@@unit'
p1672
asg783
(lp1673
g826
aNaS'@@simul_funklet'
p1674
asg38
(lp1675
g773
aS'@@style'
p1676
asg774
(lp1677
g1649
aS'@@p1_mean_stddev'
p1678
asg40
(lp1679
g776
aS'@@descr'
p1680
asg778
(lp1681
g1650
aS'@@p5_mean_stddev'
p1682
asg784
(lp1683
(lp1684
F0.0
aF0.0
aaS'@@p0_mean_stddev'
p1685
asg37
(lp1686
I5
aS'@@size'
p1687
asg785
(lp1688
g1285
aS'@@@Jsequence'
p1689
asg78
(lp1690
F1.0
aS'@@c00_default'
p1691
asg786
(lp1692
g1285
aS'@@@Jsequence_KJones'
p1693
asg848
(lp1694
I0
aF0.10000000000000001
aF0.20000000000000001
aF0.5
aF-0.10000000000000001
aS'@@mean_c00'
p1695
asg787
(lp1696
(lp1697
F0.0
aF0.0
aaS'@@p9_mean_stddev'
p1698
asg788
(lp1699
(lp1700
I0
aI1
aI2
aI3
aI4
aa(lp1701
I0
aI1
aI2
aI3
aI4
aI5
aI6
aa(lp1702
I0
aI1
aI2
aI3
aI4
aI5
aI6
aI7
aI8
aI9
aI10
aI11
aI12
aI13
aa(lp1703
I0
aI1
aI2
aI3
aI4
aI5
aI6
aI7
aI8
aI9
aI10
aI11
aI12
aI13
aI14
aag859
aS'@@stations'
p1704
asg789
(lp1705
I20
aS'@@timescale_min'
p1706
asg790
(lp1707
(lp1708
F0.0
aF0.0
aaS'@@p3_mean_stddev'
p1709
asg791
(lp1710
(lp1711
F0.0
aF0.0
aaS'@@p6_mean_stddev'
p1712
asg869
(lp1713
F0.29999999999999999
aF0.5
aI1
aI2
aI3
aS'@@mean_period'
p1714
asg792
(lp1715
(lp1716
F0.0
aF0.0
aaS'@@p2_mean_stddev'
p1717
asg875
(lp1718
I0
aF0.0001
aF0.001
aF0.01
aF0.10000000000000001
aI1
aS'@@stddev_c00'
p1719
asg793
(lp1720
(lp1721
F0.0
aF0.0
aaS'@@p4_mean_stddev'
p1722
asg794
(lp1723
F1.0
aS'@@c00_scale'
p1724
asg795
(lp1725
g1285
aS'@@@Jsequence_simul'
p1726
assg195
g1634
sg209
S'** Description of available inarg record(s) for: MG_JEN_Joneset::EJones_WSRT()  version=15dec2005  defined=2006-04-13 11:08'
p1727
sg211
I00
sg212
S'2006-04-13 11:08'
p1728
sg103
g1407
sg98
S'MG_JEN_Joneset'
p1729
sg201
S'** Specific description of inarg record for: MG_JEN_Joneset::EJones_WSRT()  version=15dec2005  defined=2006-04-13 11:08'
p1730
sg892
(dp1731
g2
I00
sg788
I00
ssg197
g1728
sg223
(lp1732
g49
ag788
ag2
ag785
ag795
ag786
ag848
ag875
ag869
ag766
ag761
ag789
ag772
ag30
ag38
ag37
ag78
ag794
ag40
ag36
ag783
ag784
ag774
ag792
ag790
ag793
ag778
ag791
ag767
ag769
ag787
asg52
(dp1733
g761
g896
sg2
g898
sg30
g58
sg766
g899
sg767
g900
sg769
g901
sg772
g903
sg36
g36
sg783
g904
sg38
g64
sg774
g905
sg40
g906
sg778
g907
sg784
g911
sg37
g909
sg785
g908
sg78
g910
sg786
g908
sg848
g912
sg787
g913
sg788
g914
sg789
g915
sg790
g916
sg791
g917
sg869
g918
sg792
g919
sg875
g920
sg793
g921
sg794
g922
sg795
g908
ssg203
S'MG_JEN_JonesetEJones_WSRT'
p1734
ssg786
g1285
sg37
I5
sg785
g1285
sg78
F1.0
sg784
g1684
sg848
F0.10000000000000001
sg787
g1697
sg788
g1704
sg789
I20
sg790
g1708
sg791
g1711
sg869
F1.0
sg792
g1716
sg875
F0.01
sg793
g1721
sg794
F1.0
sg795
g1285
ssg788
S'@@stations'
p1735
sS'[simul_imp]./MG_JEN_Joneset.GJones()'
p1736
(dp1737
g761
g762
sg2
S'@@polrep'
p1738
sg30
g765
sg766
F0.10000000000000001
sg767
(lp1739
F0.0
aF0.0
asg769
(lp1740
F0.0
aF0.0
asg772
I0
sg36
Nsg37
I5
sg38
g773
sg774
(lp1741
F0.0
aF0.0
asg40
g776
sg778
(lp1742
F0.0
aF0.0
asg49
(dp1743
g199
S'MG_JEN_Joneset::GJones()'
p1744
sg51
g1736
sg100
(dp1745
g761
I00
sg2
I01
sg30
I01
sg767
I01
sg769
I01
sg772
I01
sg36
I01
sg783
I01
sg38
I01
sg774
I01
sg40
I01
sg778
I01
sg784
I01
sg37
I01
sg785
I01
sg78
I01
sg786
I01
sg1328
I01
sg787
I01
sg788
I01
sg789
I01
sg790
I01
sg791
I01
sg792
I01
sg793
I01
sg794
I01
sg795
I01
ssg105
g1329
sg96
g97
sg109
S'MG_JEN_Joneset::GJones()  version=15dec2005  defined=2006-04-13 11:08'
p1746
sg205
S'GJones'
p1747
sg111
(dp1748
g761
(lp1749
g762
ag801
a(lp1750
g762
ag801
aaNaS'@@unop'
p1751
asg2
(lp1752
g3
ag807
ag1738
asg30
(lp1753
g765
aS'@@color'
p1754
asg766
(lp1755
I0
aF0.01
aF0.10000000000000001
aF0.20000000000000001
aF0.5
aS'@@stddev_period'
p1756
asg767
(lp1757
g1739
aS'@@p7_mean_stddev'
p1758
asg769
(lp1759
g1740
aS'@@p8_mean_stddev'
p1760
asg772
(lp1761
I0
aS'@@fdeg'
p1762
asg36
(lp1763
NaS'@@unit'
p1764
asg783
(lp1765
g826
aNaS'@@simul_funklet'
p1766
asg38
(lp1767
g773
aS'@@style'
p1768
asg774
(lp1769
g1741
aS'@@p1_mean_stddev'
p1770
asg40
(lp1771
g776
aS'@@descr'
p1772
asg778
(lp1773
g1742
aS'@@p5_mean_stddev'
p1774
asg784
(lp1775
(lp1776
F0.0
aF0.0
aaS'@@p0_mean_stddev'
p1777
asg37
(lp1778
I5
aS'@@size'
p1779
asg785
(lp1780
g1278
aS'@@@Jsequence'
p1781
asg78
(lp1782
F1.0
aS'@@c00_default'
p1783
asg786
(lp1784
g1278
aS'@@@Jsequence_KJones'
p1785
asg848
(lp1786
I0
aF0.10000000000000001
aF0.20000000000000001
aF0.5
aF-0.10000000000000001
aS'@@mean_c00'
p1787
asg1328
(lp1788
I01
aI00
aS'@@Gpolar'
p1789
asg787
(lp1790
(lp1791
F0.0
aF0.0
aaS'@@p9_mean_stddev'
p1792
asg788
(lp1793
(lp1794
I0
aI1
aI2
aI3
aI4
aa(lp1795
I0
aI1
aI2
aI3
aI4
aI5
aI6
aa(lp1796
I0
aI1
aI2
aI3
aI4
aI5
aI6
aI7
aI8
aI9
aI10
aI11
aI12
aI13
aa(lp1797
I0
aI1
aI2
aI3
aI4
aI5
aI6
aI7
aI8
aI9
aI10
aI11
aI12
aI13
aI14
aag859
aS'@@stations'
p1798
asg789
(lp1799
I20
aS'@@timescale_min'
p1800
asg790
(lp1801
(lp1802
F0.0
aF0.0
aaS'@@p3_mean_stddev'
p1803
asg791
(lp1804
(lp1805
F0.0
aF0.0
aaS'@@p6_mean_stddev'
p1806
asg869
(lp1807
F0.29999999999999999
aF0.5
aI1
aI2
aI3
aS'@@mean_period'
p1808
asg792
(lp1809
(lp1810
F0.0
aF0.0
aaS'@@p2_mean_stddev'
p1811
asg875
(lp1812
I0
aF0.0001
aF0.001
aF0.01
aF0.10000000000000001
aI1
aS'@@stddev_c00'
p1813
asg793
(lp1814
(lp1815
F0.0
aF0.0
aaS'@@p4_mean_stddev'
p1816
asg794
(lp1817
F1.0
aS'@@c00_scale'
p1818
asg795
(lp1819
g1278
aS'@@@Jsequence_simul'
p1820
assg195
g1634
sg209
S'** Description of available inarg record(s) for: MG_JEN_Joneset::GJones()  version=15dec2005  defined=2006-04-13 11:08'
p1821
sg211
I00
sg212
S'2006-04-13 11:08'
p1822
sg103
g1407
sg98
S'MG_JEN_Joneset'
p1823
sg107
(dp1824
g1328
I00
ssg201
S'** Specific description of inarg record for: MG_JEN_Joneset::GJones()  version=15dec2005  defined=2006-04-13 11:08'
p1825
sg892
(dp1826
g2
I00
sg788
I00
ssg197
g1822
sg223
(lp1827
g49
ag788
ag2
ag785
ag795
ag786
ag1328
ag848
ag875
ag869
ag766
ag761
ag789
ag772
ag30
ag38
ag37
ag78
ag794
ag40
ag36
ag783
ag784
ag774
ag792
ag790
ag793
ag778
ag791
ag767
ag769
ag787
asg52
(dp1828
g761
g896
sg2
g898
sg30
g58
sg766
g899
sg767
g900
sg769
g901
sg772
g903
sg36
g36
sg783
g904
sg38
g64
sg774
g905
sg40
g906
sg778
g907
sg784
g911
sg37
g909
sg785
g908
sg78
g910
sg786
g908
sg848
g912
sg1328
g1414
sg787
g913
sg788
g914
sg789
g915
sg790
g916
sg791
g917
sg869
g918
sg792
g919
sg875
g920
sg793
g921
sg794
g922
sg795
g908
ssg203
S'MG_JEN_JonesetGJones'
p1829
ssg786
g1278
sg783
Nsg785
g1278
sg78
F1.0
sg784
g1776
sg848
F0.10000000000000001
sg1328
I01
sg787
g1791
sg788
g1798
sg789
I20
sg790
g1802
sg791
g1805
sg869
F1.0
sg792
g1810
sg875
F0.01
sg793
g1815
sg794
F1.0
sg795
g1278
ssg1275
(lp1830
sS'[simul_imp]./MG_JEN_Joneset.DJones_WSRT()'
p1831
(dp1832
g761
g762
sg2
S'@@polrep'
p1833
sg30
g765
sg766
F0.10000000000000001
sg767
(lp1834
F0.0
aF0.0
asg1156
I01
sg769
(lp1835
F0.0
aF0.0
asg772
I0
sg36
Nsg37
I5
sg38
g773
sg774
(lp1836
F0.0
aF0.0
asg40
g776
sg777
F0.002
sg778
(lp1837
F0.0
aF0.0
asg49
(dp1838
g199
S'MG_JEN_Joneset::DJones_WSRT()'
p1839
sg51
g1831
sg100
(dp1840
g761
I00
sg2
I01
sg30
I01
sg767
I01
sg769
I01
sg772
I01
sg36
I01
sg783
I01
sg38
I01
sg774
I01
sg40
I01
sg778
I01
sg784
I01
sg37
I01
sg785
I01
sg78
I01
sg786
I01
sg787
I01
sg788
I01
sg789
I01
sg790
I01
sg791
I01
sg792
I01
sg793
I01
sg794
I01
sg795
I01
ssg105
g1163
sg96
g97
sg109
S'MG_JEN_Joneset::DJones_WSRT()  version=16dec2005  defined=2006-04-13 11:08'
p1841
sg205
S'DJones_WSRT'
p1842
sg111
(dp1843
g761
(lp1844
g762
ag801
a(lp1845
g762
ag801
aaNaS'@@unop'
p1846
asg2
(lp1847
g3
ag807
ag1833
asg30
(lp1848
g765
aS'@@color'
p1849
asg766
(lp1850
I0
aF0.01
aF0.10000000000000001
aF0.20000000000000001
aF0.5
aS'@@stddev_period'
p1851
asg767
(lp1852
g1834
aS'@@p7_mean_stddev'
p1853
asg1156
(lp1854
I01
aI00
aS'@@coupled_XY_Dell'
p1855
asg769
(lp1856
g1835
aS'@@p8_mean_stddev'
p1857
asg772
(lp1858
I0
aS'@@fdeg'
p1859
asg36
(lp1860
NaS'@@unit'
p1861
asg783
(lp1862
g826
aNaS'@@simul_funklet'
p1863
asg38
(lp1864
g773
aS'@@style'
p1865
asg774
(lp1866
g1836
aS'@@p1_mean_stddev'
p1867
asg40
(lp1868
g776
aS'@@descr'
p1869
asg778
(lp1870
g1837
aS'@@p5_mean_stddev'
p1871
asg786
(lp1872
g1196
aS'@@@Jsequence_KJones'
p1873
asg37
(lp1874
I5
aS'@@size'
p1875
asg785
(lp1876
g1196
aS'@@@Jsequence'
p1877
asg78
(lp1878
F1.0
aS'@@c00_default'
p1879
asg784
(lp1880
(lp1881
F0.0
aF0.0
aaS'@@p0_mean_stddev'
p1882
asg848
(lp1883
I0
aF0.10000000000000001
aF0.20000000000000001
aF0.5
aF-0.10000000000000001
aS'@@mean_c00'
p1884
asg1209
(lp1885
I01
aI00
aS'@@coupled_XY_Dang'
p1886
asg787
(lp1887
(lp1888
F0.0
aF0.0
aaS'@@p9_mean_stddev'
p1889
asg788
(lp1890
(lp1891
I0
aI1
aI2
aI3
aI4
aa(lp1892
I0
aI1
aI2
aI3
aI4
aI5
aI6
aa(lp1893
I0
aI1
aI2
aI3
aI4
aI5
aI6
aI7
aI8
aI9
aI10
aI11
aI12
aI13
aa(lp1894
I0
aI1
aI2
aI3
aI4
aI5
aI6
aI7
aI8
aI9
aI10
aI11
aI12
aI13
aI14
aag859
aS'@@stations'
p1895
asg789
(lp1896
I20
aS'@@timescale_min'
p1897
asg790
(lp1898
(lp1899
F0.0
aF0.0
aaS'@@p3_mean_stddev'
p1900
asg791
(lp1901
(lp1902
F0.0
aF0.0
aaS'@@p6_mean_stddev'
p1903
asg869
(lp1904
F0.29999999999999999
aF0.5
aI1
aI2
aI3
aS'@@mean_period'
p1905
asg792
(lp1906
(lp1907
F0.0
aF0.0
aaS'@@p2_mean_stddev'
p1908
asg875
(lp1909
I0
aF0.0001
aF0.001
aF0.01
aF0.10000000000000001
aI1
aS'@@stddev_c00'
p1910
asg793
(lp1911
(lp1912
F0.0
aF0.0
aaS'@@p4_mean_stddev'
p1913
asg794
(lp1914
F1.0
aS'@@c00_scale'
p1915
asg795
(lp1916
g1196
aS'@@@Jsequence_simul'
p1917
assg195
g1634
sg209
S'** Description of available inarg record(s) for: MG_JEN_Joneset::DJones_WSRT()  version=16dec2005  defined=2006-04-13 11:08'
p1918
sg211
I00
sg212
S'2006-04-13 11:08'
p1919
sg103
g1017
sg98
S'MG_JEN_Joneset'
p1920
sg107
(dp1921
g1209
I00
sg1156
I00
ssg201
S'** Specific description of inarg record for: MG_JEN_Joneset::DJones_WSRT()  version=16dec2005  defined=2006-04-13 11:08'
p1922
sg892
(dp1923
g2
I00
sg788
I00
ssg197
g1919
sg223
(lp1924
g49
ag788
ag2
ag785
ag795
ag786
ag1209
ag1156
ag848
ag875
ag869
ag766
ag761
ag789
ag772
ag30
ag38
ag37
ag78
ag794
ag40
ag36
ag783
ag784
ag774
ag792
ag790
ag793
ag778
ag791
ag767
ag769
ag787
asg52
(dp1925
g761
g896
sg2
g898
sg30
g58
sg766
g899
sg767
g900
sg1156
g1251
sg769
g901
sg772
g903
sg36
g36
sg783
g904
sg38
g64
sg774
g905
sg40
g906
sg778
g907
sg786
g908
sg37
g909
sg785
g908
sg78
g910
sg784
g911
sg848
g912
sg1209
g1252
sg787
g913
sg788
g914
sg789
g915
sg790
g916
sg791
g917
sg869
g918
sg792
g919
sg875
g920
sg793
g921
sg794
g922
sg795
g908
ssg203
S'MG_JEN_JonesetDJones_WSRT'
p1926
ssg786
g1196
sg783
Nsg785
g1196
sg924
I100
sg78
F1.0
sg925
I3000
sg784
g1881
sg848
F0.10000000000000001
sg1209
I01
sg787
g1888
sg788
g1895
sg789
I20
sg790
g1899
sg791
g1902
sg869
F1.0
sg792
g1907
sg875
F0.01
sg793
g1912
sg794
F1.0
sg795
g1196
sg926
F0.00020000000000000001
ssg928
S'@@uvplane_effect'
p1927
sg13
S'@@parmtable'
p1928
sg49
(dp1929
g199
g1255
sg51
g1549
sg100
(dp1930
g2
I01
sg788
I01
sg928
I01
sg13
I01
sg786
I01
sg795
I01
sg785
I01
ssg203
S'MG_JEN_CohsetJones'
p1931
sg96
g97
sg105
g1258
sg109
S'MG_JEN_Cohset::Jones()  version=25dec2005  defined=2006-04-13 11:08'
p1932
sg205
S'Jones'
p1933
sg111
(dp1934
g2
(lp1935
g3
ag807
ag1643
asg788
(lp1936
(lp1937
I0
aI1
aI2
aI3
aI4
aa(lp1938
I0
aI1
aI2
aI3
aI4
aI5
aI6
aa(lp1939
I0
aI1
aI2
aI3
aI4
aI5
aI6
aI7
aI8
aI9
aI10
aI11
aI12
aI13
aa(lp1940
I0
aI1
aI2
aI3
aI4
aI5
aI6
aI7
aI8
aI9
aI10
aI11
aI12
aI13
aI14
aag859
ag1735
asg928
(lp1941
I00
ag1927
asg13
(lp1942
Nag1270
ag1928
asg786
(lp1943
NaS'@@@Jsequence_KJones'
p1944
asg795
(lp1945
NaS'@@@Jsequence_simul'
p1946
asg1275
(lp1947
(lp1948
g1278
aa(lp1949
g976
aa(lp1950
g1104
aa(lp1951
g1037
aa(lp1952
g1196
aa(lp1953
g1278
ag1196
aa(lp1954
g1285
aa(lp1955
g1278
ag1285
aa(lp1956
g837
aa(lp1957
aS'@@Jsequence'
p1958
asg785
(lp1959
NaS'@@@Jsequence'
p1960
assg195
g1634
sg209
S'** Description of available inarg record(s) for: MG_JEN_Cohset::Jones()  version=25dec2005  defined=2006-04-13 11:08'
p1961
sg211
I00
sg212
S'2006-04-13 11:08'
p1962
sg103
g1294
sg98
S'MG_JEN_Cohset'
p1963
sg201
S'** Specific description of inarg record for: MG_JEN_Cohset::Jones()  version=25dec2005  defined=2006-04-13 11:08'
p1964
sg213
(dp1965
g215
S'** JEN_inarg.attach(): attached: [simul_imp]./MG_JEN_Joneset.FJones()'
p1966
sg217
S'** JEN_inarg.attach(): attached: [simul_imp]./MG_JEN_Joneset.GJones()'
p1967
sg219
S'** JEN_inarg.attach(): attached: [simul_imp]./MG_JEN_Joneset.KJones()'
p1968
sg221
S'** JEN_inarg.attach(): attached: [simul_imp]./MG_JEN_Joneset.BJones()'
p1969
sg1302
S'** JEN_inarg.attach(): attached: [simul_imp]./MG_JEN_Joneset.EJones_WSRT()'
p1970
sg1304
S'** JEN_inarg.attach(): attached: [simul_imp]./MG_JEN_Joneset.DJones_WSRT()'
p1971
sg1308
S'** JEN_inarg.attach(): attached: [simul_imp]./MG_JEN_Joneset.JJones()'
p1972
ssg197
g1962
sg892
(dp1973
g928
I00
sg13
I00
sg2
I00
sg788
I00
ssg223
(lp1974
g49
ag788
ag2
ag785
ag795
ag786
ag13
ag928
ag1275
ag1736
aS'[simul_imp]./MG_JEN_Joneset.FJones()'
p1975
ag1551
aS'[simul_imp]./MG_JEN_Joneset.KJones()'
p1976
ag1831
ag1644
aS'[simul_imp]./MG_JEN_Joneset.JJones()'
p1977
asg52
(dp1978
g2
g898
sg788
g914
sg928
g1315
sg13
g1316
sg786
g908
sg795
g908
sg1275
g1317
sg785
g908
sssg1977
(dp1979
g761
g762
sg763
I00
sg2
S'@@polrep'
p1980
sg30
g765
sg766
F0.10000000000000001
sg767
(lp1981
F0.0
aF0.0
asg769
(lp1982
F0.0
aF0.0
asg771
Nsg772
I0
sg36
Nsg37
I5
sg38
g773
sg774
(lp1983
F0.0
aF0.0
asg40
g776
sg777
F0.20000000000000001
sg778
(lp1984
F0.0
aF0.0
asg49
(dp1985
g199
S'MG_JEN_Joneset::JJones()'
p1986
sg51
g1977
sg100
(dp1987
g761
I00
sg2
I01
sg30
I01
sg767
I01
sg769
I01
sg772
I01
sg36
I01
sg783
I01
sg38
I01
sg774
I01
sg40
I01
sg778
I01
sg784
I01
sg37
I01
sg785
I01
sg78
I01
sg786
I01
sg787
I01
sg788
I01
sg789
I01
sg790
I01
sg791
I01
sg792
I01
sg793
I01
sg794
I01
sg795
I01
ssg105
g796
sg96
g97
sg109
S'MG_JEN_Joneset::JJones()  version=14feb2006  defined=2006-04-13 11:08'
p1988
sg205
S'JJones'
p1989
sg111
(dp1990
g761
(lp1991
g762
ag801
a(lp1992
g762
ag801
aaNaS'@@unop'
p1993
asg763
(lp1994
I01
aI00
aS'@@diagonal_only'
p1995
asg2
(lp1996
g3
ag807
ag1980
asg30
(lp1997
g765
aS'@@color'
p1998
asg766
(lp1999
I0
aF0.01
aF0.10000000000000001
aF0.20000000000000001
aF0.5
aS'@@stddev_period'
p2000
asg767
(lp2001
g1981
aS'@@p7_mean_stddev'
p2002
asg769
(lp2003
g1982
aS'@@p8_mean_stddev'
p2004
asg771
(lp2005
Na(lp2006
I14
aa(lp2007
I1
aag819
aS'@@all4_always'
p2008
asg772
(lp2009
I0
aS'@@fdeg'
p2010
asg36
(lp2011
NaS'@@unit'
p2012
asg783
(lp2013
g826
aNaS'@@simul_funklet'
p2014
asg38
(lp2015
g773
aS'@@style'
p2016
asg774
(lp2017
g1983
aS'@@p1_mean_stddev'
p2018
asg40
(lp2019
g776
aS'@@descr'
p2020
asg778
(lp2021
g1984
aS'@@p5_mean_stddev'
p2022
asg786
(lp2023
g837
aS'@@@Jsequence_KJones'
p2024
asg37
(lp2025
I5
aS'@@size'
p2026
asg785
(lp2027
g837
aS'@@@Jsequence'
p2028
asg78
(lp2029
F1.0
aS'@@c00_default'
p2030
asg784
(lp2031
(lp2032
F0.0
aF0.0
aaS'@@p0_mean_stddev'
p2033
asg848
(lp2034
I0
aF0.10000000000000001
aF0.20000000000000001
aF0.5
aF-0.10000000000000001
aS'@@mean_c00'
p2035
asg787
(lp2036
(lp2037
F0.0
aF0.0
aaS'@@p9_mean_stddev'
p2038
asg788
(lp2039
(lp2040
I0
aI1
aI2
aI3
aI4
aa(lp2041
I0
aI1
aI2
aI3
aI4
aI5
aI6
aa(lp2042
I0
aI1
aI2
aI3
aI4
aI5
aI6
aI7
aI8
aI9
aI10
aI11
aI12
aI13
aa(lp2043
I0
aI1
aI2
aI3
aI4
aI5
aI6
aI7
aI8
aI9
aI10
aI11
aI12
aI13
aI14
aag859
aS'@@stations'
p2044
asg789
(lp2045
I20
aS'@@timescale_min'
p2046
asg790
(lp2047
(lp2048
F0.0
aF0.0
aaS'@@p3_mean_stddev'
p2049
asg791
(lp2050
(lp2051
F0.0
aF0.0
aaS'@@p6_mean_stddev'
p2052
asg869
(lp2053
F0.29999999999999999
aF0.5
aI1
aI2
aI3
aS'@@mean_period'
p2054
asg792
(lp2055
(lp2056
F0.0
aF0.0
aaS'@@p2_mean_stddev'
p2057
asg875
(lp2058
I0
aF0.0001
aF0.001
aF0.01
aF0.10000000000000001
aI1
aS'@@stddev_c00'
p2059
asg793
(lp2060
(lp2061
F0.0
aF0.0
aaS'@@p4_mean_stddev'
p2062
asg794
(lp2063
F1.0
aS'@@c00_scale'
p2064
asg795
(lp2065
g837
aS'@@@Jsequence_simul'
p2066
assg195
g1634
sg209
S'** Description of available inarg record(s) for: MG_JEN_Joneset::JJones()  version=14feb2006  defined=2006-04-13 11:08'
p2067
sg211
I00
sg212
S'2006-04-13 11:08'
p2068
sg103
g888
sg98
S'MG_JEN_Joneset'
p2069
sg107
(dp2070
g763
I00
ssg201
S'** Specific description of inarg record for: MG_JEN_Joneset::JJones()  version=14feb2006  defined=2006-04-13 11:08'
p2071
sg892
(dp2072
g2
I00
sg788
I00
ssg197
g2068
sg223
(lp2073
g49
ag788
ag2
ag785
ag795
ag786
ag763
ag771
ag848
ag875
ag869
ag766
ag761
ag789
ag772
ag30
ag38
ag37
ag78
ag794
ag40
ag36
ag783
ag784
ag774
ag792
ag790
ag793
ag778
ag791
ag767
ag769
ag787
asg52
(dp2074
g761
g896
sg763
g897
sg2
g898
sg30
g58
sg766
g899
sg767
g900
sg769
g901
sg771
g902
sg772
g903
sg36
g36
sg783
g904
sg38
g64
sg774
g905
sg40
g906
sg778
g907
sg786
g908
sg37
g909
sg785
g908
sg78
g910
sg784
g911
sg848
g912
sg787
g913
sg788
g914
sg789
g915
sg790
g916
sg791
g917
sg869
g918
sg792
g919
sg875
g920
sg793
g921
sg794
g922
sg795
g908
ssg203
S'MG_JEN_JonesetJJones'
p2075
ssg786
g837
sg783
Nsg785
g837
sg924
I50
sg78
F1.0
sg925
I500
sg784
g2032
sg848
F0.10000000000000001
sg787
g2037
sg788
g2044
sg789
I20
sg790
g2048
sg791
g2051
sg869
F1.0
sg792
g2056
sg875
F0.01
sg793
g2061
sg794
F1.0
sg795
g837
sg926
F0.02
ssg786
Nsg795
Nsg785
Nsg1976
(dp2076
g2
S'@@polrep'
p2077
sg788
S'@@stations'
p2078
sg49
(dp2079
g199
S'MG_JEN_Joneset::KJones()'
p2080
sg51
g1976
sg100
(dp2081
g786
I01
sg795
I01
sg785
I01
sg2
I01
sg788
I01
ssg105
g1032
sg96
g97
sg109
S'MG_JEN_Joneset::KJones()  version=12dec2005  defined=2006-04-13 11:08'
p2082
sg205
S'KJones'
p2083
sg111
(dp2084
g786
(lp2085
g1037
aS'@@@Jsequence_KJones'
p2086
asg795
(lp2087
g1037
aS'@@@Jsequence_simul'
p2088
asg785
(lp2089
g1037
aS'@@@Jsequence'
p2090
asg2
(lp2091
g3
ag807
ag2077
asg788
(lp2092
(lp2093
I0
aI1
aI2
aI3
aI4
aa(lp2094
I0
aI1
aI2
aI3
aI4
aI5
aI6
aa(lp2095
I0
aI1
aI2
aI3
aI4
aI5
aI6
aI7
aI8
aI9
aI10
aI11
aI12
aI13
aa(lp2096
I0
aI1
aI2
aI3
aI4
aI5
aI6
aI7
aI8
aI9
aI10
aI11
aI12
aI13
aI14
aag859
ag2078
assg195
g1634
sg209
S'** Description of available inarg record(s) for: MG_JEN_Joneset::KJones()  version=12dec2005  defined=2006-04-13 11:08'
p2097
sg211
I00
sg212
S'2006-04-13 11:08'
p2098
sg103
g1051
sg98
S'MG_JEN_Joneset'
p2099
sg201
S'** Specific description of inarg record for: MG_JEN_Joneset::KJones()  version=12dec2005  defined=2006-04-13 11:08'
p2100
sg892
(dp2101
g2
I00
sg788
I00
ssg197
g2098
sg223
(lp2102
g49
ag788
ag2
ag785
ag795
ag786
asg52
(dp2103
g786
g908
sg795
g908
sg785
g908
sg2
g898
sg788
g914
ssg203
S'MG_JEN_JonesetKJones'
p2104
ssg786
g1037
sg795
g1037
sg785
g1037
ssg1975
(dp2105
g761
g762
sg2
S'@@polrep'
p2106
sg30
g765
sg766
F0.10000000000000001
sg767
(lp2107
F0.0
aF0.0
asg769
(lp2108
F0.0
aF0.0
asg772
I0
sg36
Nsg783
Nsg38
g773
sg774
(lp2109
F0.0
aF0.0
asg40
g776
sg777
F0.20000000000000001
sg778
(lp2110
F0.0
aF0.0
asg49
(dp2111
g199
S'MG_JEN_Joneset::FJones()'
p2112
sg51
g1975
sg100
(dp2113
g761
I00
sg2
I01
sg30
I01
sg767
I01
sg769
I01
sg772
I01
sg36
I01
sg783
I01
sg38
I01
sg774
I01
sg40
I01
sg778
I01
sg784
I01
sg37
I01
sg785
I01
sg78
I01
sg786
I01
sg787
I01
sg788
I01
sg789
I01
sg790
I01
sg791
I01
sg792
I01
sg793
I01
sg794
I01
sg795
I01
ssg105
g1068
sg96
g97
sg109
S'MG_JEN_Joneset::FJones()  version=16dec2005  defined=2006-04-13 11:08'
p2114
sg205
S'FJones'
p2115
sg111
(dp2116
g761
(lp2117
g762
ag801
a(lp2118
g762
ag801
aaNaS'@@unop'
p2119
asg2
(lp2120
g3
ag807
ag2106
asg30
(lp2121
g765
aS'@@color'
p2122
asg766
(lp2123
I0
aF0.01
aF0.10000000000000001
aF0.20000000000000001
aF0.5
aS'@@stddev_period'
p2124
asg767
(lp2125
g2107
aS'@@p7_mean_stddev'
p2126
asg769
(lp2127
g2108
aS'@@p8_mean_stddev'
p2128
asg772
(lp2129
I0
aS'@@fdeg'
p2130
asg36
(lp2131
NaS'@@unit'
p2132
asg783
(lp2133
g826
aNaS'@@simul_funklet'
p2134
asg38
(lp2135
g773
aS'@@style'
p2136
asg774
(lp2137
g2109
aS'@@p1_mean_stddev'
p2138
asg40
(lp2139
g776
aS'@@descr'
p2140
asg778
(lp2141
g2110
aS'@@p5_mean_stddev'
p2142
asg784
(lp2143
(lp2144
F0.0
aF0.0
aaS'@@p0_mean_stddev'
p2145
asg37
(lp2146
I5
aS'@@size'
p2147
asg785
(lp2148
g1104
aS'@@@Jsequence'
p2149
asg78
(lp2150
F1.0
aS'@@c00_default'
p2151
asg786
(lp2152
g1104
aS'@@@Jsequence_KJones'
p2153
asg848
(lp2154
I0
aF0.10000000000000001
aF0.20000000000000001
aF0.5
aF-0.10000000000000001
aS'@@mean_c00'
p2155
asg787
(lp2156
(lp2157
F0.0
aF0.0
aaS'@@p9_mean_stddev'
p2158
asg788
(lp2159
(lp2160
I0
aI1
aI2
aI3
aI4
aa(lp2161
I0
aI1
aI2
aI3
aI4
aI5
aI6
aa(lp2162
I0
aI1
aI2
aI3
aI4
aI5
aI6
aI7
aI8
aI9
aI10
aI11
aI12
aI13
aa(lp2163
I0
aI1
aI2
aI3
aI4
aI5
aI6
aI7
aI8
aI9
aI10
aI11
aI12
aI13
aI14
aag859
aS'@@stations'
p2164
asg789
(lp2165
I20
aS'@@timescale_min'
p2166
asg790
(lp2167
(lp2168
F0.0
aF0.0
aaS'@@p3_mean_stddev'
p2169
asg791
(lp2170
(lp2171
F0.0
aF0.0
aaS'@@p6_mean_stddev'
p2172
asg869
(lp2173
F0.29999999999999999
aF0.5
aI1
aI2
aI3
aS'@@mean_period'
p2174
asg792
(lp2175
(lp2176
F0.0
aF0.0
aaS'@@p2_mean_stddev'
p2177
asg875
(lp2178
I0
aF0.0001
aF0.001
aF0.01
aF0.10000000000000001
aI1
aS'@@stddev_c00'
p2179
asg793
(lp2180
(lp2181
F0.0
aF0.0
aaS'@@p4_mean_stddev'
p2182
asg794
(lp2183
F1.0
aS'@@c00_scale'
p2184
asg795
(lp2185
g1104
aS'@@@Jsequence_simul'
p2186
assg195
g1634
sg209
S'** Description of available inarg record(s) for: MG_JEN_Joneset::FJones()  version=16dec2005  defined=2006-04-13 11:08'
p2187
sg211
I00
sg212
S'2006-04-13 11:08'
p2188
sg103
g1017
sg98
S'MG_JEN_Joneset'
p2189
sg201
S'** Specific description of inarg record for: MG_JEN_Joneset::FJones()  version=16dec2005  defined=2006-04-13 11:08'
p2190
sg892
(dp2191
g2
I00
sg788
I00
ssg197
g2188
sg223
(lp2192
g49
ag788
ag2
ag785
ag795
ag786
ag848
ag875
ag869
ag766
ag761
ag789
ag772
ag30
ag38
ag37
ag78
ag794
ag40
ag36
ag783
ag784
ag774
ag792
ag790
ag793
ag778
ag791
ag767
ag769
ag787
asg52
(dp2193
g761
g896
sg2
g898
sg30
g58
sg766
g899
sg767
g900
sg769
g901
sg772
g903
sg36
g36
sg783
g904
sg38
g64
sg774
g905
sg40
g906
sg778
g907
sg784
g911
sg37
g909
sg785
g908
sg78
g910
sg786
g908
sg848
g912
sg787
g913
sg788
g914
sg789
g915
sg790
g916
sg791
g917
sg869
g918
sg792
g919
sg875
g920
sg793
g921
sg794
g922
sg795
g908
ssg203
S'MG_JEN_JonesetFJones'
p2194
ssg786
g1104
sg37
I5
sg785
g1104
sg924
I50
sg78
F1.0
sg925
I500
sg784
g2144
sg848
F0.10000000000000001
sg787
g2157
sg788
g2164
sg789
I20
sg790
g2168
sg791
g2171
sg869
F1.0
sg792
g2176
sg875
F0.01
sg793
g2181
sg794
F1.0
sg795
g1104
sg926
F0.02
sssg785
Nssg49
(dp2195
g51
S'./MG_JEN_simul.'
p2196
sg52
(dp2197
g1
S'if True, add to existing uv-data (from MS column)'
p2198
sg2
g898
sS'master_reqseq'
p2199
S'if True, use a master reqseq for solver(s)'
p2200
sg788
g914
sg16
S'if True, use same (simul) LSM for solving too'
p2201
sS'redun'
p2202
S'if True, redundant spacing calibration'
p2203
sg754
S'stddev of gaussian noise, to be added'
p2204
sg11
S'name of the (AIPS++) Measurement Set'
p2205
sS'chain_solvers'
p2206
S'if True, chain the solvers (recommended)'
p2207
sg15
S'if True, insert a solver'
p2208
sS'num_cells'
p2209
S'if defined, ModRes argument [ntime,nfreq]'
p2210
sg13
g1316
sg786
g908
sg795
g908
sS'tile_size'
p2211
S'(inputrec) size (in time-slots) of the input data-tile'
p2212
sg928
g1315
sg785
g908
ssS'reference'
p2213
I00
sg96
g97
sg98
S'MG_JEN_simul'
p2214
sg100
(dp2215
g2
I00
sg2199
I01
sg788
I00
sS'last_changed'
p2216
I01
sg2202
I00
sg928
I00
sg2206
I01
sg2209
I00
sg786
I01
sg795
I01
sg785
I01
ssg381
(dp2217
g11
S'*.MS'
p2218
ssg103
g1407
sg105
S"\n    -------------------------------------------------------------\n    General description of the MeqTree TDL script MG_JEN_simul.py\n    -------------------------------------------------------------\n\n    The MG_JEN_simul.py script is used to put simulated visibilities into the\n    CORRECTED_DATA column of an existing Measurement Set (MS). The original DATA\n    in the MS are untouched. The advantage of this approach is that it is not\n    necessary to specify pointing centre, uv-coverage, spectral-window etc.\n\n    * The input source model is either an existing Local Sky Model (LSM),\n    or a 'punit' point source in the centre of the field.\n\n    * The nominal source visibilities may be corrupted by:\n      - various (uv-plane) Jones matrices\n      - image-plane effects from EJones and IJones (MIM)\n      - ifr-based errors (additive, multiplicative)\n      - noise\n\n    * Optionally, the simulated visibilities may be added to the existing uv-data,\n    either from the DATA column or the CORRECTED_DATA column of the MS\n\n    * Optionally, a parallel solver branch may be inserted, which uses the simulated\n    uv-data to solve for instrumental parameters. The latter may be compared with\n    the simulated instrumental parameters.\n\n    Different types of simulations may be specified by loading (and editing) socalled\n    'inarg' records from files (like this one). These contain input arguments\n    for generating a suitable MeqTree forest for the desired operation.\n    "
p2219
sg107
(dp2220
g1
I00
sg2199
I00
sg16
I00
sg2216
I00
sg15
I00
sg2202
I00
ssg109
S'** Top-level CTRL-record of: MG_JEN_simul.inarg'
p2221
sg111
(dp2222
g1
(lp2223
I01
aI00
aS'@@add_to_existing'
p2224
asg2
(lp2225
g3
ag807
aS'@@polrep'
p2226
asg2199
(lp2227
I01
aI00
aS'@@master_reqseq'
p2228
asg788
(lp2229
(lp2230
I0
aI1
aI2
aI3
aI4
aa(lp2231
I0
aI1
aI2
aI3
aI4
aI5
aI6
aa(lp2232
I0
aI1
aI2
aI3
aI4
aI5
aI6
aI7
aI8
aI9
aI10
aI11
aI12
aI13
aa(lp2233
I0
aI1
aI2
aI3
aI4
aI5
aI6
aI7
aI8
aI9
aI10
aI11
aI12
aI13
aI14
aag859
aS'@@stations'
p2234
asg16
(lp2235
I01
aI00
aS'@@use_same_LSM'
p2236
asg2216
(lp2237
S'd30jan2006'
p2238
aS'@@last_changed'
p2239
asg754
(lp2240
I0
aF0.001
aF0.0030000000000000001
aF0.01
aF0.029999999999999999
aF0.10000000000000001
aF0.29999999999999999
aI1
aI3
aS'@@stddev_noise_Jy'
p2241
asg2202
(lp2242
I01
aI00
aS'@@redun'
p2243
asg11
(lp2244
g12
aS'@@ms_name'
p2245
asg2206
(lp2246
I01
aS'@@chain_solvers'
p2247
asg15
(lp2248
I01
aI00
aS'@@insert_solver'
p2249
asg2209
(lp2250
Na(lp2251
I5
aI2
aa(lp2252
I2
aI2
aa(lp2253
I3
aI3
aaS'@@num_cells'
p2254
asg13
(lp2255
Nag1270
aS'@@parmtable'
p2256
asg786
(lp2257
NaS'@@@Jsequence_KJones'
p2258
asg795
(lp2259
NaS'@@@Jsequence_simul'
p2260
asg2211
(lp2261
I1
aI2
aI3
aI5
aI10
aI20
aI50
aI100
aS'@@tile_size'
p2262
asg928
(lp2263
I00
aS'@@uvplane_effect'
p2264
asg785
(lp2265
NaS'@@@Jsequence'
p2266
assg195
Nsg197
S'2006-04-13 11:08'
p2267
sS'HISTORY'
p2268
(dp2269
g215
S'2006-04-13 11:09: Derived from: MG_JEN_simul_DJones.inarg'
p2270
sg217
S'2006-04-13 11:09: Derived from: MG_JEN_simul.inarg'
p2271
ssg199
g10
sg201
S'Predefined inarg record for simulating with DJones corruption'
p2272
sS'save_file'
p2273
S'MG_JEN_simul_DJones_protected.inarg'
p2274
sS'file_filter'
p2275
S'MG_JEN_simul*.inarg'
p2276
sg205
S''
p2277
sg209
S'\n====================================================\n** Description of available predefined inarg records (files)\n   for the TDL script: MG_JEN_simul:\n\n====================================================\n\n\n** Description of predefined inarg record (file): MG_JEN_simul_GJones.inarg:\nPredefined inarg record for simulating with GJones corruption\n\n\n** Description of predefined inarg record (file): MG_JEN_simul_DJones.inarg:\nPredefined inarg record for simulating with DJones corruption\n\n\n** Description of predefined inarg record (file): MG_JEN_simul_EJones.inarg:\nPredefined inarg record for simulating with EJones corruption\n====================================================\n'
p2278
sg211
I01
sg212
g2267
sg213
(dp2279
S'11'
p2280
S'** JEN_inarg.attach(): attached: [solve]./MG_JEN_Cohset.predict_lsm()'
p2281
sS'10'
p2282
S'** JEN_inarg.attach(): attached: [solve]./MG_JEN_lsm.get_lsm()'
p2283
sS'13'
p2284
S'** JEN_inarg.separator(): : finishing touches'
p2285
sS'12'
p2286
S'** JEN_inarg.attach(): attached: ./MG_JEN_Cohset.insert_solver()'
p2287
sS'15'
p2288
S".modify():   ** OK ** (['Jsequence'])"
p2289
sS'14'
p2290
S'** JEN_inarg.attach(): attached: ./MG_JEN_Cohset.make_sinks()'
p2291
sS'17'
p2292
S'  0: ./MG_JEN_simul. (qual=None): .modify(parmtable):   None  ->  simul_DJones'
p2293
sS'16'
p2294
S".modify():   ** OK ** (['Jsequence'])"
p2295
sS'19'
p2296
S".modify():   ** OK ** (['parmtable', 'solvegroup', 'num_iter', 'insert_solver'])"
p2297
sS'18'
p2298
S'  0: ./MG_JEN_simul. (qual=None): .modify(insert_solver):   True  ->  False'
p2299
sS'20'
p2300
S".modify():   ** OK ** (['major', 'I0', 'shape', 'Qpct', 'Vpct', 'SI', 'pa', 'RM', 'Upct', 'punit', 'minor'])"
p2301
sg215
S'  0: ./MG_JEN_simul. (qual=None): .modify(tile_size):   10  ->  1'
p2302
sg217
S'  0: ./MG_JEN_simul. (qual=None): .modify(uvplane_effect):   False  ->  True'
p2303
sg219
S'** JEN_inarg.separator(): : uv-data (MS) stream_control'
p2304
sg221
S".modify():   ** OK ** (['uvplane_effect', 'tile_size'])"
p2305
sg1302
S'** JEN_inarg.attach(): attached: ./MG_JEN_Cohset.make_spigots()'
p2306
sg1304
S'** JEN_inarg.attach(): attached: ./MG_JEN_exec.stream_control()'
p2307
sg1306
S'** JEN_inarg.attach(): attached: [simul]./MG_JEN_lsm.get_lsm()'
p2308
sg1308
S'** JEN_inarg.separator(): : uv-data simulation (LeafSet)'
p2309
sS'9'
p2310
S'** JEN_inarg.separator(): : solver-branch (ParmSet)'
p2311
sS'8'
p2312
S'** JEN_inarg.attach(): attached: [simul]./MG_JEN_Cohset.predict_lsm()'
p2313
ssg223
(lp2314
g49
ag9
ag2216
ag11
ag2211
ag788
ag2
ag785
ag795
ag786
ag13
ag928
ag2206
ag2199
ag2202
ag2209
ag1
ag754
ag15
ag5
aS'./MG_JEN_exec.stream_control()'
p2315
aS'./MG_JEN_Cohset.make_spigots()'
p2316
aS'_JEN_inarg_separator_record:_2'
p2317
ag17
ag755
aS'_JEN_inarg_separator_record:_3'
p2318
ag16
aS'[solve]./MG_JEN_lsm.get_lsm()'
p2319
aS'[solve]./MG_JEN_Cohset.predict_lsm()'
p2320
aS'./MG_JEN_Cohset.insert_solver()'
p2321
aS'_JEN_inarg_separator_record:_4'
p2322
aS'./MG_JEN_Cohset.make_sinks()'
p2323
assg2323
(dp2324
S'fullDomainMux'
p2325
I01
sS'output_col'
p2326
S'PREDICT'
p2327
sg1509
I01
sS'flag'
p2328
I00
sg49
(dp2329
g199
S'MG_JEN_Cohset::make_sinks()'
p2330
sg51
g2323
sg197
S'2006-04-13 11:08'
p2331
sg201
S'** Specific description of inarg record for: MG_JEN_Cohset::make_sinks()  version=25dec2005  defined=2006-04-13 11:08'
p2332
sg203
S'MG_JEN_Cohsetmake_sinks'
p2333
sg96
g97
sg109
S'MG_JEN_Cohset::make_sinks()  version=25dec2005  defined=2006-04-13 11:08'
p2334
sg205
S'make_sinks'
p2335
sg111
(dp2336
g2328
(lp2337
I01
aI00
aS'@@flag'
p2338
asg1509
(lp2339
I01
aI00
aS'@@visu'
p2340
asg2325
(lp2341
I01
aI00
aS'@@fullDomainMux'
p2342
asg2326
(lp2343
g2327
aS'RESIDUALS'
p2344
aS'DATA'
p2345
aS'@@output_col'
p2346
asS'visu_array_config'
p2347
(lp2348
I01
aI00
aS'@@visu_array_config'
p2349
assg195
Nsg209
S'** Description of available inarg record(s) for: MG_JEN_Cohset::make_sinks()  version=25dec2005  defined=2006-04-13 11:08'
p2350
sg103
g1294
sg212
g2331
sg98
S'MG_JEN_Cohset'
p2351
sg107
(dp2352
g2328
I00
sg1509
I00
sg2325
I00
sg2347
I00
ssg211
I00
sg223
(lp2353
g49
ag2326
ag2347
ag1509
ag2328
ag2325
asg52
(dp2354
g2328
S'if True, insert a flagger for the output uv-data'
p2355
sg1509
S'if True, visualise the output uv-data'
p2356
sg2325
S'if True, attach an extra VisDataMux'
p2357
sg2326
S'name of the logical (VisTile) output column'
p2358
sg2347
S'if True, visualise the array config (from MS)'
p2359
ssg105
S'Make sink nodes in the given Cohset object'
p2360
ssg2347
I01
ssg2211
I1
sg2316
(dp2361
g2328
I00
sg1509
I01
sg49
(dp2362
g199
S'MG_JEN_Cohset::make_spigots()'
p2363
sg51
g2316
sg197
S'2006-04-13 11:08'
p2364
sg100
(dp2365
S'input_col'
p2366
I01
ssg203
S'MG_JEN_Cohsetmake_spigots'
p2367
sg96
g97
sg109
S'MG_JEN_Cohset::make_spigots()  version=25dec2005  defined=2006-04-13 11:08'
p2368
sg205
S'make_spigots'
p2369
sg111
(dp2370
g2328
(lp2371
I01
aI00
aS'@@flag'
p2372
asS'MS_corr_index'
p2373
(lp2374
(lp2375
I0
aI1
aI2
aI3
aa(lp2376
I0
aI-1
aI-1
aI1
aa(lp2377
I0
aI-1
aI-1
aI3
aaS'@@MS_corr_index'
p2378
asg2366
(lp2379
g2345
ag2327
ag2344
aS'@@input_col'
p2380
asg1509
(lp2381
I01
aI00
aS'@@visu'
p2382
assg195
Nsg209
S'** Description of available inarg record(s) for: MG_JEN_Cohset::make_spigots()  version=25dec2005  defined=2006-04-13 11:08'
p2383
sg103
g1294
sg212
g2364
sg98
S'MG_JEN_Cohset'
p2384
sg107
(dp2385
g2328
I00
sg1509
I00
ssg201
S'** Specific description of inarg record for: MG_JEN_Cohset::make_spigots()  version=25dec2005  defined=2006-04-13 11:08'
p2386
sg211
I00
sg223
(lp2387
g49
ag2366
ag2373
ag1509
ag2328
asg52
(dp2388
g2328
S'if True, insert a flagger for the input uv-data'
p2389
sg2373
S'correlations to be used: \n- [0,1,2,3]:   all corrs available, use all \n- [0,-1,-1,1]: only XX/YY (or RR/LL) available \n- [0,-1,-1,3]: all available, but use only XX/YY or RR/LL'
p2390
sg2366
S'name of the logical (VisTile) input column'
p2391
sg1509
S'if True, visualise the input uv-data'
p2392
ssg105
S'Make spigot nodes in the given Cohset object'
p2393
ssg2366
g2345
sg2373
(lp2394
I0
aI1
aI2
aI3
assg2320
(dp2395
S'[solve_imp]./MG_JEN_Cohset.Jones()'
p2396
(dp2397
S'[solve_imp]./MG_JEN_Joneset.FJones()'
p2398
(dp2399
g27
I00
sg2
S'@@polrep'
p2400
sg30
g31
sg32
I00
sg13
S'@@parmtable'
p2401
sg36
Nsg37
I10
sg38
g39
sg40
g41
sg44
g45
sg47
Nsg49
(dp2402
g199
S'MG_JEN_Joneset::FJones()'
p2403
sg51
g2398
sg100
(dp2404
g38
I01
sg2
I01
sg78
I01
sg40
I01
sg788
I01
sg30
I01
sg43
I01
sg44
I01
sg928
I01
sg47
I01
sg92
I01
sg13
I01
sg786
I01
sg795
I01
sg37
I01
sg36
I01
sg785
I01
ssg105
g1068
sg96
g97
sg109
S'MG_JEN_Joneset::FJones()  version=16dec2005  defined=2006-04-13 11:08'
p2405
sg205
S'FJones'
p2406
sg111
(dp2407
g27
(lp2408
I01
aI00
aS'@@reset_funklet'
p2409
asg2
(lp2410
g3
ag807
ag2400
asg30
(lp2411
g31
aS'@@color'
p2412
asg32
(lp2413
I01
aI00
aS'@@save_all'
p2414
asg92
(lp2415
NaS'@@tfdeg'
p2416
asg36
(lp2417
NaS'@@unit'
p2418
asg37
(lp2419
I10
aS'@@size'
p2420
asg38
(lp2421
g39
aS'@@style'
p2422
asg40
(lp2423
g41
aS'@@descr'
p2424
asg44
(lp2425
g45
aS'@@condeq_corrs'
p2426
asg47
(lp2427
NaS'@@funklet_shape'
p2428
asg94
(lp2429
I01
aI00
aS'@@auto_save'
p2430
asg786
(lp2431
g1104
aS'@@@Jsequence_KJones'
p2432
asg785
(lp2433
g1104
aS'@@@Jsequence'
p2434
asg78
(lp2435
F1.0
aS'@@c00_default'
p2436
asg928
(lp2437
I00
aS'@@uvplane_effect'
p2438
asg788
(lp2439
(lp2440
I0
aI1
aI2
aI3
aI4
aa(lp2441
I0
aI1
aI2
aI3
aI4
aI5
aI6
aa(lp2442
I0
aI1
aI2
aI3
aI4
aI5
aI6
aI7
aI8
aI9
aI10
aI11
aI12
aI13
aa(lp2443
I0
aI1
aI2
aI3
aI4
aI5
aI6
aI7
aI8
aI9
aI10
aI11
aI12
aI13
aI14
aag859
aS'@@stations'
p2444
asS'tdeg_RM'
p2445
(lp2446
I0
aI1
aI2
aI3
aS'@@tdeg_RM'
p2447
asg88
(lp2448
I01
aI00
aS'@@use_previous'
p2449
asS'fdeg_RM'
p2450
(lp2451
I0
aI1
aI2
aI3
aS'@@fdeg_RM'
p2452
asg43
(lp2453
NaS'@@subtile_size'
p2454
asg13
(lp2455
Nag1270
ag2401
asS'subtile_size_RM'
p2456
(lp2457
NaI1
aI2
aI5
aI10
aI20
aI50
aI100
aI200
aI500
aS'@@subtile_size_RM'
p2458
asg795
(lp2459
g1104
aS'@@@Jsequence_simul'
p2460
assg195
S'solve_imp'
p2461
sg209
S'** Description of available inarg record(s) for: MG_JEN_Joneset::FJones()  version=16dec2005  defined=2006-04-13 11:08'
p2462
sg211
I00
sg212
S'2006-04-13 11:08'
p2463
sg103
g1017
sg98
S'MG_JEN_Joneset'
p2464
sg107
(dp2465
g27
I00
sg32
I00
sg94
I00
sg88
I00
ssg201
S'** Specific description of inarg record for: MG_JEN_Joneset::FJones()  version=16dec2005  defined=2006-04-13 11:08'
p2466
sg892
(dp2467
g928
I00
sg13
I00
sg2
I00
sg788
I00
ssg197
g2463
sg223
(lp2468
g49
ag788
ag2
ag785
ag795
ag786
ag13
ag928
ag2445
ag2450
ag2456
ag88
ag94
ag32
ag27
ag40
ag36
ag30
ag38
ag37
ag78
ag92
ag47
ag43
ag44
asg52
(dp2469
g27
g55
sg2
g898
sg30
g58
sg32
g59
sg92
g93
sg36
g36
sg37
g63
sg38
g64
sg40
g65
sg44
g68
sg47
g70
sg94
g95
sg786
g908
sg785
g908
sg78
g79
sg928
g1315
sg788
g914
sg2445
S'degree of time polynomial'
p2470
sg88
g89
sg2450
S'degree of freq polynomial'
p2471
sg43
g67
sg13
g1316
sg2456
S'sub-tile size (None=entire tile)'
p2472
sg795
g908
ssg203
S'MG_JEN_JonesetFJones'
p2473
ssg786
g1104
sg785
g1104
sg78
F1.0
sg928
g2438
sg788
g2444
sg2445
I0
sg88
I01
sg2450
I2
sg43
Nsg92
Nsg2456
I1
sg795
g1104
sg94
I01
ssg786
NsS'[solve_imp]./MG_JEN_Joneset.JJones()'
p2474
(dp2475
g27
I00
sg2
S'@@polrep'
p2476
sS'tdeg_Jreal'
p2477
I0
sg30
g31
sg32
I00
sg771
Nsg13
S'@@parmtable'
p2478
sS'subtile_size_Jreal'
p2479
Nsg36
Nsg37
I10
sg38
g39
sS'tdeg_Jimag'
p2480
S'@tdeg_Jreal'
p2481
sg40
g41
sg44
g45
sg47
Nsg49
(dp2482
g199
S'MG_JEN_Joneset::JJones()'
p2483
sg51
g2474
sg100
(dp2484
g38
I01
sg2
I01
sg78
I01
sg40
I01
sg788
I01
sg30
I01
sg43
I01
sg44
I01
sg928
I01
sg47
I01
sg92
I01
sg13
I01
sg786
I01
sg795
I01
sg37
I01
sg36
I01
sg785
I01
ssg105
g796
sg96
g97
sg109
S'MG_JEN_Joneset::JJones()  version=14feb2006  defined=2006-04-13 11:08'
p2485
sg205
S'JJones'
p2486
sg111
(dp2487
g27
(lp2488
I01
aI00
aS'@@reset_funklet'
p2489
asg2
(lp2490
g3
ag807
ag2476
asg2477
(lp2491
I0
aI1
aI2
aI3
aS'@@tdeg_Jreal'
p2492
asg30
(lp2493
g31
aS'@@color'
p2494
asg32
(lp2495
I01
aI00
aS'@@save_all'
p2496
asg771
(lp2497
Na(lp2498
I14
aa(lp2499
I1
aag819
aS'@@all4_always'
p2500
asg13
(lp2501
Nag1270
ag2478
asg2479
(lp2502
NaI1
aI2
aI5
aI10
aI20
aI50
aI100
aI200
aI500
aS'@@subtile_size_Jreal'
p2503
asg36
(lp2504
NaS'@@unit'
p2505
asg37
(lp2506
I10
aS'@@size'
p2507
asg38
(lp2508
g39
aS'@@style'
p2509
asg2480
(lp2510
I0
aI1
aI2
aI3
ag2481
aS'@@tdeg_Jimag'
p2511
asg40
(lp2512
g41
aS'@@descr'
p2513
asg44
(lp2514
g45
aS'@@condeq_corrs'
p2515
asg47
(lp2516
NaS'@@funklet_shape'
p2517
asg94
(lp2518
I01
aI00
aS'@@auto_save'
p2519
asg786
(lp2520
g837
aS'@@@Jsequence_KJones'
p2521
asS'fdeg_Jreal'
p2522
(lp2523
I0
aI1
aI2
aI3
aS'@@fdeg_Jreal'
p2524
asg78
(lp2525
F1.0
aS'@@c00_default'
p2526
asg928
(lp2527
I00
aS'@@uvplane_effect'
p2528
asS'fdeg_Jimag'
p2529
(lp2530
I0
aI1
aI2
aI3
aS'@fdeg_Jreal'
p2531
aS'@@fdeg_Jimag'
p2532
asS'subtile_size_Jimag'
p2533
(lp2534
S'@subtile_size_Jreal'
p2535
aNaI1
aI2
aI5
aI10
aI20
aI50
aI100
aI200
aI500
aS'@@subtile_size_Jimag'
p2536
asg788
(lp2537
(lp2538
I0
aI1
aI2
aI3
aI4
aa(lp2539
I0
aI1
aI2
aI3
aI4
aI5
aI6
aa(lp2540
I0
aI1
aI2
aI3
aI4
aI5
aI6
aI7
aI8
aI9
aI10
aI11
aI12
aI13
aa(lp2541
I0
aI1
aI2
aI3
aI4
aI5
aI6
aI7
aI8
aI9
aI10
aI11
aI12
aI13
aI14
aag859
aS'@@stations'
p2542
asg763
(lp2543
I01
aI00
aS'@@diagonal_only'
p2544
asg88
(lp2545
I01
aI00
aS'@@use_previous'
p2546
asg43
(lp2547
NaS'@@subtile_size'
p2548
asg92
(lp2549
NaS'@@tfdeg'
p2550
asg795
(lp2551
g837
aS'@@@Jsequence_simul'
p2552
asg785
(lp2553
g837
aS'@@@Jsequence'
p2554
assg195
g2461
sg209
S'** Description of available inarg record(s) for: MG_JEN_Joneset::JJones()  version=14feb2006  defined=2006-04-13 11:08'
p2555
sg211
I00
sg212
S'2006-04-13 11:08'
p2556
sg103
g888
sg98
S'MG_JEN_Joneset'
p2557
sg107
(dp2558
g27
I00
sg763
I00
sg32
I00
sg94
I00
sg88
I00
ssg201
S'** Specific description of inarg record for: MG_JEN_Joneset::JJones()  version=14feb2006  defined=2006-04-13 11:08'
p2559
sg892
(dp2560
g928
I00
sg13
I00
sg2
I00
sg788
I00
ssg197
g2556
sg223
(lp2561
g49
ag788
ag2
ag785
ag795
ag786
ag763
ag771
ag13
ag928
ag2477
ag2480
ag2522
ag2529
ag2479
ag2533
ag88
ag94
ag32
ag27
ag40
ag36
ag30
ag38
ag37
ag78
ag92
ag47
ag43
ag44
asg52
(dp2562
g27
g55
sg2
g898
sg2477
S'degree of time polynomial'
p2563
sg30
g58
sg32
g59
sg771
g902
sg13
g1316
sg2479
S'sub-tile size (None=entire tile)'
p2564
sg36
g36
sg37
g63
sg38
g64
sg2480
g2563
sg40
g65
sg44
g68
sg47
g70
sg94
g95
sg786
g908
sg2522
S'degree of freq polynomial'
p2565
sg78
g79
sg928
g1315
sg2529
g2565
sg2533
g2564
sg788
g914
sg763
g897
sg88
g89
sg43
g67
sg92
g93
sg795
g908
sg785
g908
ssg203
S'MG_JEN_JonesetJJones'
p2566
ssg786
g837
sg2522
I0
sg78
F1.0
sg928
g2528
sg2529
g2531
sg2533
g2535
sg788
g2542
sg763
I00
sg88
I01
sg43
Nsg92
Nsg795
g837
sg785
g837
sg94
I01
ssg788
S'@@stations'
p2567
sS'[solve_imp]./MG_JEN_Joneset.BJones()'
p2568
(dp2569
g27
I00
sg2
S'@@polrep'
p2570
sg30
g31
sS'subtile_size_Bimag'
p2571
S'@subtile_size_Breal'
p2572
sg32
I00
sS'subtile_size_Breal'
p2573
Nsg36
Nsg37
I10
sg38
g39
sg40
g41
sS'fdeg_Breal'
p2574
I5
sg44
g45
sg47
Nsg49
(dp2575
g199
S'MG_JEN_Joneset::BJones()'
p2576
sg51
g2568
sg100
(dp2577
g38
I01
sg2
I01
sg78
I01
sg40
I01
sg788
I01
sg30
I01
sg43
I01
sg44
I01
sg928
I01
sg47
I01
sg92
I01
sg13
I01
sg786
I01
sg795
I01
sg37
I01
sg36
I01
sg785
I01
ssg105
g940
sg96
g97
sg109
S'MG_JEN_Joneset::BJones()  version=16dec2005  defined=2006-04-13 11:08'
p2578
sg205
S'BJones'
p2579
sg111
(dp2580
g27
(lp2581
I01
aI00
aS'@@reset_funklet'
p2582
asg2
(lp2583
g3
ag807
ag2570
asg30
(lp2584
g31
aS'@@color'
p2585
asg2571
(lp2586
g2572
aNaI1
aI2
aI5
aI10
aI20
aI50
aI100
aI200
aI500
aS'@@subtile_size_Bimag'
p2587
asg32
(lp2588
I01
aI00
aS'@@save_all'
p2589
asg2573
(lp2590
NaI1
aI2
aI5
aI10
aI20
aI50
aI100
aI200
aI500
aS'@@subtile_size_Breal'
p2591
asg36
(lp2592
NaS'@@unit'
p2593
asg37
(lp2594
I10
aS'@@size'
p2595
asg38
(lp2596
g39
aS'@@style'
p2597
asg40
(lp2598
g41
aS'@@descr'
p2599
asg2574
(lp2600
I3
aI4
aI5
aI6
aS'@@fdeg_Breal'
p2601
asg44
(lp2602
g45
aS'@@condeq_corrs'
p2603
asg47
(lp2604
NaS'@@funklet_shape'
p2605
asg94
(lp2606
I01
aI00
aS'@@auto_save'
p2607
asg786
(lp2608
g976
aS'@@@Jsequence_KJones'
p2609
asS'tdeg_Bimag'
p2610
(lp2611
I0
aI1
aI2
aI3
aS'@tdeg_Breal'
p2612
aS'@@tdeg_Bimag'
p2613
asg785
(lp2614
g976
aS'@@@Jsequence'
p2615
asg78
(lp2616
F1.0
aS'@@c00_default'
p2617
asS'fdeg_Bimag'
p2618
(lp2619
I3
aI4
aI5
aI6
aS'@fdeg_Breal'
p2620
aS'@@fdeg_Bimag'
p2621
asg928
(lp2622
I00
aS'@@uvplane_effect'
p2623
asg788
(lp2624
(lp2625
I0
aI1
aI2
aI3
aI4
aa(lp2626
I0
aI1
aI2
aI3
aI4
aI5
aI6
aa(lp2627
I0
aI1
aI2
aI3
aI4
aI5
aI6
aI7
aI8
aI9
aI10
aI11
aI12
aI13
aa(lp2628
I0
aI1
aI2
aI3
aI4
aI5
aI6
aI7
aI8
aI9
aI10
aI11
aI12
aI13
aI14
aag859
aS'@@stations'
p2629
asg92
(lp2630
NaS'@@tfdeg'
p2631
asS'tdeg_Breal'
p2632
(lp2633
I0
aI1
aI2
aI3
aS'@@tdeg_Breal'
p2634
asg88
(lp2635
I01
aI00
aS'@@use_previous'
p2636
asg43
(lp2637
NaS'@@subtile_size'
p2638
asg13
(lp2639
Nag1270
aS'@@parmtable'
p2640
asg795
(lp2641
g976
aS'@@@Jsequence_simul'
p2642
assg195
g2461
sg209
S'** Description of available inarg record(s) for: MG_JEN_Joneset::BJones()  version=16dec2005  defined=2006-04-13 11:08'
p2643
sg211
I00
sg212
S'2006-04-13 11:08'
p2644
sg103
g1017
sg98
S'MG_JEN_Joneset'
p2645
sg107
(dp2646
g27
I00
sg32
I00
sg94
I00
sg88
I00
ssg201
S'** Specific description of inarg record for: MG_JEN_Joneset::BJones()  version=16dec2005  defined=2006-04-13 11:08'
p2647
sg892
(dp2648
g928
I00
sg13
I00
sg2
I00
sg788
I00
ssg197
g2644
sg223
(lp2649
g49
ag788
ag2
ag785
ag795
ag786
ag13
ag928
ag2632
ag2610
ag2574
ag2618
ag2573
ag2571
ag88
ag94
ag32
ag27
ag40
ag36
ag30
ag38
ag37
ag78
ag92
ag47
ag43
ag44
asg52
(dp2650
g27
g55
sg2
g898
sg30
g58
sg2571
S'sub-tile size (None=entire tile)'
p2651
sg32
g59
sg2573
g2651
sg36
g36
sg37
g63
sg38
g64
sg40
g65
sg2574
S'degree of freq polynomial'
p2652
sg44
g68
sg47
g70
sg94
g95
sg786
g908
sg2610
S'degree of time polynomial'
p2653
sg785
g908
sg78
g79
sg2618
g2652
sg928
g1315
sg788
g914
sg92
g93
sg2632
g2653
sg88
g89
sg43
g67
sg13
g1316
sg795
g908
ssg203
S'MG_JEN_JonesetBJones'
p2654
ssg786
g976
sg2610
g2612
sg785
g976
sg78
F1.0
sg2618
g2620
sg928
g2623
sg788
g2629
sg92
Nsg2632
I0
sg88
I01
sg43
Nsg13
g2640
sg795
g976
sg94
I01
ssS'[solve_imp]./MG_JEN_Joneset.DJones_WSRT()'
p2655
(dp2656
g27
I00
sg2
S'@@polrep'
p2657
sg30
g31
sS'fdeg_Dell'
p2658
S'@fdeg_Dang'
p2659
sg1156
I01
sg32
I00
sg36
Nsg13
S'@@parmtable'
p2660
sS'subtile_size_Dang'
p2661
Nsg94
I01
sg37
I10
sg38
g39
sg40
g41
sg44
g45
sg47
Nsg49
(dp2662
g199
S'MG_JEN_Joneset::DJones_WSRT()'
p2663
sg51
g2655
sg100
(dp2664
g38
I01
sg2
I01
sg78
I01
sg40
I01
sg788
I01
sg30
I01
sg43
I01
sg44
I01
sg928
I01
sg47
I01
sg92
I01
sg13
I01
sg786
I01
sg795
I01
sg37
I01
sg36
I01
sg785
I01
ssg105
g1163
sg96
g97
sg109
S'MG_JEN_Joneset::DJones_WSRT()  version=16dec2005  defined=2006-04-13 11:08'
p2665
sg205
S'DJones_WSRT'
p2666
sg111
(dp2667
g27
(lp2668
I01
aI00
aS'@@reset_funklet'
p2669
asg2
(lp2670
g3
ag807
ag2657
asg30
(lp2671
g31
aS'@@color'
p2672
asg2658
(lp2673
I0
aI1
aI2
aI3
ag2659
aS'@@fdeg_Dell'
p2674
asg1156
(lp2675
I01
aI00
aS'@@coupled_XY_Dell'
p2676
asg32
(lp2677
I01
aI00
aS'@@save_all'
p2678
asg13
(lp2679
Nag1270
ag2660
asg2661
(lp2680
NaI1
aI2
aI5
aI10
aI20
aI50
aI100
aI200
aI500
aS'@@subtile_size_Dang'
p2681
asg36
(lp2682
NaS'@@unit'
p2683
asg37
(lp2684
I10
aS'@@size'
p2685
asg38
(lp2686
g39
aS'@@style'
p2687
asg40
(lp2688
g41
aS'@@descr'
p2689
asg44
(lp2690
g45
aS'@@condeq_corrs'
p2691
asg47
(lp2692
NaS'@@funklet_shape'
p2693
asg94
(lp2694
I01
aI00
aS'@@auto_save'
p2695
asg786
(lp2696
g1196
aS'@@@Jsequence_KJones'
p2697
asS'subtile_size_Dell'
p2698
(lp2699
S'@subtile_size_Dang'
p2700
aNaI1
aI2
aI5
aI10
aI20
aI50
aI100
aI200
aI500
aS'@@subtile_size_Dell'
p2701
asg785
(lp2702
g1196
aS'@@@Jsequence'
p2703
asS'fdeg_Dang'
p2704
(lp2705
I0
aI1
aI2
aI3
aS'@@fdeg_Dang'
p2706
asg78
(lp2707
F1.0
aS'@@c00_default'
p2708
asg928
(lp2709
I00
aS'@@uvplane_effect'
p2710
asS'tdeg_Dell'
p2711
(lp2712
I0
aI1
aI2
aI3
aS'@tdeg_Dang'
p2713
aS'@@tdeg_Dell'
p2714
asg1209
(lp2715
I01
aI00
aS'@@coupled_XY_Dang'
p2716
asS'tdeg_Dang'
p2717
(lp2718
I0
aI1
aI2
aI3
aS'@@tdeg_Dang'
p2719
asg788
(lp2720
(lp2721
I0
aI1
aI2
aI3
aI4
aa(lp2722
I0
aI1
aI2
aI3
aI4
aI5
aI6
aa(lp2723
I0
aI1
aI2
aI3
aI4
aI5
aI6
aI7
aI8
aI9
aI10
aI11
aI12
aI13
aa(lp2724
I0
aI1
aI2
aI3
aI4
aI5
aI6
aI7
aI8
aI9
aI10
aI11
aI12
aI13
aI14
aag859
aS'@@stations'
p2725
asg88
(lp2726
I01
aI00
aS'@@use_previous'
p2727
asg43
(lp2728
NaS'@@subtile_size'
p2729
asg92
(lp2730
NaS'@@tfdeg'
p2731
asg795
(lp2732
g1196
aS'@@@Jsequence_simul'
p2733
assg195
g2461
sg209
S'** Description of available inarg record(s) for: MG_JEN_Joneset::DJones_WSRT()  version=16dec2005  defined=2006-04-13 11:08'
p2734
sg211
I00
sg212
S'2006-04-13 11:08'
p2735
sg103
g1017
sg98
S'MG_JEN_Joneset'
p2736
sg107
(dp2737
g27
I00
sg1156
I00
sg32
I00
sg1209
I00
sg88
I00
sg94
I00
ssg201
S'** Specific description of inarg record for: MG_JEN_Joneset::DJones_WSRT()  version=16dec2005  defined=2006-04-13 11:08'
p2738
sg892
(dp2739
g928
I00
sg13
I00
sg2
I00
sg788
I00
ssg197
g2735
sg223
(lp2740
g49
ag788
ag2
ag785
ag795
ag786
ag1209
ag1156
ag13
ag928
ag2717
ag2711
ag2704
ag2658
ag2661
ag2698
ag88
ag94
ag32
ag27
ag40
ag36
ag30
ag38
ag37
ag78
ag92
ag47
ag43
ag44
asg52
(dp2741
g27
g55
sg2
g898
sg30
g58
sg2658
S'degree of freq polynomial'
p2742
sg1156
g1251
sg32
g59
sg13
g1316
sg2661
S'sub-tile size (None=entire tile)'
p2743
sg36
g36
sg37
g63
sg38
g64
sg40
g65
sg44
g68
sg47
g70
sg94
g95
sg786
g908
sg2698
g2743
sg785
g908
sg2704
g2742
sg78
g79
sg928
g1315
sg2711
S'degree of time polynomial'
p2744
sg1209
g1252
sg2717
g2744
sg788
g914
sg88
g89
sg43
g67
sg92
g93
sg795
g908
ssg203
S'MG_JEN_JonesetDJones_WSRT'
p2745
ssg786
g1196
sg2698
g2700
sg785
g1196
sg2704
I0
sg78
F1.0
sg928
g2710
sg2711
g2713
sg1209
I01
sg2717
I0
sg788
g2725
sg88
I01
sg43
Nsg92
Nsg795
g1196
ssg928
S'@@uvplane_effect'
p2746
sg13
S'@@parmtable'
p2747
sg49
(dp2748
g199
g1255
sg51
g2396
sg100
(dp2749
g2
I01
sg788
I01
sg928
I01
sg13
I01
sg786
I01
sg795
I01
sg785
I01
ssg203
S'MG_JEN_CohsetJones'
p2750
sg96
g97
sg105
g1258
sg109
S'MG_JEN_Cohset::Jones()  version=25dec2005  defined=2006-04-13 11:08'
p2751
sg205
S'Jones'
p2752
sg111
(dp2753
g2
(lp2754
g3
ag807
aS'@@polrep'
p2755
asg788
(lp2756
(lp2757
I0
aI1
aI2
aI3
aI4
aa(lp2758
I0
aI1
aI2
aI3
aI4
aI5
aI6
aa(lp2759
I0
aI1
aI2
aI3
aI4
aI5
aI6
aI7
aI8
aI9
aI10
aI11
aI12
aI13
aa(lp2760
I0
aI1
aI2
aI3
aI4
aI5
aI6
aI7
aI8
aI9
aI10
aI11
aI12
aI13
aI14
aag859
ag2567
asg928
(lp2761
I00
ag2746
asg13
(lp2762
Nag1270
ag2747
asg786
(lp2763
NaS'@@@Jsequence_KJones'
p2764
asg795
(lp2765
NaS'@@@Jsequence_simul'
p2766
asg1275
(lp2767
(lp2768
g1278
aa(lp2769
g976
aa(lp2770
g1104
aa(lp2771
g1037
aa(lp2772
g1196
aa(lp2773
g1278
ag1196
aa(lp2774
g1285
aa(lp2775
g1278
ag1285
aa(lp2776
g837
aa(lp2777
aS'@@Jsequence'
p2778
asg785
(lp2779
NaS'@@@Jsequence'
p2780
assg195
g2461
sg209
S'** Description of available inarg record(s) for: MG_JEN_Cohset::Jones()  version=25dec2005  defined=2006-04-13 11:08'
p2781
sg211
I00
sg212
S'2006-04-13 11:08'
p2782
sg103
g1294
sg98
S'MG_JEN_Cohset'
p2783
sg201
S'** Specific description of inarg record for: MG_JEN_Cohset::Jones()  version=25dec2005  defined=2006-04-13 11:08'
p2784
sg213
(dp2785
g215
S'** JEN_inarg.attach(): attached: [solve_imp]./MG_JEN_Joneset.FJones()'
p2786
sg217
S'** JEN_inarg.attach(): attached: [solve_imp]./MG_JEN_Joneset.GJones()'
p2787
sg219
S'** JEN_inarg.attach(): attached: [solve_imp]./MG_JEN_Joneset.KJones()'
p2788
sg221
S'** JEN_inarg.attach(): attached: [solve_imp]./MG_JEN_Joneset.BJones()'
p2789
sg1302
S'** JEN_inarg.attach(): attached: [solve_imp]./MG_JEN_Joneset.EJones_WSRT()'
p2790
sg1304
S'** JEN_inarg.attach(): attached: [solve_imp]./MG_JEN_Joneset.DJones_WSRT()'
p2791
sg1308
S'** JEN_inarg.attach(): attached: [solve_imp]./MG_JEN_Joneset.JJones()'
p2792
ssg197
g2782
sg892
(dp2793
g928
I00
sg13
I00
sg2
I00
sg788
I00
ssg223
(lp2794
g49
ag788
ag2
ag785
ag795
ag786
ag13
ag928
ag1275
aS'[solve_imp]./MG_JEN_Joneset.GJones()'
p2795
ag2398
ag2568
aS'[solve_imp]./MG_JEN_Joneset.KJones()'
p2796
ag2655
aS'[solve_imp]./MG_JEN_Joneset.EJones_WSRT()'
p2797
ag2474
asg52
(dp2798
g2
g898
sg788
g914
sg928
g1315
sg13
g1316
sg786
g908
sg795
g908
sg1275
g1317
sg785
g908
sssg2795
(dp2799
g27
I00
sg2
S'@@polrep'
p2800
sS'fdeg_Ggain'
p2801
I0
sg30
g31
sg32
I00
sg13
S'@@parmtable'
p2802
sg36
Nsg37
I10
sg38
g39
sg40
g41
sS'subtile_size_Ggain'
p2803
I1
sg44
g45
sg47
Nsg49
(dp2804
g199
S'MG_JEN_Joneset::GJones()'
p2805
sg51
g2795
sg100
(dp2806
g37
I01
sg38
I01
sg2
I01
sg78
I01
sg40
I01
sg788
I01
sg30
I01
sg43
I01
sg44
I01
sg928
I01
sg47
I01
sg92
I01
sg13
I01
sg786
I01
sg795
I01
sg1328
I01
sg36
I01
sg785
I01
ssg105
g1329
sg96
g97
sg109
S'MG_JEN_Joneset::GJones()  version=15dec2005  defined=2006-04-13 11:08'
p2807
sg205
S'GJones'
p2808
sg111
(dp2809
g27
(lp2810
I01
aI00
aS'@@reset_funklet'
p2811
asg2
(lp2812
g3
ag807
ag2800
asg2801
(lp2813
I0
aI1
aI2
aI3
aS'@@fdeg_Ggain'
p2814
asg30
(lp2815
g31
aS'@@color'
p2816
asg32
(lp2817
I01
aI00
aS'@@save_all'
p2818
asg13
(lp2819
Nag1270
ag2802
asg36
(lp2820
NaS'@@unit'
p2821
asg37
(lp2822
I10
aS'@@size'
p2823
asg38
(lp2824
g39
aS'@@style'
p2825
asg40
(lp2826
g41
aS'@@descr'
p2827
asg2803
(lp2828
NaI1
aI2
aI5
aI10
aI20
aI50
aI100
aI200
aI500
aS'@@subtile_size_Ggain'
p2829
asg44
(lp2830
g45
aS'@@condeq_corrs'
p2831
asg47
(lp2832
NaS'@@funklet_shape'
p2833
asg94
(lp2834
I01
aI00
aS'@@auto_save'
p2835
asg786
(lp2836
g1278
aS'@@@Jsequence_KJones'
p2837
asg785
(lp2838
g1278
aS'@@@Jsequence'
p2839
asg78
(lp2840
F1.0
aS'@@c00_default'
p2841
asS'tdeg_Gphase'
p2842
(lp2843
I0
aI1
aI2
aI3
aS'@tdeg_Ggain'
p2844
aS'@@tdeg_Gphase'
p2845
asS'tdeg_Ggain'
p2846
(lp2847
I0
aI1
aI2
aI3
aS'@@tdeg_Ggain'
p2848
asS'fdeg_Gphase'
p2849
(lp2850
I0
aI1
aI2
aI3
aS'@fdeg_Ggain'
p2851
aS'@@fdeg_Gphase'
p2852
asS'subtile_size_Gphase'
p2853
(lp2854
S'@subtile_size_Ggain'
p2855
aNaI1
aI2
aI5
aI10
aI20
aI50
aI100
aI200
aI500
aS'@@subtile_size_Gphase'
p2856
asg1328
(lp2857
I01
aI00
aS'@@Gpolar'
p2858
asg928
(lp2859
I00
aS'@@uvplane_effect'
p2860
asg788
(lp2861
(lp2862
I0
aI1
aI2
aI3
aI4
aa(lp2863
I0
aI1
aI2
aI3
aI4
aI5
aI6
aa(lp2864
I0
aI1
aI2
aI3
aI4
aI5
aI6
aI7
aI8
aI9
aI10
aI11
aI12
aI13
aa(lp2865
I0
aI1
aI2
aI3
aI4
aI5
aI6
aI7
aI8
aI9
aI10
aI11
aI12
aI13
aI14
aag859
aS'@@stations'
p2866
asg88
(lp2867
I01
aI00
aS'@@use_previous'
p2868
asg43
(lp2869
NaS'@@subtile_size'
p2870
asg92
(lp2871
NaS'@@tfdeg'
p2872
asg795
(lp2873
g1278
aS'@@@Jsequence_simul'
p2874
assg195
g2461
sg209
S'** Description of available inarg record(s) for: MG_JEN_Joneset::GJones()  version=15dec2005  defined=2006-04-13 11:08'
p2875
sg211
I00
sg212
S'2006-04-13 11:08'
p2876
sg103
g1407
sg98
S'MG_JEN_Joneset'
p2877
sg107
(dp2878
g27
I00
sg1328
I00
sg32
I00
sg94
I00
sg88
I00
ssg201
S'** Specific description of inarg record for: MG_JEN_Joneset::GJones()  version=15dec2005  defined=2006-04-13 11:08'
p2879
sg892
(dp2880
g928
I00
sg13
I00
sg2
I00
sg788
I00
ssg197
g2876
sg223
(lp2881
g49
ag788
ag2
ag785
ag795
ag786
ag1328
ag13
ag928
ag2846
ag2842
ag2801
ag2849
ag2803
ag2853
ag88
ag94
ag32
ag27
ag40
ag36
ag30
ag38
ag37
ag78
ag92
ag47
ag43
ag44
asg52
(dp2882
g27
g55
sg2
g898
sg2801
S'degree of freq polynomial'
p2883
sg30
g58
sg32
g59
sg13
g1316
sg36
g36
sg37
g63
sg38
g64
sg40
g65
sg2803
S'sub-tile size (None=entire tile)'
p2884
sg44
g68
sg47
g70
sg94
g95
sg786
g908
sg785
g908
sg78
g79
sg2842
S'degree of time polynomial'
p2885
sg2846
g2885
sg2849
g2883
sg2853
g2884
sg1328
g1414
sg928
g1315
sg788
g914
sg88
g89
sg43
g67
sg92
g93
sg795
g908
ssg203
S'MG_JEN_JonesetGJones'
p2886
ssg786
g1278
sg785
g1278
sg78
F1.0
sg2842
g2844
sg2846
I0
sg2849
g2851
sg2853
g2855
sg1328
I01
sg928
g2860
sg788
g2866
sg88
I01
sg43
Nsg92
Nsg795
g1278
sg94
I01
ssg2
g2755
sg795
Nsg2796
(dp2887
g2
S'@@polrep'
p2888
sg788
S'@@stations'
p2889
sg49
(dp2890
g199
S'MG_JEN_Joneset::KJones()'
p2891
sg51
g2796
sg100
(dp2892
g786
I01
sg795
I01
sg785
I01
sg2
I01
sg788
I01
ssg105
g1032
sg96
g97
sg109
S'MG_JEN_Joneset::KJones()  version=12dec2005  defined=2006-04-13 11:08'
p2893
sg205
S'KJones'
p2894
sg111
(dp2895
g786
(lp2896
g1037
aS'@@@Jsequence_KJones'
p2897
asg795
(lp2898
g1037
aS'@@@Jsequence_simul'
p2899
asg785
(lp2900
g1037
aS'@@@Jsequence'
p2901
asg2
(lp2902
g3
ag807
ag2888
asg788
(lp2903
(lp2904
I0
aI1
aI2
aI3
aI4
aa(lp2905
I0
aI1
aI2
aI3
aI4
aI5
aI6
aa(lp2906
I0
aI1
aI2
aI3
aI4
aI5
aI6
aI7
aI8
aI9
aI10
aI11
aI12
aI13
aa(lp2907
I0
aI1
aI2
aI3
aI4
aI5
aI6
aI7
aI8
aI9
aI10
aI11
aI12
aI13
aI14
aag859
ag2889
assg195
g2461
sg209
S'** Description of available inarg record(s) for: MG_JEN_Joneset::KJones()  version=12dec2005  defined=2006-04-13 11:08'
p2908
sg211
I00
sg212
S'2006-04-13 11:08'
p2909
sg103
g1051
sg98
S'MG_JEN_Joneset'
p2910
sg201
S'** Specific description of inarg record for: MG_JEN_Joneset::KJones()  version=12dec2005  defined=2006-04-13 11:08'
p2911
sg892
(dp2912
g2
I00
sg788
I00
ssg197
g2909
sg223
(lp2913
g49
ag788
ag2
ag785
ag795
ag786
asg52
(dp2914
g786
g908
sg795
g908
sg785
g908
sg2
g898
sg788
g914
ssg203
S'MG_JEN_JonesetKJones'
p2915
ssg786
g1037
sg795
g1037
sg785
g1037
ssg1275
(lp2916
sg2797
(dp2917
g27
I00
sg2
S'@@polrep'
p2918
sg30
g31
sg32
I00
sg36
Nsg13
S'@@parmtable'
p2919
sg94
I01
sg37
I10
sS'tdeg_Edl'
p2920
I0
sS'tdeg_Edm'
p2921
S'@tdeg_Edl'
p2922
sg38
g39
sg40
g41
sg43
Nsg44
g45
sg47
Nsg49
(dp2923
g199
S'MG_JEN_Joneset::EJones_WSRT()'
p2924
sg51
g2797
sg100
(dp2925
g38
I01
sg2
I01
sg78
I01
sg40
I01
sg788
I01
sg30
I01
sg43
I01
sg44
I01
sg928
I01
sg47
I01
sg92
I01
sg13
I01
sg786
I01
sg795
I01
sg37
I01
sg36
I01
sg785
I01
ssg105
g1425
sg96
g97
sg109
S'MG_JEN_Joneset::EJones_WSRT()  version=15dec2005  defined=2006-04-13 11:08'
p2926
sg205
S'EJones_WSRT'
p2927
sg111
(dp2928
g27
(lp2929
I01
aI00
aS'@@reset_funklet'
p2930
asg2
(lp2931
g3
ag807
ag2918
asg30
(lp2932
g31
aS'@@color'
p2933
asg32
(lp2934
I01
aI00
aS'@@save_all'
p2935
asg13
(lp2936
Nag1270
ag2919
asg36
(lp2937
NaS'@@unit'
p2938
asg37
(lp2939
I10
aS'@@size'
p2940
asg2920
(lp2941
I0
aI1
aI2
aI3
aS'@@tdeg_Edl'
p2942
asg2921
(lp2943
I0
aI1
aI2
aI3
ag2922
aS'@@tdeg_Edm'
p2944
asg38
(lp2945
g39
aS'@@style'
p2946
asg40
(lp2947
g41
aS'@@descr'
p2948
asg43
(lp2949
NaS'@@subtile_size'
p2950
asg44
(lp2951
g45
aS'@@condeq_corrs'
p2952
asg47
(lp2953
NaS'@@funklet_shape'
p2954
asg94
(lp2955
I01
aI00
aS'@@auto_save'
p2956
asg786
(lp2957
g1285
aS'@@@Jsequence_KJones'
p2958
asg785
(lp2959
g1285
aS'@@@Jsequence'
p2960
asg78
(lp2961
F1.0
aS'@@c00_default'
p2962
asg928
(lp2963
I00
aS'@@uvplane_effect'
p2964
asg788
(lp2965
(lp2966
I0
aI1
aI2
aI3
aI4
aa(lp2967
I0
aI1
aI2
aI3
aI4
aI5
aI6
aa(lp2968
I0
aI1
aI2
aI3
aI4
aI5
aI6
aI7
aI8
aI9
aI10
aI11
aI12
aI13
aa(lp2969
I0
aI1
aI2
aI3
aI4
aI5
aI6
aI7
aI8
aI9
aI10
aI11
aI12
aI13
aI14
aag859
aS'@@stations'
p2970
asg92
(lp2971
NaS'@@tfdeg'
p2972
asg88
(lp2973
I01
aI00
aS'@@use_previous'
p2974
asS'subtile_size_Edl'
p2975
(lp2976
NaI1
aI2
aI5
aI10
aI20
aI50
aI100
aI200
aI500
aS'@@subtile_size_Edl'
p2977
asS'subtile_size_Edm'
p2978
(lp2979
S'@subtile_size_Edl'
p2980
aNaI1
aI2
aI5
aI10
aI20
aI50
aI100
aI200
aI500
aS'@@subtile_size_Edm'
p2981
asg795
(lp2982
g1285
aS'@@@Jsequence_simul'
p2983
asS'fdeg_Edl'
p2984
(lp2985
I0
aI1
aI2
aI3
aS'@@fdeg_Edl'
p2986
asS'fdeg_Edm'
p2987
(lp2988
I0
aI1
aI2
aI3
aS'@fdeg_Edl'
p2989
aS'@@fdeg_Edm'
p2990
assg195
g2461
sg209
S'** Description of available inarg record(s) for: MG_JEN_Joneset::EJones_WSRT()  version=15dec2005  defined=2006-04-13 11:08'
p2991
sg211
I00
sg212
S'2006-04-13 11:08'
p2992
sg103
g1407
sg98
S'MG_JEN_Joneset'
p2993
sg107
(dp2994
g27
I00
sg32
I00
sg94
I00
sg88
I00
ssg201
S'** Specific description of inarg record for: MG_JEN_Joneset::EJones_WSRT()  version=15dec2005  defined=2006-04-13 11:08'
p2995
sg892
(dp2996
g928
I00
sg13
I00
sg2
I00
sg788
I00
ssg197
g2992
sg223
(lp2997
g49
ag788
ag2
ag785
ag795
ag786
ag13
ag928
ag2920
ag2921
ag2984
ag2987
ag2975
ag2978
ag88
ag94
ag32
ag27
ag40
ag36
ag30
ag38
ag37
ag78
ag92
ag47
ag43
ag44
asg52
(dp2998
g27
g55
sg2
g898
sg30
g58
sg32
g59
sg13
g1316
sg36
g36
sg37
g63
sg2920
S'degree of time polynomial'
p2999
sg2921
g2999
sg38
g64
sg40
g65
sg43
g67
sg44
g68
sg47
g70
sg94
g95
sg786
g908
sg785
g908
sg78
g79
sg928
g1315
sg788
g914
sg92
g93
sg88
g89
sg2975
S'sub-tile size (None=entire tile)'
p3000
sg2978
g3000
sg795
g908
sg2984
S'degree of freq polynomial'
p3001
sg2987
g3001
ssg203
S'MG_JEN_JonesetEJones_WSRT'
p3002
ssg786
g1285
sg785
g1285
sg78
F1.0
sg928
g2964
sg788
g2970
sg92
Nsg88
I01
sg2975
Nsg2978
g2980
sg795
g1285
sg2984
I0
sg2987
g2989
ssg785
Nssg2
S'@@polrep'
p3003
sg788
S'@@stations'
p3004
sg1509
I01
sg49
(dp3005
g51
g2320
sg52
(dp3006
g2
g898
sg788
g914
sg1509
g1512
sg1513
g1514
sg786
g908
sg795
g908
sg785
g908
ssg96
g97
sg98
S'MG_JEN_Cohset'
p3007
sg100
(dp3008
g786
I01
sg795
I01
sg785
I01
sg2
I01
sg788
I01
ssg103
g1517
sg892
(dp3009
g2
I00
sg788
I00
ssg105
g1519
sg107
(dp3010
g1509
I00
ssg109
S'MG_JEN_Cohset::predict_lsm()  version=20mar2006  defined=2006-04-13 11:08'
p3011
sg111
(dp3012
g2
(lp3013
g3
ag807
ag3003
asg788
(lp3014
(lp3015
I0
aI1
aI2
aI3
aI4
aa(lp3016
I0
aI1
aI2
aI3
aI4
aI5
aI6
aa(lp3017
I0
aI1
aI2
aI3
aI4
aI5
aI6
aI7
aI8
aI9
aI10
aI11
aI12
aI13
aa(lp3018
I0
aI1
aI2
aI3
aI4
aI5
aI6
aI7
aI8
aI9
aI10
aI11
aI12
aI13
aI14
aag859
ag3004
asg1509
(lp3019
I01
aI00
aS'@@visu'
p3020
asg1513
(lp3021
I1
aI2
aI3
aI5
aI10
aI20
aI100
aI1000
aI10000
aS'@@nr_lsm_sources'
p3022
asg786
(lp3023
NaS'@@@Jsequence_KJones'
p3024
asg795
(lp3025
NaS'@@@Jsequence_simul'
p3026
asg785
(lp3027
NaS'@@@Jsequence'
p3028
assg195
S'solve'
p3029
sg197
S'2006-04-13 11:08'
p3030
sg199
g1540
sg201
S'** Specific description of inarg record for: MG_JEN_Cohset::predict_lsm()  version=20mar2006  defined=2006-04-13 11:08'
p3031
sg203
S'MG_JEN_Cohsetpredict_lsm'
p3032
sg205
S'predict_lsm'
p3033
sg209
S'** Description of available inarg record(s) for: MG_JEN_Cohset::predict_lsm()  version=20mar2006  defined=2006-04-13 11:08'
p3034
sg211
I00
sg212
g3030
sg213
(dp3035
g215
S'** JEN_inarg.attach(): attached: [solve_uvp]./MG_JEN_Cohset.Jones()'
p3036
sg217
S'** JEN_inarg.attach(): attached: [solve_imp]./MG_JEN_Cohset.Jones()'
p3037
ssg223
(lp3038
g49
ag1513
ag1509
ag788
ag2
ag785
ag795
ag786
ag2396
aS'[solve_uvp]./MG_JEN_Cohset.Jones()'
p3039
assg3039
(dp3040
g786
Nsg2
S'@@polrep'
p3041
sg788
S'@@stations'
p3042
sg1275
(lp3043
g1196
asS'[solve_uvp]./MG_JEN_Joneset.KJones()'
p3044
(dp3045
g2
S'@@polrep'
p3046
sg788
S'@@stations'
p3047
sg49
(dp3048
g199
S'MG_JEN_Joneset::KJones()'
p3049
sg51
g3044
sg100
(dp3050
g786
I01
sg795
I01
sg785
I01
sg2
I01
sg788
I01
ssg105
g1032
sg96
g97
sg109
S'MG_JEN_Joneset::KJones()  version=12dec2005  defined=2006-04-13 11:08'
p3051
sg205
S'KJones'
p3052
sg111
(dp3053
g786
(lp3054
g1037
aS'@@@Jsequence_KJones'
p3055
asg795
(lp3056
g1037
aS'@@@Jsequence_simul'
p3057
asg785
(lp3058
g1037
aS'@@@Jsequence'
p3059
asg2
(lp3060
g3
ag807
ag3046
asg788
(lp3061
(lp3062
I0
aI1
aI2
aI3
aI4
aa(lp3063
I0
aI1
aI2
aI3
aI4
aI5
aI6
aa(lp3064
I0
aI1
aI2
aI3
aI4
aI5
aI6
aI7
aI8
aI9
aI10
aI11
aI12
aI13
aa(lp3065
I0
aI1
aI2
aI3
aI4
aI5
aI6
aI7
aI8
aI9
aI10
aI11
aI12
aI13
aI14
aag859
ag3047
assg195
S'solve_uvp'
p3066
sg209
S'** Description of available inarg record(s) for: MG_JEN_Joneset::KJones()  version=12dec2005  defined=2006-04-13 11:08'
p3067
sg211
I00
sg212
S'2006-04-13 11:08'
p3068
sg103
g1051
sg98
S'MG_JEN_Joneset'
p3069
sg201
S'** Specific description of inarg record for: MG_JEN_Joneset::KJones()  version=12dec2005  defined=2006-04-13 11:08'
p3070
sg892
(dp3071
g2
I00
sg788
I00
ssg197
g3068
sg223
(lp3072
g49
ag788
ag2
ag785
ag795
ag786
asg52
(dp3073
g786
g908
sg795
g908
sg785
g908
sg2
g898
sg788
g914
ssg203
S'MG_JEN_JonesetKJones'
p3074
ssg786
g1037
sg795
g1037
sg785
g1037
ssg928
S'@@uvplane_effect'
p3075
sg13
S'@@parmtable'
p3076
sS'[solve_uvp]./MG_JEN_Joneset.BJones()'
p3077
(dp3078
g27
I00
sg2
S'@@polrep'
p3079
sg30
g31
sg2571
g2572
sg32
I00
sg2573
Nsg36
Nsg37
I10
sg38
g39
sg40
g41
sg2574
I5
sg44
g45
sg47
Nsg49
(dp3080
g199
S'MG_JEN_Joneset::BJones()'
p3081
sg51
g3077
sg100
(dp3082
g38
I01
sg2
I01
sg78
I01
sg40
I01
sg788
I01
sg30
I01
sg43
I01
sg44
I01
sg928
I01
sg47
I01
sg92
I01
sg13
I01
sg786
I01
sg795
I01
sg37
I01
sg36
I01
sg785
I01
ssg105
g940
sg96
g97
sg109
S'MG_JEN_Joneset::BJones()  version=16dec2005  defined=2006-04-13 11:08'
p3083
sg205
S'BJones'
p3084
sg111
(dp3085
g27
(lp3086
I01
aI00
aS'@@reset_funklet'
p3087
asg2
(lp3088
g3
ag807
ag3079
asg30
(lp3089
g31
aS'@@color'
p3090
asg2571
(lp3091
g2572
aNaI1
aI2
aI5
aI10
aI20
aI50
aI100
aI200
aI500
aS'@@subtile_size_Bimag'
p3092
asg32
(lp3093
I01
aI00
aS'@@save_all'
p3094
asg2573
(lp3095
NaI1
aI2
aI5
aI10
aI20
aI50
aI100
aI200
aI500
aS'@@subtile_size_Breal'
p3096
asg36
(lp3097
NaS'@@unit'
p3098
asg37
(lp3099
I10
aS'@@size'
p3100
asg38
(lp3101
g39
aS'@@style'
p3102
asg40
(lp3103
g41
aS'@@descr'
p3104
asg2574
(lp3105
I3
aI4
aI5
aI6
aS'@@fdeg_Breal'
p3106
asg44
(lp3107
g45
aS'@@condeq_corrs'
p3108
asg47
(lp3109
NaS'@@funklet_shape'
p3110
asg94
(lp3111
I01
aI00
aS'@@auto_save'
p3112
asg786
(lp3113
g976
aS'@@@Jsequence_KJones'
p3114
asg2610
(lp3115
I0
aI1
aI2
aI3
ag2612
aS'@@tdeg_Bimag'
p3116
asg785
(lp3117
g976
aS'@@@Jsequence'
p3118
asg78
(lp3119
F1.0
aS'@@c00_default'
p3120
asg2618
(lp3121
I3
aI4
aI5
aI6
ag2620
aS'@@fdeg_Bimag'
p3122
asg928
(lp3123
I00
aS'@@uvplane_effect'
p3124
asg788
(lp3125
(lp3126
I0
aI1
aI2
aI3
aI4
aa(lp3127
I0
aI1
aI2
aI3
aI4
aI5
aI6
aa(lp3128
I0
aI1
aI2
aI3
aI4
aI5
aI6
aI7
aI8
aI9
aI10
aI11
aI12
aI13
aa(lp3129
I0
aI1
aI2
aI3
aI4
aI5
aI6
aI7
aI8
aI9
aI10
aI11
aI12
aI13
aI14
aag859
aS'@@stations'
p3130
asg92
(lp3131
NaS'@@tfdeg'
p3132
asg2632
(lp3133
I0
aI1
aI2
aI3
aS'@@tdeg_Breal'
p3134
asg88
(lp3135
I01
aI00
aS'@@use_previous'
p3136
asg43
(lp3137
NaS'@@subtile_size'
p3138
asg13
(lp3139
Nag1270
aS'@@parmtable'
p3140
asg795
(lp3141
g976
aS'@@@Jsequence_simul'
p3142
assg195
g3066
sg209
S'** Description of available inarg record(s) for: MG_JEN_Joneset::BJones()  version=16dec2005  defined=2006-04-13 11:08'
p3143
sg211
I00
sg212
S'2006-04-13 11:08'
p3144
sg103
g1017
sg98
S'MG_JEN_Joneset'
p3145
sg107
(dp3146
g27
I00
sg32
I00
sg94
I00
sg88
I00
ssg201
S'** Specific description of inarg record for: MG_JEN_Joneset::BJones()  version=16dec2005  defined=2006-04-13 11:08'
p3147
sg892
(dp3148
g928
I00
sg13
I00
sg2
I00
sg788
I00
ssg197
g3144
sg223
(lp3149
g49
ag788
ag2
ag785
ag795
ag786
ag13
ag928
ag2632
ag2610
ag2574
ag2618
ag2573
ag2571
ag88
ag94
ag32
ag27
ag40
ag36
ag30
ag38
ag37
ag78
ag92
ag47
ag43
ag44
asg52
(dp3150
g27
g55
sg2
g898
sg30
g58
sg2571
g2651
sg32
g59
sg2573
g2651
sg36
g36
sg37
g63
sg38
g64
sg40
g65
sg2574
g2652
sg44
g68
sg47
g70
sg94
g95
sg786
g908
sg2610
g2653
sg785
g908
sg78
g79
sg2618
g2652
sg928
g1315
sg788
g914
sg92
g93
sg2632
g2653
sg88
g89
sg43
g67
sg13
g1316
sg795
g908
ssg203
S'MG_JEN_JonesetBJones'
p3151
ssg786
g976
sg2610
g2612
sg785
g976
sg78
F1.0
sg2618
g2620
sg928
g3124
sg788
g3130
sg92
Nsg2632
I0
sg88
I01
sg43
Nsg13
g3140
sg795
g976
sg94
I01
ssg49
(dp3152
g199
g1255
sg51
g3039
sg100
(dp3153
g2
I01
sg788
I01
sg928
I01
sg13
I01
sg786
I01
sg795
I01
sg785
I01
ssg203
S'MG_JEN_CohsetJones'
p3154
sg96
g97
sg105
g1258
sg109
S'MG_JEN_Cohset::Jones()  version=25dec2005  defined=2006-04-13 11:08'
p3155
sg205
S'Jones'
p3156
sg111
(dp3157
g2
(lp3158
g3
ag807
ag3041
asg788
(lp3159
(lp3160
I0
aI1
aI2
aI3
aI4
aa(lp3161
I0
aI1
aI2
aI3
aI4
aI5
aI6
aa(lp3162
I0
aI1
aI2
aI3
aI4
aI5
aI6
aI7
aI8
aI9
aI10
aI11
aI12
aI13
aa(lp3163
I0
aI1
aI2
aI3
aI4
aI5
aI6
aI7
aI8
aI9
aI10
aI11
aI12
aI13
aI14
aag859
ag3042
asg928
(lp3164
I00
ag3075
asg13
(lp3165
Nag1270
ag3076
asg786
(lp3166
NaS'@@@Jsequence_KJones'
p3167
asg795
(lp3168
NaS'@@@Jsequence_simul'
p3169
asg1275
(lp3170
(lp3171
g1278
aa(lp3172
g976
aa(lp3173
g1104
aa(lp3174
g1037
aa(lp3175
g1196
aa(lp3176
g1278
ag1196
aa(lp3177
g1285
aa(lp3178
g1278
ag1285
aa(lp3179
g837
aa(lp3180
aS'@@Jsequence'
p3181
asg785
(lp3182
NaS'@@@Jsequence'
p3183
assg195
g3066
sg209
S'** Description of available inarg record(s) for: MG_JEN_Cohset::Jones()  version=25dec2005  defined=2006-04-13 11:08'
p3184
sg211
I00
sg212
S'2006-04-13 11:08'
p3185
sg103
g1294
sg98
S'MG_JEN_Cohset'
p3186
sg201
S'** Specific description of inarg record for: MG_JEN_Cohset::Jones()  version=25dec2005  defined=2006-04-13 11:08'
p3187
sg213
(dp3188
g215
S'** JEN_inarg.attach(): attached: [solve_uvp]./MG_JEN_Joneset.FJones()'
p3189
sg217
S'** JEN_inarg.attach(): attached: [solve_uvp]./MG_JEN_Joneset.GJones()'
p3190
sg219
S'** JEN_inarg.attach(): attached: [solve_uvp]./MG_JEN_Joneset.KJones()'
p3191
sg221
S'** JEN_inarg.attach(): attached: [solve_uvp]./MG_JEN_Joneset.BJones()'
p3192
sg1302
S'** JEN_inarg.attach(): attached: [solve_uvp]./MG_JEN_Joneset.EJones_WSRT()'
p3193
sg1304
S'** JEN_inarg.attach(): attached: [solve_uvp]./MG_JEN_Joneset.DJones_WSRT()'
p3194
sg1306
S"  2: ....[solve_uvp]./MG_JEN_Cohset.Jones() (qual=solve_uvp): .modify(Jsequence):   []  ->  ['DJones_WSRT']"
p3195
sg1308
S'** JEN_inarg.attach(): attached: [solve_uvp]./MG_JEN_Joneset.JJones()'
p3196
ssg197
g3185
sg892
(dp3197
g928
I00
sg13
I00
sg2
I00
sg788
I00
ssg223
(lp3198
g49
ag788
ag2
ag785
ag795
ag786
ag13
ag928
ag1275
aS'[solve_uvp]./MG_JEN_Joneset.GJones()'
p3199
aS'[solve_uvp]./MG_JEN_Joneset.FJones()'
p3200
ag3077
ag3044
aS'[solve_uvp]./MG_JEN_Joneset.DJones_WSRT()'
p3201
aS'[solve_uvp]./MG_JEN_Joneset.EJones_WSRT()'
p3202
aS'[solve_uvp]./MG_JEN_Joneset.JJones()'
p3203
asg52
(dp3204
g2
g898
sg788
g914
sg928
g1315
sg13
g1316
sg786
g908
sg795
g908
sg1275
g1317
sg785
g908
sssg3199
(dp3205
g27
I00
sg2
S'@@polrep'
p3206
sg2801
I0
sg30
g31
sg32
I00
sg13
S'@@parmtable'
p3207
sg36
Nsg37
I10
sg38
g39
sg40
g41
sg2803
I1
sg44
g45
sg47
Nsg49
(dp3208
g199
S'MG_JEN_Joneset::GJones()'
p3209
sg51
g3199
sg100
(dp3210
g37
I01
sg38
I01
sg2
I01
sg78
I01
sg40
I01
sg788
I01
sg30
I01
sg43
I01
sg44
I01
sg928
I01
sg47
I01
sg92
I01
sg13
I01
sg786
I01
sg795
I01
sg1328
I01
sg36
I01
sg785
I01
ssg105
g1329
sg96
g97
sg109
S'MG_JEN_Joneset::GJones()  version=15dec2005  defined=2006-04-13 11:08'
p3211
sg205
S'GJones'
p3212
sg111
(dp3213
g27
(lp3214
I01
aI00
aS'@@reset_funklet'
p3215
asg2
(lp3216
g3
ag807
ag3206
asg2801
(lp3217
I0
aI1
aI2
aI3
aS'@@fdeg_Ggain'
p3218
asg30
(lp3219
g31
aS'@@color'
p3220
asg32
(lp3221
I01
aI00
aS'@@save_all'
p3222
asg13
(lp3223
Nag1270
ag3207
asg36
(lp3224
NaS'@@unit'
p3225
asg37
(lp3226
I10
aS'@@size'
p3227
asg38
(lp3228
g39
aS'@@style'
p3229
asg40
(lp3230
g41
aS'@@descr'
p3231
asg2803
(lp3232
NaI1
aI2
aI5
aI10
aI20
aI50
aI100
aI200
aI500
aS'@@subtile_size_Ggain'
p3233
asg44
(lp3234
g45
aS'@@condeq_corrs'
p3235
asg47
(lp3236
NaS'@@funklet_shape'
p3237
asg94
(lp3238
I01
aI00
aS'@@auto_save'
p3239
asg786
(lp3240
g1278
aS'@@@Jsequence_KJones'
p3241
asg785
(lp3242
g1278
aS'@@@Jsequence'
p3243
asg78
(lp3244
F1.0
aS'@@c00_default'
p3245
asg2842
(lp3246
I0
aI1
aI2
aI3
ag2844
aS'@@tdeg_Gphase'
p3247
asg2846
(lp3248
I0
aI1
aI2
aI3
aS'@@tdeg_Ggain'
p3249
asg2849
(lp3250
I0
aI1
aI2
aI3
ag2851
aS'@@fdeg_Gphase'
p3251
asg2853
(lp3252
g2855
aNaI1
aI2
aI5
aI10
aI20
aI50
aI100
aI200
aI500
aS'@@subtile_size_Gphase'
p3253
asg1328
(lp3254
I01
aI00
aS'@@Gpolar'
p3255
asg928
(lp3256
I00
aS'@@uvplane_effect'
p3257
asg788
(lp3258
(lp3259
I0
aI1
aI2
aI3
aI4
aa(lp3260
I0
aI1
aI2
aI3
aI4
aI5
aI6
aa(lp3261
I0
aI1
aI2
aI3
aI4
aI5
aI6
aI7
aI8
aI9
aI10
aI11
aI12
aI13
aa(lp3262
I0
aI1
aI2
aI3
aI4
aI5
aI6
aI7
aI8
aI9
aI10
aI11
aI12
aI13
aI14
aag859
aS'@@stations'
p3263
asg88
(lp3264
I01
aI00
aS'@@use_previous'
p3265
asg43
(lp3266
NaS'@@subtile_size'
p3267
asg92
(lp3268
NaS'@@tfdeg'
p3269
asg795
(lp3270
g1278
aS'@@@Jsequence_simul'
p3271
assg195
g3066
sg209
S'** Description of available inarg record(s) for: MG_JEN_Joneset::GJones()  version=15dec2005  defined=2006-04-13 11:08'
p3272
sg211
I00
sg212
S'2006-04-13 11:08'
p3273
sg103
g1407
sg98
S'MG_JEN_Joneset'
p3274
sg107
(dp3275
g27
I00
sg1328
I00
sg32
I00
sg94
I00
sg88
I00
ssg201
S'** Specific description of inarg record for: MG_JEN_Joneset::GJones()  version=15dec2005  defined=2006-04-13 11:08'
p3276
sg892
(dp3277
g928
I00
sg13
I00
sg2
I00
sg788
I00
ssg197
g3273
sg223
(lp3278
g49
ag788
ag2
ag785
ag795
ag786
ag1328
ag13
ag928
ag2846
ag2842
ag2801
ag2849
ag2803
ag2853
ag88
ag94
ag32
ag27
ag40
ag36
ag30
ag38
ag37
ag78
ag92
ag47
ag43
ag44
asg52
(dp3279
g27
g55
sg2
g898
sg2801
g2883
sg30
g58
sg32
g59
sg13
g1316
sg36
g36
sg37
g63
sg38
g64
sg40
g65
sg2803
g2884
sg44
g68
sg47
g70
sg94
g95
sg786
g908
sg785
g908
sg78
g79
sg2842
g2885
sg2846
g2885
sg2849
g2883
sg2853
g2884
sg1328
g1414
sg928
g1315
sg788
g914
sg88
g89
sg43
g67
sg92
g93
sg795
g908
ssg203
S'MG_JEN_JonesetGJones'
p3280
ssg786
g1278
sg785
g1278
sg78
F1.0
sg2842
g2844
sg2846
I0
sg2849
g2851
sg2853
g2855
sg1328
I01
sg928
g3257
sg788
g3263
sg88
I01
sg43
Nsg92
Nsg795
g1278
sg94
I01
ssg3203
(dp3281
g27
I00
sg2
S'@@polrep'
p3282
sg2477
I0
sg30
g31
sg32
I00
sg771
Nsg13
S'@@parmtable'
p3283
sg2479
Nsg36
Nsg37
I10
sg38
g39
sg2480
g2481
sg40
g41
sg44
g45
sg47
Nsg49
(dp3284
g199
S'MG_JEN_Joneset::JJones()'
p3285
sg51
g3203
sg100
(dp3286
g38
I01
sg2
I01
sg78
I01
sg40
I01
sg788
I01
sg30
I01
sg43
I01
sg44
I01
sg928
I01
sg47
I01
sg92
I01
sg13
I01
sg786
I01
sg795
I01
sg37
I01
sg36
I01
sg785
I01
ssg105
g796
sg96
g97
sg109
S'MG_JEN_Joneset::JJones()  version=14feb2006  defined=2006-04-13 11:08'
p3287
sg205
S'JJones'
p3288
sg111
(dp3289
g27
(lp3290
I01
aI00
aS'@@reset_funklet'
p3291
asg2
(lp3292
g3
ag807
ag3282
asg2477
(lp3293
I0
aI1
aI2
aI3
aS'@@tdeg_Jreal'
p3294
asg30
(lp3295
g31
aS'@@color'
p3296
asg32
(lp3297
I01
aI00
aS'@@save_all'
p3298
asg771
(lp3299
Na(lp3300
I14
aa(lp3301
I1
aag819
aS'@@all4_always'
p3302
asg13
(lp3303
Nag1270
ag3283
asg2479
(lp3304
NaI1
aI2
aI5
aI10
aI20
aI50
aI100
aI200
aI500
aS'@@subtile_size_Jreal'
p3305
asg36
(lp3306
NaS'@@unit'
p3307
asg37
(lp3308
I10
aS'@@size'
p3309
asg38
(lp3310
g39
aS'@@style'
p3311
asg2480
(lp3312
I0
aI1
aI2
aI3
ag2481
aS'@@tdeg_Jimag'
p3313
asg40
(lp3314
g41
aS'@@descr'
p3315
asg44
(lp3316
g45
aS'@@condeq_corrs'
p3317
asg47
(lp3318
NaS'@@funklet_shape'
p3319
asg94
(lp3320
I01
aI00
aS'@@auto_save'
p3321
asg786
(lp3322
g837
aS'@@@Jsequence_KJones'
p3323
asg2522
(lp3324
I0
aI1
aI2
aI3
aS'@@fdeg_Jreal'
p3325
asg78
(lp3326
F1.0
aS'@@c00_default'
p3327
asg928
(lp3328
I00
aS'@@uvplane_effect'
p3329
asg2529
(lp3330
I0
aI1
aI2
aI3
ag2531
aS'@@fdeg_Jimag'
p3331
asg2533
(lp3332
g2535
aNaI1
aI2
aI5
aI10
aI20
aI50
aI100
aI200
aI500
aS'@@subtile_size_Jimag'
p3333
asg788
(lp3334
(lp3335
I0
aI1
aI2
aI3
aI4
aa(lp3336
I0
aI1
aI2
aI3
aI4
aI5
aI6
aa(lp3337
I0
aI1
aI2
aI3
aI4
aI5
aI6
aI7
aI8
aI9
aI10
aI11
aI12
aI13
aa(lp3338
I0
aI1
aI2
aI3
aI4
aI5
aI6
aI7
aI8
aI9
aI10
aI11
aI12
aI13
aI14
aag859
aS'@@stations'
p3339
asg763
(lp3340
I01
aI00
aS'@@diagonal_only'
p3341
asg88
(lp3342
I01
aI00
aS'@@use_previous'
p3343
asg43
(lp3344
NaS'@@subtile_size'
p3345
asg92
(lp3346
NaS'@@tfdeg'
p3347
asg795
(lp3348
g837
aS'@@@Jsequence_simul'
p3349
asg785
(lp3350
g837
aS'@@@Jsequence'
p3351
assg195
g3066
sg209
S'** Description of available inarg record(s) for: MG_JEN_Joneset::JJones()  version=14feb2006  defined=2006-04-13 11:08'
p3352
sg211
I00
sg212
S'2006-04-13 11:08'
p3353
sg103
g888
sg98
S'MG_JEN_Joneset'
p3354
sg107
(dp3355
g27
I00
sg763
I00
sg32
I00
sg94
I00
sg88
I00
ssg201
S'** Specific description of inarg record for: MG_JEN_Joneset::JJones()  version=14feb2006  defined=2006-04-13 11:08'
p3356
sg892
(dp3357
g928
I00
sg13
I00
sg2
I00
sg788
I00
ssg197
g3353
sg223
(lp3358
g49
ag788
ag2
ag785
ag795
ag786
ag763
ag771
ag13
ag928
ag2477
ag2480
ag2522
ag2529
ag2479
ag2533
ag88
ag94
ag32
ag27
ag40
ag36
ag30
ag38
ag37
ag78
ag92
ag47
ag43
ag44
asg52
(dp3359
g27
g55
sg2
g898
sg2477
g2563
sg30
g58
sg32
g59
sg771
g902
sg13
g1316
sg2479
g2564
sg36
g36
sg37
g63
sg38
g64
sg2480
g2563
sg40
g65
sg44
g68
sg47
g70
sg94
g95
sg786
g908
sg2522
g2565
sg78
g79
sg928
g1315
sg2529
g2565
sg2533
g2564
sg788
g914
sg763
g897
sg88
g89
sg43
g67
sg92
g93
sg795
g908
sg785
g908
ssg203
S'MG_JEN_JonesetJJones'
p3360
ssg786
g837
sg2522
I0
sg78
F1.0
sg928
g3329
sg2529
g2531
sg2533
g2535
sg788
g3339
sg763
I00
sg88
I01
sg43
Nsg92
Nsg795
g837
sg785
g837
sg94
I01
ssg3201
(dp3361
g27
I00
sg2
S'@@polrep'
p3362
sg30
g31
sg2658
g2659
sg1156
I01
sg32
I00
sg36
Nsg13
S'@@parmtable'
p3363
sg2661
Nsg94
I01
sg37
I10
sg38
g39
sg40
g41
sg44
g45
sg47
Nsg49
(dp3364
g199
S'MG_JEN_Joneset::DJones_WSRT()'
p3365
sg51
g3201
sg100
(dp3366
g38
I01
sg2
I01
sg78
I01
sg40
I01
sg788
I01
sg30
I01
sg43
I01
sg44
I01
sg928
I01
sg47
I01
sg92
I01
sg13
I01
sg786
I01
sg795
I01
sg37
I01
sg36
I01
sg785
I01
ssg105
g1163
sg96
g97
sg109
S'MG_JEN_Joneset::DJones_WSRT()  version=16dec2005  defined=2006-04-13 11:08'
p3367
sg205
S'DJones_WSRT'
p3368
sg111
(dp3369
g27
(lp3370
I01
aI00
aS'@@reset_funklet'
p3371
asg2
(lp3372
g3
ag807
ag3362
asg30
(lp3373
g31
aS'@@color'
p3374
asg2658
(lp3375
I0
aI1
aI2
aI3
ag2659
aS'@@fdeg_Dell'
p3376
asg1156
(lp3377
I01
aI00
aS'@@coupled_XY_Dell'
p3378
asg32
(lp3379
I01
aI00
aS'@@save_all'
p3380
asg13
(lp3381
Nag1270
ag3363
asg2661
(lp3382
NaI1
aI2
aI5
aI10
aI20
aI50
aI100
aI200
aI500
aS'@@subtile_size_Dang'
p3383
asg36
(lp3384
NaS'@@unit'
p3385
asg37
(lp3386
I10
aS'@@size'
p3387
asg38
(lp3388
g39
aS'@@style'
p3389
asg40
(lp3390
g41
aS'@@descr'
p3391
asg44
(lp3392
g45
aS'@@condeq_corrs'
p3393
asg47
(lp3394
NaS'@@funklet_shape'
p3395
asg94
(lp3396
I01
aI00
aS'@@auto_save'
p3397
asg786
(lp3398
g1196
aS'@@@Jsequence_KJones'
p3399
asg2698
(lp3400
g2700
aNaI1
aI2
aI5
aI10
aI20
aI50
aI100
aI200
aI500
aS'@@subtile_size_Dell'
p3401
asg785
(lp3402
g1196
aS'@@@Jsequence'
p3403
asg2704
(lp3404
I0
aI1
aI2
aI3
aS'@@fdeg_Dang'
p3405
asg78
(lp3406
F1.0
aS'@@c00_default'
p3407
asg928
(lp3408
I00
aS'@@uvplane_effect'
p3409
asg2711
(lp3410
I0
aI1
aI2
aI3
ag2713
aS'@@tdeg_Dell'
p3411
asg1209
(lp3412
I01
aI00
aS'@@coupled_XY_Dang'
p3413
asg2717
(lp3414
I0
aI1
aI2
aI3
aS'@@tdeg_Dang'
p3415
asg788
(lp3416
(lp3417
I0
aI1
aI2
aI3
aI4
aa(lp3418
I0
aI1
aI2
aI3
aI4
aI5
aI6
aa(lp3419
I0
aI1
aI2
aI3
aI4
aI5
aI6
aI7
aI8
aI9
aI10
aI11
aI12
aI13
aa(lp3420
I0
aI1
aI2
aI3
aI4
aI5
aI6
aI7
aI8
aI9
aI10
aI11
aI12
aI13
aI14
aag859
aS'@@stations'
p3421
asg88
(lp3422
I01
aI00
aS'@@use_previous'
p3423
asg43
(lp3424
NaS'@@subtile_size'
p3425
asg92
(lp3426
NaS'@@tfdeg'
p3427
asg795
(lp3428
g1196
aS'@@@Jsequence_simul'
p3429
assg195
g3066
sg209
S'** Description of available inarg record(s) for: MG_JEN_Joneset::DJones_WSRT()  version=16dec2005  defined=2006-04-13 11:08'
p3430
sg211
I00
sg212
S'2006-04-13 11:08'
p3431
sg103
g1017
sg98
S'MG_JEN_Joneset'
p3432
sg107
(dp3433
g27
I00
sg1156
I00
sg32
I00
sg1209
I00
sg88
I00
sg94
I00
ssg201
S'** Specific description of inarg record for: MG_JEN_Joneset::DJones_WSRT()  version=16dec2005  defined=2006-04-13 11:08'
p3434
sg892
(dp3435
g928
I00
sg13
I00
sg2
I00
sg788
I00
ssg197
g3431
sg223
(lp3436
g49
ag788
ag2
ag785
ag795
ag786
ag1209
ag1156
ag13
ag928
ag2717
ag2711
ag2704
ag2658
ag2661
ag2698
ag88
ag94
ag32
ag27
ag40
ag36
ag30
ag38
ag37
ag78
ag92
ag47
ag43
ag44
asg52
(dp3437
g27
g55
sg2
g898
sg30
g58
sg2658
g2742
sg1156
g1251
sg32
g59
sg13
g1316
sg2661
g2743
sg36
g36
sg37
g63
sg38
g64
sg40
g65
sg44
g68
sg47
g70
sg94
g95
sg786
g908
sg2698
g2743
sg785
g908
sg2704
g2742
sg78
g79
sg928
g1315
sg2711
g2744
sg1209
g1252
sg2717
g2744
sg788
g914
sg88
g89
sg43
g67
sg92
g93
sg795
g908
ssg203
S'MG_JEN_JonesetDJones_WSRT'
p3438
ssg786
g1196
sg2698
g2700
sg785
g1196
sg2704
I0
sg78
F1.0
sg928
g3409
sg2711
g2713
sg1209
I01
sg2717
I0
sg788
g3421
sg88
I01
sg43
Nsg92
Nsg795
g1196
ssg795
Nsg785
Nsg3202
(dp3439
g27
I00
sg2
S'@@polrep'
p3440
sg30
g31
sg32
I00
sg36
Nsg13
S'@@parmtable'
p3441
sg94
I01
sg37
I10
sg2920
I0
sg2921
g2922
sg38
g39
sg40
g41
sg43
Nsg44
g45
sg47
Nsg49
(dp3442
g199
S'MG_JEN_Joneset::EJones_WSRT()'
p3443
sg51
g3202
sg100
(dp3444
g38
I01
sg2
I01
sg78
I01
sg40
I01
sg788
I01
sg30
I01
sg43
I01
sg44
I01
sg928
I01
sg47
I01
sg92
I01
sg13
I01
sg786
I01
sg795
I01
sg37
I01
sg36
I01
sg785
I01
ssg105
g1425
sg96
g97
sg109
S'MG_JEN_Joneset::EJones_WSRT()  version=15dec2005  defined=2006-04-13 11:08'
p3445
sg205
S'EJones_WSRT'
p3446
sg111
(dp3447
g27
(lp3448
I01
aI00
aS'@@reset_funklet'
p3449
asg2
(lp3450
g3
ag807
ag3440
asg30
(lp3451
g31
aS'@@color'
p3452
asg32
(lp3453
I01
aI00
aS'@@save_all'
p3454
asg13
(lp3455
Nag1270
ag3441
asg36
(lp3456
NaS'@@unit'
p3457
asg37
(lp3458
I10
aS'@@size'
p3459
asg2920
(lp3460
I0
aI1
aI2
aI3
aS'@@tdeg_Edl'
p3461
asg2921
(lp3462
I0
aI1
aI2
aI3
ag2922
aS'@@tdeg_Edm'
p3463
asg38
(lp3464
g39
aS'@@style'
p3465
asg40
(lp3466
g41
aS'@@descr'
p3467
asg43
(lp3468
NaS'@@subtile_size'
p3469
asg44
(lp3470
g45
aS'@@condeq_corrs'
p3471
asg47
(lp3472
NaS'@@funklet_shape'
p3473
asg94
(lp3474
I01
aI00
aS'@@auto_save'
p3475
asg786
(lp3476
g1285
aS'@@@Jsequence_KJones'
p3477
asg785
(lp3478
g1285
aS'@@@Jsequence'
p3479
asg78
(lp3480
F1.0
aS'@@c00_default'
p3481
asg928
(lp3482
I00
aS'@@uvplane_effect'
p3483
asg788
(lp3484
(lp3485
I0
aI1
aI2
aI3
aI4
aa(lp3486
I0
aI1
aI2
aI3
aI4
aI5
aI6
aa(lp3487
I0
aI1
aI2
aI3
aI4
aI5
aI6
aI7
aI8
aI9
aI10
aI11
aI12
aI13
aa(lp3488
I0
aI1
aI2
aI3
aI4
aI5
aI6
aI7
aI8
aI9
aI10
aI11
aI12
aI13
aI14
aag859
aS'@@stations'
p3489
asg92
(lp3490
NaS'@@tfdeg'
p3491
asg88
(lp3492
I01
aI00
aS'@@use_previous'
p3493
asg2975
(lp3494
NaI1
aI2
aI5
aI10
aI20
aI50
aI100
aI200
aI500
aS'@@subtile_size_Edl'
p3495
asg2978
(lp3496
g2980
aNaI1
aI2
aI5
aI10
aI20
aI50
aI100
aI200
aI500
aS'@@subtile_size_Edm'
p3497
asg795
(lp3498
g1285
aS'@@@Jsequence_simul'
p3499
asg2984
(lp3500
I0
aI1
aI2
aI3
aS'@@fdeg_Edl'
p3501
asg2987
(lp3502
I0
aI1
aI2
aI3
ag2989
aS'@@fdeg_Edm'
p3503
assg195
g3066
sg209
S'** Description of available inarg record(s) for: MG_JEN_Joneset::EJones_WSRT()  version=15dec2005  defined=2006-04-13 11:08'
p3504
sg211
I00
sg212
S'2006-04-13 11:08'
p3505
sg103
g1407
sg98
S'MG_JEN_Joneset'
p3506
sg107
(dp3507
g27
I00
sg32
I00
sg94
I00
sg88
I00
ssg201
S'** Specific description of inarg record for: MG_JEN_Joneset::EJones_WSRT()  version=15dec2005  defined=2006-04-13 11:08'
p3508
sg892
(dp3509
g928
I00
sg13
I00
sg2
I00
sg788
I00
ssg197
g3505
sg223
(lp3510
g49
ag788
ag2
ag785
ag795
ag786
ag13
ag928
ag2920
ag2921
ag2984
ag2987
ag2975
ag2978
ag88
ag94
ag32
ag27
ag40
ag36
ag30
ag38
ag37
ag78
ag92
ag47
ag43
ag44
asg52
(dp3511
g27
g55
sg2
g898
sg30
g58
sg32
g59
sg13
g1316
sg36
g36
sg37
g63
sg2920
g2999
sg2921
g2999
sg38
g64
sg40
g65
sg43
g67
sg44
g68
sg47
g70
sg94
g95
sg786
g908
sg785
g908
sg78
g79
sg928
g1315
sg788
g914
sg92
g93
sg88
g89
sg2975
g3000
sg2978
g3000
sg795
g908
sg2984
g3001
sg2987
g3001
ssg203
S'MG_JEN_JonesetEJones_WSRT'
p3512
ssg786
g1285
sg785
g1285
sg78
F1.0
sg928
g3483
sg788
g3489
sg92
Nsg88
I01
sg2975
Nsg2978
g2980
sg795
g1285
sg2984
I0
sg2987
g2989
ssg3200
(dp3513
g27
I00
sg2
S'@@polrep'
p3514
sg30
g31
sg32
I00
sg13
S'@@parmtable'
p3515
sg36
Nsg37
I10
sg38
g39
sg40
g41
sg44
g45
sg47
Nsg49
(dp3516
g199
S'MG_JEN_Joneset::FJones()'
p3517
sg51
g3200
sg100
(dp3518
g38
I01
sg2
I01
sg78
I01
sg40
I01
sg788
I01
sg30
I01
sg43
I01
sg44
I01
sg928
I01
sg47
I01
sg92
I01
sg13
I01
sg786
I01
sg795
I01
sg37
I01
sg36
I01
sg785
I01
ssg105
g1068
sg96
g97
sg109
S'MG_JEN_Joneset::FJones()  version=16dec2005  defined=2006-04-13 11:08'
p3519
sg205
S'FJones'
p3520
sg111
(dp3521
g27
(lp3522
I01
aI00
aS'@@reset_funklet'
p3523
asg2
(lp3524
g3
ag807
ag3514
asg30
(lp3525
g31
aS'@@color'
p3526
asg32
(lp3527
I01
aI00
aS'@@save_all'
p3528
asg92
(lp3529
NaS'@@tfdeg'
p3530
asg36
(lp3531
NaS'@@unit'
p3532
asg37
(lp3533
I10
aS'@@size'
p3534
asg38
(lp3535
g39
aS'@@style'
p3536
asg40
(lp3537
g41
aS'@@descr'
p3538
asg44
(lp3539
g45
aS'@@condeq_corrs'
p3540
asg47
(lp3541
NaS'@@funklet_shape'
p3542
asg94
(lp3543
I01
aI00
aS'@@auto_save'
p3544
asg786
(lp3545
g1104
aS'@@@Jsequence_KJones'
p3546
asg785
(lp3547
g1104
aS'@@@Jsequence'
p3548
asg78
(lp3549
F1.0
aS'@@c00_default'
p3550
asg928
(lp3551
I00
aS'@@uvplane_effect'
p3552
asg788
(lp3553
(lp3554
I0
aI1
aI2
aI3
aI4
aa(lp3555
I0
aI1
aI2
aI3
aI4
aI5
aI6
aa(lp3556
I0
aI1
aI2
aI3
aI4
aI5
aI6
aI7
aI8
aI9
aI10
aI11
aI12
aI13
aa(lp3557
I0
aI1
aI2
aI3
aI4
aI5
aI6
aI7
aI8
aI9
aI10
aI11
aI12
aI13
aI14
aag859
aS'@@stations'
p3558
asg2445
(lp3559
I0
aI1
aI2
aI3
aS'@@tdeg_RM'
p3560
asg88
(lp3561
I01
aI00
aS'@@use_previous'
p3562
asg2450
(lp3563
I0
aI1
aI2
aI3
aS'@@fdeg_RM'
p3564
asg43
(lp3565
NaS'@@subtile_size'
p3566
asg13
(lp3567
Nag1270
ag3515
asg2456
(lp3568
NaI1
aI2
aI5
aI10
aI20
aI50
aI100
aI200
aI500
aS'@@subtile_size_RM'
p3569
asg795
(lp3570
g1104
aS'@@@Jsequence_simul'
p3571
assg195
g3066
sg209
S'** Description of available inarg record(s) for: MG_JEN_Joneset::FJones()  version=16dec2005  defined=2006-04-13 11:08'
p3572
sg211
I00
sg212
S'2006-04-13 11:08'
p3573
sg103
g1017
sg98
S'MG_JEN_Joneset'
p3574
sg107
(dp3575
g27
I00
sg32
I00
sg94
I00
sg88
I00
ssg201
S'** Specific description of inarg record for: MG_JEN_Joneset::FJones()  version=16dec2005  defined=2006-04-13 11:08'
p3576
sg892
(dp3577
g928
I00
sg13
I00
sg2
I00
sg788
I00
ssg197
g3573
sg223
(lp3578
g49
ag788
ag2
ag785
ag795
ag786
ag13
ag928
ag2445
ag2450
ag2456
ag88
ag94
ag32
ag27
ag40
ag36
ag30
ag38
ag37
ag78
ag92
ag47
ag43
ag44
asg52
(dp3579
g27
g55
sg2
g898
sg30
g58
sg32
g59
sg92
g93
sg36
g36
sg37
g63
sg38
g64
sg40
g65
sg44
g68
sg47
g70
sg94
g95
sg786
g908
sg785
g908
sg78
g79
sg928
g1315
sg788
g914
sg2445
g2470
sg88
g89
sg2450
g2471
sg43
g67
sg13
g1316
sg2456
g2472
sg795
g908
ssg203
S'MG_JEN_JonesetFJones'
p3580
ssg786
g1104
sg785
g1104
sg78
F1.0
sg928
g3552
sg788
g3558
sg2445
I0
sg88
I01
sg2450
I2
sg43
Nsg92
Nsg2456
I1
sg795
g1104
sg94
I01
sssg1513
I10000
sg786
Nsg795
Nsg785
Nssg785
Nsg786
Nsg2216
g2238
sg928
I01
sg2209
Nsg2199
I00
sg788
g2230
sg2322
(dp3581
g7
S'finishing touches'
p3582
ssg2315
(dp3583
S'channel_start_index'
p3584
I0
sS'data_column_name'
p3585
S'CORRECTED_DATA'
p3586
sS'predict_column'
p3587
g3586
sg11
S'@@ms_name'
p3588
sg49
(dp3589
g51
g2315
sg52
(dp3590
g3584
S'(inputrec.sel) index of first selected freq channel'
p3591
sg3585
S'(inputrec) MS input column'
p3592
sg3587
S'MS output column to be associated with the VisTile predict-column'
p3593
sg11
g2205
sg2211
g2212
sS'channel_increment'
p3594
S'(inputrec.sel) take every nth channel (1=all)'
p3595
sS'channel_end_index'
p3596
S'(inputrec.sel) index of last selected freq channel'
p3597
sS'write_flags'
p3598
S'(outputrec) if True, write flags to MS'
p3599
ssg96
g97
sg98
S'MG_JEN_exec'
p3600
sg100
(dp3601
g11
I01
sg2211
I01
ssg381
(dp3602
g11
g2218
ssg103
S'20jan2006'
p3603
sg892
(dp3604
g11
I00
sg2211
I00
ssg105
S'** Description of script: MG_JEN_exec::stream_control()  version=20jan2006  defined=2006-04-13 11:08'
p3605
sg107
(dp3606
g3598
I00
ssg109
S'MG_JEN_exec::stream_control()  version=20jan2006  defined=2006-04-13 11:08'
p3607
sg111
(dp3608
g3584
(lp3609
I0
aI5
aI10
aI20
aS'@@channel_start_index'
p3610
asg3585
(lp3611
g2345
ag3586
aS'@@data_column_name'
p3612
asg3587
(lp3613
g2345
ag3586
aS'MODEL_DATA'
p3614
aS'@@predict_column'
p3615
asg11
(lp3616
g12
ag3588
asg2211
(lp3617
I1
aI2
aI3
aI5
aI10
aI20
aI50
aI100
aS'@@tile_size'
p3618
asg3594
(lp3619
I1
aI2
aI3
aI5
aI10
aS'@@channel_increment'
p3620
asg3596
(lp3621
I-1
aI25
aI50
aI100
aS'@@channel_end_index'
p3622
asg3598
(lp3623
I01
aI00
aS'@@write_flags'
p3624
assg195
Nsg197
S'2006-04-13 11:08'
p3625
sg199
S'MG_JEN_exec::stream_control()'
p3626
sg201
S'** Specific description of inarg record for: MG_JEN_exec::stream_control()  version=20jan2006  defined=2006-04-13 11:08'
p3627
sg203
S'MG_JEN_execstream_control'
p3628
sg205
S'stream_control'
p3629
sg209
S'** Description of available inarg record(s) for: MG_JEN_exec::stream_control()  version=20jan2006  defined=2006-04-13 11:08'
p3630
sg211
I00
sg212
g3625
sg213
(dp3631
g215
S'  1: .../MG_JEN_exec.stream_control() (qual=None): .modify(channel_start_index):   10  ->  0'
p3632
sg217
S'  1: .../MG_JEN_exec.stream_control() (qual=None): .modify(data_column_name):   DATA  ->  CORRECTED_DATA'
p3633
sg221
S'  1: .../MG_JEN_exec.stream_control() (qual=None): .modify(channel_end_index):   50  ->  -1'
p3634
ssg223
(lp3635
g49
ag11
ag2211
ag3585
ag3584
ag3596
ag3594
ag3598
ag3587
assg2211
g3618
sg3594
I1
sg3596
I-1
sg3598
I00
ssg2202
I00
sg2318
(dp3636
g7
S'solver-branch (ParmSet)'
p3637
ssg2317
(dp3638
g7
S'uv-data simulation (LeafSet)'
p3639
ssg2206
I01
sg795
Nsg2319
(dp3640
g19
Nsg20
g21
sS'[solve]./MG_JEN_lsm.add_double()'
p3641
(dp3642
g331
I20
sS'[solve_double_1]./MG_JEN_Sixpack.newstar_source()'
p3643
(dp3644
g26
F1000000.0
sg27
I00
sg28
F0.0
sg29
I00
sg30
g31
sg32
I00
sg33
g34
sg13
g14
sg35
I-10
sg36
Nsg37
I10
sg38
g39
sg40
g41
sg42
F1.0
sg43
Nsg44
g45
sg46
Nsg47
Nsg48
F0.0
sg49
(dp3645
g51
g3643
sg52
(dp3646
g26
g54
sg27
g55
sg28
g56
sg29
g57
sg30
g58
sg32
g59
sg33
g60
sg13
g61
sg35
g62
sg36
g36
sg37
g63
sg38
g64
sg40
g65
sg42
g66
sg43
g67
sg44
g68
sg46
g69
sg47
g70
sg48
g71
sg72
g73
sg74
g75
sg76
g77
sg78
g79
sg80
g81
sg82
S'name of calibrator source/patch \n- unpol:     unpolarised, I=1Jy \n- unpol2:    idem, I=2Jy \n- unpol10:   idem, I=10Jy \n- RMtest:    Rotation Measure \n- SItest:    Spectral Index \n- ellgauss:  Elliptic Gaussian \n- QUV:       non-zero Q,U,V \n- QU:        non-zero Q,U \n- QU2:       stronger version of QU \n- Qonly:     non-zero Q \n- Uonly:     non-zero U \n- Vonly:     non-zero V \n- 3c286:     \n- 3c48:      \n- 3c295:     \n- 3c147:     \n- D1:        cps in D1.MS \n'
p3647
sg84
g85
sg86
g87
sg88
g89
sg90
g91
sg92
g93
sg94
g95
ssg96
g97
sg98
S'MG_JEN_Sixpack'
p3648
sg100
(dp3649
g26
I01
sg28
I01
sg29
I01
sg102
I01
sg40
I01
sg47
I01
sg30
I01
sg33
I01
sg86
I01
sg82
I00
sg43
I01
sg48
I01
sg44
I01
sg92
I01
sg36
I01
sg78
I01
sg38
I01
sg76
I01
sg37
I01
ssg103
g104
sg105
g106
sg107
(dp3650
g27
I00
sg29
I00
sg86
I00
sg32
I00
sg88
I00
sg94
I00
ssg109
S'MG_JEN_Sixpack::newstar_source()  version=10feb2006  defined=2006-04-13 11:08'
p3651
sg111
(dp3652
g26
(lp3653
F1000000.0
aS'@@f0'
p3654
asg27
(lp3655
I01
aI00
aS'@@reset_funklet'
p3656
asg28
(lp3657
F0.0
aF1.0
aF10.0
aF100.0
aS'@@major'
p3658
asg29
(lp3659
I01
aI00
aS'@@unsolvable'
p3660
asg30
(lp3661
g31
aS'@@color'
p3662
asg32
(lp3663
I01
aI00
aS'@@save_all'
p3664
asg33
(lp3665
g34
ag126
aS'@@shape'
p3666
asg13
(lp3667
NaS'@@parmtable'
p3668
asg35
(lp3669
NaF-0.10000000000000001
aF0.050000000000000003
aF-0.01
aS'@@Upct'
p3670
asg36
(lp3671
NaS'@@unit'
p3672
asg37
(lp3673
I10
aS'@@size'
p3674
asg38
(lp3675
g39
aS'@@style'
p3676
asg40
(lp3677
g41
aS'@@descr'
p3678
asg42
(lp3679
F1.0
aF10.0
aS'@@I0'
p3680
asg43
(lp3681
NaS'@@subtile_size'
p3682
asg44
(lp3683
g45
aS'@@condeq_corrs'
p3684
asg46
(lp3685
NaF0.01
aF-0.0050000000000000001
aF0.001
aS'@@Vpct'
p3686
asg47
(lp3687
NaS'@@funklet_shape'
p3688
asg48
(lp3689
F0.0
aF1.0
aF-0.5
aS'@@pa'
p3690
asg72
(lp3691
F0.0
aF0.5
aF1.0
aF1.4950000000000001
aF4.3570000000000002
aS'@@RA'
p3692
asg74
(lp3693
NaF1.0
aF3.0
aF10.0
aF-10.0
aF60.0
aS'@@RM'
p3694
asg76
(lp3695
F0.0
aF0.5
aF5.0
aF50.0
aS'@@minor'
p3696
asg78
(lp3697
F1.0
aS'@@c00_default'
p3698
asg80
(lp3699
NaF0.10000000000000001
aF-0.050000000000000003
aF0.01
aS'@@Qpct'
p3700
asg82
(lp3701
g163
ag164
ag165
ag166
ag167
ag168
ag169
ag170
ag171
ag172
ag173
ag174
ag175
ag176
ag177
ag178
aS'@@punit'
p3702
asg84
(lp3703
F0.5
aF1.0
aF0.87
aF1.0920000000000001
aS'@@Dec'
p3704
asg102
(lp3705
NaS'@@name'
p3706
asg86
(lp3707
I01
aI00
aS'@@fsr_trace'
p3708
asg88
(lp3709
I01
aI00
aS'@@use_previous'
p3710
asg90
(lp3711
NaF-0.69999999999999996
a(lp3712
F0.44700000000000001
aF-0.184
aaS'@@SI'
p3713
asg92
(lp3714
NaS'@@tfdeg'
p3715
asg94
(lp3716
I01
aI00
aS'@@auto_save'
p3717
assg195
S'solve_double_1'
p3718
sg197
S'2006-04-13 11:08'
p3719
sg199
g200
sg201
S'** Specific description of inarg record for: MG_JEN_Sixpack::newstar_source()  version=10feb2006  defined=2006-04-13 11:08'
p3720
sg203
S'MG_JEN_Sixpacknewstar_source'
p3721
sg205
S'newstar_source'
p3722
sg207
(dp3723
g82
I01
ssg209
S'** Description of available inarg record(s) for: MG_JEN_Sixpack::newstar_source()  version=10feb2006  defined=2006-04-13 11:08'
p3724
sg211
I00
sg212
g3719
sg213
(dp3725
g215
S'  3: ......[solve_double_1]./MG_JEN_Sixpack.newstar_source() (qual=None): .modify(Qpct):   None  ->  10'
p3726
sg217
S'  3: ......[solve_double_1]./MG_JEN_Sixpack.newstar_source() (qual=None): .modify(parmtable):   None  ->  simul_DJones'
p3727
sg219
S'  3: ......[solve_double_1]./MG_JEN_Sixpack.newstar_source() (qual=None): .modify(punit):   unpol  ->  QU'
p3728
sg221
S'  3: ......[solve_double_1]./MG_JEN_Sixpack.newstar_source() (qual=None): .modify(Upct):   None  ->  -10'
p3729
ssg223
(lp3730
g49
ag82
ag102
ag13
ag29
ag42
ag80
ag35
ag46
ag74
ag90
ag26
ag72
ag84
ag86
ag33
ag28
ag76
ag48
ag88
ag94
ag32
ag27
ag40
ag36
ag30
ag38
ag37
ag78
ag92
ag47
ag43
ag44
assg74
Nsg76
F0.0
sg72
F1.4950000000000001
sg78
F1.0
sg80
I10
sg82
g167
sg84
F0.87
sg102
Nsg86
I01
sg88
I01
sg90
Nsg92
Nsg94
I01
ssg358
I20
sg49
(dp3731
g199
g645
sg51
g3641
sg201
S'** Specific description of inarg record for: MG_JEN_lsm::add_double()  version=10feb2006  defined=2006-04-13 11:08'
p3732
sg203
S'MG_JEN_lsmadd_double'
p3733
sg96
g97
sg105
g648
sg109
S'MG_JEN_lsm::add_double()  version=10feb2006  defined=2006-04-13 11:08'
p3734
sg205
S'add_double'
p3735
sg111
(dp3736
g358
(lp3737
I20
aS'@@dRA'
p3738
asg331
(lp3739
I20
aS'@@dDec'
p3740
assg195
g3029
sg209
S'** Description of available inarg record(s) for: MG_JEN_lsm::add_double()  version=10feb2006  defined=2006-04-13 11:08'
p3741
sg211
I00
sg212
S'2006-04-13 11:08'
p3742
sg103
g104
sg98
S'MG_JEN_lsm'
p3743
sg213
(dp3744
g215
S'** JEN_inarg.attach(): attached: [solve_double_2]./MG_JEN_Sixpack.newstar_source()'
p3745
sg217
S'** JEN_inarg.attach(): attached: [solve_double_1]./MG_JEN_Sixpack.newstar_source()'
p3746
ssg197
g3742
sg223
(lp3747
g49
ag3643
aS'[solve_double_2]./MG_JEN_Sixpack.newstar_source()'
p3748
ag358
ag331
asg52
(dp3749
g358
g665
sg331
g666
sssg3748
(dp3750
g26
F1000000.0
sg27
I00
sg28
F0.0
sg29
I00
sg30
g31
sg32
I00
sg33
g34
sg13
g14
sg35
I-10
sg36
Nsg37
I10
sg38
g39
sg40
g41
sg42
F1.0
sg43
Nsg44
g45
sg46
Nsg47
Nsg48
F0.0
sg49
(dp3751
g51
g3748
sg52
(dp3752
g26
g54
sg27
g55
sg28
g56
sg29
g57
sg30
g58
sg32
g59
sg33
g60
sg13
g61
sg35
g62
sg36
g36
sg37
g63
sg38
g64
sg40
g65
sg42
g66
sg43
g67
sg44
g68
sg46
g69
sg47
g70
sg48
g71
sg72
g73
sg74
g75
sg76
g77
sg78
g79
sg80
g81
sg82
S'name of calibrator source/patch \n- unpol:     unpolarised, I=1Jy \n- unpol2:    idem, I=2Jy \n- unpol10:   idem, I=10Jy \n- RMtest:    Rotation Measure \n- SItest:    Spectral Index \n- ellgauss:  Elliptic Gaussian \n- QUV:       non-zero Q,U,V \n- QU:        non-zero Q,U \n- QU2:       stronger version of QU \n- Qonly:     non-zero Q \n- Uonly:     non-zero U \n- Vonly:     non-zero V \n- 3c286:     \n- 3c48:      \n- 3c295:     \n- 3c147:     \n- D1:        cps in D1.MS \n'
p3753
sg84
g85
sg86
g87
sg88
g89
sg90
g91
sg92
g93
sg94
g95
ssg96
g97
sg98
S'MG_JEN_Sixpack'
p3754
sg100
(dp3755
g26
I01
sg28
I01
sg29
I01
sg102
I01
sg40
I01
sg47
I01
sg30
I01
sg33
I01
sg86
I01
sg82
I00
sg43
I01
sg48
I01
sg44
I01
sg92
I01
sg36
I01
sg78
I01
sg38
I01
sg76
I01
sg37
I01
ssg103
g104
sg105
g106
sg107
(dp3756
g27
I00
sg29
I00
sg86
I00
sg32
I00
sg88
I00
sg94
I00
ssg109
S'MG_JEN_Sixpack::newstar_source()  version=10feb2006  defined=2006-04-13 11:08'
p3757
sg111
(dp3758
g26
(lp3759
F1000000.0
aS'@@f0'
p3760
asg27
(lp3761
I01
aI00
aS'@@reset_funklet'
p3762
asg28
(lp3763
F0.0
aF1.0
aF10.0
aF100.0
aS'@@major'
p3764
asg29
(lp3765
I01
aI00
aS'@@unsolvable'
p3766
asg30
(lp3767
g31
aS'@@color'
p3768
asg32
(lp3769
I01
aI00
aS'@@save_all'
p3770
asg33
(lp3771
g34
ag126
aS'@@shape'
p3772
asg13
(lp3773
NaS'@@parmtable'
p3774
asg35
(lp3775
NaF-0.10000000000000001
aF0.050000000000000003
aF-0.01
aS'@@Upct'
p3776
asg36
(lp3777
NaS'@@unit'
p3778
asg37
(lp3779
I10
aS'@@size'
p3780
asg38
(lp3781
g39
aS'@@style'
p3782
asg40
(lp3783
g41
aS'@@descr'
p3784
asg42
(lp3785
F1.0
aF10.0
aS'@@I0'
p3786
asg43
(lp3787
NaS'@@subtile_size'
p3788
asg44
(lp3789
g45
aS'@@condeq_corrs'
p3790
asg46
(lp3791
NaF0.01
aF-0.0050000000000000001
aF0.001
aS'@@Vpct'
p3792
asg47
(lp3793
NaS'@@funklet_shape'
p3794
asg48
(lp3795
F0.0
aF1.0
aF-0.5
aS'@@pa'
p3796
asg72
(lp3797
F0.0
aF0.5
aF1.0
aF1.4950000000000001
aF4.3570000000000002
aS'@@RA'
p3798
asg74
(lp3799
NaF1.0
aF3.0
aF10.0
aF-10.0
aF60.0
aS'@@RM'
p3800
asg76
(lp3801
F0.0
aF0.5
aF5.0
aF50.0
aS'@@minor'
p3802
asg78
(lp3803
F1.0
aS'@@c00_default'
p3804
asg80
(lp3805
NaF0.10000000000000001
aF-0.050000000000000003
aF0.01
aS'@@Qpct'
p3806
asg82
(lp3807
g163
ag164
ag165
ag166
ag167
ag168
ag169
ag170
ag171
ag172
ag173
ag174
ag175
ag176
ag177
ag178
aS'@@punit'
p3808
asg84
(lp3809
F0.5
aF1.0
aF0.87
aF1.0920000000000001
aS'@@Dec'
p3810
asg102
(lp3811
NaS'@@name'
p3812
asg86
(lp3813
I01
aI00
aS'@@fsr_trace'
p3814
asg88
(lp3815
I01
aI00
aS'@@use_previous'
p3816
asg90
(lp3817
NaF-0.69999999999999996
a(lp3818
F0.44700000000000001
aF-0.184
aaS'@@SI'
p3819
asg92
(lp3820
NaS'@@tfdeg'
p3821
asg94
(lp3822
I01
aI00
aS'@@auto_save'
p3823
assg195
S'solve_double_2'
p3824
sg197
S'2006-04-13 11:08'
p3825
sg199
g200
sg201
S'** Specific description of inarg record for: MG_JEN_Sixpack::newstar_source()  version=10feb2006  defined=2006-04-13 11:08'
p3826
sg203
S'MG_JEN_Sixpacknewstar_source'
p3827
sg205
S'newstar_source'
p3828
sg207
(dp3829
g82
I01
ssg209
S'** Description of available inarg record(s) for: MG_JEN_Sixpack::newstar_source()  version=10feb2006  defined=2006-04-13 11:08'
p3830
sg211
I00
sg212
g3825
sg213
(dp3831
g215
S'  3: ......[solve_double_2]./MG_JEN_Sixpack.newstar_source() (qual=None): .modify(Qpct):   None  ->  10'
p3832
sg217
S'  3: ......[solve_double_2]./MG_JEN_Sixpack.newstar_source() (qual=None): .modify(parmtable):   None  ->  simul_DJones'
p3833
sg219
S'  3: ......[solve_double_2]./MG_JEN_Sixpack.newstar_source() (qual=None): .modify(punit):   unpol  ->  QU'
p3834
sg221
S'  3: ......[solve_double_2]./MG_JEN_Sixpack.newstar_source() (qual=None): .modify(Upct):   None  ->  -10'
p3835
ssg223
(lp3836
g49
ag82
ag102
ag13
ag29
ag42
ag80
ag35
ag46
ag74
ag90
ag26
ag72
ag84
ag86
ag33
ag28
ag76
ag48
ag88
ag94
ag32
ag27
ag40
ag36
ag30
ag38
ag37
ag78
ag92
ag47
ag43
ag44
assg74
Nsg76
F0.0
sg72
F1.4950000000000001
sg78
F1.0
sg80
I10
sg82
g167
sg84
F0.87
sg102
Nsg86
I01
sg88
I01
sg90
Nsg92
Nsg94
I01
sssS'[solve]./MG_JEN_lsm.add_single()'
p3837
(dp3838
S'[solve_single]./MG_JEN_Sixpack.newstar_source()'
p3839
(dp3840
g26
F1000000.0
sg27
I00
sg28
F0.0
sg29
I00
sg30
g31
sg32
I00
sg33
g34
sg13
g14
sg35
I-10
sg36
Nsg37
I10
sg38
g39
sg40
g41
sg42
F1.0
sg43
Nsg44
g45
sg46
Nsg47
Nsg48
F0.0
sg49
(dp3841
g51
g3839
sg52
(dp3842
g26
g54
sg27
g55
sg28
g56
sg29
g57
sg30
g58
sg32
g59
sg33
g60
sg13
g61
sg35
g62
sg36
g36
sg37
g63
sg38
g64
sg40
g65
sg42
g66
sg43
g67
sg44
g68
sg46
g69
sg47
g70
sg48
g71
sg72
g73
sg74
g75
sg76
g77
sg78
g79
sg80
g81
sg82
S'name of calibrator source/patch \n- unpol:     unpolarised, I=1Jy \n- unpol2:    idem, I=2Jy \n- unpol10:   idem, I=10Jy \n- RMtest:    Rotation Measure \n- SItest:    Spectral Index \n- ellgauss:  Elliptic Gaussian \n- QUV:       non-zero Q,U,V \n- QU:        non-zero Q,U \n- QU2:       stronger version of QU \n- Qonly:     non-zero Q \n- Uonly:     non-zero U \n- Vonly:     non-zero V \n- 3c286:     \n- 3c48:      \n- 3c295:     \n- 3c147:     \n- D1:        cps in D1.MS \n'
p3843
sg84
g85
sg86
g87
sg88
g89
sg90
g91
sg92
g93
sg94
g95
ssg96
g97
sg98
S'MG_JEN_Sixpack'
p3844
sg100
(dp3845
g26
I01
sg28
I01
sg29
I01
sg102
I01
sg40
I01
sg47
I01
sg30
I01
sg33
I01
sg86
I01
sg82
I00
sg43
I01
sg48
I01
sg44
I01
sg92
I01
sg36
I01
sg78
I01
sg38
I01
sg76
I01
sg37
I01
ssg103
g104
sg105
g106
sg107
(dp3846
g27
I00
sg29
I00
sg86
I00
sg32
I00
sg88
I00
sg94
I00
ssg109
S'MG_JEN_Sixpack::newstar_source()  version=10feb2006  defined=2006-04-13 11:08'
p3847
sg111
(dp3848
g26
(lp3849
F1000000.0
aS'@@f0'
p3850
asg27
(lp3851
I01
aI00
aS'@@reset_funklet'
p3852
asg28
(lp3853
F0.0
aF1.0
aF10.0
aF100.0
aS'@@major'
p3854
asg29
(lp3855
I01
aI00
aS'@@unsolvable'
p3856
asg30
(lp3857
g31
aS'@@color'
p3858
asg32
(lp3859
I01
aI00
aS'@@save_all'
p3860
asg33
(lp3861
g34
ag126
aS'@@shape'
p3862
asg13
(lp3863
NaS'@@parmtable'
p3864
asg35
(lp3865
NaF-0.10000000000000001
aF0.050000000000000003
aF-0.01
aS'@@Upct'
p3866
asg36
(lp3867
NaS'@@unit'
p3868
asg37
(lp3869
I10
aS'@@size'
p3870
asg38
(lp3871
g39
aS'@@style'
p3872
asg40
(lp3873
g41
aS'@@descr'
p3874
asg42
(lp3875
F1.0
aF10.0
aS'@@I0'
p3876
asg43
(lp3877
NaS'@@subtile_size'
p3878
asg44
(lp3879
g45
aS'@@condeq_corrs'
p3880
asg46
(lp3881
NaF0.01
aF-0.0050000000000000001
aF0.001
aS'@@Vpct'
p3882
asg47
(lp3883
NaS'@@funklet_shape'
p3884
asg48
(lp3885
F0.0
aF1.0
aF-0.5
aS'@@pa'
p3886
asg72
(lp3887
F0.0
aF0.5
aF1.0
aF1.4950000000000001
aF4.3570000000000002
aS'@@RA'
p3888
asg74
(lp3889
NaF1.0
aF3.0
aF10.0
aF-10.0
aF60.0
aS'@@RM'
p3890
asg76
(lp3891
F0.0
aF0.5
aF5.0
aF50.0
aS'@@minor'
p3892
asg78
(lp3893
F1.0
aS'@@c00_default'
p3894
asg80
(lp3895
NaF0.10000000000000001
aF-0.050000000000000003
aF0.01
aS'@@Qpct'
p3896
asg82
(lp3897
g163
ag164
ag165
ag166
ag167
ag168
ag169
ag170
ag171
ag172
ag173
ag174
ag175
ag176
ag177
ag178
aS'@@punit'
p3898
asg84
(lp3899
F0.5
aF1.0
aF0.87
aF1.0920000000000001
aS'@@Dec'
p3900
asg102
(lp3901
NaS'@@name'
p3902
asg86
(lp3903
I01
aI00
aS'@@fsr_trace'
p3904
asg88
(lp3905
I01
aI00
aS'@@use_previous'
p3906
asg90
(lp3907
NaF-0.69999999999999996
a(lp3908
F0.44700000000000001
aF-0.184
aaS'@@SI'
p3909
asg92
(lp3910
NaS'@@tfdeg'
p3911
asg94
(lp3912
I01
aI00
aS'@@auto_save'
p3913
assg195
S'solve_single'
p3914
sg197
S'2006-04-13 11:08'
p3915
sg199
g200
sg201
S'** Specific description of inarg record for: MG_JEN_Sixpack::newstar_source()  version=10feb2006  defined=2006-04-13 11:08'
p3916
sg203
S'MG_JEN_Sixpacknewstar_source'
p3917
sg205
S'newstar_source'
p3918
sg207
(dp3919
g82
I01
ssg209
S'** Description of available inarg record(s) for: MG_JEN_Sixpack::newstar_source()  version=10feb2006  defined=2006-04-13 11:08'
p3920
sg211
I00
sg212
g3915
sg213
(dp3921
g215
S'  3: ......[solve_single]./MG_JEN_Sixpack.newstar_source() (qual=None): .modify(Qpct):   None  ->  10'
p3922
sg217
S'  3: ......[solve_single]./MG_JEN_Sixpack.newstar_source() (qual=None): .modify(parmtable):   None  ->  simul_DJones'
p3923
sg219
S'  3: ......[solve_single]./MG_JEN_Sixpack.newstar_source() (qual=None): .modify(punit):   unpol  ->  QU'
p3924
sg221
S'  3: ......[solve_single]./MG_JEN_Sixpack.newstar_source() (qual=None): .modify(Upct):   None  ->  -10'
p3925
ssg223
(lp3926
g49
ag82
ag102
ag13
ag29
ag42
ag80
ag35
ag46
ag74
ag90
ag26
ag72
ag84
ag86
ag33
ag28
ag76
ag48
ag88
ag94
ag32
ag27
ag40
ag36
ag30
ag38
ag37
ag78
ag92
ag47
ag43
ag44
assg74
Nsg76
F0.0
sg72
F1.4950000000000001
sg78
F1.0
sg80
I10
sg82
g167
sg84
F0.87
sg102
Nsg86
I01
sg88
I01
sg90
Nsg92
Nsg94
I01
ssg49
(dp3927
g199
g226
sg51
g3837
sg201
S'** Specific description of inarg record for: MG_JEN_lsm::add_single()  version=10feb2006  defined=2006-04-13 11:08'
p3928
sg105
g228
sg96
g97
sg109
S'MG_JEN_lsm::add_single()  version=10feb2006  defined=2006-04-13 11:08'
p3929
sg205
S'add_single'
p3930
sg195
g3029
sg209
S'** Description of available inarg record(s) for: MG_JEN_lsm::add_single()  version=10feb2006  defined=2006-04-13 11:08'
p3931
sg211
I00
sg212
S'2006-04-13 11:08'
p3932
sg103
g104
sg98
S'MG_JEN_lsm'
p3933
sg213
(dp3934
g217
S'** JEN_inarg.attach(): attached: [solve_single]./MG_JEN_Sixpack.newstar_source()'
p3935
ssg197
g3932
sg223
(lp3936
g49
ag3839
asg203
S'MG_JEN_lsmadd_single'
p3937
sssS'[solve]./MG_JEN_lsm.add_grid()'
p3938
(dp3939
g241
F1.0
sg330
I1
sS'[solve_grid]./MG_JEN_Sixpack.newstar_source()'
p3940
(dp3941
g26
F1000000.0
sg27
I00
sg28
F0.0
sg29
I00
sg30
g31
sg32
I00
sg33
g34
sg13
g14
sg35
I-10
sg36
Nsg37
I10
sg38
g39
sg40
g41
sg42
F1.0
sg43
Nsg44
g45
sg46
Nsg47
Nsg48
F0.0
sg49
(dp3942
g51
g3940
sg52
(dp3943
g26
g54
sg27
g55
sg28
g56
sg29
g57
sg30
g58
sg32
g59
sg33
g60
sg13
g61
sg35
g62
sg36
g36
sg37
g63
sg38
g64
sg40
g65
sg42
g66
sg43
g67
sg44
g68
sg46
g69
sg47
g70
sg48
g71
sg72
g73
sg74
g75
sg76
g77
sg78
g79
sg80
g81
sg82
S'name of calibrator source/patch \n- unpol:     unpolarised, I=1Jy \n- unpol2:    idem, I=2Jy \n- unpol10:   idem, I=10Jy \n- RMtest:    Rotation Measure \n- SItest:    Spectral Index \n- ellgauss:  Elliptic Gaussian \n- QUV:       non-zero Q,U,V \n- QU:        non-zero Q,U \n- QU2:       stronger version of QU \n- Qonly:     non-zero Q \n- Uonly:     non-zero U \n- Vonly:     non-zero V \n- 3c286:     \n- 3c48:      \n- 3c295:     \n- 3c147:     \n- D1:        cps in D1.MS \n'
p3944
sg84
g85
sg86
g87
sg88
g89
sg90
g91
sg92
g93
sg94
g95
ssg96
g97
sg98
S'MG_JEN_Sixpack'
p3945
sg100
(dp3946
g26
I01
sg28
I01
sg29
I01
sg102
I01
sg40
I01
sg47
I01
sg30
I01
sg33
I01
sg86
I01
sg82
I00
sg43
I01
sg48
I01
sg44
I01
sg92
I01
sg36
I01
sg78
I01
sg38
I01
sg76
I01
sg37
I01
ssg103
g104
sg105
g106
sg107
(dp3947
g27
I00
sg29
I00
sg86
I00
sg32
I00
sg88
I00
sg94
I00
ssg109
S'MG_JEN_Sixpack::newstar_source()  version=10feb2006  defined=2006-04-13 11:08'
p3948
sg111
(dp3949
g26
(lp3950
F1000000.0
aS'@@f0'
p3951
asg27
(lp3952
I01
aI00
aS'@@reset_funklet'
p3953
asg28
(lp3954
F0.0
aF1.0
aF10.0
aF100.0
aS'@@major'
p3955
asg29
(lp3956
I01
aI00
aS'@@unsolvable'
p3957
asg30
(lp3958
g31
aS'@@color'
p3959
asg32
(lp3960
I01
aI00
aS'@@save_all'
p3961
asg33
(lp3962
g34
ag126
aS'@@shape'
p3963
asg13
(lp3964
NaS'@@parmtable'
p3965
asg35
(lp3966
NaF-0.10000000000000001
aF0.050000000000000003
aF-0.01
aS'@@Upct'
p3967
asg36
(lp3968
NaS'@@unit'
p3969
asg37
(lp3970
I10
aS'@@size'
p3971
asg38
(lp3972
g39
aS'@@style'
p3973
asg40
(lp3974
g41
aS'@@descr'
p3975
asg42
(lp3976
F1.0
aF10.0
aS'@@I0'
p3977
asg43
(lp3978
NaS'@@subtile_size'
p3979
asg44
(lp3980
g45
aS'@@condeq_corrs'
p3981
asg46
(lp3982
NaF0.01
aF-0.0050000000000000001
aF0.001
aS'@@Vpct'
p3983
asg47
(lp3984
NaS'@@funklet_shape'
p3985
asg48
(lp3986
F0.0
aF1.0
aF-0.5
aS'@@pa'
p3987
asg72
(lp3988
F0.0
aF0.5
aF1.0
aF1.4950000000000001
aF4.3570000000000002
aS'@@RA'
p3989
asg74
(lp3990
NaF1.0
aF3.0
aF10.0
aF-10.0
aF60.0
aS'@@RM'
p3991
asg76
(lp3992
F0.0
aF0.5
aF5.0
aF50.0
aS'@@minor'
p3993
asg78
(lp3994
F1.0
aS'@@c00_default'
p3995
asg80
(lp3996
NaF0.10000000000000001
aF-0.050000000000000003
aF0.01
aS'@@Qpct'
p3997
asg82
(lp3998
g163
ag164
ag165
ag166
ag167
ag168
ag169
ag170
ag171
ag172
ag173
ag174
ag175
ag176
ag177
ag178
aS'@@punit'
p3999
asg84
(lp4000
F0.5
aF1.0
aF0.87
aF1.0920000000000001
aS'@@Dec'
p4001
asg102
(lp4002
NaS'@@name'
p4003
asg86
(lp4004
I01
aI00
aS'@@fsr_trace'
p4005
asg88
(lp4006
I01
aI00
aS'@@use_previous'
p4007
asg90
(lp4008
NaF-0.69999999999999996
a(lp4009
F0.44700000000000001
aF-0.184
aaS'@@SI'
p4010
asg92
(lp4011
NaS'@@tfdeg'
p4012
asg94
(lp4013
I01
aI00
aS'@@auto_save'
p4014
assg195
S'solve_grid'
p4015
sg197
S'2006-04-13 11:08'
p4016
sg199
g200
sg201
S'** Specific description of inarg record for: MG_JEN_Sixpack::newstar_source()  version=10feb2006  defined=2006-04-13 11:08'
p4017
sg203
S'MG_JEN_Sixpacknewstar_source'
p4018
sg205
S'newstar_source'
p4019
sg207
(dp4020
g82
I01
ssg209
S'** Description of available inarg record(s) for: MG_JEN_Sixpack::newstar_source()  version=10feb2006  defined=2006-04-13 11:08'
p4021
sg211
I00
sg212
g4016
sg213
(dp4022
g215
S'  3: ......[solve_grid]./MG_JEN_Sixpack.newstar_source() (qual=None): .modify(Qpct):   None  ->  10'
p4023
sg217
S'  3: ......[solve_grid]./MG_JEN_Sixpack.newstar_source() (qual=None): .modify(parmtable):   None  ->  simul_DJones'
p4024
sg219
S'  3: ......[solve_grid]./MG_JEN_Sixpack.newstar_source() (qual=None): .modify(punit):   unpol  ->  QU'
p4025
sg221
S'  3: ......[solve_grid]./MG_JEN_Sixpack.newstar_source() (qual=None): .modify(Upct):   None  ->  -10'
p4026
ssg223
(lp4027
g49
ag82
ag102
ag13
ag29
ag42
ag80
ag35
ag46
ag74
ag90
ag26
ag72
ag84
ag86
ag33
ag28
ag76
ag48
ag88
ag94
ag32
ag27
ag40
ag36
ag30
ag38
ag37
ag78
ag92
ag47
ag43
ag44
assg74
Nsg76
F0.0
sg72
F1.4950000000000001
sg78
F1.0
sg80
I10
sg82
g167
sg84
F0.87
sg102
Nsg86
I01
sg88
I01
sg90
Nsg92
Nsg94
I01
ssg331
I20
sg332
g333
sg49
(dp4028
g199
g335
sg51
g3938
sg201
S'** Specific description of inarg record for: MG_JEN_lsm::add_grid()  version=10feb2006  defined=2006-04-13 11:08'
p4029
sg203
S'MG_JEN_lsmadd_grid'
p4030
sg96
g97
sg105
g338
sg109
S'MG_JEN_lsm::add_grid()  version=10feb2006  defined=2006-04-13 11:08'
p4031
sg205
S'add_grid'
p4032
sg111
(dp4033
g241
(lp4034
F0.5
aI1
aI2
aI5
aI10
aI100
aNaS'@@taper'
p4035
asg330
(lp4036
I0
aI1
aI2
aI3
aS'@@nRA2'
p4037
asg331
(lp4038
I5
aI10
aI20
aS'@@dDec'
p4039
asg332
(lp4040
g349
ag350
ag351
ag352
ag353
ag354
ag333
ag355
ag356
aS'@@relpos'
p4041
asg358
(lp4042
I5
aI10
aI20
aS'@@dRA'
p4043
asg361
(lp4044
I0
aI1
aI2
aI3
aS'@@nDec2'
p4045
assg195
g3029
sg209
S'** Description of available inarg record(s) for: MG_JEN_lsm::add_grid()  version=10feb2006  defined=2006-04-13 11:08'
p4046
sg211
I00
sg212
S'2006-04-13 11:08'
p4047
sg103
g104
sg98
S'MG_JEN_lsm'
p4048
sg213
(dp4049
g217
S'** JEN_inarg.attach(): attached: [solve_grid]./MG_JEN_Sixpack.newstar_source()'
p4050
ssg197
g4047
sg223
(lp4051
g49
ag330
ag361
ag358
ag331
ag241
ag332
ag3940
asg52
(dp4052
g241
g371
sg330
g372
sg331
g373
sg332
g374
sg358
g375
sg361
g376
sssg358
I20
sg361
I1
ssg49
(dp4053
g199
g378
sg51
g2319
sg201
S'** Specific description of inarg record for: MG_JEN_lsm::get_lsm()  version=02apr2006  defined=2006-04-13 11:08'
p4054
sg203
S'MG_JEN_lsmget_lsm'
p4055
sg381
(dp4056
g383
g384
sg19
g384
ssg96
g97
sg109
S'MG_JEN_lsm::get_lsm()  version=02apr2006  defined=2006-04-13 11:08'
p4057
sg205
S'get_lsm'
p4058
sg111
(dp4059
g383
(lp4060
g389
ag390
ag391
ag392
aNaS'@@input_LSM'
p4061
asg19
(lp4062
g395
aNaS'@@saveAs'
p4063
asg20
(lp4064
Nag21
ag398
ag399
ag400
aS'@@test_pattern'
p4065
asg402
(lp4066
I01
aI00
aS'@@display'
p4067
asg405
(lp4068
I01
aI00
aS'@@save_as_current'
p4069
assg195
g3029
sg209
S'** Description of available inarg record(s) for: MG_JEN_lsm::get_lsm()  version=02apr2006  defined=2006-04-13 11:08'
p4070
sg211
I00
sg212
S'2006-04-13 11:08'
p4071
sg103
g410
sg98
S'MG_JEN_lsm'
p4072
sg107
(dp4073
g402
I00
sg405
I00
ssg213
(dp4074
g215
S'** JEN_inarg.attach(): attached: [solve]./MG_JEN_lsm.add_double()'
p4075
sg217
S'** JEN_inarg.attach(): attached: [solve]./MG_JEN_lsm.add_single()'
p4076
sg219
S'** JEN_inarg.attach(): attached: [solve]./MG_JEN_lsm.add_spiral()'
p4077
sg221
S'** JEN_inarg.attach(): attached: [solve]./MG_JEN_lsm.add_grid()'
p4078
ssg197
g4071
sg223
(lp4079
g49
ag383
ag402
ag405
ag19
ag20
ag3837
ag3641
ag3938
aS'[solve]./MG_JEN_lsm.add_spiral()'
p4080
asg52
(dp4081
g383
g422
sg19
g423
sg20
g424
sg402
g425
sg405
g426
ssg105
g427
ssg405
I01
sg383
Nsg402
I01
sg4080
(dp4082
S'[solve_spiral]./MG_JEN_Sixpack.newstar_source()'
p4083
(dp4084
g26
F1000000.0
sg27
I00
sg28
F0.0
sg29
I00
sg30
g31
sg32
I00
sg33
g34
sg13
g14
sg35
I-10
sg36
Nsg37
I10
sg38
g39
sg40
g41
sg42
F1.0
sg43
Nsg44
g45
sg46
Nsg47
Nsg48
F0.0
sg49
(dp4085
g51
g4083
sg52
(dp4086
g26
g54
sg27
g55
sg28
g56
sg29
g57
sg30
g58
sg32
g59
sg33
g60
sg13
g61
sg35
g62
sg36
g36
sg37
g63
sg38
g64
sg40
g65
sg42
g66
sg43
g67
sg44
g68
sg46
g69
sg47
g70
sg48
g71
sg72
g73
sg74
g75
sg76
g77
sg78
g79
sg80
g81
sg82
S'name of calibrator source/patch \n- unpol:     unpolarised, I=1Jy \n- unpol2:    idem, I=2Jy \n- unpol10:   idem, I=10Jy \n- RMtest:    Rotation Measure \n- SItest:    Spectral Index \n- ellgauss:  Elliptic Gaussian \n- QUV:       non-zero Q,U,V \n- QU:        non-zero Q,U \n- QU2:       stronger version of QU \n- Qonly:     non-zero Q \n- Uonly:     non-zero U \n- Vonly:     non-zero V \n- 3c286:     \n- 3c48:      \n- 3c295:     \n- 3c147:     \n- D1:        cps in D1.MS \n'
p4087
sg84
g85
sg86
g87
sg88
g89
sg90
g91
sg92
g93
sg94
g95
ssg96
g97
sg98
S'MG_JEN_Sixpack'
p4088
sg100
(dp4089
g26
I01
sg28
I01
sg29
I01
sg102
I01
sg40
I01
sg47
I01
sg30
I01
sg33
I01
sg86
I01
sg82
I00
sg43
I01
sg48
I01
sg44
I01
sg92
I01
sg36
I01
sg78
I01
sg38
I01
sg76
I01
sg37
I01
ssg103
g104
sg105
g106
sg107
(dp4090
g27
I00
sg29
I00
sg86
I00
sg32
I00
sg88
I00
sg94
I00
ssg109
S'MG_JEN_Sixpack::newstar_source()  version=10feb2006  defined=2006-04-13 11:08'
p4091
sg111
(dp4092
g26
(lp4093
F1000000.0
aS'@@f0'
p4094
asg27
(lp4095
I01
aI00
aS'@@reset_funklet'
p4096
asg28
(lp4097
F0.0
aF1.0
aF10.0
aF100.0
aS'@@major'
p4098
asg29
(lp4099
I01
aI00
aS'@@unsolvable'
p4100
asg30
(lp4101
g31
aS'@@color'
p4102
asg32
(lp4103
I01
aI00
aS'@@save_all'
p4104
asg33
(lp4105
g34
ag126
aS'@@shape'
p4106
asg13
(lp4107
NaS'@@parmtable'
p4108
asg35
(lp4109
NaF-0.10000000000000001
aF0.050000000000000003
aF-0.01
aS'@@Upct'
p4110
asg36
(lp4111
NaS'@@unit'
p4112
asg37
(lp4113
I10
aS'@@size'
p4114
asg38
(lp4115
g39
aS'@@style'
p4116
asg40
(lp4117
g41
aS'@@descr'
p4118
asg42
(lp4119
F1.0
aF10.0
aS'@@I0'
p4120
asg43
(lp4121
NaS'@@subtile_size'
p4122
asg44
(lp4123
g45
aS'@@condeq_corrs'
p4124
asg46
(lp4125
NaF0.01
aF-0.0050000000000000001
aF0.001
aS'@@Vpct'
p4126
asg47
(lp4127
NaS'@@funklet_shape'
p4128
asg48
(lp4129
F0.0
aF1.0
aF-0.5
aS'@@pa'
p4130
asg72
(lp4131
F0.0
aF0.5
aF1.0
aF1.4950000000000001
aF4.3570000000000002
aS'@@RA'
p4132
asg74
(lp4133
NaF1.0
aF3.0
aF10.0
aF-10.0
aF60.0
aS'@@RM'
p4134
asg76
(lp4135
F0.0
aF0.5
aF5.0
aF50.0
aS'@@minor'
p4136
asg78
(lp4137
F1.0
aS'@@c00_default'
p4138
asg80
(lp4139
NaF0.10000000000000001
aF-0.050000000000000003
aF0.01
aS'@@Qpct'
p4140
asg82
(lp4141
g163
ag164
ag165
ag166
ag167
ag168
ag169
ag170
ag171
ag172
ag173
ag174
ag175
ag176
ag177
ag178
aS'@@punit'
p4142
asg84
(lp4143
F0.5
aF1.0
aF0.87
aF1.0920000000000001
aS'@@Dec'
p4144
asg102
(lp4145
NaS'@@name'
p4146
asg86
(lp4147
I01
aI00
aS'@@fsr_trace'
p4148
asg88
(lp4149
I01
aI00
aS'@@use_previous'
p4150
asg90
(lp4151
NaF-0.69999999999999996
a(lp4152
F0.44700000000000001
aF-0.184
aaS'@@SI'
p4153
asg92
(lp4154
NaS'@@tfdeg'
p4155
asg94
(lp4156
I01
aI00
aS'@@auto_save'
p4157
assg195
S'solve_spiral'
p4158
sg197
S'2006-04-13 11:08'
p4159
sg199
g200
sg201
S'** Specific description of inarg record for: MG_JEN_Sixpack::newstar_source()  version=10feb2006  defined=2006-04-13 11:08'
p4160
sg203
S'MG_JEN_Sixpacknewstar_source'
p4161
sg205
S'newstar_source'
p4162
sg207
(dp4163
g82
I01
ssg209
S'** Description of available inarg record(s) for: MG_JEN_Sixpack::newstar_source()  version=10feb2006  defined=2006-04-13 11:08'
p4164
sg211
I00
sg212
g4159
sg213
(dp4165
g215
S'  3: ......[solve_spiral]./MG_JEN_Sixpack.newstar_source() (qual=None): .modify(Qpct):   None  ->  10'
p4166
sg217
S'  3: ......[solve_spiral]./MG_JEN_Sixpack.newstar_source() (qual=None): .modify(parmtable):   None  ->  simul_DJones'
p4167
sg219
S'  3: ......[solve_spiral]./MG_JEN_Sixpack.newstar_source() (qual=None): .modify(punit):   unpol  ->  QU'
p4168
sg221
S'  3: ......[solve_spiral]./MG_JEN_Sixpack.newstar_source() (qual=None): .modify(Upct):   None  ->  -10'
p4169
ssg223
(lp4170
g49
ag82
ag102
ag13
ag29
ag42
ag80
ag35
ag46
ag74
ag90
ag26
ag72
ag84
ag86
ag33
ag28
ag76
ag48
ag88
ag94
ag32
ag27
ag40
ag36
ag30
ag38
ag37
ag78
ag92
ag47
ag43
ag44
assg74
Nsg76
F0.0
sg72
F1.4950000000000001
sg78
F1.0
sg80
I10
sg82
g167
sg84
F0.87
sg102
Nsg86
I01
sg88
I01
sg90
Nsg92
Nsg94
I01
ssg429
I5
sg241
F1.0
sg518
I0
sg519
F1.1000000000000001
sg520
I20
sg49
(dp4171
g199
g522
sg51
g4080
sg201
S'** Specific description of inarg record for: MG_JEN_lsm::add_spiral()  version=10feb2006  defined=2006-04-13 11:08'
p4172
sg203
S'MG_JEN_lsmadd_spiral'
p4173
sg96
g97
sg105
g525
sg109
S'MG_JEN_lsm::add_spiral()  version=10feb2006  defined=2006-04-13 11:08'
p4174
sg205
S'add_spiral'
p4175
sg111
(dp4176
g429
(lp4177
I2
aI3
aI4
aI5
aI10
aS'@@nr_of_sources'
p4178
asg241
(lp4179
F0.5
aI1
aI2
aI5
aI10
aI100
aNaS'@@taper'
p4180
asg518
(lp4181
I0
aI30
aI45
aI90
aI180
aI270
aS'@@astart'
p4182
asg519
(lp4183
F1.01
aF1.1000000000000001
aF1.2
aF1.5
aI2
aS'@@rmult'
p4184
asg520
(lp4185
I1
aI2
aI5
aI10
aI20
aI50
aI100
aS'@@rstart'
p4186
asg539
(lp4187
I10
aI20
aI30
aI45
aI90
aI180
aI360
aI0
aS'@@ainc'
p4188
assg195
g3029
sg209
S'** Description of available inarg record(s) for: MG_JEN_lsm::add_spiral()  version=10feb2006  defined=2006-04-13 11:08'
p4189
sg211
I00
sg212
S'2006-04-13 11:08'
p4190
sg103
g104
sg98
S'MG_JEN_lsm'
p4191
sg213
(dp4192
g217
S'** JEN_inarg.attach(): attached: [solve_spiral]./MG_JEN_Sixpack.newstar_source()'
p4193
ssg197
g4190
sg223
(lp4194
g49
ag429
ag520
ag518
ag519
ag539
ag241
ag4083
asg52
(dp4195
g429
g549
sg241
g550
sg518
g551
sg519
g552
sg520
g553
sg539
g554
sssg539
I10
sssg2321
(dp4196
S'correct_after'
p4197
I00
sg2199
S'@@master_reqseq'
p4198
sS'condeq_unop'
p4199
Nsg1509
I01
sg2202
S'@@redun'
p4200
sS'solver_subtree'
p4201
NsS'subtract_after'
p4202
I01
sg2206
S'@@chain_solvers'
p4203
sg49
(dp4204
g51
g2321
sg52
(dp4205
g4197
S'if True, correct measured with predicted.Joneset'
p4206
sg2199
g2200
sg4199
S'Optional unary operation on Condeq inputs'
p4207
sg1509
S'if True, include full visualisation'
p4208
sg2202
g2203
sg4201
S'solver subtree qualifier(s)'
p4209
sg4202
S'if True, subtract predicted from measured'
p4210
sg2206
g2207
sS'flag_residuals'
p4211
S'if True, flag the residuals'
p4212
sg2209
g2210
ssg96
g97
sg98
S'MG_JEN_Cohset'
p4213
sg100
(dp4214
g2199
I01
sg2202
I01
sg4201
I01
sg2206
I01
sg4211
I01
sg2209
I01
ssg103
g1294
sg892
(dp4215
g2202
I00
sg2206
I00
sg2199
I00
sg2209
I00
ssg105
S'insert one or more solver subtrees in the data stream'
p4216
sg107
(dp4217
g4197
I00
sg2199
I00
sg1509
I00
sg2202
I00
sg4202
I00
sg4211
I00
ssg109
S'MG_JEN_Cohset::insert_solver()  version=25dec2005  defined=2006-04-13 11:08'
p4218
sg111
(dp4219
g4197
(lp4220
I01
aI00
aS'@@correct_after'
p4221
asg2199
(lp4222
I01
aI00
ag4198
asg4199
(lp4223
NaS'Abs'
p4224
aS'Arg'
p4225
aS'@@condeq_unop'
p4226
asg1509
(lp4227
I01
aI00
aS'@@visu'
p4228
asg2202
(lp4229
I01
aI00
ag4200
asg4201
(lp4230
NaS'@@solver_subtree'
p4231
asg4202
(lp4232
I01
aI00
aS'@@subtract_after'
p4233
asg2206
(lp4234
I01
ag4203
asg4211
(lp4235
I01
aI00
aS'@@flag_residuals'
p4236
asg2209
(lp4237
Na(lp4238
I5
aI2
aa(lp4239
I2
aI2
aa(lp4240
I3
aI3
aaS'@@num_cells'
p4241
assg195
Nsg197
S'2006-04-13 11:08'
p4242
sg199
S'MG_JEN_Cohset::insert_solver()'
p4243
sg201
S'** Specific description of inarg record for: MG_JEN_Cohset::insert_solver()  version=25dec2005  defined=2006-04-13 11:08'
p4244
sg203
S'MG_JEN_Cohsetinsert_solver'
p4245
sg205
S'insert_solver'
p4246
sg209
S'** Description of available inarg record(s) for: MG_JEN_Cohset::insert_solver()  version=25dec2005  defined=2006-04-13 11:08'
p4247
sg211
I00
sg212
g4242
sg213
(dp4248
g215
S'  1: .../MG_JEN_Cohset.insert_solver() (qual=None): .modify(subtract_after):   False  ->  True'
p4249
sg217
S'** JEN_inarg.attach(): attached: ./MG_JEN_Cohset.solver_subtree()'
p4250
sg221
S'  1: .../MG_JEN_Cohset.insert_solver() (qual=None): .modify(correct_after):   True  ->  False'
p4251
ssg223
(lp4252
g49
ag4201
ag2202
ag2209
ag2206
ag2199
ag4199
ag1509
ag4202
ag4197
ag4211
aS'./MG_JEN_Cohset.solver_subtree()'
p4253
assg2209
g4241
sg4253
(dp4254
S'rmin'
p4255
NsS'setBalanced'
p4256
I00
sg1509
I01
sS'epsilon'
p4257
F0.0001
sS'rmax'
p4258
NsS'derivative_eps'
p4259
F1e-08
sS'usesvd'
p4260
I01
sS'debug_level'
p4261
I10
sS'solvegroup'
p4262
(lp4263
S'DJones'
p4264
asg49
(dp4265
g199
S'MG_JEN_Cohset::solver_subtree()'
p4266
sg51
g4253
sg213
(dp4267
g215
S'  2: ...../MG_JEN_Cohset.solver_subtree() (qual=None): .modify(num_iter):   5  ->  2'
p4268
sg217
S"  2: ...../MG_JEN_Cohset.solver_subtree() (qual=None): .modify(solvegroup):   []  ->  ['DJones']"
p4269
ssg100
(dp4270
g4261
I01
sg4259
I01
sg4256
I01
sS'epsval'
p4271
I01
sg2209
I00
ssg203
S'MG_JEN_Cohsetsolver_subtree'
p4272
sg96
g97
sg105
S'Make a solver-subtree for the given Condeq Cohset'
p4273
sg109
S'MG_JEN_Cohset::solver_subtree()  version=20dec2005  defined=2006-04-13 11:08'
p4274
sg205
S'solver_subtree'
p4275
sg111
(dp4276
g4255
(lp4277
NaI100
aI200
aI500
aS'@@rmin'
p4278
asg1509
(lp4279
I01
aI00
aS'@@visu'
p4280
asg4257
(lp4281
F0.001
aF0.0001
aF1.0000000000000001e-05
aS'@@epsilon'
p4282
asS'colin_factor'
p4283
(lp4284
F1e-08
aF0.0
aS'@@colin_factor'
p4285
asg4258
(lp4286
NaI500
aI1000
aI2000
aS'@@rmax'
p4287
asg4259
(lp4288
F1e-08
aF0.001
aF0.0001
aF1.0000000000000001e-05
aS'@@derivative_eps'
p4289
asg4260
(lp4290
I01
aI00
aS'@@usesvd'
p4291
asg4261
(lp4292
I10
aS'@@debug_level'
p4293
asg4262
(lp4294
(lp4295
a(lp4296
g1278
aa(lp4297
S'Ggain'
p4298
aa(lp4299
S'Gphase'
p4300
aa(lp4301
S'Gpol1'
p4302
aa(lp4303
S'Gpol2'
p4304
aa(lp4305
g837
aa(lp4306
g837
aS'stokesU'
p4307
aa(lp4308
g837
aS'stokesQ'
p4309
aa(lp4310
g837
aS'stokesV'
p4311
aa(lp4312
S'stokesQU'
p4313
ag837
aa(lp4314
S'stokesQUV'
p4315
ag837
aa(lp4316
g1278
aS'stokesI'
p4317
aa(lp4318
g4317
ag33
aa(lp4319
g4317
aa(lp4320
S'stokesIQU'
p4321
aa(lp4322
S'stokesIQUV'
p4323
aa(lp4324
S'stokesIV'
p4325
aa(lp4326
g4313
aa(lp4327
g4315
aa(lp4328
g1278
ag4264
aa(lp4329
g4264
aa(lp4330
S'Dang'
p4331
aa(lp4332
S'Dell'
p4333
aa(lp4334
S'Dreal'
p4335
aa(lp4336
S'Dimag'
p4337
aa(lp4338
g1278
ag4264
ag1104
aa(lp4339
g1104
aa(lp4340
S'EJones'
p4341
aa(lp4342
S'Epointing'
p4343
aa(lp4344
g1278
ag976
aa(lp4345
g976
aa(lp4346
S'Breal'
p4347
aa(lp4348
S'Bimag'
p4349
aa(lp4350
S'Bpol1'
p4351
aa(lp4352
S'Bpol2'
p4353
aaS'@@solvegroup'
p4354
asg4271
(lp4355
F1e-08
aF0.001
aF0.0001
aF1.0000000000000001e-05
aS'@@epsval'
p4356
asg2209
(lp4357
Na(lp4358
I5
aI2
aa(lp4359
I2
aI2
aa(lp4360
I3
aI3
aaS'@@num_cells'
p4361
asg4256
(lp4362
I01
aI00
aS'@@setBalanced'
p4363
asS'num_iter'
p4364
(lp4365
I1
aI3
aI5
aI10
aI20
aS'@@num_iter'
p4366
asS'condition'
p4367
(lp4368
NaS'Gphase_X_sum=0.0'
p4369
aS'Gphase_Y_sum=0.0'
p4370
a(lp4371
g4369
ag4370
aa(lp4372
S'Gphase_X_first=0.0'
p4373
aS'Gphase_Y_first=0.0'
p4374
aa(lp4375
S'Gphase_X_last=0.0'
p4376
aS'Gphase_Y_last=0.0'
p4377
aaS'Dang_sum=0.0'
p4378
a(lp4379
S'Bimag_X_sum=0.0'
p4380
aS'Bimag_Y_sum=0.0'
p4381
aa(lp4382
S'Breal_X_product=1.0'
p4383
aS'Breal_Y_product=1.0'
p4384
aaS'@@condition'
p4385
asS'history'
p4386
(lp4387
I01
aI00
aS'@@history'
p4388
assg195
Nsg209
S'** Description of available inarg record(s) for: MG_JEN_Cohset::solver_subtree()  version=20dec2005  defined=2006-04-13 11:08'
p4389
sg103
S'20dec2005'
p4390
sg212
S'2006-04-13 11:08'
p4391
sg98
S'MG_JEN_Cohset'
p4392
sg107
(dp4393
g4260
I00
sg4256
I00
sg1509
I00
sg4386
I00
ssg201
S'** Specific description of inarg record for: MG_JEN_Cohset::solver_subtree()  version=20dec2005  defined=2006-04-13 11:08'
p4394
sg211
I00
sg197
g4391
sg223
(lp4395
g49
ag4262
ag4367
ag4255
ag4258
ag2209
ag4364
ag4257
ag4271
ag4259
ag4283
ag4260
ag4256
ag4261
ag1509
ag4386
asg52
(dp4396
g4255
S'if specified, only use baselines>=rmin'
p4397
sg1509
S'if True, include visualisation'
p4398
sg4257
S'iteration control criterion...'
p4399
sg4283
S'colinearity factor'
p4400
sg4258
S'if specified, only use baselines<=rmax'
p4401
sg4259
S'NEW: also iteration control...'
p4402
sg4260
S'if True, use Singular Value Decomposition (SVD)'
p4403
sg4261
S'solver debug_level'
p4404
sg4262
S'solvegroup: list of parmgroups, to be solved for:\n- [GJones]:  all GJones MeqParms\n- [Ggain]:   GJones station gains (both pols)\n- [Gphase]:  GJones station phases (both pols)\n- [Gpol1]:   All GJones MeqParms for pol1 (X or R)\n- [Gpol2]:   All GJones MeqParms for pol2 (Y or L)\n- [JJones,stokesU]:     actually solves for U!\n- [JJones,stokesQ]:     -> zero Q(?), but better freq sol(?)\n- [JJones,stokesV]:     -> punit V(?)...\n- [stokesI]:    stokes I (incl SI(f), if relevant)\n- [shape]:      parameters of extended source(s)\n- [stokesIQU]:  stokes I,Q,U (incl RM and SI(f))\n- [stokesIQUV]: stokes I,Q,U,V (incl RM and SI(f))'
p4405
sg4271
S'NEW: WNB version of epsilon....'
p4406
sg2209
g2210
sg4256
S'NEW: if True, add (..) to diagonal, otherwise multiply (1+lambda)'
p4407
sg4364
S'max number of iterations (now also in fitter)'
p4408
sg4367
S'(list of) extra condition equations:\n- [...phase_sum=0.0]:   sum of phases = zero\n- [...phase_first=0.0]: phase of first station = zero\n- [...phase_last=0.0]:  phase of last station = zero\n- [Dang_sum=0.0]:   sum of dipole pos.angle errors = zero\n- [...imag_sum=0.0]:   sum of imag.parts = zero\n- [...real_product=1.0]:   product of real.parts = unity'
p4409
sg4386
S'if True, include history collection of metrics'
p4410
sssg2209
Nsg4271
F1e-08
sg4386
I01
sg4364
I2
sg4367
Nsg4283
F0.0
ssg4211
I00
ss.