(dp0
S'add_to_existing'
p1
I00
sS'polrep'
p2
S'linear'
p3
sS'./MG_JEN_exec.stream_control()'
p4
(dp5
S'channel_start_index'
p6
I0
sS'data_column_name'
p7
S'CORRECTED_DATA'
p8
sS'predict_column'
p9
g8
sS'ms_name'
p10
S'@@ms_name'
p11
sS'_JEN_inarg_CTRL_record:'
p12
(dp13
S'localscope'
p14
g4
sS'help'
p15
(dp16
g6
S'(inputrec.sel) index of first selected freq channel'
p17
sg7
S'(inputrec) MS input column'
p18
sg9
S'MS output column to be associated with the VisTile predict-column'
p19
sg10
S'name of the (AIPS++) Measurement Set'
p20
sS'tile_size'
p21
S'(inputrec) size (in time-slots) of the input data-tile'
p22
sS'channel_increment'
p23
S'(inputrec.sel) take every nth channel (1=all)'
p24
sS'channel_end_index'
p25
S'(inputrec.sel) index of last selected freq channel'
p26
sS'write_flags'
p27
S'(outputrec) if True, write flags to MS'
p28
ssS'target_dir'
p29
S'.'
p30
sS'target_module'
p31
S'MG_JEN_exec'
p32
sS'JEN_inargGUI_ident'
p33
(dp34
g6
I21
sg7
I20
sg9
I25
sg27
I24
sg25
I22
sg23
I23
ssS'hide'
p35
(dp36
g10
I01
sg21
I01
ssS'browse'
p37
(dp38
g10
S'*.MS'
p39
ssS'version'
p40
S'20jan2006'
p41
sS'mutable'
p42
(dp43
g10
I00
sg21
I00
ssS'description'
p44
S'** Description of script: MG_JEN_exec::stream_control()  version=20jan2006  defined=2006-03-27 16:55'
p45
sS'editable'
p46
(dp47
g27
I00
ssS'oneliner'
p48
S'MG_JEN_exec::stream_control()  version=20jan2006  defined=2006-03-27 16:55'
p49
sS'choice'
p50
(dp51
g6
(lp52
I0
aI5
aI10
aI20
aS'@@channel_start_index'
p53
asg7
(lp54
S'DATA'
p55
ag8
aS'@@data_column_name'
p56
asg9
(lp57
g55
ag8
aS'MODEL_DATA'
p58
aS'@@predict_column'
p59
asg10
(lp60
S'D1.MS'
p61
ag11
asg21
(lp62
I1
aI2
aI3
aI5
aI10
aI20
aI50
aI100
aS'@@tile_size'
p63
asg23
(lp64
I1
aI2
aI3
aI5
aI10
aS'@@channel_increment'
p65
asg25
(lp66
I-1
aI25
aI50
aI100
aS'@@channel_end_index'
p67
asg27
(lp68
I01
aI00
aS'@@write_flags'
p69
assS'qual'
p70
NsS'last_edited'
p71
S'2006-03-27 16:55'
p72
sS'target_definition'
p73
S'MG_JEN_exec::stream_control()'
p74
sS'inarg_specific'
p75
S'** Specific description of inarg record for: MG_JEN_exec::stream_control()  version=20jan2006  defined=2006-03-27 16:55'
p76
sS'barescope'
p77
S'MG_JEN_execstream_control'
p78
sS'target_function'
p79
S'stream_control'
p80
sS'protected'
p81
I00
sS'datetime_defined'
p82
g72
sS'MESSAGE'
p83
(dp84
S'1'
p85
S'.modify( channel_start_index ): 10  ->  0'
p86
sS'0'
p87
S'.modify( data_column_name ): DATA  ->  CORRECTED_DATA'
p88
sS'2'
p89
S'.modify( channel_end_index ): 50  ->  -1'
p90
ssS'order'
p91
(lp92
g12
ag10
ag21
ag7
ag6
ag25
ag23
ag27
ag9
assg21
g63
sg23
I1
sg25
I-1
sg27
I00
ssS'script_name'
p93
S'MG_JEN_simul'
p94
sg10
g61
sS'parmtable'
p95
S'simul_DJones'
p96
sS'_JEN_inarg_separator_record:_3'
p97
(dp98
S'txt'
p99
S'solver-branch (ParmSet)'
p100
ssS'[solve_uvp]./MG_JEN_Cohset.Jones()'
p101
(dp102
S'@Jsequence_KJones'
p103
Nsg2
S'@@polrep'
p104
sS'stations'
p105
S'@@stations'
p106
sS'[solve_uvp]./MG_JEN_Joneset.KJones()'
p107
(dp108
g2
S'@@polrep'
p109
sg105
S'@@stations'
p110
sg12
(dp111
g73
S'MG_JEN_Joneset::KJones()'
p112
sg14
g107
sg33
(dp113
sg35
(dp114
g103
I01
sS'@Jsequence_simul'
p115
I01
sS'@Jsequence'
p116
I01
sg2
I01
sg105
I01
ssg44
S'defines diagonal KJones matrices for DFT Fourier kernel'
p117
sg29
g30
sg48
S'MG_JEN_Joneset::KJones()  version=12dec2005  defined=2006-03-27 16:55'
p118
sg79
S'KJones'
p119
sg50
(dp120
g103
(lp121
S'KJones'
p122
aS'@@@Jsequence_KJones'
p123
asg115
(lp124
g122
aS'@@@Jsequence_simul'
p125
asg116
(lp126
g122
aS'@@@Jsequence'
p127
asg2
(lp128
g3
aS'circular'
p129
ag109
asg105
(lp130
(lp131
I0
aI1
aI2
aI3
aI4
aa(lp132
I0
aI1
aI2
aI3
aI4
aI5
aI6
aa(lp133
I0
aI1
aI2
aI3
aI4
aI5
aI6
aI7
aI8
aI9
aI10
aI11
aI12
aI13
aa(lp134
I0
aI1
aI2
aI3
aI4
aI5
aI6
aI7
aI8
aI9
aI10
aI11
aI12
aI13
aI14
aaS'range(5)'
p135
ag110
assg70
S'solve_uvp'
p136
sg81
I00
sg82
S'2006-03-27 16:55'
p137
sg40
S'12dec2005'
p138
sg31
S'MG_JEN_Joneset'
p139
sg75
S'** Specific description of inarg record for: MG_JEN_Joneset::KJones()  version=12dec2005  defined=2006-03-27 16:55'
p140
sg42
(dp141
g2
I00
sg105
I00
ssg71
g137
sg91
(lp142
g12
ag105
ag2
ag116
ag115
ag103
asg15
(dp143
g103
S'list membership indication (used in JEN_inargGui)'
p144
sg115
g144
sg116
g144
sg2
S'polarisation representation'
p145
sg105
S'the (subset of) stations to be used'
p146
ssg77
S'MG_JEN_JonesetKJones'
p147
ssg103
g122
sg115
g122
sg116
g122
ssS'Jsequence_solve_uvp'
p148
(lp149
S'DJones_WSRT'
p150
asS'uvplane_effect'
p151
S'@@uvplane_effect'
p152
sg95
g96
sS'[solve_uvp]./MG_JEN_Joneset.BJones()'
p153
(dp154
S'reset_funklet'
p155
I01
sg2
S'@@polrep'
p156
sS'color'
p157
S'red'
p158
sS'subtile_size_Bimag'
p159
S'@subtile_size_Breal'
p160
sS'subtile_size_Breal'
p161
NsS'auto_save'
p162
I01
sS'size'
p163
I10
sS'style'
p164
S'circle'
p165
sS'fdeg_Breal'
p166
I5
sS'condeq_corrs'
p167
S'*'
p168
sS'funklet_shape'
p169
Nsg12
(dp170
g14
g153
sg15
(dp171
g155
S'if True, do NOT use any MeqParm table values when solvable'
p172
sg2
g145
sg157
S'plot_color'
p173
sg159
S'sub-tile size (None=entire tile)'
p174
sg161
g174
sg162
S'if True, save the result of every iteration (slow!)'
p175
sg163
S'size of plotted symbol'
p176
sg164
S'plot_style'
p177
sg166
S'degree of freq polynomial'
p178
sg167
S'correlations to be used for solving'
p179
sg169
S'shape [time,freq] of default funklet'
p180
sg103
g144
sS'tdeg_Bimag'
p181
S'degree of time polynomial'
p182
sg116
g144
sS'c00_default'
p183
S'default value of c[0,0] coefficient'
p184
sS'fdeg_Bimag'
p185
g178
sg151
S'if True, the Joneset reprsents uv-plane effects (q=uvp)'
p186
sg95
S'name of the MeqParm table to be used'
p187
sg105
g146
sS'tdeg_Breal'
p188
g182
sS'use_previous'
p189
S'if True, start with the previous solution'
p190
sS'subtile_size'
p191
S'size (time-slots) of a domain sub-tile'
p192
sS'tfdeg'
p193
S'(time,freq) polynomial degree'
p194
sg115
g144
ssg29
g30
sg31
S'MG_JEN_Joneset'
p195
sg33
(dp196
g155
I424
sg189
I422
sg166
I418
sg159
I421
sg188
I416
sg185
I419
sg161
I420
sg181
I417
sg162
I423
ssg35
(dp197
g164
I01
sg2
I01
sg183
I01
sg105
I01
sg157
I01
sg191
I01
sg167
I01
sg151
I01
sg169
I01
sg193
I01
sg95
I01
sg103
I01
sg115
I01
sg163
I01
sg116
I01
ssg40
S'16dec2005'
p198
sg42
(dp199
g151
I00
sg95
I00
sg2
I00
sg105
I00
ssg44
S'Defines diagonal 2x2 Jones matrices that represent the IF bandpass:\n    Bjones(station,source) matrix elements:\n    - B_11 = (Breal_X,Bimag_X)\n    - B_12 = 0\n    - B_21 = 0\n    - B_22 = (Breal_Y,Bimag_Y)\n    For circular polarisation, R and L are used rather than X and Y\n    NB: The main differences with Gjones are:\n      - the higher-order (~5) freq-polynomial\n      - solving for real/imag rather than gain/phase \n    '
p200
sg46
(dp201
g155
I00
sg162
I00
sg189
I00
ssg48
S'MG_JEN_Joneset::BJones()  version=16dec2005  defined=2006-03-27 16:55'
p202
sg50
(dp203
g155
(lp204
I01
aI00
aS'@@reset_funklet'
p205
asg2
(lp206
g3
ag129
ag156
asg157
(lp207
g158
aS'@@color'
p208
asg159
(lp209
g160
aNaI1
aI2
aI5
aI10
aI20
aI50
aI100
aI200
aI500
aS'@@subtile_size_Bimag'
p210
asg161
(lp211
NaI1
aI2
aI5
aI10
aI20
aI50
aI100
aI200
aI500
aS'@@subtile_size_Breal'
p212
asg162
(lp213
I01
aI00
aS'@@auto_save'
p214
asg163
(lp215
I10
aS'@@size'
p216
asg164
(lp217
g165
aS'@@style'
p218
asg166
(lp219
I3
aI4
aI5
aI6
aS'@@fdeg_Breal'
p220
asg167
(lp221
g168
aS'@@condeq_corrs'
p222
asg169
(lp223
NaS'@@funklet_shape'
p224
asg103
(lp225
S'BJones'
p226
aS'@@@Jsequence_KJones'
p227
asg181
(lp228
I0
aI1
aI2
aI3
aS'@tdeg_Breal'
p229
aS'@@tdeg_Bimag'
p230
asg116
(lp231
g226
aS'@@@Jsequence'
p232
asg183
(lp233
F1.0
aS'@@c00_default'
p234
asg185
(lp235
I3
aI4
aI5
aI6
aS'@fdeg_Breal'
p236
aS'@@fdeg_Bimag'
p237
asg151
(lp238
I00
aS'@@uvplane_effect'
p239
asg95
(lp240
NaS'test'
p241
aS'@@parmtable'
p242
asg105
(lp243
(lp244
I0
aI1
aI2
aI3
aI4
aa(lp245
I0
aI1
aI2
aI3
aI4
aI5
aI6
aa(lp246
I0
aI1
aI2
aI3
aI4
aI5
aI6
aI7
aI8
aI9
aI10
aI11
aI12
aI13
aa(lp247
I0
aI1
aI2
aI3
aI4
aI5
aI6
aI7
aI8
aI9
aI10
aI11
aI12
aI13
aI14
aag135
aS'@@stations'
p248
asg188
(lp249
I0
aI1
aI2
aI3
aS'@@tdeg_Breal'
p250
asg189
(lp251
I01
aI00
aS'@@use_previous'
p252
asg191
(lp253
NaS'@@subtile_size'
p254
asg193
(lp255
NaS'@@tfdeg'
p256
asg115
(lp257
g226
aS'@@@Jsequence_simul'
p258
assg70
g136
sg71
S'2006-03-27 16:55'
p259
sg73
S'MG_JEN_Joneset::BJones()'
p260
sg75
S'** Specific description of inarg record for: MG_JEN_Joneset::BJones()  version=16dec2005  defined=2006-03-27 16:55'
p261
sg77
S'MG_JEN_JonesetBJones'
p262
sg79
S'BJones'
p263
sg81
I00
sg82
g259
sg83
(dp264
g87
S'.modify( parmtable ): @@parmtable  ->  simul_DJones'
p265
ssg91
(lp266
g12
ag105
ag2
ag116
ag115
ag103
ag95
ag151
ag188
ag181
ag166
ag185
ag161
ag159
ag189
ag162
ag155
ag157
ag164
ag163
ag183
ag193
ag169
ag191
ag167
assg103
g226
sg181
g229
sg116
g226
sg183
F1.0
sg185
g236
sg151
g239
sg105
g248
sg193
Nsg188
I0
sg189
I01
sg191
Nsg95
g96
sg115
g226
ssg12
(dp267
g73
S'MG_JEN_Cohset::Jones()'
p268
sg14
g101
sg33
(dp269
g148
I362
ssg35
(dp270
g2
I01
sg105
I01
sg151
I01
sg95
I01
sg103
I01
sg115
I01
sg116
I01
ssg77
S'MG_JEN_CohsetJones'
p271
sg29
g30
sg44
S'Make a Joneset by creating and multiplying a sequence of one ore more Jonesets'
p272
sg48
S'MG_JEN_Cohset::Jones()  version=25dec2005  defined=2006-03-27 16:55'
p273
sg79
S'Jones'
p274
sg50
(dp275
g2
(lp276
g3
ag129
ag104
asg105
(lp277
(lp278
I0
aI1
aI2
aI3
aI4
aa(lp279
I0
aI1
aI2
aI3
aI4
aI5
aI6
aa(lp280
I0
aI1
aI2
aI3
aI4
aI5
aI6
aI7
aI8
aI9
aI10
aI11
aI12
aI13
aa(lp281
I0
aI1
aI2
aI3
aI4
aI5
aI6
aI7
aI8
aI9
aI10
aI11
aI12
aI13
aI14
aag135
ag106
asg148
(lp282
(lp283
S'GJones'
p284
aa(lp285
g226
aa(lp286
S'FJones'
p287
aa(lp288
g122
aa(lp289
g150
aa(lp290
g284
ag150
aa(lp291
S'JJones'
p292
aa(lp293
aS'@@Jsequence_solve_uvp'
p294
asg151
(lp295
I00
ag152
asg95
(lp296
Nag241
aS'@@parmtable'
p297
asg103
(lp298
NaS'@@@Jsequence_KJones'
p299
asg115
(lp300
NaS'@@@Jsequence_simul'
p301
asg116
(lp302
NaS'@@@Jsequence'
p303
assg70
g136
sg81
I00
sg82
S'2006-03-27 16:55'
p304
sg40
S'25dec2005'
p305
sg31
S'MG_JEN_Cohset'
p306
sg75
S'** Specific description of inarg record for: MG_JEN_Cohset::Jones()  version=25dec2005  defined=2006-03-27 16:55'
p307
sg83
(dp308
g85
S'** JEN_inarg.attach(): attached: [solve_uvp]./MG_JEN_Joneset.FJones()'
p309
sg87
S'** JEN_inarg.attach(): attached: [solve_uvp]./MG_JEN_Joneset.GJones()'
p310
sS'3'
p311
S'** JEN_inarg.attach(): attached: [solve_uvp]./MG_JEN_Joneset.KJones()'
p312
sg89
S'** JEN_inarg.attach(): attached: [solve_uvp]./MG_JEN_Joneset.BJones()'
p313
sS'5'
p314
S'** JEN_inarg.attach(): attached: [solve_uvp]./MG_JEN_Joneset.JJones()'
p315
sS'4'
p316
S'** JEN_inarg.attach(): attached: [solve_uvp]./MG_JEN_Joneset.DJones_WSRT()'
p317
sS'7'
p318
S'.modify( parmtable ): @@parmtable  ->  simul_DJones'
p319
sS'6'
p320
S".modify( Jsequence_solve_uvp ): []  ->  ['DJones_WSRT']"
p321
ssg71
g304
sg42
(dp322
g151
I00
sg95
I00
sg2
I00
sg105
I00
ssg91
(lp323
g12
ag105
ag2
ag116
ag115
ag103
ag95
ag151
ag148
aS'[solve_uvp]./MG_JEN_Joneset.GJones()'
p324
aS'[solve_uvp]./MG_JEN_Joneset.FJones()'
p325
ag153
ag107
aS'[solve_uvp]./MG_JEN_Joneset.DJones_WSRT()'
p326
aS'[solve_uvp]./MG_JEN_Joneset.JJones()'
p327
asg15
(dp328
g2
g145
sg105
g146
sg148
S'sequence of Jones matrices to be used'
p329
sg151
g186
sg95
g187
sg103
g144
sg115
g144
sg116
g144
sssg324
(dp330
g155
I01
sg2
S'@@polrep'
p331
sS'fdeg_Ggain'
p332
I0
sg157
g158
sg95
g96
sg162
I01
sg163
I10
sg164
g165
sS'subtile_size_Ggain'
p333
I1
sg167
g168
sg169
Nsg12
(dp334
g14
g324
sg15
(dp335
g155
g172
sg2
g145
sg332
S'degree of freq polynomial'
p336
sg157
g173
sg193
g194
sg162
g175
sg163
g176
sg164
g177
sg333
S'sub-tile size (None=entire tile)'
p337
sg167
g179
sg169
g180
sg103
g144
sg116
g144
sg183
g184
sS'tdeg_Gphase'
p338
S'degree of time polynomial'
p339
sS'tdeg_Ggain'
p340
g339
sS'fdeg_Gphase'
p341
g336
sS'subtile_size_Gphase'
p342
g337
sS'Gpolar'
p343
S'obsolete, kept only for upward compatibility'
p344
sg151
g186
sg105
g146
sg189
g190
sg191
g192
sg95
g187
sg115
g144
ssg29
g30
sg31
S'MG_JEN_Joneset'
p345
sg33
(dp346
g155
I379
sg332
I373
sg333
I375
sg338
I372
sg189
I377
sg340
I371
sg341
I374
sg342
I376
sg162
I378
ssg35
(dp347
g163
I01
sg164
I01
sg2
I01
sg183
I01
sg105
I01
sg157
I01
sg191
I01
sg167
I01
sg151
I01
sg169
I01
sg193
I01
sg95
I01
sg103
I01
sg115
I01
sg343
I01
sg116
I01
ssg40
S'15dec2005'
p348
sg42
(dp349
g151
I00
sg95
I00
sg2
I00
sg105
I00
ssg44
S'Defines diagonal 2x2 Jones matrices that represent complex gain:\n    Gjones(station,source) matrix elements:\n    - G_11 = Ggain_X*exp(iGphase_X)\n    - G_12 = 0\n    - G_21 = 0\n    - G_22 = Ggain_Y*exp(iGphase_Y)\n    For circular polarisation, R and L are used rather than X and Y\n    '
p350
sg46
(dp351
g155
I00
sg343
I00
sg162
I00
sg189
I00
ssg48
S'MG_JEN_Joneset::GJones()  version=15dec2005  defined=2006-03-27 16:55'
p352
sg50
(dp353
g155
(lp354
I01
aI00
aS'@@reset_funklet'
p355
asg2
(lp356
g3
ag129
ag331
asg332
(lp357
I0
aI1
aI2
aI3
aS'@@fdeg_Ggain'
p358
asg157
(lp359
g158
aS'@@color'
p360
asg193
(lp361
NaS'@@tfdeg'
p362
asg162
(lp363
I01
aI00
aS'@@auto_save'
p364
asg163
(lp365
I10
aS'@@size'
p366
asg164
(lp367
g165
aS'@@style'
p368
asg333
(lp369
NaI1
aI2
aI5
aI10
aI20
aI50
aI100
aI200
aI500
aS'@@subtile_size_Ggain'
p370
asg167
(lp371
g168
aS'@@condeq_corrs'
p372
asg169
(lp373
NaS'@@funklet_shape'
p374
asg103
(lp375
g284
aS'@@@Jsequence_KJones'
p376
asg116
(lp377
g284
aS'@@@Jsequence'
p378
asg183
(lp379
F1.0
aS'@@c00_default'
p380
asg338
(lp381
I0
aI1
aI2
aI3
aS'@tdeg_Ggain'
p382
aS'@@tdeg_Gphase'
p383
asg340
(lp384
I0
aI1
aI2
aI3
aS'@@tdeg_Ggain'
p385
asg341
(lp386
I0
aI1
aI2
aI3
aS'@fdeg_Ggain'
p387
aS'@@fdeg_Gphase'
p388
asg342
(lp389
S'@subtile_size_Ggain'
p390
aNaI1
aI2
aI5
aI10
aI20
aI50
aI100
aI200
aI500
aS'@@subtile_size_Gphase'
p391
asg343
(lp392
I01
aI00
aS'@@Gpolar'
p393
asg151
(lp394
I00
aS'@@uvplane_effect'
p395
asg105
(lp396
(lp397
I0
aI1
aI2
aI3
aI4
aa(lp398
I0
aI1
aI2
aI3
aI4
aI5
aI6
aa(lp399
I0
aI1
aI2
aI3
aI4
aI5
aI6
aI7
aI8
aI9
aI10
aI11
aI12
aI13
aa(lp400
I0
aI1
aI2
aI3
aI4
aI5
aI6
aI7
aI8
aI9
aI10
aI11
aI12
aI13
aI14
aag135
aS'@@stations'
p401
asg189
(lp402
I01
aI00
aS'@@use_previous'
p403
asg191
(lp404
NaS'@@subtile_size'
p405
asg95
(lp406
Nag241
aS'@@parmtable'
p407
asg115
(lp408
g284
aS'@@@Jsequence_simul'
p409
assg70
g136
sg71
S'2006-03-27 16:55'
p410
sg73
S'MG_JEN_Joneset::GJones()'
p411
sg75
S'** Specific description of inarg record for: MG_JEN_Joneset::GJones()  version=15dec2005  defined=2006-03-27 16:55'
p412
sg77
S'MG_JEN_JonesetGJones'
p413
sg79
S'GJones'
p414
sg81
I00
sg82
g410
sg83
(dp415
g87
S'.modify( parmtable ): @@parmtable  ->  simul_DJones'
p416
ssg91
(lp417
g12
ag105
ag2
ag116
ag115
ag103
ag343
ag95
ag151
ag340
ag338
ag332
ag341
ag333
ag342
ag189
ag162
ag155
ag157
ag164
ag163
ag183
ag193
ag169
ag191
ag167
assg103
g284
sg116
g284
sg183
F1.0
sg338
g382
sg340
I0
sg341
g387
sg342
g390
sg343
I01
sg151
g395
sg105
g401
sg189
I01
sg191
Nsg193
Nsg115
g284
ssg326
(dp418
g155
I01
sg2
S'@@polrep'
p419
sg157
g158
sS'fdeg_Dell'
p420
S'@fdeg_Dang'
p421
sS'coupled_XY_Dell'
p422
I01
sg95
g96
sS'subtile_size_Dang'
p423
Nsg162
I01
sg163
I10
sg164
g165
sg167
g168
sg169
Nsg12
(dp424
g14
g326
sg15
(dp425
g155
g172
sg2
g145
sg157
g173
sg420
S'degree of freq polynomial'
p426
sg422
S'if True, XDell = -YDell per station'
p427
sg95
g187
sg423
S'sub-tile size (None=entire tile)'
p428
sg162
g175
sg163
g176
sg164
g177
sg167
g179
sg169
g180
sg103
g144
sS'subtile_size_Dell'
p429
g428
sg116
g144
sS'fdeg_Dang'
p430
g426
sg183
g184
sg151
g186
sS'tdeg_Dell'
p431
S'degree of time polynomial'
p432
sS'coupled_XY_Dang'
p433
S'if True, XDang = YDang per station'
p434
sS'tdeg_Dang'
p435
g432
sg105
g146
sg189
g190
sg191
g192
sg193
g194
sg115
g144
ssg29
g30
sg31
S'MG_JEN_Joneset'
p436
sg33
(dp437
g430
I449
sg155
I455
sg420
I450
sg422
I444
sg189
I453
sg162
I454
sg431
I448
sg433
I443
sg423
I451
sg429
I452
sg435
I447
ssg35
(dp438
g164
I01
sg2
I01
sg183
I01
sg105
I01
sg157
I01
sg191
I01
sg167
I01
sg151
I01
sg169
I01
sg193
I01
sg95
I01
sg103
I01
sg115
I01
sg163
I01
sg116
I01
ssg40
g198
sg42
(dp439
g151
I00
sg95
I00
sg2
I00
sg105
I00
ssg44
S'defines 2x2 DJones_WSRT (polarisation leakage) matrices'
p440
sg46
(dp441
g155
I00
sg433
I00
sg422
I00
sg162
I00
sg189
I00
ssg48
S'MG_JEN_Joneset::DJones_WSRT()  version=16dec2005  defined=2006-03-27 16:55'
p442
sg50
(dp443
g155
(lp444
I01
aI00
aS'@@reset_funklet'
p445
asg2
(lp446
g3
ag129
ag419
asg157
(lp447
g158
aS'@@color'
p448
asg420
(lp449
I0
aI1
aI2
aI3
ag421
aS'@@fdeg_Dell'
p450
asg422
(lp451
I01
aI00
aS'@@coupled_XY_Dell'
p452
asg95
(lp453
Nag241
aS'@@parmtable'
p454
asg423
(lp455
NaI1
aI2
aI5
aI10
aI20
aI50
aI100
aI200
aI500
aS'@@subtile_size_Dang'
p456
asg162
(lp457
I01
aI00
aS'@@auto_save'
p458
asg163
(lp459
I10
aS'@@size'
p460
asg164
(lp461
g165
aS'@@style'
p462
asg167
(lp463
g168
aS'@@condeq_corrs'
p464
asg169
(lp465
NaS'@@funklet_shape'
p466
asg103
(lp467
g150
aS'@@@Jsequence_KJones'
p468
asg429
(lp469
S'@subtile_size_Dang'
p470
aNaI1
aI2
aI5
aI10
aI20
aI50
aI100
aI200
aI500
aS'@@subtile_size_Dell'
p471
asg116
(lp472
g150
aS'@@@Jsequence'
p473
asg430
(lp474
I0
aI1
aI2
aI3
aS'@@fdeg_Dang'
p475
asg183
(lp476
F1.0
aS'@@c00_default'
p477
asg151
(lp478
I00
aS'@@uvplane_effect'
p479
asg431
(lp480
I0
aI1
aI2
aI3
aS'@tdeg_Dang'
p481
aS'@@tdeg_Dell'
p482
asg433
(lp483
I01
aI00
aS'@@coupled_XY_Dang'
p484
asg435
(lp485
I0
aI1
aI2
aI3
aS'@@tdeg_Dang'
p486
asg105
(lp487
(lp488
I0
aI1
aI2
aI3
aI4
aa(lp489
I0
aI1
aI2
aI3
aI4
aI5
aI6
aa(lp490
I0
aI1
aI2
aI3
aI4
aI5
aI6
aI7
aI8
aI9
aI10
aI11
aI12
aI13
aa(lp491
I0
aI1
aI2
aI3
aI4
aI5
aI6
aI7
aI8
aI9
aI10
aI11
aI12
aI13
aI14
aag135
aS'@@stations'
p492
asg189
(lp493
I01
aI00
aS'@@use_previous'
p494
asg191
(lp495
NaS'@@subtile_size'
p496
asg193
(lp497
NaS'@@tfdeg'
p498
asg115
(lp499
g150
aS'@@@Jsequence_simul'
p500
assg70
g136
sg71
S'2006-03-27 16:55'
p501
sg73
S'MG_JEN_Joneset::DJones_WSRT()'
p502
sg75
S'** Specific description of inarg record for: MG_JEN_Joneset::DJones_WSRT()  version=16dec2005  defined=2006-03-27 16:55'
p503
sg77
S'MG_JEN_JonesetDJones_WSRT'
p504
sg79
S'DJones_WSRT'
p505
sg81
I00
sg82
g501
sg83
(dp506
g87
S'.modify( parmtable ): @@parmtable  ->  simul_DJones'
p507
ssg91
(lp508
g12
ag105
ag2
ag116
ag115
ag103
ag433
ag422
ag95
ag151
ag435
ag431
ag430
ag420
ag423
ag429
ag189
ag162
ag155
ag157
ag164
ag163
ag183
ag193
ag169
ag191
ag167
assg103
g150
sg429
g470
sg116
g150
sg430
I0
sg183
F1.0
sg151
g479
sg431
g481
sg433
I01
sg435
I0
sg105
g492
sg189
I01
sg191
Nsg193
Nsg115
g150
ssg327
(dp509
g155
I01
sg2
S'@@polrep'
p510
sS'tdeg_Jreal'
p511
I0
sg157
g158
sS'all4_always'
p512
Nsg95
g96
sS'subtile_size_Jreal'
p513
Nsg162
I01
sg163
I10
sg164
g165
sS'tdeg_Jimag'
p514
S'@tdeg_Jreal'
p515
sg167
g168
sg169
Nsg12
(dp516
g14
g327
sg15
(dp517
g155
g172
sg2
g145
sg511
S'degree of time polynomial'
p518
sg157
g173
sg512
S'stations for which all 4 elements will always be solved for'
p519
sg95
g187
sg513
S'sub-tile size (None=entire tile)'
p520
sg162
g175
sg163
g176
sg164
g177
sg514
g518
sg167
g179
sg169
g180
sg103
g144
sS'fdeg_Jreal'
p521
S'degree of freq polynomial'
p522
sg183
g184
sg151
g186
sS'fdeg_Jimag'
p523
g522
sS'subtile_size_Jimag'
p524
g520
sg105
g146
sS'diagonal_only'
p525
S'if True, solve for diagonal (11,22) elements only'
p526
sg189
g190
sg191
g192
sg193
g194
sg115
g144
sg116
g144
ssg29
g30
sg31
S'MG_JEN_Joneset'
p527
sg33
(dp528
g155
I481
sg524
I478
sg514
I474
sg511
I473
sg525
I469
sg189
I479
sg512
I470
sg523
I476
sg513
I477
sg162
I480
sg521
I475
ssg35
(dp529
g164
I01
sg2
I01
sg183
I01
sg105
I01
sg157
I01
sg191
I01
sg167
I01
sg151
I01
sg169
I01
sg193
I01
sg95
I01
sg103
I01
sg115
I01
sg163
I01
sg116
I01
ssg40
S'14feb2006'
p530
sg42
(dp531
g151
I00
sg95
I00
sg2
I00
sg105
I00
ssg44
S'Defines diagonal 2x2 Jones matrices for full polarisation:\n    Jjones(station,source) matrix elements:\n    - J_11 = (Jreal_11,Jimag_11)\n    - J_12 = (Jreal_12,Jimag_12)\n    - J_21 = (Jreal_21,Jimag_21)\n    - J_22 = (Jreal_22,Jimag_22)\n    For circular polarisation, R and L are used rather than X and Y\n    '
p532
sg46
(dp533
g155
I00
sg525
I00
sg162
I00
sg189
I00
ssg48
S'MG_JEN_Joneset::JJones()  version=14feb2006  defined=2006-03-27 16:55'
p534
sg50
(dp535
g155
(lp536
I01
aI00
aS'@@reset_funklet'
p537
asg2
(lp538
g3
ag129
ag510
asg511
(lp539
I0
aI1
aI2
aI3
aS'@@tdeg_Jreal'
p540
asg157
(lp541
g158
aS'@@color'
p542
asg512
(lp543
Na(lp544
I14
aa(lp545
I1
aaS'WSRT/WHAT'
p546
aS'@@all4_always'
p547
asg95
(lp548
Nag241
aS'@@parmtable'
p549
asg513
(lp550
NaI1
aI2
aI5
aI10
aI20
aI50
aI100
aI200
aI500
aS'@@subtile_size_Jreal'
p551
asg162
(lp552
I01
aI00
aS'@@auto_save'
p553
asg163
(lp554
I10
aS'@@size'
p555
asg164
(lp556
g165
aS'@@style'
p557
asg514
(lp558
I0
aI1
aI2
aI3
ag515
aS'@@tdeg_Jimag'
p559
asg167
(lp560
g168
aS'@@condeq_corrs'
p561
asg169
(lp562
NaS'@@funklet_shape'
p563
asg103
(lp564
g292
aS'@@@Jsequence_KJones'
p565
asg521
(lp566
I0
aI1
aI2
aI3
aS'@@fdeg_Jreal'
p567
asg183
(lp568
F1.0
aS'@@c00_default'
p569
asg151
(lp570
I00
aS'@@uvplane_effect'
p571
asg523
(lp572
I0
aI1
aI2
aI3
aS'@fdeg_Jreal'
p573
aS'@@fdeg_Jimag'
p574
asg524
(lp575
S'@subtile_size_Jreal'
p576
aNaI1
aI2
aI5
aI10
aI20
aI50
aI100
aI200
aI500
aS'@@subtile_size_Jimag'
p577
asg105
(lp578
(lp579
I0
aI1
aI2
aI3
aI4
aa(lp580
I0
aI1
aI2
aI3
aI4
aI5
aI6
aa(lp581
I0
aI1
aI2
aI3
aI4
aI5
aI6
aI7
aI8
aI9
aI10
aI11
aI12
aI13
aa(lp582
I0
aI1
aI2
aI3
aI4
aI5
aI6
aI7
aI8
aI9
aI10
aI11
aI12
aI13
aI14
aag135
aS'@@stations'
p583
asg525
(lp584
I01
aI00
aS'@@diagonal_only'
p585
asg189
(lp586
I01
aI00
aS'@@use_previous'
p587
asg191
(lp588
NaS'@@subtile_size'
p589
asg193
(lp590
NaS'@@tfdeg'
p591
asg115
(lp592
g292
aS'@@@Jsequence_simul'
p593
asg116
(lp594
g292
aS'@@@Jsequence'
p595
assg70
g136
sg71
S'2006-03-27 16:55'
p596
sg73
S'MG_JEN_Joneset::JJones()'
p597
sg75
S'** Specific description of inarg record for: MG_JEN_Joneset::JJones()  version=14feb2006  defined=2006-03-27 16:55'
p598
sg77
S'MG_JEN_JonesetJJones'
p599
sg79
S'JJones'
p600
sg81
I00
sg82
g596
sg83
(dp601
g87
S'.modify( parmtable ): @@parmtable  ->  simul_DJones'
p602
ssg91
(lp603
g12
ag105
ag2
ag116
ag115
ag103
ag525
ag512
ag95
ag151
ag511
ag514
ag521
ag523
ag513
ag524
ag189
ag162
ag155
ag157
ag164
ag163
ag183
ag193
ag169
ag191
ag167
assg103
g292
sg521
I0
sg183
F1.0
sg151
g571
sg523
g573
sg524
g576
sg105
g583
sg525
I00
sg189
I01
sg191
Nsg193
Nsg115
g292
sg116
g292
ssg115
Nsg116
Nsg325
(dp604
g155
I01
sg2
S'@@polrep'
p605
sg157
g158
sg193
Nsg162
I01
sg163
I10
sg164
g165
sg167
g168
sg169
Nsg12
(dp606
g14
g325
sg15
(dp607
g155
g172
sg164
g177
sg2
g145
sg183
g184
sg105
g146
sg157
g173
sS'tdeg_RM'
p608
S'degree of time polynomial'
p609
sg191
g192
sg167
g179
sg189
g190
sS'fdeg_RM'
p610
S'degree of freq polynomial'
p611
sg169
g180
sg193
g194
sS'subtile_size_RM'
p612
S'sub-tile size (None=entire tile)'
p613
sg95
g187
sg103
g144
sg115
g144
sg163
g176
sg151
g186
sg162
g175
sg116
g144
ssg29
g30
sg31
S'MG_JEN_Joneset'
p614
sg33
(dp615
g155
I400
sg608
I395
sg189
I398
sg610
I396
sg612
I397
sg162
I399
ssg35
(dp616
g164
I01
sg2
I01
sg183
I01
sg105
I01
sg157
I01
sg191
I01
sg167
I01
sg151
I01
sg169
I01
sg193
I01
sg95
I01
sg103
I01
sg115
I01
sg163
I01
sg116
I01
ssg40
g198
sg42
(dp617
g151
I00
sg95
I00
sg2
I00
sg105
I00
ssg44
S'defines diagonal FJones Faraday rotation matrices'
p618
sg46
(dp619
g155
I00
sg162
I00
sg189
I00
ssg48
S'MG_JEN_Joneset::FJones()  version=16dec2005  defined=2006-03-27 16:55'
p620
sg50
(dp621
g155
(lp622
I01
aI00
aS'@@reset_funklet'
p623
asg164
(lp624
g165
aS'@@style'
p625
asg2
(lp626
g3
ag129
ag605
asg183
(lp627
F1.0
aS'@@c00_default'
p628
asg105
(lp629
(lp630
I0
aI1
aI2
aI3
aI4
aa(lp631
I0
aI1
aI2
aI3
aI4
aI5
aI6
aa(lp632
I0
aI1
aI2
aI3
aI4
aI5
aI6
aI7
aI8
aI9
aI10
aI11
aI12
aI13
aa(lp633
I0
aI1
aI2
aI3
aI4
aI5
aI6
aI7
aI8
aI9
aI10
aI11
aI12
aI13
aI14
aag135
aS'@@stations'
p634
asg157
(lp635
g158
aS'@@color'
p636
asg608
(lp637
I0
aI1
aI2
aI3
aS'@@tdeg_RM'
p638
asg191
(lp639
NaS'@@subtile_size'
p640
asg167
(lp641
g168
aS'@@condeq_corrs'
p642
asg189
(lp643
I01
aI00
aS'@@use_previous'
p644
asg610
(lp645
I0
aI1
aI2
aI3
aS'@@fdeg_RM'
p646
asg169
(lp647
NaS'@@funklet_shape'
p648
asg193
(lp649
NaS'@@tfdeg'
p650
asg612
(lp651
NaI1
aI2
aI5
aI10
aI20
aI50
aI100
aI200
aI500
aS'@@subtile_size_RM'
p652
asg95
(lp653
Nag241
aS'@@parmtable'
p654
asg103
(lp655
g287
aS'@@@Jsequence_KJones'
p656
asg115
(lp657
g287
aS'@@@Jsequence_simul'
p658
asg163
(lp659
I10
aS'@@size'
p660
asg151
(lp661
I00
aS'@@uvplane_effect'
p662
asg162
(lp663
I01
aI00
aS'@@auto_save'
p664
asg116
(lp665
g287
aS'@@@Jsequence'
p666
assg70
g136
sg71
S'2006-03-27 16:55'
p667
sg73
S'MG_JEN_Joneset::FJones()'
p668
sg75
S'** Specific description of inarg record for: MG_JEN_Joneset::FJones()  version=16dec2005  defined=2006-03-27 16:55'
p669
sg77
S'MG_JEN_JonesetFJones'
p670
sg79
S'FJones'
p671
sg81
I00
sg82
g667
sg83
(dp672
g87
S'.modify( parmtable ): @@parmtable  ->  simul_DJones'
p673
ssg91
(lp674
g12
ag105
ag2
ag116
ag115
ag103
ag95
ag151
ag608
ag610
ag612
ag189
ag162
ag155
ag157
ag164
ag163
ag183
ag193
ag169
ag191
ag167
assg103
g287
sg116
g287
sg183
F1.0
sg151
g662
sg105
g634
sg608
I0
sg189
I01
sg610
I2
sg191
Nsg95
g96
sg612
I1
sg115
g287
sssS'LSM_solve'
p675
NsS'[simul_uvp]./MG_JEN_Cohset.Jones()'
p676
(dp677
S'[simul_uvp]./MG_JEN_Joneset.JJones()'
p678
(dp679
S'unop'
p680
S'Cos'
p681
sg525
I00
sg2
S'@@polrep'
p682
sg157
S'yellow'
p683
sS'stddev_period'
p684
F0.10000000000000001
sg512
NsS'fdeg'
p685
I0
sg163
I5
sS'mean_period_s'
p686
I500
sS'mean_tampl'
p687
F0.20000000000000001
sg12
(dp688
g73
S'MG_JEN_Joneset::JJones()'
p689
sg14
g678
sg33
(dp690
g680
I167
sg686
I175
sS'stddev_period_s'
p691
I177
sg684
I166
sg687
I176
sg525
I161
sS'mean_period'
p692
I165
sg512
I162
sS'stddev_c00'
p693
I164
sS'mean_c00'
p694
I163
sS'stddev_tampl'
p695
I178
ssg35
(dp696
g680
I00
sg164
I01
sg2
I01
sg183
I01
sg105
I01
sg157
I01
sS'timescale_min'
p697
I01
sg685
I01
sS'c00_scale'
p698
I01
sg103
I01
sg115
I01
sg163
I01
sg116
I01
ssg44
g532
sg29
g30
sg48
S'MG_JEN_Joneset::JJones()  version=14feb2006  defined=2006-03-27 16:55'
p699
sg79
S'JJones'
p700
sg50
(dp701
g680
(lp702
g681
aS'Sin'
p703
a(lp704
g681
ag703
aaNaS'@@unop'
p705
asg164
(lp706
S'triangle'
p707
aS'@@style'
p708
asg697
(lp709
I20
aS'@@timescale_min'
p710
asg2
(lp711
g3
ag129
ag682
asg183
(lp712
F1.0
aS'@@c00_default'
p713
asg105
(lp714
(lp715
I0
aI1
aI2
aI3
aI4
aa(lp716
I0
aI1
aI2
aI3
aI4
aI5
aI6
aa(lp717
I0
aI1
aI2
aI3
aI4
aI5
aI6
aI7
aI8
aI9
aI10
aI11
aI12
aI13
aa(lp718
I0
aI1
aI2
aI3
aI4
aI5
aI6
aI7
aI8
aI9
aI10
aI11
aI12
aI13
aI14
aag135
aS'@@stations'
p719
asg157
(lp720
g683
aS'@@color'
p721
asg684
(lp722
I0
aF0.01
aF0.10000000000000001
aF0.20000000000000001
aF0.5
aS'@@stddev_period'
p723
asg525
(lp724
I01
aI00
aS'@@diagonal_only'
p725
asg692
(lp726
F0.29999999999999999
aF0.5
aI1
aI2
aI3
aS'@@mean_period'
p727
asg698
(lp728
F1.0
aS'@@c00_scale'
p729
asg512
(lp730
Na(lp731
I14
aa(lp732
I1
aag546
aS'@@all4_always'
p733
asg693
(lp734
I0
aF0.0001
aF0.001
aF0.01
aF0.10000000000000001
aI1
aS'@@stddev_c00'
p735
asg685
(lp736
I0
aS'@@fdeg'
p737
asg694
(lp738
I0
aF0.10000000000000001
aF0.20000000000000001
aF0.5
aF-0.10000000000000001
aS'@@mean_c00'
p739
asg103
(lp740
g292
aS'@@@Jsequence_KJones'
p741
asg115
(lp742
g292
aS'@@@Jsequence_simul'
p743
asg163
(lp744
I5
aS'@@size'
p745
asg116
(lp746
g292
aS'@@@Jsequence'
p747
assg70
S'simul_uvp'
p748
sg81
I00
sg82
S'2006-03-27 16:55'
p749
sg40
g530
sg31
S'MG_JEN_Joneset'
p750
sg46
(dp751
g525
I00
ssg75
S'** Specific description of inarg record for: MG_JEN_Joneset::JJones()  version=14feb2006  defined=2006-03-27 16:55'
p752
sg42
(dp753
g2
I00
sg105
I00
ssg71
g749
sg91
(lp754
g12
ag105
ag2
ag116
ag115
ag103
ag525
ag512
ag694
ag693
ag692
ag684
ag680
ag697
ag685
ag157
ag164
ag163
ag183
ag698
ag686
ag687
ag691
ag695
asg15
(dp755
g680
S'time-variability function'
p756
sg164
g177
sg697
S'group timescale in minutes'
p757
sg2
g145
sg183
S'default value of c00'
p758
sg105
g146
sg157
g173
sg684
S'scatter in period T (fraction of timescale_min)'
p759
sg525
g526
sg692
S'mean time-period T (fraction of timescale_min)'
p760
sg698
S'scale of c00'
p761
sg512
g519
sg693
S'scatter in EXTRA c00 (fraction of c00_scale'
p762
sg685
S'degree of freq polynomial'
p763
sg694
S'mean of EXTRA c00 (fraction of c00_scale)'
p764
sg103
g144
sg115
g144
sg163
S'size of plotted symbol'
p765
sg116
g144
ssg77
S'MG_JEN_JonesetJJones'
p766
ssg103
g292
sg116
g292
sg691
I50
sg183
F1.0
sg164
g707
sg694
F0.10000000000000001
sg105
g719
sg697
I20
sg692
F1.0
sg693
F0.01
sg698
F1.0
sg115
g292
sg695
F0.02
ssg2
S'@@polrep'
p767
sg151
S'@@uvplane_effect'
p768
sS'[simul_uvp]./MG_JEN_Joneset.BJones()'
p769
(dp770
g680
g681
sg2
S'@@polrep'
p771
sg157
g683
sg684
F0.10000000000000001
sg685
I0
sg163
I5
sg164
g707
sg687
F0.20000000000000001
sg12
(dp772
g73
S'MG_JEN_Joneset::BJones()'
p773
sg14
g769
sg33
(dp774
g680
I116
sg686
I126
sg691
I125
sg684
I115
sg687
I124
sg692
I114
sg693
I113
sg694
I112
sg695
I127
ssg35
(dp775
g680
I00
sg164
I01
sg2
I01
sg183
I01
sg105
I01
sg157
I01
sg697
I01
sg685
I01
sg698
I01
sg103
I01
sg115
I01
sg163
I01
sg116
I01
ssg44
g200
sg29
g30
sg48
S'MG_JEN_Joneset::BJones()  version=16dec2005  defined=2006-03-27 16:55'
p776
sg79
S'BJones'
p777
sg50
(dp778
g680
(lp779
g681
ag703
a(lp780
g681
ag703
aaNaS'@@unop'
p781
asg164
(lp782
g707
aS'@@style'
p783
asg2
(lp784
g3
ag129
ag771
asg183
(lp785
F1.0
aS'@@c00_default'
p786
asg105
(lp787
(lp788
I0
aI1
aI2
aI3
aI4
aa(lp789
I0
aI1
aI2
aI3
aI4
aI5
aI6
aa(lp790
I0
aI1
aI2
aI3
aI4
aI5
aI6
aI7
aI8
aI9
aI10
aI11
aI12
aI13
aa(lp791
I0
aI1
aI2
aI3
aI4
aI5
aI6
aI7
aI8
aI9
aI10
aI11
aI12
aI13
aI14
aag135
aS'@@stations'
p792
asg157
(lp793
g683
aS'@@color'
p794
asg684
(lp795
I0
aF0.01
aF0.10000000000000001
aF0.20000000000000001
aF0.5
aS'@@stddev_period'
p796
asg697
(lp797
I20
aS'@@timescale_min'
p798
asg698
(lp799
F1.0
aS'@@c00_scale'
p800
asg692
(lp801
F0.29999999999999999
aF0.5
aI1
aI2
aI3
aS'@@mean_period'
p802
asg693
(lp803
I0
aF0.0001
aF0.001
aF0.01
aF0.10000000000000001
aI1
aS'@@stddev_c00'
p804
asg685
(lp805
I0
aS'@@fdeg'
p806
asg103
(lp807
g226
aS'@@@Jsequence_KJones'
p808
asg694
(lp809
I0
aF0.10000000000000001
aF0.20000000000000001
aF0.5
aF-0.10000000000000001
aS'@@mean_c00'
p810
asg115
(lp811
g226
aS'@@@Jsequence_simul'
p812
asg163
(lp813
I5
aS'@@size'
p814
asg116
(lp815
g226
aS'@@@Jsequence'
p816
assg70
g748
sg81
I00
sg82
S'2006-03-27 16:55'
p817
sg40
g198
sg31
S'MG_JEN_Joneset'
p818
sg75
S'** Specific description of inarg record for: MG_JEN_Joneset::BJones()  version=16dec2005  defined=2006-03-27 16:55'
p819
sg42
(dp820
g2
I00
sg105
I00
ssg71
g817
sg91
(lp821
g12
ag105
ag2
ag116
ag115
ag103
ag694
ag693
ag692
ag684
ag680
ag697
ag685
ag157
ag164
ag163
ag183
ag698
ag687
ag691
ag686
ag695
asg15
(dp822
g680
g756
sg164
g177
sg2
g145
sg183
g758
sg105
g146
sg157
g173
sg684
g759
sg697
g757
sg698
g761
sg692
g760
sg693
g762
sg685
g763
sg103
g144
sg694
g764
sg115
g144
sg163
g765
sg116
g144
ssg77
S'MG_JEN_JonesetBJones'
p823
ssg103
g226
sg116
g226
sg691
I100
sg183
F1.0
sg686
I5000
sg694
F0.10000000000000001
sg105
g792
sg697
I20
sg692
F1.0
sg693
F0.01
sg698
F1.0
sg115
g226
sg695
F0.02
ssg105
S'@@stations'
p824
sS'[simul_uvp]./MG_JEN_Joneset.KJones()'
p825
(dp826
g2
S'@@polrep'
p827
sg105
S'@@stations'
p828
sg12
(dp829
g73
S'MG_JEN_Joneset::KJones()'
p830
sg14
g825
sg33
(dp831
sg35
(dp832
g103
I01
sg115
I01
sg116
I01
sg2
I01
sg105
I01
ssg44
g117
sg29
g30
sg48
S'MG_JEN_Joneset::KJones()  version=12dec2005  defined=2006-03-27 16:55'
p833
sg79
S'KJones'
p834
sg50
(dp835
g103
(lp836
g122
aS'@@@Jsequence_KJones'
p837
asg115
(lp838
g122
aS'@@@Jsequence_simul'
p839
asg116
(lp840
g122
aS'@@@Jsequence'
p841
asg2
(lp842
g3
ag129
ag827
asg105
(lp843
(lp844
I0
aI1
aI2
aI3
aI4
aa(lp845
I0
aI1
aI2
aI3
aI4
aI5
aI6
aa(lp846
I0
aI1
aI2
aI3
aI4
aI5
aI6
aI7
aI8
aI9
aI10
aI11
aI12
aI13
aa(lp847
I0
aI1
aI2
aI3
aI4
aI5
aI6
aI7
aI8
aI9
aI10
aI11
aI12
aI13
aI14
aag135
ag828
assg70
g748
sg81
I00
sg82
S'2006-03-27 16:55'
p848
sg40
g138
sg31
S'MG_JEN_Joneset'
p849
sg75
S'** Specific description of inarg record for: MG_JEN_Joneset::KJones()  version=12dec2005  defined=2006-03-27 16:55'
p850
sg42
(dp851
g2
I00
sg105
I00
ssg71
g848
sg91
(lp852
g12
ag105
ag2
ag116
ag115
ag103
asg15
(dp853
g103
g144
sg115
g144
sg116
g144
sg2
g145
sg105
g146
ssg77
S'MG_JEN_JonesetKJones'
p854
ssg103
g122
sg115
g122
sg116
g122
ssg95
g96
sS'[simul_uvp]./MG_JEN_Joneset.DJones_WSRT()'
p855
(dp856
g680
g681
sg2
S'@@polrep'
p857
sg157
g683
sg684
F0.10000000000000001
sg422
I01
sg685
I0
sg163
I5
sg164
g707
sg687
F0.002
sg12
(dp858
g73
S'MG_JEN_Joneset::DJones_WSRT()'
p859
sg14
g855
sg33
(dp860
g680
I144
sg686
I154
sg691
I153
sg684
I143
sg687
I152
sg422
I139
sg692
I142
sg693
I141
sg694
I140
sg433
I138
sg695
I155
ssg35
(dp861
g680
I00
sg164
I01
sg2
I01
sg183
I01
sg105
I01
sg157
I01
sg697
I01
sg685
I01
sg698
I01
sg103
I01
sg115
I01
sg163
I01
sg116
I01
ssg44
g440
sg29
g30
sg48
S'MG_JEN_Joneset::DJones_WSRT()  version=16dec2005  defined=2006-03-27 16:55'
p862
sg79
S'DJones_WSRT'
p863
sg50
(dp864
g680
(lp865
g681
ag703
a(lp866
g681
ag703
aaNaS'@@unop'
p867
asg164
(lp868
g707
aS'@@style'
p869
asg697
(lp870
I20
aS'@@timescale_min'
p871
asg2
(lp872
g3
ag129
ag857
asg183
(lp873
F1.0
aS'@@c00_default'
p874
asg105
(lp875
(lp876
I0
aI1
aI2
aI3
aI4
aa(lp877
I0
aI1
aI2
aI3
aI4
aI5
aI6
aa(lp878
I0
aI1
aI2
aI3
aI4
aI5
aI6
aI7
aI8
aI9
aI10
aI11
aI12
aI13
aa(lp879
I0
aI1
aI2
aI3
aI4
aI5
aI6
aI7
aI8
aI9
aI10
aI11
aI12
aI13
aI14
aag135
aS'@@stations'
p880
asg157
(lp881
g683
aS'@@color'
p882
asg684
(lp883
I0
aF0.01
aF0.10000000000000001
aF0.20000000000000001
aF0.5
aS'@@stddev_period'
p884
asg422
(lp885
I01
aI00
aS'@@coupled_XY_Dell'
p886
asg698
(lp887
F1.0
aS'@@c00_scale'
p888
asg692
(lp889
F0.29999999999999999
aF0.5
aI1
aI2
aI3
aS'@@mean_period'
p890
asg693
(lp891
I0
aF0.0001
aF0.001
aF0.01
aF0.10000000000000001
aI1
aS'@@stddev_c00'
p892
asg685
(lp893
I0
aS'@@fdeg'
p894
asg694
(lp895
I0
aF0.10000000000000001
aF0.20000000000000001
aF0.5
aF-0.10000000000000001
aS'@@mean_c00'
p896
asg103
(lp897
g150
aS'@@@Jsequence_KJones'
p898
asg115
(lp899
g150
aS'@@@Jsequence_simul'
p900
asg163
(lp901
I5
aS'@@size'
p902
asg433
(lp903
I01
aI00
aS'@@coupled_XY_Dang'
p904
asg116
(lp905
g150
aS'@@@Jsequence'
p906
assg70
g748
sg81
I00
sg82
S'2006-03-27 16:55'
p907
sg40
g198
sg31
S'MG_JEN_Joneset'
p908
sg46
(dp909
g433
I00
sg422
I00
ssg75
S'** Specific description of inarg record for: MG_JEN_Joneset::DJones_WSRT()  version=16dec2005  defined=2006-03-27 16:55'
p910
sg42
(dp911
g2
I00
sg105
I00
ssg71
g907
sg91
(lp912
g12
ag105
ag2
ag116
ag115
ag103
ag433
ag422
ag694
ag693
ag692
ag684
ag680
ag697
ag685
ag157
ag164
ag163
ag183
ag698
ag687
ag691
ag686
ag695
asg15
(dp913
g680
g756
sg164
g177
sg697
g757
sg2
g145
sg183
g758
sg105
g146
sg157
g173
sg684
g759
sg422
g427
sg698
g761
sg692
g760
sg693
g762
sg685
g763
sg694
g764
sg103
g144
sg115
g144
sg163
g765
sg433
g434
sg116
g144
ssg77
S'MG_JEN_JonesetDJones_WSRT'
p914
ssg103
g150
sg116
g150
sg691
I100
sg183
F1.0
sg686
I3000
sg694
F0.10000000000000001
sg433
I01
sg105
g880
sg697
I20
sg692
F1.0
sg693
F0.01
sg698
F1.0
sg115
g150
sg695
F0.00020000000000000001
ssg12
(dp915
g73
g268
sg14
g676
sg33
(dp916
S'Jsequence_simul_uvp'
p917
I67
ssg35
(dp918
g2
I01
sg105
I01
sg151
I01
sg95
I01
sg103
I01
sg115
I01
sg116
I01
ssg77
S'MG_JEN_CohsetJones'
p919
sg29
g30
sg44
g272
sg48
S'MG_JEN_Cohset::Jones()  version=25dec2005  defined=2006-03-27 16:55'
p920
sg79
S'Jones'
p921
sg50
(dp922
g2
(lp923
g3
ag129
ag767
asg105
(lp924
(lp925
I0
aI1
aI2
aI3
aI4
aa(lp926
I0
aI1
aI2
aI3
aI4
aI5
aI6
aa(lp927
I0
aI1
aI2
aI3
aI4
aI5
aI6
aI7
aI8
aI9
aI10
aI11
aI12
aI13
aa(lp928
I0
aI1
aI2
aI3
aI4
aI5
aI6
aI7
aI8
aI9
aI10
aI11
aI12
aI13
aI14
aag135
ag824
asg151
(lp929
I00
ag768
asg95
(lp930
Nag241
aS'@@parmtable'
p931
asg103
(lp932
NaS'@@@Jsequence_KJones'
p933
asg115
(lp934
NaS'@@@Jsequence_simul'
p935
asg116
(lp936
NaS'@@@Jsequence'
p937
asg917
(lp938
(lp939
g284
aa(lp940
g226
aa(lp941
g287
aa(lp942
g122
aa(lp943
g150
aa(lp944
g284
ag150
aa(lp945
g292
aa(lp946
aS'@@Jsequence_simul_uvp'
p947
assg70
g748
sg81
I00
sg82
S'2006-03-27 16:55'
p948
sg40
g305
sg31
S'MG_JEN_Cohset'
p949
sg75
S'** Specific description of inarg record for: MG_JEN_Cohset::Jones()  version=25dec2005  defined=2006-03-27 16:55'
p950
sg83
(dp951
g85
S'** JEN_inarg.attach(): attached: [simul_uvp]./MG_JEN_Joneset.FJones()'
p952
sg87
S'** JEN_inarg.attach(): attached: [simul_uvp]./MG_JEN_Joneset.GJones()'
p953
sg311
S'** JEN_inarg.attach(): attached: [simul_uvp]./MG_JEN_Joneset.KJones()'
p954
sg89
S'** JEN_inarg.attach(): attached: [simul_uvp]./MG_JEN_Joneset.BJones()'
p955
sg314
S'** JEN_inarg.attach(): attached: [simul_uvp]./MG_JEN_Joneset.JJones()'
p956
sg316
S'** JEN_inarg.attach(): attached: [simul_uvp]./MG_JEN_Joneset.DJones_WSRT()'
p957
sg318
S".modify( Jsequence_simul_uvp ): []  ->  ['DJones_WSRT']"
p958
sg320
S'.modify( parmtable ): @@parmtable  ->  simul_DJones'
p959
ssg71
g948
sg42
(dp960
g151
I00
sg95
I00
sg2
I00
sg105
I00
ssg91
(lp961
g12
ag105
ag2
ag116
ag115
ag103
ag95
ag151
ag917
aS'[simul_uvp]./MG_JEN_Joneset.GJones()'
p962
aS'[simul_uvp]./MG_JEN_Joneset.FJones()'
p963
ag769
ag825
ag855
ag678
asg15
(dp964
g2
g145
sg105
g146
sg151
g186
sg95
g187
sg103
g144
sg115
g144
sg116
g144
sg917
g329
sssg103
Nsg115
Nsg116
Nsg962
(dp965
g680
g681
sg163
I5
sg164
g707
sg2
S'@@polrep'
p966
sg183
F1.0
sg105
S'@@stations'
p967
sg157
g683
sg684
F0.10000000000000001
sg694
F0.10000000000000001
sg697
I20
sg692
F1.0
sg693
F0.01
sg12
(dp968
g73
S'MG_JEN_Joneset::GJones()'
p969
sg14
g962
sg33
(dp970
g680
I78
sg694
I74
sg692
I76
sg693
I75
sg684
I77
ssg35
(dp971
g680
I00
sg164
I01
sg2
I01
sg183
I01
sg105
I01
sg157
I01
sg697
I01
sg163
I01
sg685
I01
sg698
I01
sg103
I01
sg115
I01
sg343
I01
sg116
I01
ssg44
g350
sg29
g30
sg48
S'MG_JEN_Joneset::GJones()  version=15dec2005  defined=2006-03-27 16:55'
p972
sg79
S'GJones'
p973
sg50
(dp974
g680
(lp975
g681
ag703
a(lp976
g681
ag703
aaNaS'@@unop'
p977
asg164
(lp978
g707
aS'@@style'
p979
asg2
(lp980
g3
ag129
ag966
asg183
(lp981
F1.0
aS'@@c00_default'
p982
asg105
(lp983
(lp984
I0
aI1
aI2
aI3
aI4
aa(lp985
I0
aI1
aI2
aI3
aI4
aI5
aI6
aa(lp986
I0
aI1
aI2
aI3
aI4
aI5
aI6
aI7
aI8
aI9
aI10
aI11
aI12
aI13
aa(lp987
I0
aI1
aI2
aI3
aI4
aI5
aI6
aI7
aI8
aI9
aI10
aI11
aI12
aI13
aI14
aag135
ag967
asg157
(lp988
g683
aS'@@color'
p989
asg684
(lp990
I0
aF0.01
aF0.10000000000000001
aF0.20000000000000001
aF0.5
aS'@@stddev_period'
p991
asg697
(lp992
I20
aS'@@timescale_min'
p993
asg698
(lp994
F1.0
aS'@@c00_scale'
p995
asg692
(lp996
F0.29999999999999999
aF0.5
aI1
aI2
aI3
aS'@@mean_period'
p997
asg693
(lp998
I0
aF0.0001
aF0.001
aF0.01
aF0.10000000000000001
aI1
aS'@@stddev_c00'
p999
asg163
(lp1000
I5
aS'@@size'
p1001
asg685
(lp1002
I0
aS'@@fdeg'
p1003
asg694
(lp1004
I0
aF0.10000000000000001
aF0.20000000000000001
aF0.5
aF-0.10000000000000001
aS'@@mean_c00'
p1005
asg103
(lp1006
g284
aS'@@@Jsequence_KJones'
p1007
asg115
(lp1008
g284
aS'@@@Jsequence_simul'
p1009
asg343
(lp1010
I01
aI00
aS'@@Gpolar'
p1011
asg116
(lp1012
g284
aS'@@@Jsequence'
p1013
assg70
g748
sg81
I00
sg82
S'2006-03-27 16:55'
p1014
sg40
g348
sg31
S'MG_JEN_Joneset'
p1015
sg46
(dp1016
g343
I00
ssg75
S'** Specific description of inarg record for: MG_JEN_Joneset::GJones()  version=15dec2005  defined=2006-03-27 16:55'
p1017
sg42
(dp1018
g2
I00
sg105
I00
ssg71
g1014
sg91
(lp1019
g12
ag105
ag2
ag116
ag115
ag103
ag343
ag694
ag693
ag692
ag684
ag680
ag697
ag685
ag157
ag164
ag163
ag183
ag698
asg15
(dp1020
g680
g756
sg164
g177
sg2
g145
sg183
g758
sg105
g146
sg157
g173
sg684
g759
sg697
g757
sg698
g761
sg692
g760
sg693
g762
sg163
g765
sg685
g763
sg694
g764
sg103
g144
sg115
g144
sg343
g344
sg116
g144
ssg77
S'MG_JEN_JonesetGJones'
p1021
ssg685
I0
sg698
F1.0
sg103
g284
sg115
g284
sg343
I01
sg116
g284
ssg963
(dp1022
g680
g681
sg2
S'@@polrep'
p1023
sg157
g683
sg684
F0.10000000000000001
sg685
I0
sg163
I5
sg164
g707
sg687
F0.20000000000000001
sg12
(dp1024
g73
S'MG_JEN_Joneset::FJones()'
p1025
sg14
g963
sg33
(dp1026
g680
I95
sg686
I105
sg691
I104
sg684
I94
sg687
I103
sg692
I93
sg693
I92
sg694
I91
sg695
I106
ssg35
(dp1027
g680
I00
sg164
I01
sg2
I01
sg183
I01
sg105
I01
sg157
I01
sg697
I01
sg685
I01
sg698
I01
sg103
I01
sg115
I01
sg163
I01
sg116
I01
ssg44
g618
sg29
g30
sg48
S'MG_JEN_Joneset::FJones()  version=16dec2005  defined=2006-03-27 16:55'
p1028
sg79
S'FJones'
p1029
sg50
(dp1030
g680
(lp1031
g681
ag703
a(lp1032
g681
ag703
aaNaS'@@unop'
p1033
asg164
(lp1034
g707
aS'@@style'
p1035
asg2
(lp1036
g3
ag129
ag1023
asg183
(lp1037
F1.0
aS'@@c00_default'
p1038
asg105
(lp1039
(lp1040
I0
aI1
aI2
aI3
aI4
aa(lp1041
I0
aI1
aI2
aI3
aI4
aI5
aI6
aa(lp1042
I0
aI1
aI2
aI3
aI4
aI5
aI6
aI7
aI8
aI9
aI10
aI11
aI12
aI13
aa(lp1043
I0
aI1
aI2
aI3
aI4
aI5
aI6
aI7
aI8
aI9
aI10
aI11
aI12
aI13
aI14
aag135
aS'@@stations'
p1044
asg157
(lp1045
g683
aS'@@color'
p1046
asg684
(lp1047
I0
aF0.01
aF0.10000000000000001
aF0.20000000000000001
aF0.5
aS'@@stddev_period'
p1048
asg697
(lp1049
I20
aS'@@timescale_min'
p1050
asg698
(lp1051
F1.0
aS'@@c00_scale'
p1052
asg692
(lp1053
F0.29999999999999999
aF0.5
aI1
aI2
aI3
aS'@@mean_period'
p1054
asg693
(lp1055
I0
aF0.0001
aF0.001
aF0.01
aF0.10000000000000001
aI1
aS'@@stddev_c00'
p1056
asg685
(lp1057
I0
aS'@@fdeg'
p1058
asg103
(lp1059
g287
aS'@@@Jsequence_KJones'
p1060
asg694
(lp1061
I0
aF0.10000000000000001
aF0.20000000000000001
aF0.5
aF-0.10000000000000001
aS'@@mean_c00'
p1062
asg115
(lp1063
g287
aS'@@@Jsequence_simul'
p1064
asg163
(lp1065
I5
aS'@@size'
p1066
asg116
(lp1067
g287
aS'@@@Jsequence'
p1068
assg70
g748
sg81
I00
sg82
S'2006-03-27 16:55'
p1069
sg40
g198
sg31
S'MG_JEN_Joneset'
p1070
sg75
S'** Specific description of inarg record for: MG_JEN_Joneset::FJones()  version=16dec2005  defined=2006-03-27 16:55'
p1071
sg42
(dp1072
g2
I00
sg105
I00
ssg71
g1069
sg91
(lp1073
g12
ag105
ag2
ag116
ag115
ag103
ag694
ag693
ag692
ag684
ag680
ag697
ag685
ag157
ag164
ag163
ag183
ag698
ag687
ag691
ag686
ag695
asg15
(dp1074
g680
g756
sg164
g177
sg2
g145
sg183
g758
sg105
g146
sg157
g173
sg684
g759
sg697
g757
sg698
g761
sg692
g760
sg693
g762
sg685
g763
sg103
g144
sg694
g764
sg115
g144
sg163
g765
sg116
g144
ssg77
S'MG_JEN_JonesetFJones'
p1075
ssg103
g287
sg116
g287
sg691
I50
sg183
F1.0
sg686
I500
sg694
F0.10000000000000001
sg105
g1044
sg697
I20
sg692
F1.0
sg693
F0.01
sg698
F1.0
sg115
g287
sg695
F0.02
ssg917
(lp1076
g150
assS'[solve]./MG_JEN_Sixpack.newstar_source()'
p1077
(dp1078
S'f0'
p1079
F1000000.0
sg155
I01
sS'major'
p1080
F0.0
sS'unsolvable'
p1081
I00
sg157
g158
sS'shape'
p1082
S'point'
p1083
sg95
g96
sS'Upct'
p1084
I-10
sg162
I01
sg163
I10
sg164
g165
sS'I0'
p1085
F1.0
sS'SI'
p1086
Nsg167
g168
sS'Vpct'
p1087
Nsg169
NsS'pa'
p1088
F0.0
sS'RA'
p1089
F1.4950000000000001
sS'RM'
p1090
NsS'minor'
p1091
F0.0
sg12
(dp1092
g14
g1077
sg15
(dp1093
g1079
S'reference freq (Hz): I=I0 @ f=f0'
p1094
sg155
g172
sg1080
S'major axis (arcsec)'
p1095
sg1081
S'if True, do NOT store solvegroup/parmgroup info'
p1096
sg157
g173
sg1082
S'source shape'
p1097
sg95
S'name of the MeqParm table (AIPS++)'
p1098
sg1084
S'Stokes U (percentage of I)'
p1099
sg162
g175
sg163
g176
sg164
g177
sg1085
S'Stokes I: Total intensity @ f=f0 (usually 1 MHz)'
p1100
sg1086
S'Spectral Index (generalised)\n   A scalar represents the classical SI: I(f)=I0*(f/f0)^SI\n   A vector represents a freq-dependent SI (....)'
p1101
sg167
g179
sg1087
S'Stokes V (percentage of I)'
p1102
sg169
g180
sg1088
S'position angle (rad)'
p1103
sg1089
S'Right Ascension (rad, J2000)'
p1104
sg1090
S'Intrinsic Rotation Measure (rad/m2)'
p1105
sg1091
S'minor axis (arcsec)'
p1106
sg183
g184
sS'Qpct'
p1107
S'Stokes Q (percentage of I)'
p1108
sS'punit'
p1109
S'name of calibrator source/patch \n- unpol:   unpolarised, I=1Jy \n- unpol2:  idem, I=2Jy \n- unpol10: idem, I=10Jy \n- RMtest:  Rotation Measure \n- SItest:  Spectral Index \n- QUV:     non-zero Q,U,V \n- QU:      non-zero Q,U \n- QU2:     stronger version of QU \n- Qonly:   non-zero Q \n- Uonly:   non-zero U \n- Vonly:   non-zero V \n- 3c286:   \n- 3c48:    \n- 3c295:   \n- 3c147:   \n- D1:      cps in D1.MS \n'
p1110
sS'Dec'
p1111
S'Declination (rad, J2000)'
p1112
sS'fsr_trace'
p1113
S'If True, attach to forest state record'
p1114
sg189
g190
sg191
g192
sg193
g194
ssg29
g30
sg31
S'MG_JEN_Sixpack'
p1115
sg33
(dp1116
g155
I346
sg189
I344
sg1111
I338
sg1085
I330
sg1107
I331
sg1087
I333
sg1086
I335
sg95
I328
sg1089
I337
sg1090
I334
sg1084
I332
sg1109
I326
sg162
I345
ssg35
(dp1117
g1079
I01
sg1080
I01
sg1081
I01
sS'name'
p1118
I01
sg183
I01
sg157
I01
sg191
I01
sg1082
I01
sg1113
I01
sg1109
I00
sg169
I01
sg1088
I01
sg167
I01
sg193
I01
sg164
I01
sg1091
I01
sg163
I01
ssg40
S'10feb2006'
p1119
sg44
S'Make a Sixpack (I,Q,U,V,Ra,Dec) for a source with NEWSTAR parametrisation'
p1120
sg46
(dp1121
g155
I00
sg1081
I00
sg1113
I00
sg162
I00
sg189
I00
ssg48
S'MG_JEN_Sixpack::newstar_source()  version=10feb2006  defined=2006-03-27 16:55'
p1122
sg50
(dp1123
g1079
(lp1124
F1000000.0
aS'@@f0'
p1125
asg155
(lp1126
I01
aI00
aS'@@reset_funklet'
p1127
asg1080
(lp1128
F0.0
aF1.0
aF10.0
aF100.0
aS'@@major'
p1129
asg1081
(lp1130
I01
aI00
aS'@@unsolvable'
p1131
asg157
(lp1132
g158
aS'@@color'
p1133
asg1082
(lp1134
g1083
aS'ell.gauss'
p1135
aS'@@shape'
p1136
asg95
(lp1137
NaS'@@parmtable'
p1138
asg1084
(lp1139
NaF-0.10000000000000001
aF0.050000000000000003
aF-0.01
aS'@@Upct'
p1140
asg162
(lp1141
I01
aI00
aS'@@auto_save'
p1142
asg163
(lp1143
I10
aS'@@size'
p1144
asg164
(lp1145
g165
aS'@@style'
p1146
asg1085
(lp1147
F1.0
aF10.0
aS'@@I0'
p1148
asg1086
(lp1149
NaF-0.69999999999999996
a(lp1150
F0.44700000000000001
aF-0.184
aaS'@@SI'
p1151
asg167
(lp1152
g168
aS'@@condeq_corrs'
p1153
asg1087
(lp1154
NaF0.01
aF-0.0050000000000000001
aF0.001
aS'@@Vpct'
p1155
asg169
(lp1156
NaS'@@funklet_shape'
p1157
asg1088
(lp1158
F0.0
aF1.0
aF-0.5
aS'@@pa'
p1159
asg1089
(lp1160
F0.0
aF0.5
aF1.0
aF1.4950000000000001
aF4.3570000000000002
aS'@@RA'
p1161
asg1090
(lp1162
NaF1.0
aF3.0
aF10.0
aF-10.0
aF60.0
aS'@@RM'
p1163
asg1091
(lp1164
F0.0
aF0.5
aF5.0
aF50.0
aS'@@minor'
p1165
asg183
(lp1166
F1.0
aS'@@c00_default'
p1167
asg1107
(lp1168
NaF0.10000000000000001
aF-0.050000000000000003
aF0.01
aS'@@Qpct'
p1169
asg1109
(lp1170
S'unpol'
p1171
aS'unpol2'
p1172
aS'unpol10'
p1173
aS'QUV'
p1174
aS'QU'
p1175
aS'Qonly'
p1176
aS'Uonly'
p1177
aS'Vonly'
p1178
aS'3c147'
p1179
aS'3c286'
p1180
aS'3c48'
p1181
aS'3c295'
p1182
aS'D1'
p1183
aS'RMtest'
p1184
aS'SItest'
p1185
aS'@@punit'
p1186
asg1111
(lp1187
F0.5
aF1.0
aF0.87
aF1.0920000000000001
aS'@@Dec'
p1188
asg1118
(lp1189
NaS'@@name'
p1190
asg1113
(lp1191
I01
aI00
aS'@@fsr_trace'
p1192
asg189
(lp1193
I01
aI00
aS'@@use_previous'
p1194
asg191
(lp1195
NaS'@@subtile_size'
p1196
asg193
(lp1197
NaS'@@tfdeg'
p1198
assg70
S'solve'
p1199
sg71
S'2006-03-27 16:55'
p1200
sg73
S'MG_JEN_Sixpack::newstar_source()'
p1201
sg75
S'** Specific description of inarg record for: MG_JEN_Sixpack::newstar_source()  version=10feb2006  defined=2006-03-27 16:55'
p1202
sg77
S'MG_JEN_Sixpacknewstar_source'
p1203
sg79
S'newstar_source'
p1204
sS'callback'
p1205
(dp1206
g1109
I01
ssg81
I00
sg82
g1200
sg83
(dp1207
g85
S'.modify( Qpct ): None  ->  10'
p1208
sg87
S'.modify( parmtable ): None  ->  simul_DJones'
p1209
sg311
S'.modify( punit ): unpol  ->  QU'
p1210
sg89
S'.modify( Upct ): None  ->  -10'
p1211
ssg91
(lp1212
g12
ag1109
ag1118
ag95
ag1081
ag1085
ag1107
ag1084
ag1087
ag1090
ag1086
ag1079
ag1089
ag1111
ag1113
ag1082
ag1080
ag1091
ag1088
ag189
ag162
ag155
ag157
ag164
ag163
ag183
ag193
ag169
ag191
ag167
assg183
F1.0
sg1107
I10
sg1109
g1175
sg1111
F0.87
sg1118
Nsg1113
I01
sg189
I01
sg191
Nsg193
NssS'[simul]./MG_JEN_Cohset.predict_lsm()'
p1213
(dp1214
g2
S'@@polrep'
p1215
sg105
S'@@stations'
p1216
sg12
(dp1217
g73
S'MG_JEN_Cohset::predict_lsm()'
p1218
sg14
g1213
sg33
(dp1219
S'nr_lsm_sources'
p1220
I184
ssg35
(dp1221
g103
I01
sg115
I01
sg105
I01
sg2
I01
sg116
I01
ssg77
S'MG_JEN_Cohsetpredict_lsm'
p1222
sg29
g30
sg44
S'Obsolete (upward compatibility) version of .predict_cps()'
p1223
sg48
S'MG_JEN_Cohset::predict_lsm()  version=20mar2006  defined=2006-03-27 16:55'
p1224
sg79
S'predict_lsm'
p1225
sg50
(dp1226
g2
(lp1227
g3
ag129
ag1215
asg105
(lp1228
(lp1229
I0
aI1
aI2
aI3
aI4
aa(lp1230
I0
aI1
aI2
aI3
aI4
aI5
aI6
aa(lp1231
I0
aI1
aI2
aI3
aI4
aI5
aI6
aI7
aI8
aI9
aI10
aI11
aI12
aI13
aa(lp1232
I0
aI1
aI2
aI3
aI4
aI5
aI6
aI7
aI8
aI9
aI10
aI11
aI12
aI13
aI14
aag135
ag1216
asg1220
(lp1233
I1
aI2
aI3
aI5
aI10
aI20
aI100
aS'@@nr_lsm_sources'
p1234
asg103
(lp1235
NaS'@@@Jsequence_KJones'
p1236
asg115
(lp1237
NaS'@@@Jsequence_simul'
p1238
asg116
(lp1239
NaS'@@@Jsequence'
p1240
assg70
S'simul'
p1241
sg81
I00
sg82
S'2006-03-27 16:55'
p1242
sg40
S'20mar2006'
p1243
sg31
S'MG_JEN_Cohset'
p1244
sg75
S'** Specific description of inarg record for: MG_JEN_Cohset::predict_lsm()  version=20mar2006  defined=2006-03-27 16:55'
p1245
sg83
(dp1246
g87
S'** JEN_inarg.attach(): attached: [simul_imp]./MG_JEN_Cohset.Jones()'
p1247
ssg71
g1242
sg42
(dp1248
g2
I00
sg105
I00
ssg91
(lp1249
g12
ag1220
ag105
ag2
ag116
ag115
ag103
aS'[simul_imp]./MG_JEN_Cohset.Jones()'
p1250
asg15
(dp1251
g2
g145
sg105
g146
sg1220
S'nr of lsm sources to be included (in order of brightness'
p1252
sg103
g144
sg115
g144
sg116
g144
sssg1220
I1
sg103
Nsg115
Nsg116
Nsg1250
(dp1253
S'[simul_imp]./MG_JEN_Joneset.DJones_WSRT()'
p1254
(dp1255
g155
I01
sg2
S'@@polrep'
p1256
sg157
g158
sg420
g421
sg422
I01
sg95
g96
sg423
Nsg162
I01
sg163
I10
sg164
g165
sg167
g168
sg169
Nsg12
(dp1257
g14
g1254
sg15
(dp1258
g155
g172
sg2
g145
sg157
g173
sg420
g426
sg422
g427
sg95
g187
sg423
g428
sg162
g175
sg163
g176
sg164
g177
sg167
g179
sg169
g180
sg103
g144
sg429
g428
sg116
g144
sg430
g426
sg183
g184
sg151
g186
sg431
g432
sg433
g434
sg435
g432
sg105
g146
sg189
g190
sg191
g192
sg193
g194
sg115
g144
ssg29
g30
sg31
S'MG_JEN_Joneset'
p1259
sg33
(dp1260
g430
I284
sg155
I290
sg420
I285
sg422
I279
sg189
I288
sg162
I289
sg431
I283
sg433
I278
sg423
I286
sg429
I287
sg435
I282
ssg35
(dp1261
g164
I01
sg2
I01
sg183
I01
sg105
I01
sg157
I01
sg169
I01
sg167
I01
sg151
I01
sg191
I01
sg193
I01
sg95
I01
sg103
I01
sg115
I01
sg116
I01
sg163
I01
ssg40
g198
sg42
(dp1262
g151
I00
sg95
I00
sg2
I00
sg105
I00
ssg44
g440
sg46
(dp1263
g155
I00
sg433
I00
sg422
I00
sg162
I00
sg189
I00
ssg48
S'MG_JEN_Joneset::DJones_WSRT()  version=16dec2005  defined=2006-03-27 16:55'
p1264
sg50
(dp1265
g155
(lp1266
I01
aI00
aS'@@reset_funklet'
p1267
asg2
(lp1268
g3
ag129
ag1256
asg157
(lp1269
g158
aS'@@color'
p1270
asg420
(lp1271
I0
aI1
aI2
aI3
ag421
aS'@@fdeg_Dell'
p1272
asg422
(lp1273
I01
aI00
aS'@@coupled_XY_Dell'
p1274
asg95
(lp1275
Nag241
aS'@@parmtable'
p1276
asg423
(lp1277
NaI1
aI2
aI5
aI10
aI20
aI50
aI100
aI200
aI500
aS'@@subtile_size_Dang'
p1278
asg162
(lp1279
I01
aI00
aS'@@auto_save'
p1280
asg163
(lp1281
I10
aS'@@size'
p1282
asg164
(lp1283
g165
aS'@@style'
p1284
asg167
(lp1285
g168
aS'@@condeq_corrs'
p1286
asg169
(lp1287
NaS'@@funklet_shape'
p1288
asg103
(lp1289
g150
aS'@@@Jsequence_KJones'
p1290
asg429
(lp1291
g470
aNaI1
aI2
aI5
aI10
aI20
aI50
aI100
aI200
aI500
aS'@@subtile_size_Dell'
p1292
asg116
(lp1293
g150
aS'@@@Jsequence'
p1294
asg430
(lp1295
I0
aI1
aI2
aI3
aS'@@fdeg_Dang'
p1296
asg183
(lp1297
F1.0
aS'@@c00_default'
p1298
asg151
(lp1299
I00
aS'@@uvplane_effect'
p1300
asg431
(lp1301
I0
aI1
aI2
aI3
ag481
aS'@@tdeg_Dell'
p1302
asg433
(lp1303
I01
aI00
aS'@@coupled_XY_Dang'
p1304
asg435
(lp1305
I0
aI1
aI2
aI3
aS'@@tdeg_Dang'
p1306
asg105
(lp1307
(lp1308
I0
aI1
aI2
aI3
aI4
aa(lp1309
I0
aI1
aI2
aI3
aI4
aI5
aI6
aa(lp1310
I0
aI1
aI2
aI3
aI4
aI5
aI6
aI7
aI8
aI9
aI10
aI11
aI12
aI13
aa(lp1311
I0
aI1
aI2
aI3
aI4
aI5
aI6
aI7
aI8
aI9
aI10
aI11
aI12
aI13
aI14
aag135
aS'@@stations'
p1312
asg189
(lp1313
I01
aI00
aS'@@use_previous'
p1314
asg191
(lp1315
NaS'@@subtile_size'
p1316
asg193
(lp1317
NaS'@@tfdeg'
p1318
asg115
(lp1319
g150
aS'@@@Jsequence_simul'
p1320
assg70
S'simul_imp'
p1321
sg71
S'2006-03-27 16:55'
p1322
sg73
S'MG_JEN_Joneset::DJones_WSRT()'
p1323
sg75
S'** Specific description of inarg record for: MG_JEN_Joneset::DJones_WSRT()  version=16dec2005  defined=2006-03-27 16:55'
p1324
sg77
S'MG_JEN_JonesetDJones_WSRT'
p1325
sg79
S'DJones_WSRT'
p1326
sg81
I00
sg82
g1322
sg83
(dp1327
g87
S'.modify( parmtable ): @@parmtable  ->  simul_DJones'
p1328
ssg91
(lp1329
g12
ag105
ag2
ag116
ag115
ag103
ag433
ag422
ag95
ag151
ag435
ag431
ag430
ag420
ag423
ag429
ag189
ag162
ag155
ag157
ag164
ag163
ag183
ag193
ag169
ag191
ag167
assg103
g150
sg429
g470
sg116
g150
sg430
I0
sg183
F1.0
sg151
g1300
sg431
g481
sg433
I01
sg435
I0
sg105
g1312
sg189
I01
sg191
Nsg193
Nsg115
g150
ssg2
S'@@polrep'
p1330
sg105
S'@@stations'
p1331
sS'[simul_imp]./MG_JEN_Joneset.GJones()'
p1332
(dp1333
g155
I01
sg2
S'@@polrep'
p1334
sg332
I0
sg157
g158
sg95
g96
sg162
I01
sg163
I10
sg164
g165
sg333
I1
sg167
g168
sg169
Nsg12
(dp1335
g14
g1332
sg15
(dp1336
g155
g172
sg2
g145
sg332
g336
sg157
g173
sg193
g194
sg162
g175
sg163
g176
sg164
g177
sg333
g337
sg167
g179
sg169
g180
sg103
g144
sg116
g144
sg183
g184
sg338
g339
sg340
g339
sg341
g336
sg342
g337
sg343
g344
sg151
g186
sg105
g146
sg189
g190
sg191
g192
sg95
g187
sg115
g144
ssg29
g30
sg31
S'MG_JEN_Joneset'
p1337
sg33
(dp1338
g155
I214
sg332
I208
sg333
I210
sg338
I207
sg189
I212
sg340
I206
sg341
I209
sg342
I211
sg162
I213
ssg35
(dp1339
g164
I01
sg2
I01
sg183
I01
sg105
I01
sg157
I01
sg116
I01
sg169
I01
sg167
I01
sg151
I01
sg191
I01
sg193
I01
sg95
I01
sg103
I01
sg115
I01
sg343
I01
sg163
I01
ssg40
g348
sg42
(dp1340
g151
I00
sg95
I00
sg2
I00
sg105
I00
ssg44
g350
sg46
(dp1341
g155
I00
sg343
I00
sg162
I00
sg189
I00
ssg48
S'MG_JEN_Joneset::GJones()  version=15dec2005  defined=2006-03-27 16:55'
p1342
sg50
(dp1343
g155
(lp1344
I01
aI00
aS'@@reset_funklet'
p1345
asg2
(lp1346
g3
ag129
ag1334
asg332
(lp1347
I0
aI1
aI2
aI3
aS'@@fdeg_Ggain'
p1348
asg157
(lp1349
g158
aS'@@color'
p1350
asg193
(lp1351
NaS'@@tfdeg'
p1352
asg162
(lp1353
I01
aI00
aS'@@auto_save'
p1354
asg163
(lp1355
I10
aS'@@size'
p1356
asg164
(lp1357
g165
aS'@@style'
p1358
asg333
(lp1359
NaI1
aI2
aI5
aI10
aI20
aI50
aI100
aI200
aI500
aS'@@subtile_size_Ggain'
p1360
asg167
(lp1361
g168
aS'@@condeq_corrs'
p1362
asg169
(lp1363
NaS'@@funklet_shape'
p1364
asg103
(lp1365
g284
aS'@@@Jsequence_KJones'
p1366
asg116
(lp1367
g284
aS'@@@Jsequence'
p1368
asg183
(lp1369
F1.0
aS'@@c00_default'
p1370
asg338
(lp1371
I0
aI1
aI2
aI3
ag382
aS'@@tdeg_Gphase'
p1372
asg340
(lp1373
I0
aI1
aI2
aI3
aS'@@tdeg_Ggain'
p1374
asg341
(lp1375
I0
aI1
aI2
aI3
ag387
aS'@@fdeg_Gphase'
p1376
asg342
(lp1377
g390
aNaI1
aI2
aI5
aI10
aI20
aI50
aI100
aI200
aI500
aS'@@subtile_size_Gphase'
p1378
asg343
(lp1379
I01
aI00
aS'@@Gpolar'
p1380
asg151
(lp1381
I00
aS'@@uvplane_effect'
p1382
asg105
(lp1383
(lp1384
I0
aI1
aI2
aI3
aI4
aa(lp1385
I0
aI1
aI2
aI3
aI4
aI5
aI6
aa(lp1386
I0
aI1
aI2
aI3
aI4
aI5
aI6
aI7
aI8
aI9
aI10
aI11
aI12
aI13
aa(lp1387
I0
aI1
aI2
aI3
aI4
aI5
aI6
aI7
aI8
aI9
aI10
aI11
aI12
aI13
aI14
aag135
aS'@@stations'
p1388
asg189
(lp1389
I01
aI00
aS'@@use_previous'
p1390
asg191
(lp1391
NaS'@@subtile_size'
p1392
asg95
(lp1393
Nag241
aS'@@parmtable'
p1394
asg115
(lp1395
g284
aS'@@@Jsequence_simul'
p1396
assg70
g1321
sg71
S'2006-03-27 16:55'
p1397
sg73
S'MG_JEN_Joneset::GJones()'
p1398
sg75
S'** Specific description of inarg record for: MG_JEN_Joneset::GJones()  version=15dec2005  defined=2006-03-27 16:55'
p1399
sg77
S'MG_JEN_JonesetGJones'
p1400
sg79
S'GJones'
p1401
sg81
I00
sg82
g1397
sg83
(dp1402
g87
S'.modify( parmtable ): @@parmtable  ->  simul_DJones'
p1403
ssg91
(lp1404
g12
ag105
ag2
ag116
ag115
ag103
ag343
ag95
ag151
ag340
ag338
ag332
ag341
ag333
ag342
ag189
ag162
ag155
ag157
ag164
ag163
ag183
ag193
ag169
ag191
ag167
assg103
g284
sg116
g284
sg183
F1.0
sg338
g382
sg340
I0
sg341
g387
sg342
g390
sg343
I01
sg151
g1382
sg105
g1388
sg189
I01
sg191
Nsg193
Nsg115
g284
ssS'[simul_imp]./MG_JEN_Joneset.BJones()'
p1405
(dp1406
g155
I01
sg2
S'@@polrep'
p1407
sg157
g158
sg159
g160
sg161
Nsg162
I01
sg163
I10
sg164
g165
sg166
I5
sg167
g168
sg169
Nsg12
(dp1408
g14
g1405
sg15
(dp1409
g155
g172
sg2
g145
sg157
g173
sg159
g174
sg161
g174
sg162
g175
sg163
g176
sg164
g177
sg166
g178
sg167
g179
sg169
g180
sg103
g144
sg181
g182
sg116
g144
sg183
g184
sg185
g178
sg151
g186
sg105
g146
sg193
g194
sg188
g182
sg189
g190
sg191
g192
sg95
g187
sg115
g144
ssg29
g30
sg31
S'MG_JEN_Joneset'
p1410
sg33
(dp1411
g155
I259
sg189
I257
sg166
I253
sg159
I256
sg188
I251
sg185
I254
sg161
I255
sg181
I252
sg162
I258
ssg35
(dp1412
g164
I01
sg2
I01
sg183
I01
sg105
I01
sg157
I01
sg169
I01
sg167
I01
sg151
I01
sg191
I01
sg193
I01
sg95
I01
sg103
I01
sg115
I01
sg116
I01
sg163
I01
ssg40
g198
sg42
(dp1413
g151
I00
sg95
I00
sg2
I00
sg105
I00
ssg44
g200
sg46
(dp1414
g155
I00
sg162
I00
sg189
I00
ssg48
S'MG_JEN_Joneset::BJones()  version=16dec2005  defined=2006-03-27 16:55'
p1415
sg50
(dp1416
g155
(lp1417
I01
aI00
aS'@@reset_funklet'
p1418
asg2
(lp1419
g3
ag129
ag1407
asg157
(lp1420
g158
aS'@@color'
p1421
asg159
(lp1422
g160
aNaI1
aI2
aI5
aI10
aI20
aI50
aI100
aI200
aI500
aS'@@subtile_size_Bimag'
p1423
asg161
(lp1424
NaI1
aI2
aI5
aI10
aI20
aI50
aI100
aI200
aI500
aS'@@subtile_size_Breal'
p1425
asg162
(lp1426
I01
aI00
aS'@@auto_save'
p1427
asg163
(lp1428
I10
aS'@@size'
p1429
asg164
(lp1430
g165
aS'@@style'
p1431
asg166
(lp1432
I3
aI4
aI5
aI6
aS'@@fdeg_Breal'
p1433
asg167
(lp1434
g168
aS'@@condeq_corrs'
p1435
asg169
(lp1436
NaS'@@funklet_shape'
p1437
asg103
(lp1438
g226
aS'@@@Jsequence_KJones'
p1439
asg181
(lp1440
I0
aI1
aI2
aI3
ag229
aS'@@tdeg_Bimag'
p1441
asg116
(lp1442
g226
aS'@@@Jsequence'
p1443
asg183
(lp1444
F1.0
aS'@@c00_default'
p1445
asg185
(lp1446
I3
aI4
aI5
aI6
ag236
aS'@@fdeg_Bimag'
p1447
asg151
(lp1448
I00
aS'@@uvplane_effect'
p1449
asg105
(lp1450
(lp1451
I0
aI1
aI2
aI3
aI4
aa(lp1452
I0
aI1
aI2
aI3
aI4
aI5
aI6
aa(lp1453
I0
aI1
aI2
aI3
aI4
aI5
aI6
aI7
aI8
aI9
aI10
aI11
aI12
aI13
aa(lp1454
I0
aI1
aI2
aI3
aI4
aI5
aI6
aI7
aI8
aI9
aI10
aI11
aI12
aI13
aI14
aag135
aS'@@stations'
p1455
asg193
(lp1456
NaS'@@tfdeg'
p1457
asg188
(lp1458
I0
aI1
aI2
aI3
aS'@@tdeg_Breal'
p1459
asg189
(lp1460
I01
aI00
aS'@@use_previous'
p1461
asg191
(lp1462
NaS'@@subtile_size'
p1463
asg95
(lp1464
Nag241
aS'@@parmtable'
p1465
asg115
(lp1466
g226
aS'@@@Jsequence_simul'
p1467
assg70
g1321
sg71
S'2006-03-27 16:55'
p1468
sg73
S'MG_JEN_Joneset::BJones()'
p1469
sg75
S'** Specific description of inarg record for: MG_JEN_Joneset::BJones()  version=16dec2005  defined=2006-03-27 16:55'
p1470
sg77
S'MG_JEN_JonesetBJones'
p1471
sg79
S'BJones'
p1472
sg81
I00
sg82
g1468
sg83
(dp1473
g87
S'.modify( parmtable ): @@parmtable  ->  simul_DJones'
p1474
ssg91
(lp1475
g12
ag105
ag2
ag116
ag115
ag103
ag95
ag151
ag188
ag181
ag166
ag185
ag161
ag159
ag189
ag162
ag155
ag157
ag164
ag163
ag183
ag193
ag169
ag191
ag167
assg103
g226
sg181
g229
sg116
g226
sg183
F1.0
sg185
g236
sg151
g1449
sg95
g96
sg105
g1455
sg188
I0
sg189
I01
sg191
Nsg193
Nsg115
g226
ssg151
S'@@uvplane_effect'
p1476
sg95
g96
sg12
(dp1477
g73
g268
sg14
g1250
sg33
(dp1478
S'Jsequence_simul_imp'
p1479
I197
ssg35
(dp1480
g2
I01
sg105
I01
sg151
I01
sg95
I01
sg103
I01
sg115
I01
sg116
I01
ssg44
g272
sg29
g30
sg48
S'MG_JEN_Cohset::Jones()  version=25dec2005  defined=2006-03-27 16:55'
p1481
sg79
S'Jones'
p1482
sg50
(dp1483
g2
(lp1484
g3
ag129
ag1330
asg105
(lp1485
(lp1486
I0
aI1
aI2
aI3
aI4
aa(lp1487
I0
aI1
aI2
aI3
aI4
aI5
aI6
aa(lp1488
I0
aI1
aI2
aI3
aI4
aI5
aI6
aI7
aI8
aI9
aI10
aI11
aI12
aI13
aa(lp1489
I0
aI1
aI2
aI3
aI4
aI5
aI6
aI7
aI8
aI9
aI10
aI11
aI12
aI13
aI14
aag135
ag1331
asg151
(lp1490
I00
ag1476
asg95
(lp1491
Nag241
aS'@@parmtable'
p1492
asg103
(lp1493
NaS'@@@Jsequence_KJones'
p1494
asg115
(lp1495
NaS'@@@Jsequence_simul'
p1496
asg1479
(lp1497
(lp1498
g284
aa(lp1499
g226
aa(lp1500
g287
aa(lp1501
g122
aa(lp1502
g150
aa(lp1503
g284
ag150
aa(lp1504
g292
aa(lp1505
aS'@@Jsequence_simul_imp'
p1506
asg116
(lp1507
NaS'@@@Jsequence'
p1508
assg70
g1321
sg81
I00
sg82
S'2006-03-27 16:55'
p1509
sg40
g305
sg31
S'MG_JEN_Cohset'
p1510
sg75
S'** Specific description of inarg record for: MG_JEN_Cohset::Jones()  version=25dec2005  defined=2006-03-27 16:55'
p1511
sg83
(dp1512
g85
S'** JEN_inarg.attach(): attached: [simul_imp]./MG_JEN_Joneset.FJones()'
p1513
sg87
S'** JEN_inarg.attach(): attached: [simul_imp]./MG_JEN_Joneset.GJones()'
p1514
sg311
S'** JEN_inarg.attach(): attached: [simul_imp]./MG_JEN_Joneset.KJones()'
p1515
sg89
S'** JEN_inarg.attach(): attached: [simul_imp]./MG_JEN_Joneset.BJones()'
p1516
sg314
S'** JEN_inarg.attach(): attached: [simul_imp]./MG_JEN_Joneset.JJones()'
p1517
sg316
S'** JEN_inarg.attach(): attached: [simul_imp]./MG_JEN_Joneset.DJones_WSRT()'
p1518
sg320
S'.modify( parmtable ): @@parmtable  ->  simul_DJones'
p1519
ssg71
g1509
sg42
(dp1520
g151
I00
sg95
I00
sg2
I00
sg105
I00
ssg91
(lp1521
g12
ag105
ag2
ag116
ag115
ag103
ag95
ag151
ag1479
ag1332
aS'[simul_imp]./MG_JEN_Joneset.FJones()'
p1522
ag1405
aS'[simul_imp]./MG_JEN_Joneset.KJones()'
p1523
ag1254
aS'[simul_imp]./MG_JEN_Joneset.JJones()'
p1524
asg15
(dp1525
g2
g145
sg105
g146
sg151
g186
sg95
g187
sg103
g144
sg115
g144
sg1479
g329
sg116
g144
ssg77
S'MG_JEN_CohsetJones'
p1526
ssg1524
(dp1527
g155
I01
sg2
S'@@polrep'
p1528
sg511
I0
sg157
g158
sg512
Nsg95
g96
sg513
Nsg162
I01
sg163
I10
sg164
g165
sg514
g515
sg167
g168
sg169
Nsg12
(dp1529
g14
g1524
sg15
(dp1530
g155
g172
sg2
g145
sg511
g518
sg157
g173
sg512
g519
sg95
g187
sg513
g520
sg162
g175
sg163
g176
sg164
g177
sg514
g518
sg167
g179
sg169
g180
sg103
g144
sg521
g522
sg183
g184
sg151
g186
sg523
g522
sg524
g520
sg105
g146
sg525
g526
sg189
g190
sg191
g192
sg193
g194
sg115
g144
sg116
g144
ssg29
g30
sg31
S'MG_JEN_Joneset'
p1531
sg33
(dp1532
g155
I316
sg524
I313
sg514
I309
sg511
I308
sg525
I304
sg189
I314
sg512
I305
sg523
I311
sg513
I312
sg162
I315
sg521
I310
ssg35
(dp1533
g164
I01
sg2
I01
sg183
I01
sg105
I01
sg157
I01
sg169
I01
sg167
I01
sg151
I01
sg191
I01
sg193
I01
sg95
I01
sg103
I01
sg115
I01
sg116
I01
sg163
I01
ssg40
g530
sg42
(dp1534
g151
I00
sg95
I00
sg2
I00
sg105
I00
ssg44
g532
sg46
(dp1535
g155
I00
sg525
I00
sg162
I00
sg189
I00
ssg48
S'MG_JEN_Joneset::JJones()  version=14feb2006  defined=2006-03-27 16:55'
p1536
sg50
(dp1537
g155
(lp1538
I01
aI00
aS'@@reset_funklet'
p1539
asg2
(lp1540
g3
ag129
ag1528
asg511
(lp1541
I0
aI1
aI2
aI3
aS'@@tdeg_Jreal'
p1542
asg157
(lp1543
g158
aS'@@color'
p1544
asg512
(lp1545
Na(lp1546
I14
aa(lp1547
I1
aag546
aS'@@all4_always'
p1548
asg95
(lp1549
Nag241
aS'@@parmtable'
p1550
asg513
(lp1551
NaI1
aI2
aI5
aI10
aI20
aI50
aI100
aI200
aI500
aS'@@subtile_size_Jreal'
p1552
asg162
(lp1553
I01
aI00
aS'@@auto_save'
p1554
asg163
(lp1555
I10
aS'@@size'
p1556
asg164
(lp1557
g165
aS'@@style'
p1558
asg514
(lp1559
I0
aI1
aI2
aI3
ag515
aS'@@tdeg_Jimag'
p1560
asg167
(lp1561
g168
aS'@@condeq_corrs'
p1562
asg169
(lp1563
NaS'@@funklet_shape'
p1564
asg103
(lp1565
g292
aS'@@@Jsequence_KJones'
p1566
asg521
(lp1567
I0
aI1
aI2
aI3
aS'@@fdeg_Jreal'
p1568
asg183
(lp1569
F1.0
aS'@@c00_default'
p1570
asg151
(lp1571
I00
aS'@@uvplane_effect'
p1572
asg523
(lp1573
I0
aI1
aI2
aI3
ag573
aS'@@fdeg_Jimag'
p1574
asg524
(lp1575
g576
aNaI1
aI2
aI5
aI10
aI20
aI50
aI100
aI200
aI500
aS'@@subtile_size_Jimag'
p1576
asg105
(lp1577
(lp1578
I0
aI1
aI2
aI3
aI4
aa(lp1579
I0
aI1
aI2
aI3
aI4
aI5
aI6
aa(lp1580
I0
aI1
aI2
aI3
aI4
aI5
aI6
aI7
aI8
aI9
aI10
aI11
aI12
aI13
aa(lp1581
I0
aI1
aI2
aI3
aI4
aI5
aI6
aI7
aI8
aI9
aI10
aI11
aI12
aI13
aI14
aag135
aS'@@stations'
p1582
asg525
(lp1583
I01
aI00
aS'@@diagonal_only'
p1584
asg189
(lp1585
I01
aI00
aS'@@use_previous'
p1586
asg191
(lp1587
NaS'@@subtile_size'
p1588
asg193
(lp1589
NaS'@@tfdeg'
p1590
asg115
(lp1591
g292
aS'@@@Jsequence_simul'
p1592
asg116
(lp1593
g292
aS'@@@Jsequence'
p1594
assg70
g1321
sg71
S'2006-03-27 16:55'
p1595
sg73
S'MG_JEN_Joneset::JJones()'
p1596
sg75
S'** Specific description of inarg record for: MG_JEN_Joneset::JJones()  version=14feb2006  defined=2006-03-27 16:55'
p1597
sg77
S'MG_JEN_JonesetJJones'
p1598
sg79
S'JJones'
p1599
sg81
I00
sg82
g1595
sg83
(dp1600
g87
S'.modify( parmtable ): @@parmtable  ->  simul_DJones'
p1601
ssg91
(lp1602
g12
ag105
ag2
ag116
ag115
ag103
ag525
ag512
ag95
ag151
ag511
ag514
ag521
ag523
ag513
ag524
ag189
ag162
ag155
ag157
ag164
ag163
ag183
ag193
ag169
ag191
ag167
assg103
g292
sg521
I0
sg183
F1.0
sg151
g1572
sg523
g573
sg524
g576
sg105
g1582
sg525
I00
sg189
I01
sg191
Nsg193
Nsg115
g292
sg116
g292
ssg103
Nsg115
Nsg1522
(dp1603
g155
I01
sg2
S'@@polrep'
p1604
sg157
g158
sg193
Nsg162
I01
sg163
I10
sg164
g165
sg167
g168
sg169
Nsg12
(dp1605
g14
g1522
sg15
(dp1606
g155
g172
sg164
g177
sg2
g145
sg183
g184
sg105
g146
sg157
g173
sg608
g609
sg169
g180
sg167
g179
sg189
g190
sg610
g611
sg191
g192
sg193
g194
sg612
g613
sg95
g187
sg103
g144
sg115
g144
sg116
g144
sg162
g175
sg151
g186
sg163
g176
ssg29
g30
sg31
S'MG_JEN_Joneset'
p1607
sg33
(dp1608
g155
I235
sg608
I230
sg189
I233
sg610
I231
sg612
I232
sg162
I234
ssg35
(dp1609
g164
I01
sg2
I01
sg183
I01
sg105
I01
sg157
I01
sg169
I01
sg167
I01
sg151
I01
sg191
I01
sg193
I01
sg95
I01
sg103
I01
sg115
I01
sg116
I01
sg163
I01
ssg40
g198
sg42
(dp1610
g151
I00
sg95
I00
sg2
I00
sg105
I00
ssg44
g618
sg46
(dp1611
g155
I00
sg162
I00
sg189
I00
ssg48
S'MG_JEN_Joneset::FJones()  version=16dec2005  defined=2006-03-27 16:55'
p1612
sg50
(dp1613
g155
(lp1614
I01
aI00
aS'@@reset_funklet'
p1615
asg164
(lp1616
g165
aS'@@style'
p1617
asg2
(lp1618
g3
ag129
ag1604
asg183
(lp1619
F1.0
aS'@@c00_default'
p1620
asg105
(lp1621
(lp1622
I0
aI1
aI2
aI3
aI4
aa(lp1623
I0
aI1
aI2
aI3
aI4
aI5
aI6
aa(lp1624
I0
aI1
aI2
aI3
aI4
aI5
aI6
aI7
aI8
aI9
aI10
aI11
aI12
aI13
aa(lp1625
I0
aI1
aI2
aI3
aI4
aI5
aI6
aI7
aI8
aI9
aI10
aI11
aI12
aI13
aI14
aag135
aS'@@stations'
p1626
asg157
(lp1627
g158
aS'@@color'
p1628
asg608
(lp1629
I0
aI1
aI2
aI3
aS'@@tdeg_RM'
p1630
asg169
(lp1631
NaS'@@funklet_shape'
p1632
asg167
(lp1633
g168
aS'@@condeq_corrs'
p1634
asg189
(lp1635
I01
aI00
aS'@@use_previous'
p1636
asg610
(lp1637
I0
aI1
aI2
aI3
aS'@@fdeg_RM'
p1638
asg191
(lp1639
NaS'@@subtile_size'
p1640
asg193
(lp1641
NaS'@@tfdeg'
p1642
asg612
(lp1643
NaI1
aI2
aI5
aI10
aI20
aI50
aI100
aI200
aI500
aS'@@subtile_size_RM'
p1644
asg95
(lp1645
Nag241
aS'@@parmtable'
p1646
asg103
(lp1647
g287
aS'@@@Jsequence_KJones'
p1648
asg115
(lp1649
g287
aS'@@@Jsequence_simul'
p1650
asg116
(lp1651
g287
aS'@@@Jsequence'
p1652
asg162
(lp1653
I01
aI00
aS'@@auto_save'
p1654
asg151
(lp1655
I00
aS'@@uvplane_effect'
p1656
asg163
(lp1657
I10
aS'@@size'
p1658
assg70
g1321
sg71
S'2006-03-27 16:55'
p1659
sg73
S'MG_JEN_Joneset::FJones()'
p1660
sg75
S'** Specific description of inarg record for: MG_JEN_Joneset::FJones()  version=16dec2005  defined=2006-03-27 16:55'
p1661
sg77
S'MG_JEN_JonesetFJones'
p1662
sg79
S'FJones'
p1663
sg81
I00
sg82
g1659
sg83
(dp1664
g87
S'.modify( parmtable ): @@parmtable  ->  simul_DJones'
p1665
ssg91
(lp1666
g12
ag105
ag2
ag116
ag115
ag103
ag95
ag151
ag608
ag610
ag612
ag189
ag162
ag155
ag157
ag164
ag163
ag183
ag193
ag169
ag191
ag167
assg103
g287
sg116
g287
sg183
F1.0
sg151
g1656
sg105
g1626
sg608
I0
sg189
I01
sg610
I2
sg191
Nsg95
g96
sg612
I1
sg115
g287
ssg1523
(dp1667
g2
S'@@polrep'
p1668
sg105
S'@@stations'
p1669
sg12
(dp1670
g73
S'MG_JEN_Joneset::KJones()'
p1671
sg14
g1523
sg77
S'MG_JEN_JonesetKJones'
p1672
sg35
(dp1673
g103
I01
sg115
I01
sg105
I01
sg2
I01
sg116
I01
ssg44
g117
sg29
g30
sg48
S'MG_JEN_Joneset::KJones()  version=12dec2005  defined=2006-03-27 16:55'
p1674
sg79
S'KJones'
p1675
sg50
(dp1676
g103
(lp1677
g122
aS'@@@Jsequence_KJones'
p1678
asg115
(lp1679
g122
aS'@@@Jsequence_simul'
p1680
asg105
(lp1681
(lp1682
I0
aI1
aI2
aI3
aI4
aa(lp1683
I0
aI1
aI2
aI3
aI4
aI5
aI6
aa(lp1684
I0
aI1
aI2
aI3
aI4
aI5
aI6
aI7
aI8
aI9
aI10
aI11
aI12
aI13
aa(lp1685
I0
aI1
aI2
aI3
aI4
aI5
aI6
aI7
aI8
aI9
aI10
aI11
aI12
aI13
aI14
aag135
ag1669
asg2
(lp1686
g3
ag129
ag1668
asg116
(lp1687
g122
aS'@@@Jsequence'
p1688
assg70
g1321
sg81
I00
sg33
(dp1689
sg82
S'2006-03-27 16:55'
p1690
sg40
g138
sg31
S'MG_JEN_Joneset'
p1691
sg75
S'** Specific description of inarg record for: MG_JEN_Joneset::KJones()  version=12dec2005  defined=2006-03-27 16:55'
p1692
sg42
(dp1693
g2
I00
sg105
I00
ssg71
g1690
sg91
(lp1694
g12
ag105
ag2
ag116
ag115
ag103
asg15
(dp1695
g103
g144
sg115
g144
sg105
g146
sg2
g145
sg116
g144
sssg103
g122
sg115
g122
sg116
g122
ssg1479
(lp1696
sg116
NsssS'[solve]./MG_JEN_Cohset.predict_cps()'
p1697
(dp1698
g2
S'@@polrep'
p1699
sg105
S'@@stations'
p1700
sg12
(dp1701
g73
S'MG_JEN_Cohset::predict_cps()'
p1702
sg14
g1697
sg33
(dp1703
sg35
(dp1704
g103
I01
sg115
I01
sg105
I01
sg2
I01
sg116
I01
ssg77
S'MG_JEN_Cohsetpredict_cps'
p1705
sg29
g30
sg44
g1223
sg48
S'MG_JEN_Cohset::predict_cps()  version=20mar2006  defined=2006-03-27 16:55'
p1706
sg79
S'predict_cps'
p1707
sg50
(dp1708
g103
(lp1709
NaS'@@@Jsequence_KJones'
p1710
asg115
(lp1711
NaS'@@@Jsequence_simul'
p1712
asg105
(lp1713
(lp1714
I0
aI1
aI2
aI3
aI4
aa(lp1715
I0
aI1
aI2
aI3
aI4
aI5
aI6
aa(lp1716
I0
aI1
aI2
aI3
aI4
aI5
aI6
aI7
aI8
aI9
aI10
aI11
aI12
aI13
aa(lp1717
I0
aI1
aI2
aI3
aI4
aI5
aI6
aI7
aI8
aI9
aI10
aI11
aI12
aI13
aI14
aag135
ag1700
asg2
(lp1718
g3
ag129
ag1699
asg116
(lp1719
NaS'@@@Jsequence'
p1720
assg70
g1199
sg81
I00
sg82
S'2006-03-27 16:55'
p1721
sg40
g1243
sg31
S'MG_JEN_Cohset'
p1722
sg75
S'** Specific description of inarg record for: MG_JEN_Cohset::predict_cps()  version=20mar2006  defined=2006-03-27 16:55'
p1723
sg42
(dp1724
g2
I00
sg105
I00
ssg71
g1721
sg91
(lp1725
g12
ag105
ag2
ag116
ag115
ag103
asg15
(dp1726
g103
g144
sg115
g144
sg105
g146
sg2
g145
sg116
g144
sssg103
Nsg115
Nsg116
Nssg12
(dp1727
g14
S'./MG_JEN_simul.'
p1728
sg15
(dp1729
g675
S'(file)name of a Local Sky Model to be used for solving(instead of a predefined punit)'
p1730
sg1
S'if True, add to existing uv-data (from MS column)'
p1731
sS'rms_noise_Jy'
p1732
S'rms noise, to be added'
p1733
sg2
g145
sS'master_reqseq'
p1734
S'if True, use a master reqseq for solver(s)'
p1735
sS'LSM_simul'
p1736
S'(file)name of a Local Sky Model to be used for simulation(instead of a predefined punit)'
p1737
sg105
g146
sS'redun'
p1738
S'if True, redundant spacing calibration'
p1739
sS'insert_solver'
p1740
S'if True, insert a solver'
p1741
sg10
g20
sS'chain_solvers'
p1742
S'if True, chain the solvers (recommended)'
p1743
sS'num_cells'
p1744
S'if defined, ModRes argument [ntime,nfreq]'
p1745
sg95
g187
sg103
g144
sg115
g144
sg21
g22
sg151
g186
sg116
g144
ssS'reference'
p1746
I00
sg29
g30
sg31
S'MG_JEN_simul'
p1747
sg33
(dp1748
g675
I325
sg1
I15
sg1732
I16
sg2
I5
sg1736
I30
sg105
I4
sg1738
I13
sg93
I0
sg10
I2
sg95
I9
sg1740
I17
sg1744
I14
sg21
I3
sg151
I10
ssg35
(dp1749
g675
I00
sg2
I00
sg1734
I01
sg1736
I00
sg105
I00
sS'last_changed'
p1750
I01
sg1738
I00
sg151
I00
sg1742
I01
sg1744
I00
sg103
I01
sg115
I01
sg116
I01
ssg37
(dp1751
g10
g39
sg1736
S'*.lsm'
p1752
sg675
g1752
ssg40
g348
sg44
S"\n    -------------------------------------------------------------\n    General description of the MeqTree TDL script MG_JEN_simul.py\n    -------------------------------------------------------------\n\n    The MG_JEN_simul.py script is used to put simulated visibilities into the\n    CORRECTED_DATA column of an existing Measurement Set (MS). The original DATA\n    in the MS are untouched. The advantage of this approach is that it is not\n    necessary to specify pointing centre, uv-coverage, spectral-window etc.\n\n    * The input source model is either an existing Local Sky Model (LSM),\n    or a 'punit' point source in the centre of the field.\n\n    * The nominal source visibilities may be corrupted by:\n      - various (uv-plane) Jones matrices\n      - image-plane effects from EJones and IJones (MIM)\n      - ifr-based errors (additive, multiplicative)\n      - noise\n\n    * Optionally, the simulated visibilities may be added to the existing uv-data,\n    either from the DATA column or the CORRECTED_DATA column of the MS\n\n    * Optionally, a parallel solver branch may be inserted, which uses the simulated\n    uv-data to solve for instrumental parameters. The latter may be compared with\n    the simulated instrumental parameters.\n\n    Different types of simulations may be specified by loading (and editing) socalled\n    'inarg' records from files (like this one). These contain input arguments\n    for generating a suitable MeqTree forest for the desired operation.\n    "
p1753
sg46
(dp1754
g1750
I00
sg1
I00
sg1734
I00
sg1740
I00
sg1738
I00
ssg48
S'** Top-level CTRL-record of: MG_JEN_simul.inarg'
p1755
sg50
(dp1756
g675
(lp1757
NaS'@@LSM_solve'
p1758
asg1
(lp1759
I01
aI00
aS'@@add_to_existing'
p1760
asg1732
(lp1761
I0
aF0.01
aF0.10000000000000001
aI1
aS'@@rms_noise_Jy'
p1762
asg2
(lp1763
g3
ag129
aS'@@polrep'
p1764
asg1734
(lp1765
I01
aI00
aS'@@master_reqseq'
p1766
asg1736
(lp1767
NaS'@@LSM_simul'
p1768
asg105
(lp1769
(lp1770
I0
aI1
aI2
aI3
aI4
aa(lp1771
I0
aI1
aI2
aI3
aI4
aI5
aI6
aa(lp1772
I0
aI1
aI2
aI3
aI4
aI5
aI6
aI7
aI8
aI9
aI10
aI11
aI12
aI13
aa(lp1773
I0
aI1
aI2
aI3
aI4
aI5
aI6
aI7
aI8
aI9
aI10
aI11
aI12
aI13
aI14
aag135
aS'@@stations'
p1774
asg1750
(lp1775
S'd30jan2006'
p1776
aS'@@last_changed'
p1777
asg1740
(lp1778
I01
aI00
aS'@@insert_solver'
p1779
asg1738
(lp1780
I01
aI00
aS'@@redun'
p1781
asg10
(lp1782
g61
aS'@@ms_name'
p1783
asg1742
(lp1784
I01
aS'@@chain_solvers'
p1785
asg1744
(lp1786
Na(lp1787
I5
aI2
aa(lp1788
I2
aI2
aa(lp1789
I3
aI3
aaS'@@num_cells'
p1790
asg95
(lp1791
Nag241
aS'@@parmtable'
p1792
asg103
(lp1793
NaS'@@@Jsequence_KJones'
p1794
asg115
(lp1795
NaS'@@@Jsequence_simul'
p1796
asg21
(lp1797
I1
aI2
aI3
aI5
aI10
aI20
aI50
aI100
aS'@@tile_size'
p1798
asg151
(lp1799
I00
aS'@@uvplane_effect'
p1800
asg116
(lp1801
NaS'@@@Jsequence'
p1802
assg70
Nsg71
S'2006-03-27 16:55'
p1803
sS'HISTORY'
p1804
(dp1805
g85
S'2006-03-27 16:55: Derived from: MG_JEN_simul_DJones.inarg'
p1806
sg87
S'2006-03-27 16:55: Derived from: MG_JEN_simul.inarg'
p1807
ssg73
g94
sg75
S'Modify MG_JEN_simul inarg for DJones corruption'
p1808
sS'save_file'
p1809
S'MG_JEN_simul_DJones_protected.inarg'
p1810
sS'file_filter'
p1811
S'MG_JEN_simul*.inarg'
p1812
sg79
S''
p1813
sg81
I01
sg82
g1803
sg83
(dp1814
S'20'
p1815
S".modify():   ** OK ** (['Jsequence_solve_uvp', 'parmtable', 'solvegroup', 'num_iter', 'Jsequence_simul_uvp'])"
p1816
sS'21'
p1817
S".modify():   ** OK ** (['I0', 'Qpct', 'Vpct', 'SI', 'RM', 'Upct', 'punit'])"
p1818
sg85
S'.modify( tile_size ): 10  ->  1'
p1819
sg87
S'.modify( uvplane_effect ): False  ->  True'
p1820
sg311
S'** JEN_inarg.separator(): : uv-data (MS) stream_control'
p1821
sg89
S".modify():   ** OK ** (['uvplane_effect', 'tile_size'])"
p1822
sg314
S'** JEN_inarg.attach(): attached: ./MG_JEN_Cohset.make_spigots()'
p1823
sg316
S'** JEN_inarg.attach(): attached: ./MG_JEN_exec.stream_control()'
p1824
sg318
S'** JEN_inarg.attach(): attached: [simul]./MG_JEN_Sixpack.newstar_source()'
p1825
sg320
S'** JEN_inarg.separator(): : uv-data simulation (LeafSet)'
p1826
sS'9'
p1827
S'** JEN_inarg.attach(): attached: [simul]./MG_JEN_Cohset.predict_cps()'
p1828
sS'8'
p1829
S'** JEN_inarg.attach(): attached: [simul_uvp]./MG_JEN_Cohset.Jones()'
p1830
sS'11'
p1831
S'** JEN_inarg.separator(): : solver-branch (ParmSet)'
p1832
sS'10'
p1833
S'** JEN_inarg.attach(): attached: [simul]./MG_JEN_Cohset.predict_lsm()'
p1834
sS'13'
p1835
S'** JEN_inarg.attach(): attached: [solve_uvp]./MG_JEN_Cohset.Jones()'
p1836
sS'12'
p1837
S'** JEN_inarg.attach(): attached: [solve]./MG_JEN_Sixpack.newstar_source()'
p1838
sS'15'
p1839
S'** JEN_inarg.attach(): attached: [solve]./MG_JEN_Cohset.predict_lsm()'
p1840
sS'14'
p1841
S'** JEN_inarg.attach(): attached: [solve]./MG_JEN_Cohset.predict_cps()'
p1842
sS'17'
p1843
S'** JEN_inarg.separator(): : finishing touches'
p1844
sS'16'
p1845
S'** JEN_inarg.attach(): attached: ./MG_JEN_Cohset.insert_solver()'
p1846
sS'19'
p1847
S'.modify( parmtable ): None  ->  simul_DJones'
p1848
sS'18'
p1849
S'** JEN_inarg.attach(): attached: ./MG_JEN_Cohset.make_sinks()'
p1850
ssg91
(lp1851
g12
ag93
ag1750
ag10
ag21
ag105
ag2
ag116
ag115
ag103
ag95
ag151
ag1742
ag1734
ag1738
ag1744
ag1
ag1732
ag1740
aS'_JEN_inarg_separator_record:_1'
p1852
ag4
aS'./MG_JEN_Cohset.make_spigots()'
p1853
aS'_JEN_inarg_separator_record:_2'
p1854
ag1736
aS'[simul]./MG_JEN_Sixpack.newstar_source()'
p1855
ag676
aS'[simul]./MG_JEN_Cohset.predict_cps()'
p1856
ag1213
ag97
ag675
ag1077
ag101
ag1697
aS'[solve]./MG_JEN_Cohset.predict_lsm()'
p1857
aS'./MG_JEN_Cohset.insert_solver()'
p1858
aS'_JEN_inarg_separator_record:_4'
p1859
aS'./MG_JEN_Cohset.make_sinks()'
p1860
assg1860
(dp1861
S'fullDomainMux'
p1862
I01
sS'output_col'
p1863
S'PREDICT'
p1864
sS'visu'
p1865
I01
sS'flag'
p1866
I00
sg12
(dp1867
g73
S'MG_JEN_Cohset::make_sinks()'
p1868
sg14
g1860
sg33
(dp1869
g1866
I664
sg1865
I663
sg1862
I665
sg1863
I661
sS'visu_array_config'
p1870
I662
ssg75
S'** Specific description of inarg record for: MG_JEN_Cohset::make_sinks()  version=25dec2005  defined=2006-03-27 16:55'
p1871
sg77
S'MG_JEN_Cohsetmake_sinks'
p1872
sg29
g30
sg44
S'Make sink nodes in the given Cohset object'
p1873
sg48
S'MG_JEN_Cohset::make_sinks()  version=25dec2005  defined=2006-03-27 16:55'
p1874
sg79
S'make_sinks'
p1875
sg50
(dp1876
g1866
(lp1877
I01
aI00
aS'@@flag'
p1878
asg1870
(lp1879
I01
aI00
aS'@@visu_array_config'
p1880
asg1863
(lp1881
g1864
aS'RESIDUALS'
p1882
ag55
aS'@@output_col'
p1883
asg1862
(lp1884
I01
aI00
aS'@@fullDomainMux'
p1885
asg1865
(lp1886
I01
aI00
aS'@@visu'
p1887
assg70
Nsg40
g305
sg82
S'2006-03-27 16:55'
p1888
sg31
S'MG_JEN_Cohset'
p1889
sg46
(dp1890
g1866
I00
sg1870
I00
sg1862
I00
sg1865
I00
ssg81
I00
sg71
g1888
sg91
(lp1891
g12
ag1863
ag1870
ag1865
ag1866
ag1862
asg15
(dp1892
g1866
S'if True, insert a flagger for the output uv-data'
p1893
sg1870
S'if True, visualise the array config (from MS)'
p1894
sg1863
S'name of the logical (VisTile) output column'
p1895
sg1862
S'if True, attach an extra VisDataMux'
p1896
sg1865
S'if True, visualise the output uv-data'
p1897
sssg1870
I01
ssg103
Nsg1853
(dp1898
S'MS_corr_index'
p1899
(lp1900
I0
aI1
aI2
aI3
asg1866
I00
sg12
(dp1901
g73
S'MG_JEN_Cohset::make_spigots()'
p1902
sg14
g1853
sg33
(dp1903
g1866
I29
sg1899
I27
sg1865
I28
ssg35
(dp1904
S'input_col'
p1905
I01
ssg77
S'MG_JEN_Cohsetmake_spigots'
p1906
sg29
g30
sg44
S'Make spigot nodes in the given Cohset object'
p1907
sg48
S'MG_JEN_Cohset::make_spigots()  version=25dec2005  defined=2006-03-27 16:55'
p1908
sg79
S'make_spigots'
p1909
sg50
(dp1910
g1866
(lp1911
I01
aI00
aS'@@flag'
p1912
asg1899
(lp1913
(lp1914
I0
aI1
aI2
aI3
aa(lp1915
I0
aI-1
aI-1
aI1
aa(lp1916
I0
aI-1
aI-1
aI3
aaS'@@MS_corr_index'
p1917
asg1905
(lp1918
g55
ag1864
ag1882
aS'@@input_col'
p1919
asg1865
(lp1920
I01
aI00
aS'@@visu'
p1921
assg70
Nsg40
g305
sg82
S'2006-03-27 16:55'
p1922
sg31
S'MG_JEN_Cohset'
p1923
sg46
(dp1924
g1866
I00
sg1865
I00
ssg75
S'** Specific description of inarg record for: MG_JEN_Cohset::make_spigots()  version=25dec2005  defined=2006-03-27 16:55'
p1925
sg81
I00
sg71
g1922
sg91
(lp1926
g12
ag1905
ag1899
ag1865
ag1866
asg15
(dp1927
g1866
S'if True, insert a flagger for the input uv-data'
p1928
sg1899
S'correlations to be used: \n- [0,1,2,3]:   all corrs available, use all \n- [0,-1,-1,1]: only XX/YY (or RR/LL) available \n- [0,-1,-1,3]: all available, but use only XX/YY or RR/LL'
p1929
sg1905
S'name of the logical (VisTile) input column'
p1930
sg1865
S'if True, visualise the input uv-data'
p1931
sssg1905
g55
sg1865
I01
ssg1857
(dp1932
S'[solve_imp]./MG_JEN_Cohset.Jones()'
p1933
(dp1934
S'[solve_imp]./MG_JEN_Joneset.FJones()'
p1935
(dp1936
g155
I01
sg2
S'@@polrep'
p1937
sg157
g158
sg193
Nsg162
I01
sg163
I10
sg164
g165
sg167
g168
sg169
Nsg12
(dp1938
g14
g1935
sg15
(dp1939
g155
g172
sg164
g177
sg2
g145
sg183
g184
sg105
g146
sg157
g173
sg608
g609
sg169
g180
sg167
g179
sg189
g190
sg610
g611
sg191
g192
sg193
g194
sg612
g613
sg95
g187
sg103
g144
sg115
g144
sg116
g144
sg162
g175
sg151
g186
sg163
g176
ssg29
g30
sg31
S'MG_JEN_Joneset'
p1940
sg33
(dp1941
g155
I546
sg608
I541
sg189
I544
sg610
I542
sg612
I543
sg162
I545
ssg35
(dp1942
g164
I01
sg2
I01
sg183
I01
sg105
I01
sg157
I01
sg169
I01
sg167
I01
sg151
I01
sg191
I01
sg193
I01
sg95
I01
sg103
I01
sg115
I01
sg116
I01
sg163
I01
ssg40
g198
sg42
(dp1943
g151
I00
sg95
I00
sg2
I00
sg105
I00
ssg44
g618
sg46
(dp1944
g155
I00
sg162
I00
sg189
I00
ssg48
S'MG_JEN_Joneset::FJones()  version=16dec2005  defined=2006-03-27 16:55'
p1945
sg50
(dp1946
g155
(lp1947
I01
aI00
aS'@@reset_funklet'
p1948
asg164
(lp1949
g165
aS'@@style'
p1950
asg2
(lp1951
g3
ag129
ag1937
asg183
(lp1952
F1.0
aS'@@c00_default'
p1953
asg105
(lp1954
(lp1955
I0
aI1
aI2
aI3
aI4
aa(lp1956
I0
aI1
aI2
aI3
aI4
aI5
aI6
aa(lp1957
I0
aI1
aI2
aI3
aI4
aI5
aI6
aI7
aI8
aI9
aI10
aI11
aI12
aI13
aa(lp1958
I0
aI1
aI2
aI3
aI4
aI5
aI6
aI7
aI8
aI9
aI10
aI11
aI12
aI13
aI14
aag135
aS'@@stations'
p1959
asg157
(lp1960
g158
aS'@@color'
p1961
asg608
(lp1962
I0
aI1
aI2
aI3
aS'@@tdeg_RM'
p1963
asg169
(lp1964
NaS'@@funklet_shape'
p1965
asg167
(lp1966
g168
aS'@@condeq_corrs'
p1967
asg189
(lp1968
I01
aI00
aS'@@use_previous'
p1969
asg610
(lp1970
I0
aI1
aI2
aI3
aS'@@fdeg_RM'
p1971
asg191
(lp1972
NaS'@@subtile_size'
p1973
asg193
(lp1974
NaS'@@tfdeg'
p1975
asg612
(lp1976
NaI1
aI2
aI5
aI10
aI20
aI50
aI100
aI200
aI500
aS'@@subtile_size_RM'
p1977
asg95
(lp1978
Nag241
aS'@@parmtable'
p1979
asg103
(lp1980
g287
aS'@@@Jsequence_KJones'
p1981
asg115
(lp1982
g287
aS'@@@Jsequence_simul'
p1983
asg116
(lp1984
g287
aS'@@@Jsequence'
p1985
asg162
(lp1986
I01
aI00
aS'@@auto_save'
p1987
asg151
(lp1988
I00
aS'@@uvplane_effect'
p1989
asg163
(lp1990
I10
aS'@@size'
p1991
assg70
S'solve_imp'
p1992
sg71
S'2006-03-27 16:55'
p1993
sg73
S'MG_JEN_Joneset::FJones()'
p1994
sg75
S'** Specific description of inarg record for: MG_JEN_Joneset::FJones()  version=16dec2005  defined=2006-03-27 16:55'
p1995
sg77
S'MG_JEN_JonesetFJones'
p1996
sg79
S'FJones'
p1997
sg81
I00
sg82
g1993
sg83
(dp1998
g87
S'.modify( parmtable ): @@parmtable  ->  simul_DJones'
p1999
ssg91
(lp2000
g12
ag105
ag2
ag116
ag115
ag103
ag95
ag151
ag608
ag610
ag612
ag189
ag162
ag155
ag157
ag164
ag163
ag183
ag193
ag169
ag191
ag167
assg103
g287
sg116
g287
sg183
F1.0
sg151
g1989
sg105
g1959
sg608
I0
sg189
I01
sg610
I2
sg191
Nsg95
g96
sg612
I1
sg115
g287
ssg2
S'@@polrep'
p2001
sS'[solve_imp]./MG_JEN_Joneset.JJones()'
p2002
(dp2003
g155
I01
sg2
S'@@polrep'
p2004
sg511
I0
sg157
g158
sg512
Nsg95
g96
sg513
Nsg162
I01
sg163
I10
sg164
g165
sg514
g515
sg167
g168
sg169
Nsg12
(dp2005
g14
g2002
sg15
(dp2006
g155
g172
sg2
g145
sg511
g518
sg157
g173
sg512
g519
sg95
g187
sg513
g520
sg162
g175
sg163
g176
sg164
g177
sg514
g518
sg167
g179
sg169
g180
sg103
g144
sg521
g522
sg183
g184
sg151
g186
sg523
g522
sg524
g520
sg105
g146
sg525
g526
sg189
g190
sg191
g192
sg193
g194
sg115
g144
sg116
g144
ssg29
g30
sg31
S'MG_JEN_Joneset'
p2007
sg33
(dp2008
g155
I627
sg524
I624
sg514
I620
sg511
I619
sg525
I615
sg189
I625
sg512
I616
sg523
I622
sg513
I623
sg162
I626
sg521
I621
ssg35
(dp2009
g164
I01
sg2
I01
sg183
I01
sg105
I01
sg157
I01
sg169
I01
sg167
I01
sg151
I01
sg191
I01
sg193
I01
sg95
I01
sg103
I01
sg115
I01
sg116
I01
sg163
I01
ssg40
g530
sg42
(dp2010
g151
I00
sg95
I00
sg2
I00
sg105
I00
ssg44
g532
sg46
(dp2011
g155
I00
sg525
I00
sg162
I00
sg189
I00
ssg48
S'MG_JEN_Joneset::JJones()  version=14feb2006  defined=2006-03-27 16:55'
p2012
sg50
(dp2013
g155
(lp2014
I01
aI00
aS'@@reset_funklet'
p2015
asg2
(lp2016
g3
ag129
ag2004
asg511
(lp2017
I0
aI1
aI2
aI3
aS'@@tdeg_Jreal'
p2018
asg157
(lp2019
g158
aS'@@color'
p2020
asg512
(lp2021
Na(lp2022
I14
aa(lp2023
I1
aag546
aS'@@all4_always'
p2024
asg95
(lp2025
Nag241
aS'@@parmtable'
p2026
asg513
(lp2027
NaI1
aI2
aI5
aI10
aI20
aI50
aI100
aI200
aI500
aS'@@subtile_size_Jreal'
p2028
asg162
(lp2029
I01
aI00
aS'@@auto_save'
p2030
asg163
(lp2031
I10
aS'@@size'
p2032
asg164
(lp2033
g165
aS'@@style'
p2034
asg514
(lp2035
I0
aI1
aI2
aI3
ag515
aS'@@tdeg_Jimag'
p2036
asg167
(lp2037
g168
aS'@@condeq_corrs'
p2038
asg169
(lp2039
NaS'@@funklet_shape'
p2040
asg103
(lp2041
g292
aS'@@@Jsequence_KJones'
p2042
asg521
(lp2043
I0
aI1
aI2
aI3
aS'@@fdeg_Jreal'
p2044
asg183
(lp2045
F1.0
aS'@@c00_default'
p2046
asg151
(lp2047
I00
aS'@@uvplane_effect'
p2048
asg523
(lp2049
I0
aI1
aI2
aI3
ag573
aS'@@fdeg_Jimag'
p2050
asg524
(lp2051
g576
aNaI1
aI2
aI5
aI10
aI20
aI50
aI100
aI200
aI500
aS'@@subtile_size_Jimag'
p2052
asg105
(lp2053
(lp2054
I0
aI1
aI2
aI3
aI4
aa(lp2055
I0
aI1
aI2
aI3
aI4
aI5
aI6
aa(lp2056
I0
aI1
aI2
aI3
aI4
aI5
aI6
aI7
aI8
aI9
aI10
aI11
aI12
aI13
aa(lp2057
I0
aI1
aI2
aI3
aI4
aI5
aI6
aI7
aI8
aI9
aI10
aI11
aI12
aI13
aI14
aag135
aS'@@stations'
p2058
asg525
(lp2059
I01
aI00
aS'@@diagonal_only'
p2060
asg189
(lp2061
I01
aI00
aS'@@use_previous'
p2062
asg191
(lp2063
NaS'@@subtile_size'
p2064
asg193
(lp2065
NaS'@@tfdeg'
p2066
asg115
(lp2067
g292
aS'@@@Jsequence_simul'
p2068
asg116
(lp2069
g292
aS'@@@Jsequence'
p2070
assg70
g1992
sg71
S'2006-03-27 16:55'
p2071
sg73
S'MG_JEN_Joneset::JJones()'
p2072
sg75
S'** Specific description of inarg record for: MG_JEN_Joneset::JJones()  version=14feb2006  defined=2006-03-27 16:55'
p2073
sg77
S'MG_JEN_JonesetJJones'
p2074
sg79
S'JJones'
p2075
sg81
I00
sg82
g2071
sg83
(dp2076
g87
S'.modify( parmtable ): @@parmtable  ->  simul_DJones'
p2077
ssg91
(lp2078
g12
ag105
ag2
ag116
ag115
ag103
ag525
ag512
ag95
ag151
ag511
ag514
ag521
ag523
ag513
ag524
ag189
ag162
ag155
ag157
ag164
ag163
ag183
ag193
ag169
ag191
ag167
assg103
g292
sg521
I0
sg183
F1.0
sg151
g2048
sg523
g573
sg524
g576
sg105
g2058
sg525
I00
sg189
I01
sg191
Nsg193
Nsg115
g292
sg116
g292
ssg105
S'@@stations'
p2079
sS'[solve_imp]./MG_JEN_Joneset.BJones()'
p2080
(dp2081
g155
I01
sg2
S'@@polrep'
p2082
sg157
g158
sg159
g160
sg161
Nsg162
I01
sg163
I10
sg164
g165
sg166
I5
sg167
g168
sg169
Nsg12
(dp2083
g14
g2080
sg15
(dp2084
g155
g172
sg2
g145
sg157
g173
sg159
g174
sg161
g174
sg162
g175
sg163
g176
sg164
g177
sg166
g178
sg167
g179
sg169
g180
sg103
g144
sg181
g182
sg116
g144
sg183
g184
sg185
g178
sg151
g186
sg105
g146
sg193
g194
sg188
g182
sg189
g190
sg191
g192
sg95
g187
sg115
g144
ssg29
g30
sg31
S'MG_JEN_Joneset'
p2085
sg33
(dp2086
g155
I570
sg189
I568
sg166
I564
sg159
I567
sg188
I562
sg185
I565
sg161
I566
sg181
I563
sg162
I569
ssg35
(dp2087
g164
I01
sg2
I01
sg183
I01
sg105
I01
sg157
I01
sg169
I01
sg167
I01
sg151
I01
sg191
I01
sg193
I01
sg95
I01
sg103
I01
sg115
I01
sg116
I01
sg163
I01
ssg40
g198
sg42
(dp2088
g151
I00
sg95
I00
sg2
I00
sg105
I00
ssg44
g200
sg46
(dp2089
g155
I00
sg162
I00
sg189
I00
ssg48
S'MG_JEN_Joneset::BJones()  version=16dec2005  defined=2006-03-27 16:55'
p2090
sg50
(dp2091
g155
(lp2092
I01
aI00
aS'@@reset_funklet'
p2093
asg2
(lp2094
g3
ag129
ag2082
asg157
(lp2095
g158
aS'@@color'
p2096
asg159
(lp2097
g160
aNaI1
aI2
aI5
aI10
aI20
aI50
aI100
aI200
aI500
aS'@@subtile_size_Bimag'
p2098
asg161
(lp2099
NaI1
aI2
aI5
aI10
aI20
aI50
aI100
aI200
aI500
aS'@@subtile_size_Breal'
p2100
asg162
(lp2101
I01
aI00
aS'@@auto_save'
p2102
asg163
(lp2103
I10
aS'@@size'
p2104
asg164
(lp2105
g165
aS'@@style'
p2106
asg166
(lp2107
I3
aI4
aI5
aI6
aS'@@fdeg_Breal'
p2108
asg167
(lp2109
g168
aS'@@condeq_corrs'
p2110
asg169
(lp2111
NaS'@@funklet_shape'
p2112
asg103
(lp2113
g226
aS'@@@Jsequence_KJones'
p2114
asg181
(lp2115
I0
aI1
aI2
aI3
ag229
aS'@@tdeg_Bimag'
p2116
asg116
(lp2117
g226
aS'@@@Jsequence'
p2118
asg183
(lp2119
F1.0
aS'@@c00_default'
p2120
asg185
(lp2121
I3
aI4
aI5
aI6
ag236
aS'@@fdeg_Bimag'
p2122
asg151
(lp2123
I00
aS'@@uvplane_effect'
p2124
asg105
(lp2125
(lp2126
I0
aI1
aI2
aI3
aI4
aa(lp2127
I0
aI1
aI2
aI3
aI4
aI5
aI6
aa(lp2128
I0
aI1
aI2
aI3
aI4
aI5
aI6
aI7
aI8
aI9
aI10
aI11
aI12
aI13
aa(lp2129
I0
aI1
aI2
aI3
aI4
aI5
aI6
aI7
aI8
aI9
aI10
aI11
aI12
aI13
aI14
aag135
aS'@@stations'
p2130
asg193
(lp2131
NaS'@@tfdeg'
p2132
asg188
(lp2133
I0
aI1
aI2
aI3
aS'@@tdeg_Breal'
p2134
asg189
(lp2135
I01
aI00
aS'@@use_previous'
p2136
asg191
(lp2137
NaS'@@subtile_size'
p2138
asg95
(lp2139
Nag241
aS'@@parmtable'
p2140
asg115
(lp2141
g226
aS'@@@Jsequence_simul'
p2142
assg70
g1992
sg71
S'2006-03-27 16:55'
p2143
sg73
S'MG_JEN_Joneset::BJones()'
p2144
sg75
S'** Specific description of inarg record for: MG_JEN_Joneset::BJones()  version=16dec2005  defined=2006-03-27 16:55'
p2145
sg77
S'MG_JEN_JonesetBJones'
p2146
sg79
S'BJones'
p2147
sg81
I00
sg82
g2143
sg83
(dp2148
g87
S'.modify( parmtable ): @@parmtable  ->  simul_DJones'
p2149
ssg91
(lp2150
g12
ag105
ag2
ag116
ag115
ag103
ag95
ag151
ag188
ag181
ag166
ag185
ag161
ag159
ag189
ag162
ag155
ag157
ag164
ag163
ag183
ag193
ag169
ag191
ag167
assg103
g226
sg181
g229
sg116
g226
sg183
F1.0
sg185
g236
sg151
g2124
sg95
g96
sg105
g2130
sg188
I0
sg189
I01
sg191
Nsg193
Nsg115
g226
ssS'[solve_imp]./MG_JEN_Joneset.DJones_WSRT()'
p2151
(dp2152
g155
I01
sg2
S'@@polrep'
p2153
sg157
g158
sg420
g421
sg422
I01
sg95
g96
sg423
Nsg162
I01
sg163
I10
sg164
g165
sg167
g168
sg169
Nsg12
(dp2154
g14
g2151
sg15
(dp2155
g155
g172
sg2
g145
sg157
g173
sg420
g426
sg422
g427
sg95
g187
sg423
g428
sg162
g175
sg163
g176
sg164
g177
sg167
g179
sg169
g180
sg103
g144
sg429
g428
sg116
g144
sg430
g426
sg183
g184
sg151
g186
sg431
g432
sg433
g434
sg435
g432
sg105
g146
sg189
g190
sg191
g192
sg193
g194
sg115
g144
ssg29
g30
sg31
S'MG_JEN_Joneset'
p2156
sg33
(dp2157
g430
I595
sg155
I601
sg420
I596
sg422
I590
sg189
I599
sg162
I600
sg431
I594
sg433
I589
sg423
I597
sg429
I598
sg435
I593
ssg35
(dp2158
g164
I01
sg2
I01
sg183
I01
sg105
I01
sg157
I01
sg169
I01
sg167
I01
sg151
I01
sg191
I01
sg193
I01
sg95
I01
sg103
I01
sg115
I01
sg116
I01
sg163
I01
ssg40
g198
sg42
(dp2159
g151
I00
sg95
I00
sg2
I00
sg105
I00
ssg44
g440
sg46
(dp2160
g155
I00
sg433
I00
sg422
I00
sg162
I00
sg189
I00
ssg48
S'MG_JEN_Joneset::DJones_WSRT()  version=16dec2005  defined=2006-03-27 16:55'
p2161
sg50
(dp2162
g155
(lp2163
I01
aI00
aS'@@reset_funklet'
p2164
asg2
(lp2165
g3
ag129
ag2153
asg157
(lp2166
g158
aS'@@color'
p2167
asg420
(lp2168
I0
aI1
aI2
aI3
ag421
aS'@@fdeg_Dell'
p2169
asg422
(lp2170
I01
aI00
aS'@@coupled_XY_Dell'
p2171
asg95
(lp2172
Nag241
aS'@@parmtable'
p2173
asg423
(lp2174
NaI1
aI2
aI5
aI10
aI20
aI50
aI100
aI200
aI500
aS'@@subtile_size_Dang'
p2175
asg162
(lp2176
I01
aI00
aS'@@auto_save'
p2177
asg163
(lp2178
I10
aS'@@size'
p2179
asg164
(lp2180
g165
aS'@@style'
p2181
asg167
(lp2182
g168
aS'@@condeq_corrs'
p2183
asg169
(lp2184
NaS'@@funklet_shape'
p2185
asg103
(lp2186
g150
aS'@@@Jsequence_KJones'
p2187
asg429
(lp2188
g470
aNaI1
aI2
aI5
aI10
aI20
aI50
aI100
aI200
aI500
aS'@@subtile_size_Dell'
p2189
asg116
(lp2190
g150
aS'@@@Jsequence'
p2191
asg430
(lp2192
I0
aI1
aI2
aI3
aS'@@fdeg_Dang'
p2193
asg183
(lp2194
F1.0
aS'@@c00_default'
p2195
asg151
(lp2196
I00
aS'@@uvplane_effect'
p2197
asg431
(lp2198
I0
aI1
aI2
aI3
ag481
aS'@@tdeg_Dell'
p2199
asg433
(lp2200
I01
aI00
aS'@@coupled_XY_Dang'
p2201
asg435
(lp2202
I0
aI1
aI2
aI3
aS'@@tdeg_Dang'
p2203
asg105
(lp2204
(lp2205
I0
aI1
aI2
aI3
aI4
aa(lp2206
I0
aI1
aI2
aI3
aI4
aI5
aI6
aa(lp2207
I0
aI1
aI2
aI3
aI4
aI5
aI6
aI7
aI8
aI9
aI10
aI11
aI12
aI13
aa(lp2208
I0
aI1
aI2
aI3
aI4
aI5
aI6
aI7
aI8
aI9
aI10
aI11
aI12
aI13
aI14
aag135
aS'@@stations'
p2209
asg189
(lp2210
I01
aI00
aS'@@use_previous'
p2211
asg191
(lp2212
NaS'@@subtile_size'
p2213
asg193
(lp2214
NaS'@@tfdeg'
p2215
asg115
(lp2216
g150
aS'@@@Jsequence_simul'
p2217
assg70
g1992
sg71
S'2006-03-27 16:55'
p2218
sg73
S'MG_JEN_Joneset::DJones_WSRT()'
p2219
sg75
S'** Specific description of inarg record for: MG_JEN_Joneset::DJones_WSRT()  version=16dec2005  defined=2006-03-27 16:55'
p2220
sg77
S'MG_JEN_JonesetDJones_WSRT'
p2221
sg79
S'DJones_WSRT'
p2222
sg81
I00
sg82
g2218
sg83
(dp2223
g87
S'.modify( parmtable ): @@parmtable  ->  simul_DJones'
p2224
ssg91
(lp2225
g12
ag105
ag2
ag116
ag115
ag103
ag433
ag422
ag95
ag151
ag435
ag431
ag430
ag420
ag423
ag429
ag189
ag162
ag155
ag157
ag164
ag163
ag183
ag193
ag169
ag191
ag167
assg103
g150
sg429
g470
sg116
g150
sg430
I0
sg183
F1.0
sg151
g2197
sg431
g481
sg433
I01
sg435
I0
sg105
g2209
sg189
I01
sg191
Nsg193
Nsg115
g150
ssg151
S'@@uvplane_effect'
p2226
sg95
g96
sg12
(dp2227
g73
g268
sg14
g1933
sg33
(dp2228
S'Jsequence_solve_imp'
p2229
I508
ssg35
(dp2230
g2
I01
sg105
I01
sg151
I01
sg95
I01
sg103
I01
sg115
I01
sg116
I01
ssg44
g272
sg29
g30
sg48
S'MG_JEN_Cohset::Jones()  version=25dec2005  defined=2006-03-27 16:55'
p2231
sg79
S'Jones'
p2232
sg50
(dp2233
g2
(lp2234
g3
ag129
ag2001
asg105
(lp2235
(lp2236
I0
aI1
aI2
aI3
aI4
aa(lp2237
I0
aI1
aI2
aI3
aI4
aI5
aI6
aa(lp2238
I0
aI1
aI2
aI3
aI4
aI5
aI6
aI7
aI8
aI9
aI10
aI11
aI12
aI13
aa(lp2239
I0
aI1
aI2
aI3
aI4
aI5
aI6
aI7
aI8
aI9
aI10
aI11
aI12
aI13
aI14
aag135
ag2079
asg151
(lp2240
I00
ag2226
asg95
(lp2241
Nag241
aS'@@parmtable'
p2242
asg103
(lp2243
NaS'@@@Jsequence_KJones'
p2244
asg115
(lp2245
NaS'@@@Jsequence_simul'
p2246
asg2229
(lp2247
(lp2248
g284
aa(lp2249
g226
aa(lp2250
g287
aa(lp2251
g122
aa(lp2252
g150
aa(lp2253
g284
ag150
aa(lp2254
g292
aa(lp2255
aS'@@Jsequence_solve_imp'
p2256
asg116
(lp2257
NaS'@@@Jsequence'
p2258
assg70
g1992
sg81
I00
sg82
S'2006-03-27 16:55'
p2259
sg40
g305
sg31
S'MG_JEN_Cohset'
p2260
sg75
S'** Specific description of inarg record for: MG_JEN_Cohset::Jones()  version=25dec2005  defined=2006-03-27 16:55'
p2261
sg83
(dp2262
g85
S'** JEN_inarg.attach(): attached: [solve_imp]./MG_JEN_Joneset.FJones()'
p2263
sg87
S'** JEN_inarg.attach(): attached: [solve_imp]./MG_JEN_Joneset.GJones()'
p2264
sg311
S'** JEN_inarg.attach(): attached: [solve_imp]./MG_JEN_Joneset.KJones()'
p2265
sg89
S'** JEN_inarg.attach(): attached: [solve_imp]./MG_JEN_Joneset.BJones()'
p2266
sg314
S'** JEN_inarg.attach(): attached: [solve_imp]./MG_JEN_Joneset.JJones()'
p2267
sg316
S'** JEN_inarg.attach(): attached: [solve_imp]./MG_JEN_Joneset.DJones_WSRT()'
p2268
sg320
S'.modify( parmtable ): @@parmtable  ->  simul_DJones'
p2269
ssg71
g2259
sg42
(dp2270
g151
I00
sg95
I00
sg2
I00
sg105
I00
ssg91
(lp2271
g12
ag105
ag2
ag116
ag115
ag103
ag95
ag151
ag2229
aS'[solve_imp]./MG_JEN_Joneset.GJones()'
p2272
ag1935
ag2080
aS'[solve_imp]./MG_JEN_Joneset.KJones()'
p2273
ag2151
ag2002
asg15
(dp2274
g2
g145
sg105
g146
sg151
g186
sg95
g187
sg103
g144
sg115
g144
sg2229
g329
sg116
g144
ssg77
S'MG_JEN_CohsetJones'
p2275
ssg2272
(dp2276
g155
I01
sg2
S'@@polrep'
p2277
sg332
I0
sg157
g158
sg95
g96
sg162
I01
sg163
I10
sg164
g165
sg333
I1
sg167
g168
sg169
Nsg12
(dp2278
g14
g2272
sg15
(dp2279
g155
g172
sg2
g145
sg332
g336
sg157
g173
sg193
g194
sg162
g175
sg163
g176
sg164
g177
sg333
g337
sg167
g179
sg169
g180
sg103
g144
sg116
g144
sg183
g184
sg338
g339
sg340
g339
sg341
g336
sg342
g337
sg343
g344
sg151
g186
sg105
g146
sg189
g190
sg191
g192
sg95
g187
sg115
g144
ssg29
g30
sg31
S'MG_JEN_Joneset'
p2280
sg33
(dp2281
g155
I525
sg332
I519
sg333
I521
sg338
I518
sg189
I523
sg340
I517
sg341
I520
sg342
I522
sg162
I524
ssg35
(dp2282
g164
I01
sg2
I01
sg183
I01
sg105
I01
sg157
I01
sg116
I01
sg169
I01
sg167
I01
sg151
I01
sg191
I01
sg193
I01
sg95
I01
sg103
I01
sg115
I01
sg343
I01
sg163
I01
ssg40
g348
sg42
(dp2283
g151
I00
sg95
I00
sg2
I00
sg105
I00
ssg44
g350
sg46
(dp2284
g155
I00
sg343
I00
sg162
I00
sg189
I00
ssg48
S'MG_JEN_Joneset::GJones()  version=15dec2005  defined=2006-03-27 16:55'
p2285
sg50
(dp2286
g155
(lp2287
I01
aI00
aS'@@reset_funklet'
p2288
asg2
(lp2289
g3
ag129
ag2277
asg332
(lp2290
I0
aI1
aI2
aI3
aS'@@fdeg_Ggain'
p2291
asg157
(lp2292
g158
aS'@@color'
p2293
asg193
(lp2294
NaS'@@tfdeg'
p2295
asg162
(lp2296
I01
aI00
aS'@@auto_save'
p2297
asg163
(lp2298
I10
aS'@@size'
p2299
asg164
(lp2300
g165
aS'@@style'
p2301
asg333
(lp2302
NaI1
aI2
aI5
aI10
aI20
aI50
aI100
aI200
aI500
aS'@@subtile_size_Ggain'
p2303
asg167
(lp2304
g168
aS'@@condeq_corrs'
p2305
asg169
(lp2306
NaS'@@funklet_shape'
p2307
asg103
(lp2308
g284
aS'@@@Jsequence_KJones'
p2309
asg116
(lp2310
g284
aS'@@@Jsequence'
p2311
asg183
(lp2312
F1.0
aS'@@c00_default'
p2313
asg338
(lp2314
I0
aI1
aI2
aI3
ag382
aS'@@tdeg_Gphase'
p2315
asg340
(lp2316
I0
aI1
aI2
aI3
aS'@@tdeg_Ggain'
p2317
asg341
(lp2318
I0
aI1
aI2
aI3
ag387
aS'@@fdeg_Gphase'
p2319
asg342
(lp2320
g390
aNaI1
aI2
aI5
aI10
aI20
aI50
aI100
aI200
aI500
aS'@@subtile_size_Gphase'
p2321
asg343
(lp2322
I01
aI00
aS'@@Gpolar'
p2323
asg151
(lp2324
I00
aS'@@uvplane_effect'
p2325
asg105
(lp2326
(lp2327
I0
aI1
aI2
aI3
aI4
aa(lp2328
I0
aI1
aI2
aI3
aI4
aI5
aI6
aa(lp2329
I0
aI1
aI2
aI3
aI4
aI5
aI6
aI7
aI8
aI9
aI10
aI11
aI12
aI13
aa(lp2330
I0
aI1
aI2
aI3
aI4
aI5
aI6
aI7
aI8
aI9
aI10
aI11
aI12
aI13
aI14
aag135
aS'@@stations'
p2331
asg189
(lp2332
I01
aI00
aS'@@use_previous'
p2333
asg191
(lp2334
NaS'@@subtile_size'
p2335
asg95
(lp2336
Nag241
aS'@@parmtable'
p2337
asg115
(lp2338
g284
aS'@@@Jsequence_simul'
p2339
assg70
g1992
sg71
S'2006-03-27 16:55'
p2340
sg73
S'MG_JEN_Joneset::GJones()'
p2341
sg75
S'** Specific description of inarg record for: MG_JEN_Joneset::GJones()  version=15dec2005  defined=2006-03-27 16:55'
p2342
sg77
S'MG_JEN_JonesetGJones'
p2343
sg79
S'GJones'
p2344
sg81
I00
sg82
g2340
sg83
(dp2345
g87
S'.modify( parmtable ): @@parmtable  ->  simul_DJones'
p2346
ssg91
(lp2347
g12
ag105
ag2
ag116
ag115
ag103
ag343
ag95
ag151
ag340
ag338
ag332
ag341
ag333
ag342
ag189
ag162
ag155
ag157
ag164
ag163
ag183
ag193
ag169
ag191
ag167
assg103
g284
sg116
g284
sg183
F1.0
sg338
g382
sg340
I0
sg341
g387
sg342
g390
sg343
I01
sg151
g2325
sg105
g2331
sg189
I01
sg191
Nsg193
Nsg115
g284
ssg103
Nsg115
Nsg2273
(dp2348
g2
S'@@polrep'
p2349
sg105
S'@@stations'
p2350
sg12
(dp2351
g73
S'MG_JEN_Joneset::KJones()'
p2352
sg14
g2273
sg77
S'MG_JEN_JonesetKJones'
p2353
sg35
(dp2354
g103
I01
sg115
I01
sg105
I01
sg2
I01
sg116
I01
ssg44
g117
sg29
g30
sg48
S'MG_JEN_Joneset::KJones()  version=12dec2005  defined=2006-03-27 16:55'
p2355
sg79
S'KJones'
p2356
sg50
(dp2357
g103
(lp2358
g122
aS'@@@Jsequence_KJones'
p2359
asg115
(lp2360
g122
aS'@@@Jsequence_simul'
p2361
asg105
(lp2362
(lp2363
I0
aI1
aI2
aI3
aI4
aa(lp2364
I0
aI1
aI2
aI3
aI4
aI5
aI6
aa(lp2365
I0
aI1
aI2
aI3
aI4
aI5
aI6
aI7
aI8
aI9
aI10
aI11
aI12
aI13
aa(lp2366
I0
aI1
aI2
aI3
aI4
aI5
aI6
aI7
aI8
aI9
aI10
aI11
aI12
aI13
aI14
aag135
ag2350
asg2
(lp2367
g3
ag129
ag2349
asg116
(lp2368
g122
aS'@@@Jsequence'
p2369
assg70
g1992
sg81
I00
sg33
(dp2370
sg82
S'2006-03-27 16:55'
p2371
sg40
g138
sg31
S'MG_JEN_Joneset'
p2372
sg75
S'** Specific description of inarg record for: MG_JEN_Joneset::KJones()  version=12dec2005  defined=2006-03-27 16:55'
p2373
sg42
(dp2374
g2
I00
sg105
I00
ssg71
g2371
sg91
(lp2375
g12
ag105
ag2
ag116
ag115
ag103
asg15
(dp2376
g103
g144
sg115
g144
sg105
g146
sg2
g145
sg116
g144
sssg103
g122
sg115
g122
sg116
g122
ssg2229
(lp2377
sg116
Nssg2
S'@@polrep'
p2378
sg105
S'@@stations'
p2379
sg12
(dp2380
g73
g1218
sg14
g1857
sg33
(dp2381
g1220
I495
ssg35
(dp2382
g103
I01
sg115
I01
sg105
I01
sg2
I01
sg116
I01
ssg77
S'MG_JEN_Cohsetpredict_lsm'
p2383
sg29
g30
sg44
g1223
sg48
S'MG_JEN_Cohset::predict_lsm()  version=20mar2006  defined=2006-03-27 16:55'
p2384
sg79
S'predict_lsm'
p2385
sg50
(dp2386
g2
(lp2387
g3
ag129
ag2378
asg105
(lp2388
(lp2389
I0
aI1
aI2
aI3
aI4
aa(lp2390
I0
aI1
aI2
aI3
aI4
aI5
aI6
aa(lp2391
I0
aI1
aI2
aI3
aI4
aI5
aI6
aI7
aI8
aI9
aI10
aI11
aI12
aI13
aa(lp2392
I0
aI1
aI2
aI3
aI4
aI5
aI6
aI7
aI8
aI9
aI10
aI11
aI12
aI13
aI14
aag135
ag2379
asg1220
(lp2393
I1
aI2
aI3
aI5
aI10
aI20
aI100
aS'@@nr_lsm_sources'
p2394
asg103
(lp2395
NaS'@@@Jsequence_KJones'
p2396
asg115
(lp2397
NaS'@@@Jsequence_simul'
p2398
asg116
(lp2399
NaS'@@@Jsequence'
p2400
assg70
g1199
sg81
I00
sg82
S'2006-03-27 16:55'
p2401
sg40
g1243
sg31
S'MG_JEN_Cohset'
p2402
sg75
S'** Specific description of inarg record for: MG_JEN_Cohset::predict_lsm()  version=20mar2006  defined=2006-03-27 16:55'
p2403
sg83
(dp2404
g87
S'** JEN_inarg.attach(): attached: [solve_imp]./MG_JEN_Cohset.Jones()'
p2405
ssg71
g2401
sg42
(dp2406
g2
I00
sg105
I00
ssg91
(lp2407
g12
ag1220
ag105
ag2
ag116
ag115
ag103
ag1933
asg15
(dp2408
g2
g145
sg105
g146
sg1220
g1252
sg103
g144
sg115
g144
sg116
g144
sssg1220
I1
sg103
Nsg115
Nsg116
Nssg116
Nsg1736
Nsg1750
g1776
sg151
I01
sg1744
Nsg1856
(dp2409
g2
S'@@polrep'
p2410
sg105
S'@@stations'
p2411
sg12
(dp2412
g73
g1702
sg14
g1856
sg33
(dp2413
sg35
(dp2414
g103
I01
sg115
I01
sg105
I01
sg2
I01
sg116
I01
ssg77
S'MG_JEN_Cohsetpredict_cps'
p2415
sg29
g30
sg44
g1223
sg48
S'MG_JEN_Cohset::predict_cps()  version=20mar2006  defined=2006-03-27 16:55'
p2416
sg79
S'predict_cps'
p2417
sg50
(dp2418
g103
(lp2419
NaS'@@@Jsequence_KJones'
p2420
asg115
(lp2421
NaS'@@@Jsequence_simul'
p2422
asg105
(lp2423
(lp2424
I0
aI1
aI2
aI3
aI4
aa(lp2425
I0
aI1
aI2
aI3
aI4
aI5
aI6
aa(lp2426
I0
aI1
aI2
aI3
aI4
aI5
aI6
aI7
aI8
aI9
aI10
aI11
aI12
aI13
aa(lp2427
I0
aI1
aI2
aI3
aI4
aI5
aI6
aI7
aI8
aI9
aI10
aI11
aI12
aI13
aI14
aag135
ag2411
asg2
(lp2428
g3
ag129
ag2410
asg116
(lp2429
NaS'@@@Jsequence'
p2430
assg70
g1241
sg81
I00
sg82
S'2006-03-27 16:55'
p2431
sg40
g1243
sg31
S'MG_JEN_Cohset'
p2432
sg75
S'** Specific description of inarg record for: MG_JEN_Cohset::predict_cps()  version=20mar2006  defined=2006-03-27 16:55'
p2433
sg42
(dp2434
g2
I00
sg105
I00
ssg71
g2431
sg91
(lp2435
g12
ag105
ag2
ag116
ag115
ag103
asg15
(dp2436
g103
g144
sg115
g144
sg105
g146
sg2
g145
sg116
g144
sssg103
Nsg115
Nsg116
Nssg1732
F0.0
sg1734
I00
sg21
I1
sg105
g1770
sg1859
(dp2437
g99
S'finishing touches'
p2438
ssg1852
(dp2439
g99
S'uv-data (MS) stream_control'
p2440
ssg1738
I00
sg1740
I01
sg1854
(dp2441
g99
S'uv-data simulation (LeafSet)'
p2442
ssg1742
I01
sg115
Nsg1855
(dp2443
g1079
F1000000.0
sg155
I01
sg1080
F0.0
sg1081
I00
sg157
g158
sg1082
g1083
sg95
g96
sg1084
I-10
sg162
I01
sg163
I10
sg164
g165
sg1085
F1.0
sg1086
Nsg167
g168
sg1087
Nsg169
Nsg1088
F0.0
sg1089
F1.4950000000000001
sg1090
Nsg1091
F0.0
sg12
(dp2444
g14
g1855
sg15
(dp2445
g1079
g1094
sg155
g172
sg1080
g1095
sg1081
g1096
sg157
g173
sg1082
g1097
sg95
g1098
sg1084
g1099
sg162
g175
sg163
g176
sg164
g177
sg1085
g1100
sg1086
g1101
sg167
g179
sg1087
g1102
sg169
g180
sg1088
g1103
sg1089
g1104
sg1090
g1105
sg1091
g1106
sg183
g184
sg1107
g1108
sg1109
S'name of calibrator source/patch \n- unpol:   unpolarised, I=1Jy \n- unpol2:  idem, I=2Jy \n- unpol10: idem, I=10Jy \n- RMtest:  Rotation Measure \n- SItest:  Spectral Index \n- QUV:     non-zero Q,U,V \n- QU:      non-zero Q,U \n- QU2:     stronger version of QU \n- Qonly:   non-zero Q \n- Uonly:   non-zero U \n- Vonly:   non-zero V \n- 3c286:   \n- 3c48:    \n- 3c295:   \n- 3c147:   \n- D1:      cps in D1.MS \n'
p2446
sg1111
g1112
sg1113
g1114
sg189
g190
sg191
g192
sg193
g194
ssg29
g30
sg31
S'MG_JEN_Sixpack'
p2447
sg33
(dp2448
g155
I51
sg189
I49
sg1111
I43
sg1085
I35
sg1107
I36
sg1087
I38
sg1086
I40
sg95
I33
sg1089
I42
sg1090
I39
sg1084
I37
sg1109
I31
sg162
I50
ssg35
(dp2449
g1079
I01
sg1080
I01
sg1081
I01
sg1118
I01
sg183
I01
sg157
I01
sg191
I01
sg1082
I01
sg1113
I01
sg1109
I00
sg169
I01
sg1088
I01
sg167
I01
sg193
I01
sg164
I01
sg1091
I01
sg163
I01
ssg40
g1119
sg44
g1120
sg46
(dp2450
g155
I00
sg1081
I00
sg1113
I00
sg162
I00
sg189
I00
ssg48
S'MG_JEN_Sixpack::newstar_source()  version=10feb2006  defined=2006-03-27 16:55'
p2451
sg50
(dp2452
g1079
(lp2453
F1000000.0
aS'@@f0'
p2454
asg155
(lp2455
I01
aI00
aS'@@reset_funklet'
p2456
asg1080
(lp2457
F0.0
aF1.0
aF10.0
aF100.0
aS'@@major'
p2458
asg1081
(lp2459
I01
aI00
aS'@@unsolvable'
p2460
asg157
(lp2461
g158
aS'@@color'
p2462
asg1082
(lp2463
g1083
ag1135
aS'@@shape'
p2464
asg95
(lp2465
NaS'@@parmtable'
p2466
asg1084
(lp2467
NaF-0.10000000000000001
aF0.050000000000000003
aF-0.01
aS'@@Upct'
p2468
asg162
(lp2469
I01
aI00
aS'@@auto_save'
p2470
asg163
(lp2471
I10
aS'@@size'
p2472
asg164
(lp2473
g165
aS'@@style'
p2474
asg1085
(lp2475
F1.0
aF10.0
aS'@@I0'
p2476
asg1086
(lp2477
NaF-0.69999999999999996
a(lp2478
F0.44700000000000001
aF-0.184
aaS'@@SI'
p2479
asg167
(lp2480
g168
aS'@@condeq_corrs'
p2481
asg1087
(lp2482
NaF0.01
aF-0.0050000000000000001
aF0.001
aS'@@Vpct'
p2483
asg169
(lp2484
NaS'@@funklet_shape'
p2485
asg1088
(lp2486
F0.0
aF1.0
aF-0.5
aS'@@pa'
p2487
asg1089
(lp2488
F0.0
aF0.5
aF1.0
aF1.4950000000000001
aF4.3570000000000002
aS'@@RA'
p2489
asg1090
(lp2490
NaF1.0
aF3.0
aF10.0
aF-10.0
aF60.0
aS'@@RM'
p2491
asg1091
(lp2492
F0.0
aF0.5
aF5.0
aF50.0
aS'@@minor'
p2493
asg183
(lp2494
F1.0
aS'@@c00_default'
p2495
asg1107
(lp2496
NaF0.10000000000000001
aF-0.050000000000000003
aF0.01
aS'@@Qpct'
p2497
asg1109
(lp2498
g1171
ag1172
ag1173
ag1174
ag1175
ag1176
ag1177
ag1178
ag1179
ag1180
ag1181
ag1182
ag1183
ag1184
ag1185
aS'@@punit'
p2499
asg1111
(lp2500
F0.5
aF1.0
aF0.87
aF1.0920000000000001
aS'@@Dec'
p2501
asg1118
(lp2502
NaS'@@name'
p2503
asg1113
(lp2504
I01
aI00
aS'@@fsr_trace'
p2505
asg189
(lp2506
I01
aI00
aS'@@use_previous'
p2507
asg191
(lp2508
NaS'@@subtile_size'
p2509
asg193
(lp2510
NaS'@@tfdeg'
p2511
assg70
g1241
sg71
S'2006-03-27 16:55'
p2512
sg73
g1201
sg75
S'** Specific description of inarg record for: MG_JEN_Sixpack::newstar_source()  version=10feb2006  defined=2006-03-27 16:55'
p2513
sg77
S'MG_JEN_Sixpacknewstar_source'
p2514
sg79
S'newstar_source'
p2515
sg1205
(dp2516
g1109
I01
ssg81
I00
sg82
g2512
sg83
(dp2517
g85
S'.modify( Qpct ): None  ->  10'
p2518
sg87
S'.modify( parmtable ): None  ->  simul_DJones'
p2519
sg311
S'.modify( punit ): unpol  ->  QU'
p2520
sg89
S'.modify( Upct ): None  ->  -10'
p2521
ssg91
(lp2522
g12
ag1109
ag1118
ag95
ag1081
ag1085
ag1107
ag1084
ag1087
ag1090
ag1086
ag1079
ag1089
ag1111
ag1113
ag1082
ag1080
ag1091
ag1088
ag189
ag162
ag155
ag157
ag164
ag163
ag183
ag193
ag169
ag191
ag167
assg183
F1.0
sg1107
I10
sg1109
g1175
sg1111
F0.87
sg1118
Nsg1113
I01
sg189
I01
sg191
Nsg193
Nssg1858
(dp2523
S'correct_after'
p2524
I01
sg1734
S'@@master_reqseq'
p2525
sS'condeq_unop'
p2526
Nsg1865
I01
sg1738
S'@@redun'
p2527
sS'solver_subtree'
p2528
NsS'subtract_after'
p2529
I00
sg1742
S'@@chain_solvers'
p2530
sg12
(dp2531
g14
g1858
sg15
(dp2532
g2524
S'if True, correct measured with predicted.Joneset'
p2533
sg1734
g1735
sg2526
S'Optional unary operation on Condeq inputs'
p2534
sg1865
S'if True, include full visualisation'
p2535
sg1738
g1739
sg2528
S'solver subtree qualifier(s)'
p2536
sg2529
S'if True, subtract predicted from measured'
p2537
sg1742
g1743
sS'flag_residuals'
p2538
S'if True, flag the residuals'
p2539
sg1744
g1745
ssg29
g30
sg31
S'MG_JEN_Cohset'
p2540
sg33
(dp2541
g2529
I643
sg2524
I644
sg2526
I641
sg1865
I642
ssg35
(dp2542
g1734
I01
sg1738
I01
sg2528
I01
sg1742
I01
sg2538
I01
sg1744
I01
ssg40
g305
sg42
(dp2543
g1744
I00
sg1742
I00
sg1738
I00
sg1734
I00
ssg44
S'insert one or more solver subtrees in the data stream'
p2544
sg46
(dp2545
g2524
I00
sg1734
I00
sg1865
I00
sg1738
I00
sg2529
I00
sg2538
I00
ssg48
S'MG_JEN_Cohset::insert_solver()  version=25dec2005  defined=2006-03-27 16:55'
p2546
sg50
(dp2547
g2524
(lp2548
I01
aI00
aS'@@correct_after'
p2549
asg1734
(lp2550
I01
aI00
ag2525
asg2526
(lp2551
NaS'Abs'
p2552
aS'Arg'
p2553
aS'@@condeq_unop'
p2554
asg1865
(lp2555
I01
aI00
aS'@@visu'
p2556
asg1738
(lp2557
I01
aI00
ag2527
asg2528
(lp2558
NaS'@@solver_subtree'
p2559
asg2529
(lp2560
I01
aI00
aS'@@subtract_after'
p2561
asg1742
(lp2562
I01
ag2530
asg2538
(lp2563
I01
aI00
aS'@@flag_residuals'
p2564
asg1744
(lp2565
Na(lp2566
I5
aI2
aa(lp2567
I2
aI2
aa(lp2568
I3
aI3
aaS'@@num_cells'
p2569
assg70
Nsg71
S'2006-03-27 16:55'
p2570
sg73
S'MG_JEN_Cohset::insert_solver()'
p2571
sg75
S'** Specific description of inarg record for: MG_JEN_Cohset::insert_solver()  version=25dec2005  defined=2006-03-27 16:55'
p2572
sg77
S'MG_JEN_Cohsetinsert_solver'
p2573
sg79
S'insert_solver'
p2574
sg81
I00
sg82
g2570
sg83
(dp2575
g87
S'** JEN_inarg.attach(): attached: ./MG_JEN_Cohset.solver_subtree()'
p2576
ssg91
(lp2577
g12
ag2528
ag1738
ag1744
ag1742
ag1734
ag2526
ag1865
ag2529
ag2524
ag2538
aS'./MG_JEN_Cohset.solver_subtree()'
p2578
assg1744
g2569
sg2578
(dp2579
S'rmin'
p2580
Nsg1865
I01
sS'epsilon'
p2581
F0.0001
sS'colin_factor'
p2582
F0.0
sS'rmax'
p2583
NsS'derivative_eps'
p2584
F1e-08
sS'usesvd'
p2585
I01
sS'debug_level'
p2586
I10
sS'history'
p2587
I01
sS'solvegroup'
p2588
(lp2589
S'DJones'
p2590
asg12
(dp2591
g73
S'MG_JEN_Cohset::solver_subtree()'
p2592
sg14
g2578
sg71
S'2006-03-27 16:55'
p2593
sg35
(dp2594
g2586
I01
sg2584
I01
sS'setBalanced'
p2595
I01
sS'epsval'
p2596
I01
sg1744
I00
ssg44
S'Make a solver-subtree for the given Condeq Cohset'
p2597
sg29
g30
sg48
S'MG_JEN_Cohset::solver_subtree()  version=20dec2005  defined=2006-03-27 16:55'
p2598
sg79
S'solver_subtree'
p2599
sg50
(dp2600
g2580
(lp2601
NaI100
aI200
aI500
aS'@@rmin'
p2602
asg1865
(lp2603
I01
aI00
aS'@@visu'
p2604
asg2581
(lp2605
F0.001
aF0.0001
aF1.0000000000000001e-05
aS'@@epsilon'
p2606
asg2583
(lp2607
NaI500
aI1000
aI2000
aS'@@rmax'
p2608
asg2584
(lp2609
F1e-08
aF0.001
aF0.0001
aF1.0000000000000001e-05
aS'@@derivative_eps'
p2610
asg2585
(lp2611
I01
aI00
aS'@@usesvd'
p2612
asg2586
(lp2613
I10
aS'@@debug_level'
p2614
asg2587
(lp2615
I01
aI00
aS'@@history'
p2616
asg2588
(lp2617
(lp2618
a(lp2619
g284
aa(lp2620
S'Ggain'
p2621
aa(lp2622
S'Gphase'
p2623
aa(lp2624
S'Gpol1'
p2625
aa(lp2626
S'Gpol2'
p2627
aa(lp2628
g292
aa(lp2629
g292
aS'stokesU'
p2630
aa(lp2631
g292
aS'stokesQ'
p2632
aa(lp2633
g292
aS'stokesV'
p2634
aa(lp2635
S'stokesQU'
p2636
ag292
aa(lp2637
S'stokesQUV'
p2638
ag292
aa(lp2639
g284
aS'stokesI'
p2640
aa(lp2641
g2640
aa(lp2642
S'stokesIQU'
p2643
aa(lp2644
S'stokesIQUV'
p2645
aa(lp2646
S'stokesIV'
p2647
aa(lp2648
g2636
aa(lp2649
g2638
aa(lp2650
g284
ag2590
aa(lp2651
g2590
aa(lp2652
S'Dang'
p2653
aa(lp2654
S'Dell'
p2655
aa(lp2656
S'Dreal'
p2657
aa(lp2658
S'Dimag'
p2659
aa(lp2660
g284
ag2590
ag287
aa(lp2661
g287
aa(lp2662
g284
ag226
aa(lp2663
g226
aa(lp2664
S'Breal'
p2665
aa(lp2666
S'Bimag'
p2667
aa(lp2668
S'Bpol1'
p2669
aa(lp2670
S'Bpol2'
p2671
aaS'@@solvegroup'
p2672
asg2596
(lp2673
F1e-08
aF0.001
aF0.0001
aF1.0000000000000001e-05
aS'@@epsval'
p2674
asg1744
(lp2675
Na(lp2676
I5
aI2
aa(lp2677
I2
aI2
aa(lp2678
I3
aI3
aaS'@@num_cells'
p2679
asg2595
(lp2680
I01
aI00
aS'@@setBalanced'
p2681
asS'num_iter'
p2682
(lp2683
I1
aI3
aI5
aI10
aI20
aS'@@num_iter'
p2684
asS'condition'
p2685
(lp2686
NaS'Gphase_X_sum=0.0'
p2687
aS'Gphase_Y_sum=0.0'
p2688
a(lp2689
g2687
ag2688
aa(lp2690
S'Gphase_X_first=0.0'
p2691
aS'Gphase_Y_first=0.0'
p2692
aa(lp2693
S'Gphase_X_last=0.0'
p2694
aS'Gphase_Y_last=0.0'
p2695
aaS'Dang_sum=0.0'
p2696
a(lp2697
S'Bimag_X_sum=0.0'
p2698
aS'Bimag_Y_sum=0.0'
p2699
aa(lp2700
S'Breal_X_product=1.0'
p2701
aS'Breal_Y_product=1.0'
p2702
aaS'@@condition'
p2703
asg2582
(lp2704
F1e-08
aF0.0
aS'@@colin_factor'
p2705
assg70
Nsg40
S'20dec2005'
p2706
sg33
(dp2707
g2580
I648
sg1865
I659
sg2581
I652
sg2583
I649
sg2585
I656
sg2588
I646
sg1744
I650
sg2587
I660
sg2682
I651
sg2685
I647
sg2582
I655
ssg82
g2593
sg31
S'MG_JEN_Cohset'
p2708
sg46
(dp2709
g2585
I00
sg2595
I00
sg2587
I00
sg1865
I00
ssg75
S'** Specific description of inarg record for: MG_JEN_Cohset::solver_subtree()  version=20dec2005  defined=2006-03-27 16:55'
p2710
sg83
(dp2711
g85
S'.modify( num_iter ): 5  ->  2'
p2712
sg87
S".modify( solvegroup ): []  ->  ['DJones']"
p2713
ssg81
I00
sg91
(lp2714
g12
ag2588
ag2685
ag2580
ag2583
ag1744
ag2682
ag2581
ag2596
ag2584
ag2582
ag2585
ag2595
ag2586
ag1865
ag2587
asg15
(dp2715
g2580
S'if specified, only use baselines>=rmin'
p2716
sg1865
S'if True, include visualisation'
p2717
sg2581
S'iteration control criterion...'
p2718
sg2583
S'if specified, only use baselines<=rmax'
p2719
sg2584
S'NEW: also iteration control...'
p2720
sg2585
S'if True, use Singular Value Decomposition (SVD)'
p2721
sg2586
S'solver debug_level'
p2722
sg2587
S'if True, include history collection of metrics'
p2723
sg2588
S'group (list) of parmgroups, to be solved for:\n- [GJones]:  all GJones MeqParms\n- [Ggain]:   GJones station gains (both pols)\n- [Gphase]:  GJones station phases (both pols)\n- [Gpol1]:   All GJones MeqParms for pol1 (X or R)\n- [Gpol2]:   All GJones MeqParms for pol2 (Y or L)\n- [JJones,stokesU]:     actually solves for U!\n- [JJones,stokesQ]:     -> zero Q(?), but better freq sol(?)\n- [JJones,stokesV]:     -> punit V(?)...\n- [stokesI]:    stokes I (incl SI(f), if relevant)\n- [stokesIQU]:  stokes I,Q,U (incl RM and SI(f))\n- [stokesIQUV]: stokes I,Q,U,V (incl RM and SI(f))'
p2724
sg2596
S'NEW: WNB version of epsilon....'
p2725
sg1744
g1745
sg2595
S'NEW: if True, add (..) to diagonal, otherwise multiply (1+lambda)'
p2726
sg2682
S'max number of iterations (now also in fitter)'
p2727
sg2685
S'(list of) extra condition equations:\n- [...phase_sum=0.0]:   sum of phases = zero\n- [...phase_first=0.0]: phase of first station = zero\n- [...phase_last=0.0]:  phase of last station = zero\n- [Dang_sum=0.0]:   sum of dipole pos.angle errors = zero\n- [...imag_sum=0.0]:   sum of imag.parts = zero\n- [...real_product=1.0]:   product of real.parts = unity'
p2728
sg2582
S'colinearity factor'
p2729
ssg77
S'MG_JEN_Cohsetsolver_subtree'
p2730
ssg1744
Nsg2595
I00
sg2682
I2
sg2685
Nsg2596
F1e-08
ssg2538
I00
ss.