(dp0
S'add_to_existing'
p1
I00
sS'polrep'
p2
S'linear'
p3
sS'_JEN_inarg_separator_record:_1'
p4
(dp5
S'txt'
p6
S'uv-data (MS) stream_control'
p7
ssS'script_name'
p8
S'MG_JEN_simul'
p9
sS'ms_name'
p10
S'D1.MS'
p11
sS'parmtable'
p12
S'simul_lsm_DJones'
p13
sS'insert_solver'
p14
I00
sS'[solve_uvp]./MG_JEN_Cohset.Jones()'
p15
(dp16
g2
S'@@polrep'
p17
sS'_JEN_inarg_CTRL_record:'
p18
(dp19
S'target_definition'
p20
S'MG_JEN_Cohset::Jones()'
p21
sS'localscope'
p22
g15
sS'hide'
p23
(dp24
g2
I01
sS'stations'
p25
I01
sS'uvplane_effect'
p26
I01
sg12
I01
sS'@Jsequence_KJones'
p27
I01
sS'@Jsequence_simul'
p28
I01
sS'@Jsequence'
p29
I01
ssS'barescope'
p30
S'MG_JEN_CohsetJones'
p31
sS'target_dir'
p32
S'.'
p33
sS'oneliner'
p34
S'MG_JEN_Cohset::Jones()  version=25dec2005  defined=2006-03-29 19:26'
p35
sS'target_function'
p36
S'Jones'
p37
sS'choice'
p38
(dp39
g2
(lp40
g3
aS'circular'
p41
ag17
asg25
(lp42
(lp43
I0
aI1
aI2
aI3
aI4
aa(lp44
I0
aI1
aI2
aI3
aI4
aI5
aI6
aa(lp45
I0
aI1
aI2
aI3
aI4
aI5
aI6
aI7
aI8
aI9
aI10
aI11
aI12
aI13
aa(lp46
I0
aI1
aI2
aI3
aI4
aI5
aI6
aI7
aI8
aI9
aI10
aI11
aI12
aI13
aI14
aaS'range(5)'
p47
aS'@@stations'
p48
asS'Jsequence_solve_uvp'
p49
(lp50
(lp51
S'GJones'
p52
aa(lp53
S'BJones'
p54
aa(lp55
S'FJones'
p56
aa(lp57
S'KJones'
p58
aa(lp59
S'DJones_WSRT'
p60
aa(lp61
g52
ag60
aa(lp62
S'JJones'
p63
aa(lp64
aS'@@Jsequence_solve_uvp'
p65
asg26
(lp66
I00
aS'@@uvplane_effect'
p67
asg12
(lp68
NaS'test'
p69
aS'@@parmtable'
p70
asg27
(lp71
NaS'@@@Jsequence_KJones'
p72
asg28
(lp73
NaS'@@@Jsequence_simul'
p74
asg29
(lp75
NaS'@@@Jsequence'
p76
assS'qual'
p77
S'solve_uvp'
p78
sS'protected'
p79
I00
sS'datetime_defined'
p80
S'2006-03-29 19:26'
p81
sS'version'
p82
S'25dec2005'
p83
sS'target_module'
p84
S'MG_JEN_Cohset'
p85
sS'inarg_specific'
p86
S'** Specific description of inarg record for: MG_JEN_Cohset::Jones()  version=25dec2005  defined=2006-03-29 19:26'
p87
sS'MESSAGE'
p88
(dp89
S'1'
p90
S'** JEN_inarg.attach(): attached: [solve_uvp]./MG_JEN_Joneset.FJones()'
p91
sS'0'
p92
S'** JEN_inarg.attach(): attached: [solve_uvp]./MG_JEN_Joneset.GJones()'
p93
sS'3'
p94
S'** JEN_inarg.attach(): attached: [solve_uvp]./MG_JEN_Joneset.KJones()'
p95
sS'2'
p96
S'** JEN_inarg.attach(): attached: [solve_uvp]./MG_JEN_Joneset.BJones()'
p97
sS'5'
p98
S'** JEN_inarg.attach(): attached: [solve_uvp]./MG_JEN_Joneset.JJones()'
p99
sS'4'
p100
S'** JEN_inarg.attach(): attached: [solve_uvp]./MG_JEN_Joneset.DJones_WSRT()'
p101
sS'6'
p102
S"  1: ..[solve_uvp]./MG_JEN_Cohset.Jones() (qual=None): .modify(Jsequence_solve_uvp):   []  ->  ['DJones_WSRT']"
p103
ssS'last_edited'
p104
g81
sS'mutable'
p105
(dp106
g26
I00
sg12
I00
sg2
I00
sg25
I00
ssS'order'
p107
(lp108
g18
ag25
ag2
ag29
ag28
ag27
ag12
ag26
ag49
aS'[solve_uvp]./MG_JEN_Joneset.GJones()'
p109
aS'[solve_uvp]./MG_JEN_Joneset.FJones()'
p110
aS'[solve_uvp]./MG_JEN_Joneset.BJones()'
p111
aS'[solve_uvp]./MG_JEN_Joneset.KJones()'
p112
aS'[solve_uvp]./MG_JEN_Joneset.DJones_WSRT()'
p113
aS'[solve_uvp]./MG_JEN_Joneset.JJones()'
p114
asS'help'
p115
(dp116
g2
S'polarisation representation'
p117
sg25
S'the (subset of) stations to be used'
p118
sg49
S'sequence of Jones matrices to be used'
p119
sg26
S'if True, the Joneset reprsents uv-plane effects (q=uvp)'
p120
sg12
S'name of the MeqParm table to be used'
p121
sg27
S'list membership indication (used in JEN_inargGui)'
p122
sg28
g122
sg29
g122
ssS'description'
p123
S'Make a Joneset by creating and multiplying a sequence of one ore more Jonesets'
p124
ssg25
g48
sg114
(dp125
S'reset_funklet'
p126
I00
sg2
S'@@polrep'
p127
sS'tdeg_Jreal'
p128
I0
sS'color'
p129
S'red'
p130
sS'save_all'
p131
I00
sS'all4_always'
p132
Nsg12
S'@@parmtable'
p133
sS'subtile_size_Jreal'
p134
NsS'auto_save'
p135
I01
sS'size'
p136
I10
sS'style'
p137
S'circle'
p138
sS'tdeg_Jimag'
p139
S'@tdeg_Jreal'
p140
sS'condeq_corrs'
p141
S'*'
p142
sS'funklet_shape'
p143
Nsg18
(dp144
g20
S'MG_JEN_Joneset::JJones()'
p145
sg22
g114
sg23
(dp146
g137
I01
sg2
I01
sS'c00_default'
p147
I01
sg25
I01
sg129
I01
sg143
I01
sg141
I01
sg26
I01
sS'subtile_size'
p148
I01
sS'tfdeg'
p149
I01
sg12
I01
sg27
I01
sg28
I01
sg29
I01
sg136
I01
ssg30
S'MG_JEN_JonesetJJones'
p150
sg32
g33
sg123
S'Defines diagonal 2x2 Jones matrices for full polarisation:\n    Jjones(station,source) matrix elements:\n    - J_11 = (Jreal_11,Jimag_11)\n    - J_12 = (Jreal_12,Jimag_12)\n    - J_21 = (Jreal_21,Jimag_21)\n    - J_22 = (Jreal_22,Jimag_22)\n    For circular polarisation, R and L are used rather than X and Y\n    '
p151
sg34
S'MG_JEN_Joneset::JJones()  version=14feb2006  defined=2006-03-29 19:26'
p152
sg36
S'JJones'
p153
sg38
(dp154
g126
(lp155
I01
aI00
aS'@@reset_funklet'
p156
asg2
(lp157
g3
ag41
ag127
asg128
(lp158
I0
aI1
aI2
aI3
aS'@@tdeg_Jreal'
p159
asg129
(lp160
g130
aS'@@color'
p161
asg131
(lp162
I01
aI00
aS'@@save_all'
p163
asg132
(lp164
Na(lp165
I14
aa(lp166
I1
aaS'WSRT/WHAT'
p167
aS'@@all4_always'
p168
asg12
(lp169
Nag69
ag133
asg134
(lp170
NaI1
aI2
aI5
aI10
aI20
aI50
aI100
aI200
aI500
aS'@@subtile_size_Jreal'
p171
asg135
(lp172
I01
aI00
aS'@@auto_save'
p173
asg136
(lp174
I10
aS'@@size'
p175
asg137
(lp176
g138
aS'@@style'
p177
asg139
(lp178
I0
aI1
aI2
aI3
ag140
aS'@@tdeg_Jimag'
p179
asg141
(lp180
g142
aS'@@condeq_corrs'
p181
asg143
(lp182
NaS'@@funklet_shape'
p183
asg27
(lp184
g63
aS'@@@Jsequence_KJones'
p185
asS'fdeg_Jreal'
p186
(lp187
I0
aI1
aI2
aI3
aS'@@fdeg_Jreal'
p188
asg147
(lp189
F1.0
aS'@@c00_default'
p190
asg26
(lp191
I00
aS'@@uvplane_effect'
p192
asS'fdeg_Jimag'
p193
(lp194
I0
aI1
aI2
aI3
aS'@fdeg_Jreal'
p195
aS'@@fdeg_Jimag'
p196
asS'subtile_size_Jimag'
p197
(lp198
S'@subtile_size_Jreal'
p199
aNaI1
aI2
aI5
aI10
aI20
aI50
aI100
aI200
aI500
aS'@@subtile_size_Jimag'
p200
asg25
(lp201
(lp202
I0
aI1
aI2
aI3
aI4
aa(lp203
I0
aI1
aI2
aI3
aI4
aI5
aI6
aa(lp204
I0
aI1
aI2
aI3
aI4
aI5
aI6
aI7
aI8
aI9
aI10
aI11
aI12
aI13
aa(lp205
I0
aI1
aI2
aI3
aI4
aI5
aI6
aI7
aI8
aI9
aI10
aI11
aI12
aI13
aI14
aag47
aS'@@stations'
p206
asS'diagonal_only'
p207
(lp208
I01
aI00
aS'@@diagonal_only'
p209
asS'use_previous'
p210
(lp211
I01
aI00
aS'@@use_previous'
p212
asg148
(lp213
NaS'@@subtile_size'
p214
asg149
(lp215
NaS'@@tfdeg'
p216
asg28
(lp217
g63
aS'@@@Jsequence_simul'
p218
asg29
(lp219
g63
aS'@@@Jsequence'
p220
assg77
g78
sg79
I00
sg80
S'2006-03-29 19:26'
p221
sg82
S'14feb2006'
p222
sg84
S'MG_JEN_Joneset'
p223
sS'editable'
p224
(dp225
g126
I00
sg210
I00
sg207
I00
sg135
I00
sg131
I00
ssg86
S'** Specific description of inarg record for: MG_JEN_Joneset::JJones()  version=14feb2006  defined=2006-03-29 19:26'
p226
sg105
(dp227
g26
I00
sg12
I00
sg2
I00
sg25
I00
ssg104
g221
sg107
(lp228
g18
ag25
ag2
ag29
ag28
ag27
ag207
ag132
ag12
ag26
ag128
ag139
ag186
ag193
ag134
ag197
ag210
ag135
ag131
ag126
ag129
ag137
ag136
ag147
ag149
ag143
ag148
ag141
asg115
(dp229
g126
S'if True, do NOT use any MeqParm table values when solvable'
p230
sg2
g117
sg128
S'degree of time polynomial'
p231
sg129
S'plot_color'
p232
sg131
S'if True, save the update result even if not converged'
p233
sg132
S'stations for which all 4 elements will always be solved for'
p234
sg12
g121
sg134
S'sub-tile size (None=entire tile)'
p235
sg135
S'if True, save the result of every iteration (slow!)'
p236
sg136
S'size of plotted symbol'
p237
sg137
S'plot_style'
p238
sg139
g231
sg141
S'correlations to be used for solving'
p239
sg143
S'shape [time,freq] of default funklet'
p240
sg27
g122
sg186
S'degree of freq polynomial'
p241
sg147
S'default value of c[0,0] coefficient'
p242
sg26
g120
sg193
g241
sg197
g235
sg25
g118
sg207
S'if True, solve for diagonal (11,22) elements only'
p243
sg210
S'if True, start with the previous solution'
p244
sg148
S'size (time-slots) of a domain sub-tile'
p245
sg149
S'(time,freq) polynomial degree'
p246
sg28
g122
sg29
g122
sssg27
g63
sg186
I0
sg147
F1.0
sg26
g192
sg193
g195
sg197
g199
sg25
g206
sg207
I00
sg210
I01
sg148
Nsg149
Nsg28
g63
sg29
g63
ssg112
(dp247
g2
S'@@polrep'
p248
sg25
S'@@stations'
p249
sg18
(dp250
g20
S'MG_JEN_Joneset::KJones()'
p251
sg22
g112
sg23
(dp252
g27
I01
sg28
I01
sg25
I01
sg2
I01
sg29
I01
ssg30
S'MG_JEN_JonesetKJones'
p253
sg32
g33
sg123
S'defines diagonal KJones matrices for DFT Fourier kernel'
p254
sg34
S'MG_JEN_Joneset::KJones()  version=12dec2005  defined=2006-03-29 19:26'
p255
sg36
S'KJones'
p256
sg38
(dp257
g27
(lp258
g58
aS'@@@Jsequence_KJones'
p259
asg28
(lp260
g58
aS'@@@Jsequence_simul'
p261
asg25
(lp262
(lp263
I0
aI1
aI2
aI3
aI4
aa(lp264
I0
aI1
aI2
aI3
aI4
aI5
aI6
aa(lp265
I0
aI1
aI2
aI3
aI4
aI5
aI6
aI7
aI8
aI9
aI10
aI11
aI12
aI13
aa(lp266
I0
aI1
aI2
aI3
aI4
aI5
aI6
aI7
aI8
aI9
aI10
aI11
aI12
aI13
aI14
aag47
ag249
asg2
(lp267
g3
ag41
ag248
asg29
(lp268
g58
aS'@@@Jsequence'
p269
assg77
g78
sg79
I00
sg80
S'2006-03-29 19:26'
p270
sg82
S'12dec2005'
p271
sg84
S'MG_JEN_Joneset'
p272
sg86
S'** Specific description of inarg record for: MG_JEN_Joneset::KJones()  version=12dec2005  defined=2006-03-29 19:26'
p273
sg105
(dp274
g2
I00
sg25
I00
ssg104
g270
sg107
(lp275
g18
ag25
ag2
ag29
ag28
ag27
asg115
(dp276
g27
g122
sg28
g122
sg25
g118
sg2
g117
sg29
g122
sssg27
g58
sg28
g58
sg29
g58
ssg49
(lp277
g60
asg26
g67
sg12
g70
sg111
(dp278
g126
I00
sg2
S'@@polrep'
p279
sg129
g130
sS'subtile_size_Bimag'
p280
S'@subtile_size_Breal'
p281
sg131
I00
sS'subtile_size_Breal'
p282
Nsg135
I01
sg136
I10
sg137
g138
sS'fdeg_Breal'
p283
I5
sg141
g142
sg143
Nsg18
(dp284
g20
S'MG_JEN_Joneset::BJones()'
p285
sg22
g111
sg23
(dp286
g137
I01
sg2
I01
sg147
I01
sg25
I01
sg129
I01
sg143
I01
sg141
I01
sg26
I01
sg148
I01
sg149
I01
sg12
I01
sg27
I01
sg28
I01
sg29
I01
sg136
I01
ssg30
S'MG_JEN_JonesetBJones'
p287
sg32
g33
sg123
S'Defines diagonal 2x2 Jones matrices that represent the IF bandpass:\n    Bjones(station,source) matrix elements:\n    - B_11 = (Breal_X,Bimag_X)\n    - B_12 = 0\n    - B_21 = 0\n    - B_22 = (Breal_Y,Bimag_Y)\n    For circular polarisation, R and L are used rather than X and Y\n    NB: The main differences with Gjones are:\n      - the higher-order (~5) freq-polynomial\n      - solving for real/imag rather than gain/phase \n    '
p288
sg34
S'MG_JEN_Joneset::BJones()  version=16dec2005  defined=2006-03-29 19:26'
p289
sg36
S'BJones'
p290
sg38
(dp291
g126
(lp292
I01
aI00
aS'@@reset_funklet'
p293
asg2
(lp294
g3
ag41
ag279
asg129
(lp295
g130
aS'@@color'
p296
asg280
(lp297
g281
aNaI1
aI2
aI5
aI10
aI20
aI50
aI100
aI200
aI500
aS'@@subtile_size_Bimag'
p298
asg131
(lp299
I01
aI00
aS'@@save_all'
p300
asg282
(lp301
NaI1
aI2
aI5
aI10
aI20
aI50
aI100
aI200
aI500
aS'@@subtile_size_Breal'
p302
asg135
(lp303
I01
aI00
aS'@@auto_save'
p304
asg136
(lp305
I10
aS'@@size'
p306
asg137
(lp307
g138
aS'@@style'
p308
asg283
(lp309
I3
aI4
aI5
aI6
aS'@@fdeg_Breal'
p310
asg141
(lp311
g142
aS'@@condeq_corrs'
p312
asg143
(lp313
NaS'@@funklet_shape'
p314
asg27
(lp315
g54
aS'@@@Jsequence_KJones'
p316
asS'tdeg_Bimag'
p317
(lp318
I0
aI1
aI2
aI3
aS'@tdeg_Breal'
p319
aS'@@tdeg_Bimag'
p320
asg29
(lp321
g54
aS'@@@Jsequence'
p322
asg147
(lp323
F1.0
aS'@@c00_default'
p324
asS'fdeg_Bimag'
p325
(lp326
I3
aI4
aI5
aI6
aS'@fdeg_Breal'
p327
aS'@@fdeg_Bimag'
p328
asg26
(lp329
I00
aS'@@uvplane_effect'
p330
asg25
(lp331
(lp332
I0
aI1
aI2
aI3
aI4
aa(lp333
I0
aI1
aI2
aI3
aI4
aI5
aI6
aa(lp334
I0
aI1
aI2
aI3
aI4
aI5
aI6
aI7
aI8
aI9
aI10
aI11
aI12
aI13
aa(lp335
I0
aI1
aI2
aI3
aI4
aI5
aI6
aI7
aI8
aI9
aI10
aI11
aI12
aI13
aI14
aag47
aS'@@stations'
p336
asg149
(lp337
NaS'@@tfdeg'
p338
asS'tdeg_Breal'
p339
(lp340
I0
aI1
aI2
aI3
aS'@@tdeg_Breal'
p341
asg210
(lp342
I01
aI00
aS'@@use_previous'
p343
asg148
(lp344
NaS'@@subtile_size'
p345
asg12
(lp346
Nag69
aS'@@parmtable'
p347
asg28
(lp348
g54
aS'@@@Jsequence_simul'
p349
assg77
g78
sg79
I00
sg80
S'2006-03-29 19:26'
p350
sg82
S'16dec2005'
p351
sg84
S'MG_JEN_Joneset'
p352
sg224
(dp353
g126
I00
sg210
I00
sg135
I00
sg131
I00
ssg86
S'** Specific description of inarg record for: MG_JEN_Joneset::BJones()  version=16dec2005  defined=2006-03-29 19:26'
p354
sg105
(dp355
g26
I00
sg12
I00
sg2
I00
sg25
I00
ssg104
g350
sg107
(lp356
g18
ag25
ag2
ag29
ag28
ag27
ag12
ag26
ag339
ag317
ag283
ag325
ag282
ag280
ag210
ag135
ag131
ag126
ag129
ag137
ag136
ag147
ag149
ag143
ag148
ag141
asg115
(dp357
g126
g230
sg2
g117
sg129
g232
sg280
S'sub-tile size (None=entire tile)'
p358
sg131
g233
sg282
g358
sg135
g236
sg136
g237
sg137
g238
sg283
S'degree of freq polynomial'
p359
sg141
g239
sg143
g240
sg27
g122
sg317
S'degree of time polynomial'
p360
sg29
g122
sg147
g242
sg325
g359
sg26
g120
sg25
g118
sg149
g246
sg339
g360
sg210
g244
sg148
g245
sg12
g121
sg28
g122
sssg27
g54
sg317
g319
sg29
g54
sg147
F1.0
sg325
g327
sg26
g330
sg12
g347
sg25
g336
sg339
I0
sg210
I01
sg148
Nsg149
Nsg28
g54
ssg110
(dp361
g126
I00
sg2
S'@@polrep'
p362
sg129
g130
sg131
I00
sg149
Nsg135
I01
sg136
I10
sg137
g138
sg141
g142
sg143
Nsg18
(dp363
g20
S'MG_JEN_Joneset::FJones()'
p364
sg22
g110
sg23
(dp365
g137
I01
sg2
I01
sg147
I01
sg25
I01
sg129
I01
sg143
I01
sg141
I01
sg26
I01
sg148
I01
sg149
I01
sg12
I01
sg27
I01
sg28
I01
sg29
I01
sg136
I01
ssg30
S'MG_JEN_JonesetFJones'
p366
sg32
g33
sg123
S'defines diagonal FJones Faraday rotation matrices'
p367
sg34
S'MG_JEN_Joneset::FJones()  version=16dec2005  defined=2006-03-29 19:26'
p368
sg36
S'FJones'
p369
sg38
(dp370
g126
(lp371
I01
aI00
aS'@@reset_funklet'
p372
asg2
(lp373
g3
ag41
ag362
asg129
(lp374
g130
aS'@@color'
p375
asg131
(lp376
I01
aI00
aS'@@save_all'
p377
asg149
(lp378
NaS'@@tfdeg'
p379
asg135
(lp380
I01
aI00
aS'@@auto_save'
p381
asg136
(lp382
I10
aS'@@size'
p383
asg137
(lp384
g138
aS'@@style'
p385
asg141
(lp386
g142
aS'@@condeq_corrs'
p387
asg143
(lp388
NaS'@@funklet_shape'
p389
asg27
(lp390
g56
aS'@@@Jsequence_KJones'
p391
asg29
(lp392
g56
aS'@@@Jsequence'
p393
asg147
(lp394
F1.0
aS'@@c00_default'
p395
asg26
(lp396
I00
aS'@@uvplane_effect'
p397
asg25
(lp398
(lp399
I0
aI1
aI2
aI3
aI4
aa(lp400
I0
aI1
aI2
aI3
aI4
aI5
aI6
aa(lp401
I0
aI1
aI2
aI3
aI4
aI5
aI6
aI7
aI8
aI9
aI10
aI11
aI12
aI13
aa(lp402
I0
aI1
aI2
aI3
aI4
aI5
aI6
aI7
aI8
aI9
aI10
aI11
aI12
aI13
aI14
aag47
aS'@@stations'
p403
asS'tdeg_RM'
p404
(lp405
I0
aI1
aI2
aI3
aS'@@tdeg_RM'
p406
asg210
(lp407
I01
aI00
aS'@@use_previous'
p408
asS'fdeg_RM'
p409
(lp410
I0
aI1
aI2
aI3
aS'@@fdeg_RM'
p411
asg148
(lp412
NaS'@@subtile_size'
p413
asg12
(lp414
Nag69
aS'@@parmtable'
p415
asS'subtile_size_RM'
p416
(lp417
NaI1
aI2
aI5
aI10
aI20
aI50
aI100
aI200
aI500
aS'@@subtile_size_RM'
p418
asg28
(lp419
g56
aS'@@@Jsequence_simul'
p420
assg77
g78
sg79
I00
sg80
S'2006-03-29 19:26'
p421
sg82
g351
sg84
S'MG_JEN_Joneset'
p422
sg224
(dp423
g126
I00
sg210
I00
sg135
I00
sg131
I00
ssg86
S'** Specific description of inarg record for: MG_JEN_Joneset::FJones()  version=16dec2005  defined=2006-03-29 19:26'
p424
sg105
(dp425
g26
I00
sg12
I00
sg2
I00
sg25
I00
ssg104
g421
sg107
(lp426
g18
ag25
ag2
ag29
ag28
ag27
ag12
ag26
ag404
ag409
ag416
ag210
ag135
ag131
ag126
ag129
ag137
ag136
ag147
ag149
ag143
ag148
ag141
asg115
(dp427
g126
g230
sg2
g117
sg129
g232
sg131
g233
sg149
g246
sg135
g236
sg136
g237
sg137
g238
sg141
g239
sg143
g240
sg27
g122
sg29
g122
sg147
g242
sg26
g120
sg25
g118
sg404
S'degree of time polynomial'
p428
sg210
g244
sg409
S'degree of freq polynomial'
p429
sg148
g245
sg12
g121
sg416
S'sub-tile size (None=entire tile)'
p430
sg28
g122
sssg27
g56
sg29
g56
sg147
F1.0
sg26
g397
sg25
g403
sg404
I0
sg210
I01
sg409
I2
sg148
Nsg12
g415
sg416
I1
sg28
g56
ssg109
(dp431
g126
I00
sg2
S'@@polrep'
p432
sS'fdeg_Ggain'
p433
I0
sg129
g130
sg131
I00
sg12
S'@@parmtable'
p434
sg135
I01
sg136
I10
sg137
g138
sS'subtile_size_Ggain'
p435
I1
sg141
g142
sg143
Nsg18
(dp436
g20
S'MG_JEN_Joneset::GJones()'
p437
sg22
g109
sg23
(dp438
g137
I01
sg2
I01
sg147
I01
sg25
I01
sg129
I01
sg29
I01
sg143
I01
sg141
I01
sg26
I01
sg148
I01
sg149
I01
sg12
I01
sg27
I01
sg28
I01
sS'Gpolar'
p439
I01
sg136
I01
ssg30
S'MG_JEN_JonesetGJones'
p440
sg32
g33
sg123
S'Defines diagonal 2x2 Jones matrices that represent complex gain:\n    Gjones(station,source) matrix elements:\n    - G_11 = Ggain_X*exp(iGphase_X)\n    - G_12 = 0\n    - G_21 = 0\n    - G_22 = Ggain_Y*exp(iGphase_Y)\n    For circular polarisation, R and L are used rather than X and Y\n    '
p441
sg34
S'MG_JEN_Joneset::GJones()  version=15dec2005  defined=2006-03-29 19:26'
p442
sg36
S'GJones'
p443
sg38
(dp444
g126
(lp445
I01
aI00
aS'@@reset_funklet'
p446
asg2
(lp447
g3
ag41
ag432
asg433
(lp448
I0
aI1
aI2
aI3
aS'@@fdeg_Ggain'
p449
asg129
(lp450
g130
aS'@@color'
p451
asg131
(lp452
I01
aI00
aS'@@save_all'
p453
asg12
(lp454
Nag69
ag434
asg135
(lp455
I01
aI00
aS'@@auto_save'
p456
asg136
(lp457
I10
aS'@@size'
p458
asg137
(lp459
g138
aS'@@style'
p460
asg435
(lp461
NaI1
aI2
aI5
aI10
aI20
aI50
aI100
aI200
aI500
aS'@@subtile_size_Ggain'
p462
asg141
(lp463
g142
aS'@@condeq_corrs'
p464
asg143
(lp465
NaS'@@funklet_shape'
p466
asg27
(lp467
g52
aS'@@@Jsequence_KJones'
p468
asg29
(lp469
g52
aS'@@@Jsequence'
p470
asg147
(lp471
F1.0
aS'@@c00_default'
p472
asS'tdeg_Gphase'
p473
(lp474
I0
aI1
aI2
aI3
aS'@tdeg_Ggain'
p475
aS'@@tdeg_Gphase'
p476
asS'tdeg_Ggain'
p477
(lp478
I0
aI1
aI2
aI3
aS'@@tdeg_Ggain'
p479
asS'fdeg_Gphase'
p480
(lp481
I0
aI1
aI2
aI3
aS'@fdeg_Ggain'
p482
aS'@@fdeg_Gphase'
p483
asS'subtile_size_Gphase'
p484
(lp485
S'@subtile_size_Ggain'
p486
aNaI1
aI2
aI5
aI10
aI20
aI50
aI100
aI200
aI500
aS'@@subtile_size_Gphase'
p487
asg439
(lp488
I01
aI00
aS'@@Gpolar'
p489
asg26
(lp490
I00
aS'@@uvplane_effect'
p491
asg25
(lp492
(lp493
I0
aI1
aI2
aI3
aI4
aa(lp494
I0
aI1
aI2
aI3
aI4
aI5
aI6
aa(lp495
I0
aI1
aI2
aI3
aI4
aI5
aI6
aI7
aI8
aI9
aI10
aI11
aI12
aI13
aa(lp496
I0
aI1
aI2
aI3
aI4
aI5
aI6
aI7
aI8
aI9
aI10
aI11
aI12
aI13
aI14
aag47
aS'@@stations'
p497
asg210
(lp498
I01
aI00
aS'@@use_previous'
p499
asg148
(lp500
NaS'@@subtile_size'
p501
asg149
(lp502
NaS'@@tfdeg'
p503
asg28
(lp504
g52
aS'@@@Jsequence_simul'
p505
assg77
g78
sg79
I00
sg80
S'2006-03-29 19:26'
p506
sg82
S'15dec2005'
p507
sg84
S'MG_JEN_Joneset'
p508
sg224
(dp509
g126
I00
sg210
I00
sg439
I00
sg135
I00
sg131
I00
ssg86
S'** Specific description of inarg record for: MG_JEN_Joneset::GJones()  version=15dec2005  defined=2006-03-29 19:26'
p510
sg105
(dp511
g26
I00
sg12
I00
sg2
I00
sg25
I00
ssg104
g506
sg107
(lp512
g18
ag25
ag2
ag29
ag28
ag27
ag439
ag12
ag26
ag477
ag473
ag433
ag480
ag435
ag484
ag210
ag135
ag131
ag126
ag129
ag137
ag136
ag147
ag149
ag143
ag148
ag141
asg115
(dp513
g126
g230
sg2
g117
sg433
S'degree of freq polynomial'
p514
sg129
g232
sg131
g233
sg12
g121
sg135
g236
sg136
g237
sg137
g238
sg435
S'sub-tile size (None=entire tile)'
p515
sg141
g239
sg143
g240
sg27
g122
sg29
g122
sg147
g242
sg473
S'degree of time polynomial'
p516
sg477
g516
sg480
g514
sg484
g515
sg439
S'obsolete, kept only for upward compatibility'
p517
sg26
g120
sg25
g118
sg210
g244
sg148
g245
sg149
g246
sg28
g122
sssg27
g52
sg29
g52
sg147
F1.0
sg473
g475
sg477
I0
sg480
g482
sg484
g486
sg439
I01
sg26
g491
sg25
g497
sg210
I01
sg148
Nsg149
Nsg28
g52
ssg113
(dp518
g126
I00
sg2
S'@@polrep'
p519
sg129
g130
sS'fdeg_Dell'
p520
S'@fdeg_Dang'
p521
sS'coupled_XY_Dell'
p522
I01
sg131
I00
sg12
S'@@parmtable'
p523
sS'subtile_size_Dang'
p524
Nsg135
I01
sg136
I10
sg137
g138
sg141
g142
sg143
Nsg18
(dp525
g20
S'MG_JEN_Joneset::DJones_WSRT()'
p526
sg22
g113
sg23
(dp527
g137
I01
sg2
I01
sg147
I01
sg25
I01
sg129
I01
sg143
I01
sg141
I01
sg26
I01
sg148
I01
sg149
I01
sg12
I01
sg27
I01
sg28
I01
sg29
I01
sg136
I01
ssg30
S'MG_JEN_JonesetDJones_WSRT'
p528
sg32
g33
sg123
S'defines 2x2 DJones_WSRT (polarisation leakage) matrices'
p529
sg34
S'MG_JEN_Joneset::DJones_WSRT()  version=16dec2005  defined=2006-03-29 19:26'
p530
sg36
S'DJones_WSRT'
p531
sg38
(dp532
g126
(lp533
I01
aI00
aS'@@reset_funklet'
p534
asg2
(lp535
g3
ag41
ag519
asg129
(lp536
g130
aS'@@color'
p537
asg520
(lp538
I0
aI1
aI2
aI3
ag521
aS'@@fdeg_Dell'
p539
asg522
(lp540
I01
aI00
aS'@@coupled_XY_Dell'
p541
asg131
(lp542
I01
aI00
aS'@@save_all'
p543
asg12
(lp544
Nag69
ag523
asg524
(lp545
NaI1
aI2
aI5
aI10
aI20
aI50
aI100
aI200
aI500
aS'@@subtile_size_Dang'
p546
asg135
(lp547
I01
aI00
aS'@@auto_save'
p548
asg136
(lp549
I10
aS'@@size'
p550
asg137
(lp551
g138
aS'@@style'
p552
asg141
(lp553
g142
aS'@@condeq_corrs'
p554
asg143
(lp555
NaS'@@funklet_shape'
p556
asg27
(lp557
g60
aS'@@@Jsequence_KJones'
p558
asS'subtile_size_Dell'
p559
(lp560
S'@subtile_size_Dang'
p561
aNaI1
aI2
aI5
aI10
aI20
aI50
aI100
aI200
aI500
aS'@@subtile_size_Dell'
p562
asg29
(lp563
g60
aS'@@@Jsequence'
p564
asS'fdeg_Dang'
p565
(lp566
I0
aI1
aI2
aI3
aS'@@fdeg_Dang'
p567
asg147
(lp568
F1.0
aS'@@c00_default'
p569
asg26
(lp570
I00
aS'@@uvplane_effect'
p571
asS'tdeg_Dell'
p572
(lp573
I0
aI1
aI2
aI3
aS'@tdeg_Dang'
p574
aS'@@tdeg_Dell'
p575
asS'coupled_XY_Dang'
p576
(lp577
I01
aI00
aS'@@coupled_XY_Dang'
p578
asS'tdeg_Dang'
p579
(lp580
I0
aI1
aI2
aI3
aS'@@tdeg_Dang'
p581
asg25
(lp582
(lp583
I0
aI1
aI2
aI3
aI4
aa(lp584
I0
aI1
aI2
aI3
aI4
aI5
aI6
aa(lp585
I0
aI1
aI2
aI3
aI4
aI5
aI6
aI7
aI8
aI9
aI10
aI11
aI12
aI13
aa(lp586
I0
aI1
aI2
aI3
aI4
aI5
aI6
aI7
aI8
aI9
aI10
aI11
aI12
aI13
aI14
aag47
aS'@@stations'
p587
asg210
(lp588
I01
aI00
aS'@@use_previous'
p589
asg148
(lp590
NaS'@@subtile_size'
p591
asg149
(lp592
NaS'@@tfdeg'
p593
asg28
(lp594
g60
aS'@@@Jsequence_simul'
p595
assg77
g78
sg79
I00
sg80
S'2006-03-29 19:26'
p596
sg82
g351
sg84
S'MG_JEN_Joneset'
p597
sg224
(dp598
g126
I00
sg522
I00
sg210
I00
sg576
I00
sg131
I00
sg135
I00
ssg86
S'** Specific description of inarg record for: MG_JEN_Joneset::DJones_WSRT()  version=16dec2005  defined=2006-03-29 19:26'
p599
sg105
(dp600
g26
I00
sg12
I00
sg2
I00
sg25
I00
ssg104
g596
sg107
(lp601
g18
ag25
ag2
ag29
ag28
ag27
ag576
ag522
ag12
ag26
ag579
ag572
ag565
ag520
ag524
ag559
ag210
ag135
ag131
ag126
ag129
ag137
ag136
ag147
ag149
ag143
ag148
ag141
asg115
(dp602
g126
g230
sg2
g117
sg129
g232
sg520
S'degree of freq polynomial'
p603
sg522
S'if True, XDell = -YDell per station'
p604
sg131
g233
sg12
g121
sg524
S'sub-tile size (None=entire tile)'
p605
sg135
g236
sg136
g237
sg137
g238
sg141
g239
sg143
g240
sg27
g122
sg559
g605
sg29
g122
sg565
g603
sg147
g242
sg26
g120
sg572
S'degree of time polynomial'
p606
sg576
S'if True, XDang = YDang per station'
p607
sg579
g606
sg25
g118
sg210
g244
sg148
g245
sg149
g246
sg28
g122
sssg27
g60
sg559
g561
sg29
g60
sg565
I0
sg147
F1.0
sg26
g571
sg572
g574
sg576
I01
sg579
I0
sg25
g587
sg210
I01
sg148
Nsg149
Nsg28
g60
ssg27
Nsg28
Nsg29
NssS'LSM_solve'
p608
S'lsm_current.lsm'
p609
sS'[simul_uvp]./MG_JEN_Cohset.Jones()'
p610
(dp611
S'[simul_uvp]./MG_JEN_Joneset.JJones()'
p612
(dp613
S'unop'
p614
S'Cos'
p615
sg207
I00
sg2
S'@@polrep'
p616
sg129
S'yellow'
p617
sS'stddev_period'
p618
F0.10000000000000001
sg132
NsS'fdeg'
p619
I0
sg136
I5
sS'mean_period_s'
p620
I500
sS'mean_tampl'
p621
F0.20000000000000001
sg18
(dp622
g20
S'MG_JEN_Joneset::JJones()'
p623
sg22
g612
sg23
(dp624
g614
I00
sg137
I01
sg2
I01
sg147
I01
sg25
I01
sg129
I01
sS'timescale_min'
p625
I01
sg619
I01
sg27
I01
sS'c00_scale'
p626
I01
sg28
I01
sg29
I01
sg136
I01
ssg30
S'MG_JEN_JonesetJJones'
p627
sg32
g33
sg123
g151
sg34
S'MG_JEN_Joneset::JJones()  version=14feb2006  defined=2006-03-29 19:26'
p628
sg36
S'JJones'
p629
sg38
(dp630
g614
(lp631
g615
aS'Sin'
p632
a(lp633
g615
ag632
aaNaS'@@unop'
p634
asg27
(lp635
g63
aS'@@@Jsequence_KJones'
p636
asg137
(lp637
S'triangle'
p638
aS'@@style'
p639
asg207
(lp640
I01
aI00
aS'@@diagonal_only'
p641
asg2
(lp642
g3
ag41
ag616
asg147
(lp643
F1.0
aS'@@c00_default'
p644
asg25
(lp645
(lp646
I0
aI1
aI2
aI3
aI4
aa(lp647
I0
aI1
aI2
aI3
aI4
aI5
aI6
aa(lp648
I0
aI1
aI2
aI3
aI4
aI5
aI6
aI7
aI8
aI9
aI10
aI11
aI12
aI13
aa(lp649
I0
aI1
aI2
aI3
aI4
aI5
aI6
aI7
aI8
aI9
aI10
aI11
aI12
aI13
aI14
aag47
aS'@@stations'
p650
asg129
(lp651
g617
aS'@@color'
p652
asg618
(lp653
I0
aF0.01
aF0.10000000000000001
aF0.20000000000000001
aF0.5
aS'@@stddev_period'
p654
asg625
(lp655
I20
aS'@@timescale_min'
p656
asg132
(lp657
Na(lp658
I14
aa(lp659
I1
aag167
aS'@@all4_always'
p660
asS'mean_period'
p661
(lp662
F0.29999999999999999
aF0.5
aI1
aI2
aI3
aS'@@mean_period'
p663
asS'stddev_c00'
p664
(lp665
I0
aF0.0001
aF0.001
aF0.01
aF0.10000000000000001
aI1
aS'@@stddev_c00'
p666
asg619
(lp667
I0
aS'@@fdeg'
p668
asS'mean_c00'
p669
(lp670
I0
aF0.10000000000000001
aF0.20000000000000001
aF0.5
aF-0.10000000000000001
aS'@@mean_c00'
p671
asg626
(lp672
F1.0
aS'@@c00_scale'
p673
asg28
(lp674
g63
aS'@@@Jsequence_simul'
p675
asg29
(lp676
g63
aS'@@@Jsequence'
p677
asg136
(lp678
I5
aS'@@size'
p679
assg77
S'simul_uvp'
p680
sg79
I00
sg80
S'2006-03-29 19:26'
p681
sg82
g222
sg84
S'MG_JEN_Joneset'
p682
sg224
(dp683
g207
I00
ssg86
S'** Specific description of inarg record for: MG_JEN_Joneset::JJones()  version=14feb2006  defined=2006-03-29 19:26'
p684
sg105
(dp685
g2
I00
sg25
I00
ssg104
g681
sg107
(lp686
g18
ag25
ag2
ag29
ag28
ag27
ag207
ag132
ag669
ag664
ag661
ag618
ag614
ag625
ag619
ag129
ag137
ag136
ag147
ag626
asg115
(dp687
g614
S'time-variability function'
p688
sg27
g122
sg137
g238
sg207
g243
sg2
g117
sg147
S'default value of c00'
p689
sg25
g118
sg129
g232
sg618
S'scatter in period T (fraction of timescale_min)'
p690
sg625
S'group timescale in minutes'
p691
sg132
g234
sg661
S'mean time-period T (fraction of timescale_min)'
p692
sg664
S'scatter in EXTRA c00 (fraction of c00_scale'
p693
sg619
S'degree of freq polynomial'
p694
sg669
S'mean of EXTRA c00 (fraction of c00_scale)'
p695
sg626
S'scale of c00'
p696
sg28
g122
sg29
g122
sg136
S'size of plotted symbol'
p697
sssg27
g63
sg29
g63
sS'stddev_period_s'
p698
I50
sg147
F1.0
sg137
g638
sg669
F0.10000000000000001
sg25
g650
sg625
I20
sg661
F1.0
sg664
F0.01
sg626
F1.0
sg28
g63
sS'stddev_tampl'
p699
F0.02
ssg2
S'@@polrep'
p700
sS'[simul_uvp]./MG_JEN_Joneset.KJones()'
p701
(dp702
g2
S'@@polrep'
p703
sg25
S'@@stations'
p704
sg18
(dp705
g20
S'MG_JEN_Joneset::KJones()'
p706
sg22
g701
sg23
(dp707
g27
I01
sg28
I01
sg25
I01
sg2
I01
sg29
I01
ssg30
S'MG_JEN_JonesetKJones'
p708
sg32
g33
sg123
g254
sg34
S'MG_JEN_Joneset::KJones()  version=12dec2005  defined=2006-03-29 19:26'
p709
sg36
S'KJones'
p710
sg38
(dp711
g27
(lp712
g58
aS'@@@Jsequence_KJones'
p713
asg28
(lp714
g58
aS'@@@Jsequence_simul'
p715
asg25
(lp716
(lp717
I0
aI1
aI2
aI3
aI4
aa(lp718
I0
aI1
aI2
aI3
aI4
aI5
aI6
aa(lp719
I0
aI1
aI2
aI3
aI4
aI5
aI6
aI7
aI8
aI9
aI10
aI11
aI12
aI13
aa(lp720
I0
aI1
aI2
aI3
aI4
aI5
aI6
aI7
aI8
aI9
aI10
aI11
aI12
aI13
aI14
aag47
ag704
asg2
(lp721
g3
ag41
ag703
asg29
(lp722
g58
aS'@@@Jsequence'
p723
assg77
g680
sg79
I00
sg80
S'2006-03-29 19:26'
p724
sg82
g271
sg84
S'MG_JEN_Joneset'
p725
sg86
S'** Specific description of inarg record for: MG_JEN_Joneset::KJones()  version=12dec2005  defined=2006-03-29 19:26'
p726
sg105
(dp727
g2
I00
sg25
I00
ssg104
g724
sg107
(lp728
g18
ag25
ag2
ag29
ag28
ag27
asg115
(dp729
g27
g122
sg28
g122
sg25
g118
sg2
g117
sg29
g122
sssg27
g58
sg28
g58
sg29
g58
ssS'[simul_uvp]./MG_JEN_Joneset.BJones()'
p730
(dp731
g614
g615
sg2
S'@@polrep'
p732
sg129
g617
sg618
F0.10000000000000001
sg619
I0
sg136
I5
sg137
g638
sg621
F0.20000000000000001
sg18
(dp733
g20
S'MG_JEN_Joneset::BJones()'
p734
sg22
g730
sg23
(dp735
g614
I00
sg137
I01
sg2
I01
sg147
I01
sg25
I01
sg129
I01
sg625
I01
sg619
I01
sg27
I01
sg626
I01
sg28
I01
sg29
I01
sg136
I01
ssg30
S'MG_JEN_JonesetBJones'
p736
sg32
g33
sg123
g288
sg34
S'MG_JEN_Joneset::BJones()  version=16dec2005  defined=2006-03-29 19:26'
p737
sg36
S'BJones'
p738
sg38
(dp739
g614
(lp740
g615
ag632
a(lp741
g615
ag632
aaNaS'@@unop'
p742
asg137
(lp743
g638
aS'@@style'
p744
asg2
(lp745
g3
ag41
ag732
asg147
(lp746
F1.0
aS'@@c00_default'
p747
asg25
(lp748
(lp749
I0
aI1
aI2
aI3
aI4
aa(lp750
I0
aI1
aI2
aI3
aI4
aI5
aI6
aa(lp751
I0
aI1
aI2
aI3
aI4
aI5
aI6
aI7
aI8
aI9
aI10
aI11
aI12
aI13
aa(lp752
I0
aI1
aI2
aI3
aI4
aI5
aI6
aI7
aI8
aI9
aI10
aI11
aI12
aI13
aI14
aag47
aS'@@stations'
p753
asg129
(lp754
g617
aS'@@color'
p755
asg618
(lp756
I0
aF0.01
aF0.10000000000000001
aF0.20000000000000001
aF0.5
aS'@@stddev_period'
p757
asg669
(lp758
I0
aF0.10000000000000001
aF0.20000000000000001
aF0.5
aF-0.10000000000000001
aS'@@mean_c00'
p759
asg625
(lp760
I20
aS'@@timescale_min'
p761
asg661
(lp762
F0.29999999999999999
aF0.5
aI1
aI2
aI3
aS'@@mean_period'
p763
asg664
(lp764
I0
aF0.0001
aF0.001
aF0.01
aF0.10000000000000001
aI1
aS'@@stddev_c00'
p765
asg619
(lp766
I0
aS'@@fdeg'
p767
asg27
(lp768
g54
aS'@@@Jsequence_KJones'
p769
asg626
(lp770
F1.0
aS'@@c00_scale'
p771
asg28
(lp772
g54
aS'@@@Jsequence_simul'
p773
asg29
(lp774
g54
aS'@@@Jsequence'
p775
asg136
(lp776
I5
aS'@@size'
p777
assg77
g680
sg79
I00
sg80
S'2006-03-29 19:26'
p778
sg82
g351
sg84
S'MG_JEN_Joneset'
p779
sg86
S'** Specific description of inarg record for: MG_JEN_Joneset::BJones()  version=16dec2005  defined=2006-03-29 19:26'
p780
sg105
(dp781
g2
I00
sg25
I00
ssg104
g778
sg107
(lp782
g18
ag25
ag2
ag29
ag28
ag27
ag669
ag664
ag661
ag618
ag614
ag625
ag619
ag129
ag137
ag136
ag147
ag626
asg115
(dp783
g614
g688
sg137
g238
sg2
g117
sg147
g689
sg25
g118
sg129
g232
sg618
g690
sg669
g695
sg625
g691
sg661
g692
sg664
g693
sg619
g694
sg27
g122
sg626
g696
sg28
g122
sg29
g122
sg136
g697
sssg27
g54
sg29
g54
sg698
I100
sg147
F1.0
sg620
I5000
sg669
F0.10000000000000001
sg25
g753
sg625
I20
sg661
F1.0
sg664
F0.01
sg626
F1.0
sg28
g54
sg699
F0.02
ssg25
S'@@stations'
p784
sg26
S'@@uvplane_effect'
p785
sg12
S'@@parmtable'
p786
sS'[simul_uvp]./MG_JEN_Joneset.DJones_WSRT()'
p787
(dp788
g614
g615
sg2
S'@@polrep'
p789
sg129
g617
sg618
F0.10000000000000001
sg522
I01
sg619
I0
sg136
I5
sg137
g638
sg621
F0.002
sg18
(dp790
g20
S'MG_JEN_Joneset::DJones_WSRT()'
p791
sg22
g787
sg23
(dp792
g614
I00
sg137
I01
sg2
I01
sg147
I01
sg25
I01
sg129
I01
sg625
I01
sg619
I01
sg27
I01
sg626
I01
sg28
I01
sg29
I01
sg136
I01
ssg30
S'MG_JEN_JonesetDJones_WSRT'
p793
sg32
g33
sg123
g529
sg34
S'MG_JEN_Joneset::DJones_WSRT()  version=16dec2005  defined=2006-03-29 19:26'
p794
sg36
S'DJones_WSRT'
p795
sg38
(dp796
g614
(lp797
g615
ag632
a(lp798
g615
ag632
aaNaS'@@unop'
p799
asg27
(lp800
g60
aS'@@@Jsequence_KJones'
p801
asg137
(lp802
g638
aS'@@style'
p803
asg522
(lp804
I01
aI00
aS'@@coupled_XY_Dell'
p805
asg2
(lp806
g3
ag41
ag789
asg147
(lp807
F1.0
aS'@@c00_default'
p808
asg25
(lp809
(lp810
I0
aI1
aI2
aI3
aI4
aa(lp811
I0
aI1
aI2
aI3
aI4
aI5
aI6
aa(lp812
I0
aI1
aI2
aI3
aI4
aI5
aI6
aI7
aI8
aI9
aI10
aI11
aI12
aI13
aa(lp813
I0
aI1
aI2
aI3
aI4
aI5
aI6
aI7
aI8
aI9
aI10
aI11
aI12
aI13
aI14
aag47
aS'@@stations'
p814
asg129
(lp815
g617
aS'@@color'
p816
asg618
(lp817
I0
aF0.01
aF0.10000000000000001
aF0.20000000000000001
aF0.5
aS'@@stddev_period'
p818
asg625
(lp819
I20
aS'@@timescale_min'
p820
asg661
(lp821
F0.29999999999999999
aF0.5
aI1
aI2
aI3
aS'@@mean_period'
p822
asg664
(lp823
I0
aF0.0001
aF0.001
aF0.01
aF0.10000000000000001
aI1
aS'@@stddev_c00'
p824
asg619
(lp825
I0
aS'@@fdeg'
p826
asg669
(lp827
I0
aF0.10000000000000001
aF0.20000000000000001
aF0.5
aF-0.10000000000000001
aS'@@mean_c00'
p828
asg626
(lp829
F1.0
aS'@@c00_scale'
p830
asg28
(lp831
g60
aS'@@@Jsequence_simul'
p832
asg29
(lp833
g60
aS'@@@Jsequence'
p834
asg576
(lp835
I01
aI00
aS'@@coupled_XY_Dang'
p836
asg136
(lp837
I5
aS'@@size'
p838
assg77
g680
sg79
I00
sg80
S'2006-03-29 19:26'
p839
sg82
g351
sg84
S'MG_JEN_Joneset'
p840
sg224
(dp841
g576
I00
sg522
I00
ssg86
S'** Specific description of inarg record for: MG_JEN_Joneset::DJones_WSRT()  version=16dec2005  defined=2006-03-29 19:26'
p842
sg105
(dp843
g2
I00
sg25
I00
ssg104
g839
sg107
(lp844
g18
ag25
ag2
ag29
ag28
ag27
ag576
ag522
ag669
ag664
ag661
ag618
ag614
ag625
ag619
ag129
ag137
ag136
ag147
ag626
asg115
(dp845
g614
g688
sg27
g122
sg137
g238
sg522
g604
sg2
g117
sg147
g689
sg25
g118
sg129
g232
sg618
g690
sg625
g691
sg661
g692
sg664
g693
sg619
g694
sg669
g695
sg626
g696
sg28
g122
sg29
g122
sg576
g607
sg136
g697
sssg27
g60
sg29
g60
sg698
I100
sg147
F1.0
sg620
I3000
sg669
F0.10000000000000001
sg576
I01
sg25
g814
sg625
I20
sg661
F1.0
sg664
F0.01
sg626
F1.0
sg28
g60
sg699
F0.00020000000000000001
ssg18
(dp846
g20
g21
sg22
g610
sg23
(dp847
g2
I01
sg25
I01
sg26
I01
sg12
I01
sg27
I01
sg28
I01
sg29
I01
ssg30
S'MG_JEN_CohsetJones'
p848
sg32
g33
sg34
S'MG_JEN_Cohset::Jones()  version=25dec2005  defined=2006-03-29 19:26'
p849
sg36
S'Jones'
p850
sg38
(dp851
g2
(lp852
g3
ag41
ag700
asg25
(lp853
(lp854
I0
aI1
aI2
aI3
aI4
aa(lp855
I0
aI1
aI2
aI3
aI4
aI5
aI6
aa(lp856
I0
aI1
aI2
aI3
aI4
aI5
aI6
aI7
aI8
aI9
aI10
aI11
aI12
aI13
aa(lp857
I0
aI1
aI2
aI3
aI4
aI5
aI6
aI7
aI8
aI9
aI10
aI11
aI12
aI13
aI14
aag47
ag784
asg26
(lp858
I00
ag785
asg12
(lp859
Nag69
ag786
asg27
(lp860
NaS'@@@Jsequence_KJones'
p861
asg28
(lp862
NaS'@@@Jsequence_simul'
p863
asS'Jsequence_simul_uvp'
p864
(lp865
(lp866
g52
aa(lp867
g54
aa(lp868
g56
aa(lp869
g58
aa(lp870
g60
aa(lp871
g52
ag60
aa(lp872
g63
aa(lp873
aS'@@Jsequence_simul_uvp'
p874
asg29
(lp875
NaS'@@@Jsequence'
p876
assg77
g680
sg79
I00
sg80
S'2006-03-29 19:26'
p877
sg82
g83
sg84
S'MG_JEN_Cohset'
p878
sg86
S'** Specific description of inarg record for: MG_JEN_Cohset::Jones()  version=25dec2005  defined=2006-03-29 19:26'
p879
sg88
(dp880
g90
S'** JEN_inarg.attach(): attached: [simul_uvp]./MG_JEN_Joneset.FJones()'
p881
sg92
S'** JEN_inarg.attach(): attached: [simul_uvp]./MG_JEN_Joneset.GJones()'
p882
sg94
S'** JEN_inarg.attach(): attached: [simul_uvp]./MG_JEN_Joneset.KJones()'
p883
sg96
S'** JEN_inarg.attach(): attached: [simul_uvp]./MG_JEN_Joneset.BJones()'
p884
sg98
S'** JEN_inarg.attach(): attached: [simul_uvp]./MG_JEN_Joneset.JJones()'
p885
sg100
S'** JEN_inarg.attach(): attached: [simul_uvp]./MG_JEN_Joneset.DJones_WSRT()'
p886
sg102
S"  1: ..[simul_uvp]./MG_JEN_Cohset.Jones() (qual=None): .modify(Jsequence_simul_uvp):   []  ->  ['DJones_WSRT']"
p887
ssg104
g877
sg105
(dp888
g26
I00
sg12
I00
sg2
I00
sg25
I00
ssg107
(lp889
g18
ag25
ag2
ag29
ag28
ag27
ag12
ag26
ag864
aS'[simul_uvp]./MG_JEN_Joneset.GJones()'
p890
aS'[simul_uvp]./MG_JEN_Joneset.FJones()'
p891
ag730
ag701
ag787
ag612
asg115
(dp892
g2
g117
sg25
g118
sg26
g120
sg12
g121
sg27
g122
sg28
g122
sg864
g119
sg29
g122
ssg123
g124
ssg27
Nsg28
Nsg864
(lp893
g60
asg890
(dp894
g614
g615
sg27
g52
sg137
g638
sg2
S'@@polrep'
p895
sg147
F1.0
sg25
S'@@stations'
p896
sg129
g617
sg618
F0.10000000000000001
sg625
I20
sg29
g52
sg661
F1.0
sg664
F0.01
sg18
(dp897
g20
S'MG_JEN_Joneset::GJones()'
p898
sg22
g890
sg23
(dp899
g614
I00
sg137
I01
sg2
I01
sg147
I01
sg25
I01
sg129
I01
sg625
I01
sg29
I01
sg619
I01
sg27
I01
sg626
I01
sg28
I01
sg439
I01
sg136
I01
ssg30
S'MG_JEN_JonesetGJones'
p900
sg32
g33
sg123
g441
sg34
S'MG_JEN_Joneset::GJones()  version=15dec2005  defined=2006-03-29 19:26'
p901
sg36
S'GJones'
p902
sg38
(dp903
g614
(lp904
g615
ag632
a(lp905
g615
ag632
aaNaS'@@unop'
p906
asg27
(lp907
g52
aS'@@@Jsequence_KJones'
p908
asg137
(lp909
g638
aS'@@style'
p910
asg2
(lp911
g3
ag41
ag895
asg147
(lp912
F1.0
aS'@@c00_default'
p913
asg25
(lp914
(lp915
I0
aI1
aI2
aI3
aI4
aa(lp916
I0
aI1
aI2
aI3
aI4
aI5
aI6
aa(lp917
I0
aI1
aI2
aI3
aI4
aI5
aI6
aI7
aI8
aI9
aI10
aI11
aI12
aI13
aa(lp918
I0
aI1
aI2
aI3
aI4
aI5
aI6
aI7
aI8
aI9
aI10
aI11
aI12
aI13
aI14
aag47
ag896
asg129
(lp919
g617
aS'@@color'
p920
asg618
(lp921
I0
aF0.01
aF0.10000000000000001
aF0.20000000000000001
aF0.5
aS'@@stddev_period'
p922
asg625
(lp923
I20
aS'@@timescale_min'
p924
asg29
(lp925
g52
aS'@@@Jsequence'
p926
asg661
(lp927
F0.29999999999999999
aF0.5
aI1
aI2
aI3
aS'@@mean_period'
p928
asg664
(lp929
I0
aF0.0001
aF0.001
aF0.01
aF0.10000000000000001
aI1
aS'@@stddev_c00'
p930
asg619
(lp931
I0
aS'@@fdeg'
p932
asg669
(lp933
I0
aF0.10000000000000001
aF0.20000000000000001
aF0.5
aF-0.10000000000000001
aS'@@mean_c00'
p934
asg626
(lp935
F1.0
aS'@@c00_scale'
p936
asg28
(lp937
g52
aS'@@@Jsequence_simul'
p938
asg439
(lp939
I01
aI00
aS'@@Gpolar'
p940
asg136
(lp941
I5
aS'@@size'
p942
assg77
g680
sg79
I00
sg80
S'2006-03-29 19:26'
p943
sg82
g507
sg84
S'MG_JEN_Joneset'
p944
sg224
(dp945
g439
I00
ssg86
S'** Specific description of inarg record for: MG_JEN_Joneset::GJones()  version=15dec2005  defined=2006-03-29 19:26'
p946
sg105
(dp947
g2
I00
sg25
I00
ssg104
g943
sg107
(lp948
g18
ag25
ag2
ag29
ag28
ag27
ag439
ag669
ag664
ag661
ag618
ag614
ag625
ag619
ag129
ag137
ag136
ag147
ag626
asg115
(dp949
g614
g688
sg27
g122
sg137
g238
sg2
g117
sg147
g689
sg25
g118
sg129
g232
sg618
g690
sg625
g691
sg29
g122
sg661
g692
sg664
g693
sg619
g694
sg669
g695
sg626
g696
sg28
g122
sg439
g517
sg136
g697
sssg619
I0
sg626
F1.0
sg669
F0.10000000000000001
sg28
g52
sg439
I01
sg136
I5
ssg891
(dp950
g614
g615
sg2
S'@@polrep'
p951
sg129
g617
sg618
F0.10000000000000001
sg619
I0
sg136
I5
sg137
g638
sg621
F0.20000000000000001
sg18
(dp952
g20
S'MG_JEN_Joneset::FJones()'
p953
sg22
g891
sg23
(dp954
g614
I00
sg137
I01
sg2
I01
sg147
I01
sg25
I01
sg129
I01
sg625
I01
sg619
I01
sg27
I01
sg626
I01
sg28
I01
sg29
I01
sg136
I01
ssg30
S'MG_JEN_JonesetFJones'
p955
sg32
g33
sg123
g367
sg34
S'MG_JEN_Joneset::FJones()  version=16dec2005  defined=2006-03-29 19:26'
p956
sg36
S'FJones'
p957
sg38
(dp958
g614
(lp959
g615
ag632
a(lp960
g615
ag632
aaNaS'@@unop'
p961
asg137
(lp962
g638
aS'@@style'
p963
asg2
(lp964
g3
ag41
ag951
asg147
(lp965
F1.0
aS'@@c00_default'
p966
asg25
(lp967
(lp968
I0
aI1
aI2
aI3
aI4
aa(lp969
I0
aI1
aI2
aI3
aI4
aI5
aI6
aa(lp970
I0
aI1
aI2
aI3
aI4
aI5
aI6
aI7
aI8
aI9
aI10
aI11
aI12
aI13
aa(lp971
I0
aI1
aI2
aI3
aI4
aI5
aI6
aI7
aI8
aI9
aI10
aI11
aI12
aI13
aI14
aag47
aS'@@stations'
p972
asg129
(lp973
g617
aS'@@color'
p974
asg618
(lp975
I0
aF0.01
aF0.10000000000000001
aF0.20000000000000001
aF0.5
aS'@@stddev_period'
p976
asg669
(lp977
I0
aF0.10000000000000001
aF0.20000000000000001
aF0.5
aF-0.10000000000000001
aS'@@mean_c00'
p978
asg625
(lp979
I20
aS'@@timescale_min'
p980
asg661
(lp981
F0.29999999999999999
aF0.5
aI1
aI2
aI3
aS'@@mean_period'
p982
asg664
(lp983
I0
aF0.0001
aF0.001
aF0.01
aF0.10000000000000001
aI1
aS'@@stddev_c00'
p984
asg619
(lp985
I0
aS'@@fdeg'
p986
asg27
(lp987
g56
aS'@@@Jsequence_KJones'
p988
asg626
(lp989
F1.0
aS'@@c00_scale'
p990
asg28
(lp991
g56
aS'@@@Jsequence_simul'
p992
asg29
(lp993
g56
aS'@@@Jsequence'
p994
asg136
(lp995
I5
aS'@@size'
p996
assg77
g680
sg79
I00
sg80
S'2006-03-29 19:26'
p997
sg82
g351
sg84
S'MG_JEN_Joneset'
p998
sg86
S'** Specific description of inarg record for: MG_JEN_Joneset::FJones()  version=16dec2005  defined=2006-03-29 19:26'
p999
sg105
(dp1000
g2
I00
sg25
I00
ssg104
g997
sg107
(lp1001
g18
ag25
ag2
ag29
ag28
ag27
ag669
ag664
ag661
ag618
ag614
ag625
ag619
ag129
ag137
ag136
ag147
ag626
asg115
(dp1002
g614
g688
sg137
g238
sg2
g117
sg147
g689
sg25
g118
sg129
g232
sg618
g690
sg669
g695
sg625
g691
sg661
g692
sg664
g693
sg619
g694
sg27
g122
sg626
g696
sg28
g122
sg29
g122
sg136
g697
sssg27
g56
sg29
g56
sg698
I50
sg147
F1.0
sg620
I500
sg669
F0.10000000000000001
sg25
g972
sg625
I20
sg661
F1.0
sg664
F0.01
sg626
F1.0
sg28
g56
sg699
F0.02
ssg29
NssS'[solve]./MG_JEN_Sixpack.newstar_source()'
p1003
(dp1004
S'f0'
p1005
F1000000.0
sg126
I00
sS'major'
p1006
F0.0
sS'unsolvable'
p1007
I00
sg129
g130
sg131
I00
sS'shape'
p1008
S'point'
p1009
sg12
g13
sS'Upct'
p1010
I-10
sg135
I01
sg136
I10
sg137
g138
sS'I0'
p1011
F1.0
sg148
Nsg141
g142
sS'Vpct'
p1012
Nsg143
NsS'pa'
p1013
F0.0
sg18
(dp1014
g20
S'MG_JEN_Sixpack::newstar_source()'
p1015
sg22
g1003
sg104
S'2006-03-29 19:26'
p1016
sg23
(dp1017
g1005
I01
sg1006
I01
sg1007
I01
sS'name'
p1018
I01
sg147
I01
sg143
I01
sg129
I01
sg1008
I01
sS'fsr_trace'
p1019
I01
sS'punit'
p1020
I00
sg148
I01
sg1013
I01
sg141
I01
sg149
I01
sg137
I01
sS'minor'
p1021
I01
sg136
I01
ssg30
S'MG_JEN_Sixpacknewstar_source'
p1022
sg77
S'solve'
p1023
sg32
g33
sg34
S'MG_JEN_Sixpack::newstar_source()  version=10feb2006  defined=2006-03-29 19:26'
p1024
sg36
S'newstar_source'
p1025
sg38
(dp1026
g1005
(lp1027
F1000000.0
aS'@@f0'
p1028
asg126
(lp1029
I01
aI00
aS'@@reset_funklet'
p1030
asg1006
(lp1031
F0.0
aF1.0
aF10.0
aF100.0
aS'@@major'
p1032
asg1007
(lp1033
I01
aI00
aS'@@unsolvable'
p1034
asg129
(lp1035
g130
aS'@@color'
p1036
asg131
(lp1037
I01
aI00
aS'@@save_all'
p1038
asg1008
(lp1039
g1009
aS'ell.gauss'
p1040
aS'@@shape'
p1041
asg12
(lp1042
NaS'@@parmtable'
p1043
asg1010
(lp1044
NaF-0.10000000000000001
aF0.050000000000000003
aF-0.01
aS'@@Upct'
p1045
asg135
(lp1046
I01
aI00
aS'@@auto_save'
p1047
asg136
(lp1048
I10
aS'@@size'
p1049
asg137
(lp1050
g138
aS'@@style'
p1051
asg1011
(lp1052
F1.0
aF10.0
aS'@@I0'
p1053
asg148
(lp1054
NaS'@@subtile_size'
p1055
asg141
(lp1056
g142
aS'@@condeq_corrs'
p1057
asg1012
(lp1058
NaF0.01
aF-0.0050000000000000001
aF0.001
aS'@@Vpct'
p1059
asg143
(lp1060
NaS'@@funklet_shape'
p1061
asg1013
(lp1062
F0.0
aF1.0
aF-0.5
aS'@@pa'
p1063
asS'RA'
p1064
(lp1065
F0.0
aF0.5
aF1.0
aF1.4950000000000001
aF4.3570000000000002
aS'@@RA'
p1066
asS'RM'
p1067
(lp1068
NaF1.0
aF3.0
aF10.0
aF-10.0
aF60.0
aS'@@RM'
p1069
asg1021
(lp1070
F0.0
aF0.5
aF5.0
aF50.0
aS'@@minor'
p1071
asg147
(lp1072
F1.0
aS'@@c00_default'
p1073
asS'Qpct'
p1074
(lp1075
NaF0.10000000000000001
aF-0.050000000000000003
aF0.01
aS'@@Qpct'
p1076
asg1020
(lp1077
S'unpol'
p1078
aS'unpol2'
p1079
aS'unpol10'
p1080
aS'QUV'
p1081
aS'QU'
p1082
aS'Qonly'
p1083
aS'Uonly'
p1084
aS'Vonly'
p1085
aS'3c147'
p1086
aS'3c286'
p1087
aS'3c48'
p1088
aS'3c295'
p1089
aS'D1'
p1090
aS'RMtest'
p1091
aS'SItest'
p1092
aS'@@punit'
p1093
asS'Dec'
p1094
(lp1095
F0.5
aF1.0
aF0.87
aF1.0920000000000001
aS'@@Dec'
p1096
asg1018
(lp1097
NaS'@@name'
p1098
asg1019
(lp1099
I01
aI00
aS'@@fsr_trace'
p1100
asg210
(lp1101
I01
aI00
aS'@@use_previous'
p1102
asS'SI'
p1103
(lp1104
NaF-0.69999999999999996
a(lp1105
F0.44700000000000001
aF-0.184
aaS'@@SI'
p1106
asg149
(lp1107
NaS'@@tfdeg'
p1108
assS'callback'
p1109
(dp1110
g1020
I01
ssg82
S'10feb2006'
p1111
sg80
g1016
sg84
S'MG_JEN_Sixpack'
p1112
sg224
(dp1113
g126
I00
sg1007
I00
sg1019
I00
sg131
I00
sg210
I00
sg135
I00
ssg86
S'** Specific description of inarg record for: MG_JEN_Sixpack::newstar_source()  version=10feb2006  defined=2006-03-29 19:26'
p1114
sg88
(dp1115
g90
S'  1: ..[solve]./MG_JEN_Sixpack.newstar_source() (qual=None): .modify(Qpct):   None  ->  10'
p1116
sg92
S'  1: ..[solve]./MG_JEN_Sixpack.newstar_source() (qual=None): .modify(parmtable):   None  ->  simul_lsm_DJones'
p1117
sg94
S'  1: ..[solve]./MG_JEN_Sixpack.newstar_source() (qual=None): .modify(punit):   unpol  ->  QU'
p1118
sg96
S'  1: ..[solve]./MG_JEN_Sixpack.newstar_source() (qual=None): .modify(Upct):   None  ->  -10'
p1119
ssg79
I00
sg107
(lp1120
g18
ag1020
ag1018
ag12
ag1007
ag1011
ag1074
ag1010
ag1012
ag1067
ag1103
ag1005
ag1064
ag1094
ag1019
ag1008
ag1006
ag1021
ag1013
ag210
ag135
ag131
ag126
ag129
ag137
ag136
ag147
ag149
ag143
ag148
ag141
asg115
(dp1121
g1005
S'reference freq (Hz): I=I0 @ f=f0'
p1122
sg126
g230
sg1006
S'major axis (arcsec)'
p1123
sg1007
S'if True, do NOT store solvegroup/parmgroup info'
p1124
sg129
g232
sg131
g233
sg1008
S'source shape'
p1125
sg12
S'name of the MeqParm table (AIPS++)'
p1126
sg1010
S'Stokes U (percentage of I)'
p1127
sg135
g236
sg136
g237
sg137
g238
sg1011
S'Stokes I: Total intensity @ f=f0 (usually 1 MHz)'
p1128
sg148
g245
sg141
g239
sg1012
S'Stokes V (percentage of I)'
p1129
sg143
g240
sg1013
S'position angle (rad)'
p1130
sg1064
S'Right Ascension (rad, J2000)'
p1131
sg1067
S'Intrinsic Rotation Measure (rad/m2)'
p1132
sg1021
S'minor axis (arcsec)'
p1133
sg147
g242
sg1074
S'Stokes Q (percentage of I)'
p1134
sg1020
S'name of calibrator source/patch \n- unpol:   unpolarised, I=1Jy \n- unpol2:  idem, I=2Jy \n- unpol10: idem, I=10Jy \n- RMtest:  Rotation Measure \n- SItest:  Spectral Index \n- QUV:     non-zero Q,U,V \n- QU:      non-zero Q,U \n- QU2:     stronger version of QU \n- Qonly:   non-zero Q \n- Uonly:   non-zero U \n- Vonly:   non-zero V \n- 3c286:   \n- 3c48:    \n- 3c295:   \n- 3c147:   \n- D1:      cps in D1.MS \n'
p1135
sg1094
S'Declination (rad, J2000)'
p1136
sg1019
S'If True, attach to forest state record'
p1137
sg210
g244
sg1103
S'Spectral Index (generalised)\n   A scalar represents the classical SI: I(f)=I0*(f/f0)^SI\n   A vector represents a freq-dependent SI (....)'
p1138
sg149
g246
ssg123
S'Make a Sixpack (I,Q,U,V,Ra,Dec) for a source with NEWSTAR parametrisation'
p1139
ssg1067
Nsg1021
F0.0
sg1064
F1.4950000000000001
sg147
F1.0
sg1074
I10
sg1020
g1082
sg1094
F0.87
sg1018
Nsg1019
I01
sg210
I01
sg1103
Nsg149
NssS'[simul]./MG_JEN_Cohset.predict_lsm()'
p1140
(dp1141
g2
S'@@polrep'
p1142
sg25
S'@@stations'
p1143
sg18
(dp1144
g20
S'MG_JEN_Cohset::predict_lsm()'
p1145
sg22
g1140
sg23
(dp1146
g27
I01
sg28
I01
sg29
I01
sg2
I01
sg25
I01
ssg30
S'MG_JEN_Cohsetpredict_lsm'
p1147
sg32
g33
sg34
S'MG_JEN_Cohset::predict_lsm()  version=20mar2006  defined=2006-03-29 19:26'
p1148
sg36
S'predict_lsm'
p1149
sg38
(dp1150
g2
(lp1151
g3
ag41
ag1142
asg25
(lp1152
(lp1153
I0
aI1
aI2
aI3
aI4
aa(lp1154
I0
aI1
aI2
aI3
aI4
aI5
aI6
aa(lp1155
I0
aI1
aI2
aI3
aI4
aI5
aI6
aI7
aI8
aI9
aI10
aI11
aI12
aI13
aa(lp1156
I0
aI1
aI2
aI3
aI4
aI5
aI6
aI7
aI8
aI9
aI10
aI11
aI12
aI13
aI14
aag47
ag1143
asS'nr_lsm_sources'
p1157
(lp1158
I1
aI2
aI3
aI5
aI10
aI20
aI100
aS'@@nr_lsm_sources'
p1159
asg27
(lp1160
NaS'@@@Jsequence_KJones'
p1161
asg28
(lp1162
NaS'@@@Jsequence_simul'
p1163
asg29
(lp1164
NaS'@@@Jsequence'
p1165
assg77
S'simul'
p1166
sg79
I00
sg80
S'2006-03-29 19:26'
p1167
sg82
S'20mar2006'
p1168
sg84
S'MG_JEN_Cohset'
p1169
sg86
S'** Specific description of inarg record for: MG_JEN_Cohset::predict_lsm()  version=20mar2006  defined=2006-03-29 19:26'
p1170
sg88
(dp1171
g90
S'  1: ..[simul]./MG_JEN_Cohset.predict_lsm() (qual=None): .modify(nr_lsm_sources):   1  ->  100'
p1172
sg92
S'** JEN_inarg.attach(): attached: [simul_imp]./MG_JEN_Cohset.Jones()'
p1173
ssg104
g1167
sg105
(dp1174
g2
I00
sg25
I00
ssg107
(lp1175
g18
ag1157
ag25
ag2
ag29
ag28
ag27
aS'[simul_imp]./MG_JEN_Cohset.Jones()'
p1176
asg115
(dp1177
g2
g117
sg25
g118
sg1157
S'nr of lsm sources to be included (in order of brightness'
p1178
sg27
g122
sg28
g122
sg29
g122
ssg123
S'Obsolete (upward compatibility) version of .predict_cps()'
p1179
ssg1157
I100
sg27
Nsg28
Nsg1176
(dp1180
S'[simul_imp]./MG_JEN_Joneset.BJones()'
p1181
(dp1182
g126
I00
sg2
S'@@polrep'
p1183
sg129
g130
sg280
g281
sg131
I00
sg282
Nsg135
I01
sg136
I10
sg137
g138
sg283
I5
sg141
g142
sg143
Nsg18
(dp1184
g20
S'MG_JEN_Joneset::BJones()'
p1185
sg22
g1181
sg23
(dp1186
g137
I01
sg2
I01
sg147
I01
sg25
I01
sg129
I01
sg148
I01
sg141
I01
sg26
I01
sg143
I01
sg149
I01
sg12
I01
sg27
I01
sg28
I01
sg136
I01
sg29
I01
ssg123
g288
sg32
g33
sg34
S'MG_JEN_Joneset::BJones()  version=16dec2005  defined=2006-03-29 19:26'
p1187
sg36
S'BJones'
p1188
sg38
(dp1189
g126
(lp1190
I01
aI00
aS'@@reset_funklet'
p1191
asg2
(lp1192
g3
ag41
ag1183
asg129
(lp1193
g130
aS'@@color'
p1194
asg280
(lp1195
g281
aNaI1
aI2
aI5
aI10
aI20
aI50
aI100
aI200
aI500
aS'@@subtile_size_Bimag'
p1196
asg131
(lp1197
I01
aI00
aS'@@save_all'
p1198
asg282
(lp1199
NaI1
aI2
aI5
aI10
aI20
aI50
aI100
aI200
aI500
aS'@@subtile_size_Breal'
p1200
asg135
(lp1201
I01
aI00
aS'@@auto_save'
p1202
asg136
(lp1203
I10
aS'@@size'
p1204
asg137
(lp1205
g138
aS'@@style'
p1206
asg283
(lp1207
I3
aI4
aI5
aI6
aS'@@fdeg_Breal'
p1208
asg141
(lp1209
g142
aS'@@condeq_corrs'
p1210
asg143
(lp1211
NaS'@@funklet_shape'
p1212
asg27
(lp1213
g54
aS'@@@Jsequence_KJones'
p1214
asg317
(lp1215
I0
aI1
aI2
aI3
ag319
aS'@@tdeg_Bimag'
p1216
asg29
(lp1217
g54
aS'@@@Jsequence'
p1218
asg147
(lp1219
F1.0
aS'@@c00_default'
p1220
asg325
(lp1221
I3
aI4
aI5
aI6
ag327
aS'@@fdeg_Bimag'
p1222
asg26
(lp1223
I00
aS'@@uvplane_effect'
p1224
asg12
(lp1225
Nag69
aS'@@parmtable'
p1226
asg25
(lp1227
(lp1228
I0
aI1
aI2
aI3
aI4
aa(lp1229
I0
aI1
aI2
aI3
aI4
aI5
aI6
aa(lp1230
I0
aI1
aI2
aI3
aI4
aI5
aI6
aI7
aI8
aI9
aI10
aI11
aI12
aI13
aa(lp1231
I0
aI1
aI2
aI3
aI4
aI5
aI6
aI7
aI8
aI9
aI10
aI11
aI12
aI13
aI14
aag47
aS'@@stations'
p1232
asg339
(lp1233
I0
aI1
aI2
aI3
aS'@@tdeg_Breal'
p1234
asg210
(lp1235
I01
aI00
aS'@@use_previous'
p1236
asg148
(lp1237
NaS'@@subtile_size'
p1238
asg149
(lp1239
NaS'@@tfdeg'
p1240
asg28
(lp1241
g54
aS'@@@Jsequence_simul'
p1242
assg77
S'simul_imp'
p1243
sg79
I00
sg80
S'2006-03-29 19:26'
p1244
sg82
g351
sg84
S'MG_JEN_Joneset'
p1245
sg224
(dp1246
g126
I00
sg131
I00
sg135
I00
sg210
I00
ssg86
S'** Specific description of inarg record for: MG_JEN_Joneset::BJones()  version=16dec2005  defined=2006-03-29 19:26'
p1247
sg105
(dp1248
g26
I00
sg12
I00
sg2
I00
sg25
I00
ssg104
g1244
sg107
(lp1249
g18
ag25
ag2
ag29
ag28
ag27
ag12
ag26
ag339
ag317
ag283
ag325
ag282
ag280
ag210
ag135
ag131
ag126
ag129
ag137
ag136
ag147
ag149
ag143
ag148
ag141
asg115
(dp1250
g126
g230
sg2
g117
sg129
g232
sg280
g358
sg131
g233
sg282
g358
sg135
g236
sg136
g237
sg137
g238
sg283
g359
sg141
g239
sg143
g240
sg27
g122
sg317
g360
sg29
g122
sg147
g242
sg325
g359
sg26
g120
sg12
g121
sg25
g118
sg339
g360
sg210
g244
sg148
g245
sg149
g246
sg28
g122
ssg30
S'MG_JEN_JonesetBJones'
p1251
ssg27
g54
sg317
g319
sg29
g54
sg147
F1.0
sg325
g327
sg26
g1224
sg25
g1232
sg149
Nsg339
I0
sg210
I01
sg148
Nsg12
g1226
sg28
g54
ssg2
S'@@polrep'
p1252
sg25
S'@@stations'
p1253
sS'[simul_imp]./MG_JEN_Joneset.GJones()'
p1254
(dp1255
g126
I00
sg2
S'@@polrep'
p1256
sg433
I0
sg129
g130
sg131
I00
sg12
S'@@parmtable'
p1257
sg135
I01
sg136
I10
sg137
g138
sg435
I1
sg141
g142
sg143
Nsg18
(dp1258
g20
S'MG_JEN_Joneset::GJones()'
p1259
sg22
g1254
sg23
(dp1260
g136
I01
sg137
I01
sg2
I01
sg147
I01
sg25
I01
sg129
I01
sg148
I01
sg141
I01
sg26
I01
sg143
I01
sg149
I01
sg12
I01
sg27
I01
sg28
I01
sg439
I01
sg29
I01
ssg123
g441
sg32
g33
sg34
S'MG_JEN_Joneset::GJones()  version=15dec2005  defined=2006-03-29 19:26'
p1261
sg36
S'GJones'
p1262
sg38
(dp1263
g126
(lp1264
I01
aI00
aS'@@reset_funklet'
p1265
asg2
(lp1266
g3
ag41
ag1256
asg433
(lp1267
I0
aI1
aI2
aI3
aS'@@fdeg_Ggain'
p1268
asg129
(lp1269
g130
aS'@@color'
p1270
asg131
(lp1271
I01
aI00
aS'@@save_all'
p1272
asg12
(lp1273
Nag69
ag1257
asg135
(lp1274
I01
aI00
aS'@@auto_save'
p1275
asg136
(lp1276
I10
aS'@@size'
p1277
asg137
(lp1278
g138
aS'@@style'
p1279
asg435
(lp1280
NaI1
aI2
aI5
aI10
aI20
aI50
aI100
aI200
aI500
aS'@@subtile_size_Ggain'
p1281
asg141
(lp1282
g142
aS'@@condeq_corrs'
p1283
asg143
(lp1284
NaS'@@funklet_shape'
p1285
asg27
(lp1286
g52
aS'@@@Jsequence_KJones'
p1287
asg29
(lp1288
g52
aS'@@@Jsequence'
p1289
asg147
(lp1290
F1.0
aS'@@c00_default'
p1291
asg473
(lp1292
I0
aI1
aI2
aI3
ag475
aS'@@tdeg_Gphase'
p1293
asg477
(lp1294
I0
aI1
aI2
aI3
aS'@@tdeg_Ggain'
p1295
asg480
(lp1296
I0
aI1
aI2
aI3
ag482
aS'@@fdeg_Gphase'
p1297
asg484
(lp1298
g486
aNaI1
aI2
aI5
aI10
aI20
aI50
aI100
aI200
aI500
aS'@@subtile_size_Gphase'
p1299
asg439
(lp1300
I01
aI00
aS'@@Gpolar'
p1301
asg26
(lp1302
I00
aS'@@uvplane_effect'
p1303
asg25
(lp1304
(lp1305
I0
aI1
aI2
aI3
aI4
aa(lp1306
I0
aI1
aI2
aI3
aI4
aI5
aI6
aa(lp1307
I0
aI1
aI2
aI3
aI4
aI5
aI6
aI7
aI8
aI9
aI10
aI11
aI12
aI13
aa(lp1308
I0
aI1
aI2
aI3
aI4
aI5
aI6
aI7
aI8
aI9
aI10
aI11
aI12
aI13
aI14
aag47
aS'@@stations'
p1309
asg210
(lp1310
I01
aI00
aS'@@use_previous'
p1311
asg148
(lp1312
NaS'@@subtile_size'
p1313
asg149
(lp1314
NaS'@@tfdeg'
p1315
asg28
(lp1316
g52
aS'@@@Jsequence_simul'
p1317
assg77
g1243
sg79
I00
sg80
S'2006-03-29 19:26'
p1318
sg82
g507
sg84
S'MG_JEN_Joneset'
p1319
sg224
(dp1320
g126
I00
sg439
I00
sg131
I00
sg135
I00
sg210
I00
ssg86
S'** Specific description of inarg record for: MG_JEN_Joneset::GJones()  version=15dec2005  defined=2006-03-29 19:26'
p1321
sg105
(dp1322
g26
I00
sg12
I00
sg2
I00
sg25
I00
ssg104
g1318
sg107
(lp1323
g18
ag25
ag2
ag29
ag28
ag27
ag439
ag12
ag26
ag477
ag473
ag433
ag480
ag435
ag484
ag210
ag135
ag131
ag126
ag129
ag137
ag136
ag147
ag149
ag143
ag148
ag141
asg115
(dp1324
g126
g230
sg2
g117
sg433
g514
sg129
g232
sg131
g233
sg12
g121
sg135
g236
sg136
g237
sg137
g238
sg435
g515
sg141
g239
sg143
g240
sg27
g122
sg29
g122
sg147
g242
sg473
g516
sg477
g516
sg480
g514
sg484
g515
sg439
g517
sg26
g120
sg25
g118
sg210
g244
sg148
g245
sg149
g246
sg28
g122
ssg30
S'MG_JEN_JonesetGJones'
p1325
ssg27
g52
sg29
g52
sg147
F1.0
sg473
g475
sg477
I0
sg480
g482
sg484
g486
sg439
I01
sg26
g1303
sg25
g1309
sg210
I01
sg148
Nsg149
Nsg28
g52
ssS'[simul_imp]./MG_JEN_Joneset.DJones_WSRT()'
p1326
(dp1327
g126
I00
sg2
S'@@polrep'
p1328
sg129
g130
sg520
g521
sg522
I01
sg131
I00
sg12
S'@@parmtable'
p1329
sg524
Nsg135
I01
sg136
I10
sg137
g138
sg141
g142
sg143
Nsg18
(dp1330
g20
S'MG_JEN_Joneset::DJones_WSRT()'
p1331
sg22
g1326
sg23
(dp1332
g137
I01
sg2
I01
sg147
I01
sg25
I01
sg129
I01
sg148
I01
sg141
I01
sg26
I01
sg143
I01
sg149
I01
sg12
I01
sg27
I01
sg28
I01
sg136
I01
sg29
I01
ssg123
g529
sg32
g33
sg34
S'MG_JEN_Joneset::DJones_WSRT()  version=16dec2005  defined=2006-03-29 19:26'
p1333
sg36
S'DJones_WSRT'
p1334
sg38
(dp1335
g126
(lp1336
I01
aI00
aS'@@reset_funklet'
p1337
asg2
(lp1338
g3
ag41
ag1328
asg129
(lp1339
g130
aS'@@color'
p1340
asg520
(lp1341
I0
aI1
aI2
aI3
ag521
aS'@@fdeg_Dell'
p1342
asg522
(lp1343
I01
aI00
aS'@@coupled_XY_Dell'
p1344
asg131
(lp1345
I01
aI00
aS'@@save_all'
p1346
asg12
(lp1347
Nag69
ag1329
asg524
(lp1348
NaI1
aI2
aI5
aI10
aI20
aI50
aI100
aI200
aI500
aS'@@subtile_size_Dang'
p1349
asg135
(lp1350
I01
aI00
aS'@@auto_save'
p1351
asg136
(lp1352
I10
aS'@@size'
p1353
asg137
(lp1354
g138
aS'@@style'
p1355
asg141
(lp1356
g142
aS'@@condeq_corrs'
p1357
asg143
(lp1358
NaS'@@funklet_shape'
p1359
asg27
(lp1360
g60
aS'@@@Jsequence_KJones'
p1361
asg559
(lp1362
g561
aNaI1
aI2
aI5
aI10
aI20
aI50
aI100
aI200
aI500
aS'@@subtile_size_Dell'
p1363
asg29
(lp1364
g60
aS'@@@Jsequence'
p1365
asg565
(lp1366
I0
aI1
aI2
aI3
aS'@@fdeg_Dang'
p1367
asg147
(lp1368
F1.0
aS'@@c00_default'
p1369
asg26
(lp1370
I00
aS'@@uvplane_effect'
p1371
asg572
(lp1372
I0
aI1
aI2
aI3
ag574
aS'@@tdeg_Dell'
p1373
asg576
(lp1374
I01
aI00
aS'@@coupled_XY_Dang'
p1375
asg579
(lp1376
I0
aI1
aI2
aI3
aS'@@tdeg_Dang'
p1377
asg25
(lp1378
(lp1379
I0
aI1
aI2
aI3
aI4
aa(lp1380
I0
aI1
aI2
aI3
aI4
aI5
aI6
aa(lp1381
I0
aI1
aI2
aI3
aI4
aI5
aI6
aI7
aI8
aI9
aI10
aI11
aI12
aI13
aa(lp1382
I0
aI1
aI2
aI3
aI4
aI5
aI6
aI7
aI8
aI9
aI10
aI11
aI12
aI13
aI14
aag47
aS'@@stations'
p1383
asg210
(lp1384
I01
aI00
aS'@@use_previous'
p1385
asg148
(lp1386
NaS'@@subtile_size'
p1387
asg149
(lp1388
NaS'@@tfdeg'
p1389
asg28
(lp1390
g60
aS'@@@Jsequence_simul'
p1391
assg77
g1243
sg79
I00
sg80
S'2006-03-29 19:26'
p1392
sg82
g351
sg84
S'MG_JEN_Joneset'
p1393
sg224
(dp1394
g126
I00
sg522
I00
sg131
I00
sg576
I00
sg210
I00
sg135
I00
ssg86
S'** Specific description of inarg record for: MG_JEN_Joneset::DJones_WSRT()  version=16dec2005  defined=2006-03-29 19:26'
p1395
sg105
(dp1396
g26
I00
sg12
I00
sg2
I00
sg25
I00
ssg104
g1392
sg107
(lp1397
g18
ag25
ag2
ag29
ag28
ag27
ag576
ag522
ag12
ag26
ag579
ag572
ag565
ag520
ag524
ag559
ag210
ag135
ag131
ag126
ag129
ag137
ag136
ag147
ag149
ag143
ag148
ag141
asg115
(dp1398
g126
g230
sg2
g117
sg129
g232
sg520
g603
sg522
g604
sg131
g233
sg12
g121
sg524
g605
sg135
g236
sg136
g237
sg137
g238
sg141
g239
sg143
g240
sg27
g122
sg559
g605
sg29
g122
sg565
g603
sg147
g242
sg26
g120
sg572
g606
sg576
g607
sg579
g606
sg25
g118
sg210
g244
sg148
g245
sg149
g246
sg28
g122
ssg30
S'MG_JEN_JonesetDJones_WSRT'
p1399
ssg27
g60
sg559
g561
sg29
g60
sg565
I0
sg147
F1.0
sg26
g1371
sg572
g574
sg576
I01
sg579
I0
sg25
g1383
sg210
I01
sg148
Nsg149
Nsg28
g60
ssg26
S'@@uvplane_effect'
p1400
sg12
S'@@parmtable'
p1401
sg18
(dp1402
g20
g21
sg22
g1176
sg23
(dp1403
g2
I01
sg25
I01
sg26
I01
sg12
I01
sg27
I01
sg28
I01
sg29
I01
ssg30
S'MG_JEN_CohsetJones'
p1404
sg32
g33
sg123
g124
sg34
S'MG_JEN_Cohset::Jones()  version=25dec2005  defined=2006-03-29 19:26'
p1405
sg36
S'Jones'
p1406
sg38
(dp1407
g2
(lp1408
g3
ag41
ag1252
asg25
(lp1409
(lp1410
I0
aI1
aI2
aI3
aI4
aa(lp1411
I0
aI1
aI2
aI3
aI4
aI5
aI6
aa(lp1412
I0
aI1
aI2
aI3
aI4
aI5
aI6
aI7
aI8
aI9
aI10
aI11
aI12
aI13
aa(lp1413
I0
aI1
aI2
aI3
aI4
aI5
aI6
aI7
aI8
aI9
aI10
aI11
aI12
aI13
aI14
aag47
ag1253
asg26
(lp1414
I00
ag1400
asg12
(lp1415
Nag69
ag1401
asg27
(lp1416
NaS'@@@Jsequence_KJones'
p1417
asg28
(lp1418
NaS'@@@Jsequence_simul'
p1419
asS'Jsequence_simul_imp'
p1420
(lp1421
(lp1422
g52
aa(lp1423
g54
aa(lp1424
g56
aa(lp1425
g58
aa(lp1426
g60
aa(lp1427
g52
ag60
aa(lp1428
g63
aa(lp1429
aS'@@Jsequence_simul_imp'
p1430
asg29
(lp1431
NaS'@@@Jsequence'
p1432
assg77
g1243
sg79
I00
sg80
S'2006-03-29 19:26'
p1433
sg82
g83
sg84
S'MG_JEN_Cohset'
p1434
sg86
S'** Specific description of inarg record for: MG_JEN_Cohset::Jones()  version=25dec2005  defined=2006-03-29 19:26'
p1435
sg88
(dp1436
g90
S'** JEN_inarg.attach(): attached: [simul_imp]./MG_JEN_Joneset.FJones()'
p1437
sg92
S'** JEN_inarg.attach(): attached: [simul_imp]./MG_JEN_Joneset.GJones()'
p1438
sg94
S'** JEN_inarg.attach(): attached: [simul_imp]./MG_JEN_Joneset.KJones()'
p1439
sg96
S'** JEN_inarg.attach(): attached: [simul_imp]./MG_JEN_Joneset.BJones()'
p1440
sg98
S'** JEN_inarg.attach(): attached: [simul_imp]./MG_JEN_Joneset.JJones()'
p1441
sg100
S'** JEN_inarg.attach(): attached: [simul_imp]./MG_JEN_Joneset.DJones_WSRT()'
p1442
ssg104
g1433
sg105
(dp1443
g26
I00
sg12
I00
sg2
I00
sg25
I00
ssg107
(lp1444
g18
ag25
ag2
ag29
ag28
ag27
ag12
ag26
ag1420
ag1254
aS'[simul_imp]./MG_JEN_Joneset.FJones()'
p1445
ag1181
aS'[simul_imp]./MG_JEN_Joneset.KJones()'
p1446
ag1326
aS'[simul_imp]./MG_JEN_Joneset.JJones()'
p1447
asg115
(dp1448
g2
g117
sg25
g118
sg26
g120
sg12
g121
sg27
g122
sg28
g122
sg1420
g119
sg29
g122
sssg1447
(dp1449
g126
I00
sg2
S'@@polrep'
p1450
sg128
I0
sg129
g130
sg131
I00
sg132
Nsg12
S'@@parmtable'
p1451
sg134
Nsg135
I01
sg136
I10
sg137
g138
sg139
g140
sg141
g142
sg143
Nsg18
(dp1452
g20
S'MG_JEN_Joneset::JJones()'
p1453
sg22
g1447
sg23
(dp1454
g137
I01
sg2
I01
sg147
I01
sg25
I01
sg129
I01
sg148
I01
sg141
I01
sg26
I01
sg143
I01
sg149
I01
sg12
I01
sg27
I01
sg28
I01
sg136
I01
sg29
I01
ssg123
g151
sg32
g33
sg34
S'MG_JEN_Joneset::JJones()  version=14feb2006  defined=2006-03-29 19:26'
p1455
sg36
S'JJones'
p1456
sg38
(dp1457
g126
(lp1458
I01
aI00
aS'@@reset_funklet'
p1459
asg2
(lp1460
g3
ag41
ag1450
asg128
(lp1461
I0
aI1
aI2
aI3
aS'@@tdeg_Jreal'
p1462
asg129
(lp1463
g130
aS'@@color'
p1464
asg131
(lp1465
I01
aI00
aS'@@save_all'
p1466
asg132
(lp1467
Na(lp1468
I14
aa(lp1469
I1
aag167
aS'@@all4_always'
p1470
asg12
(lp1471
Nag69
ag1451
asg134
(lp1472
NaI1
aI2
aI5
aI10
aI20
aI50
aI100
aI200
aI500
aS'@@subtile_size_Jreal'
p1473
asg135
(lp1474
I01
aI00
aS'@@auto_save'
p1475
asg136
(lp1476
I10
aS'@@size'
p1477
asg137
(lp1478
g138
aS'@@style'
p1479
asg139
(lp1480
I0
aI1
aI2
aI3
ag140
aS'@@tdeg_Jimag'
p1481
asg141
(lp1482
g142
aS'@@condeq_corrs'
p1483
asg143
(lp1484
NaS'@@funklet_shape'
p1485
asg27
(lp1486
g63
aS'@@@Jsequence_KJones'
p1487
asg186
(lp1488
I0
aI1
aI2
aI3
aS'@@fdeg_Jreal'
p1489
asg147
(lp1490
F1.0
aS'@@c00_default'
p1491
asg26
(lp1492
I00
aS'@@uvplane_effect'
p1493
asg193
(lp1494
I0
aI1
aI2
aI3
ag195
aS'@@fdeg_Jimag'
p1495
asg197
(lp1496
g199
aNaI1
aI2
aI5
aI10
aI20
aI50
aI100
aI200
aI500
aS'@@subtile_size_Jimag'
p1497
asg25
(lp1498
(lp1499
I0
aI1
aI2
aI3
aI4
aa(lp1500
I0
aI1
aI2
aI3
aI4
aI5
aI6
aa(lp1501
I0
aI1
aI2
aI3
aI4
aI5
aI6
aI7
aI8
aI9
aI10
aI11
aI12
aI13
aa(lp1502
I0
aI1
aI2
aI3
aI4
aI5
aI6
aI7
aI8
aI9
aI10
aI11
aI12
aI13
aI14
aag47
aS'@@stations'
p1503
asg207
(lp1504
I01
aI00
aS'@@diagonal_only'
p1505
asg210
(lp1506
I01
aI00
aS'@@use_previous'
p1507
asg148
(lp1508
NaS'@@subtile_size'
p1509
asg149
(lp1510
NaS'@@tfdeg'
p1511
asg28
(lp1512
g63
aS'@@@Jsequence_simul'
p1513
asg29
(lp1514
g63
aS'@@@Jsequence'
p1515
assg77
g1243
sg79
I00
sg80
S'2006-03-29 19:26'
p1516
sg82
g222
sg84
S'MG_JEN_Joneset'
p1517
sg224
(dp1518
g126
I00
sg207
I00
sg131
I00
sg135
I00
sg210
I00
ssg86
S'** Specific description of inarg record for: MG_JEN_Joneset::JJones()  version=14feb2006  defined=2006-03-29 19:26'
p1519
sg105
(dp1520
g26
I00
sg12
I00
sg2
I00
sg25
I00
ssg104
g1516
sg107
(lp1521
g18
ag25
ag2
ag29
ag28
ag27
ag207
ag132
ag12
ag26
ag128
ag139
ag186
ag193
ag134
ag197
ag210
ag135
ag131
ag126
ag129
ag137
ag136
ag147
ag149
ag143
ag148
ag141
asg115
(dp1522
g126
g230
sg2
g117
sg128
g231
sg129
g232
sg131
g233
sg132
g234
sg12
g121
sg134
g235
sg135
g236
sg136
g237
sg137
g238
sg139
g231
sg141
g239
sg143
g240
sg27
g122
sg186
g241
sg147
g242
sg26
g120
sg193
g241
sg197
g235
sg25
g118
sg207
g243
sg210
g244
sg148
g245
sg149
g246
sg28
g122
sg29
g122
ssg30
S'MG_JEN_JonesetJJones'
p1523
ssg27
g63
sg186
I0
sg147
F1.0
sg26
g1493
sg193
g195
sg197
g199
sg25
g1503
sg207
I00
sg210
I01
sg148
Nsg149
Nsg28
g63
sg29
g63
ssg27
Nsg28
Nsg29
Nsg1446
(dp1524
g2
S'@@polrep'
p1525
sg25
S'@@stations'
p1526
sg18
(dp1527
g20
S'MG_JEN_Joneset::KJones()'
p1528
sg22
g1446
sg23
(dp1529
g27
I01
sg28
I01
sg29
I01
sg2
I01
sg25
I01
ssg123
g254
sg32
g33
sg34
S'MG_JEN_Joneset::KJones()  version=12dec2005  defined=2006-03-29 19:26'
p1530
sg36
S'KJones'
p1531
sg38
(dp1532
g27
(lp1533
g58
aS'@@@Jsequence_KJones'
p1534
asg28
(lp1535
g58
aS'@@@Jsequence_simul'
p1536
asg29
(lp1537
g58
aS'@@@Jsequence'
p1538
asg2
(lp1539
g3
ag41
ag1525
asg25
(lp1540
(lp1541
I0
aI1
aI2
aI3
aI4
aa(lp1542
I0
aI1
aI2
aI3
aI4
aI5
aI6
aa(lp1543
I0
aI1
aI2
aI3
aI4
aI5
aI6
aI7
aI8
aI9
aI10
aI11
aI12
aI13
aa(lp1544
I0
aI1
aI2
aI3
aI4
aI5
aI6
aI7
aI8
aI9
aI10
aI11
aI12
aI13
aI14
aag47
ag1526
assg77
g1243
sg79
I00
sg80
S'2006-03-29 19:26'
p1545
sg82
g271
sg84
S'MG_JEN_Joneset'
p1546
sg86
S'** Specific description of inarg record for: MG_JEN_Joneset::KJones()  version=12dec2005  defined=2006-03-29 19:26'
p1547
sg105
(dp1548
g2
I00
sg25
I00
ssg104
g1545
sg107
(lp1549
g18
ag25
ag2
ag29
ag28
ag27
asg115
(dp1550
g27
g122
sg28
g122
sg29
g122
sg2
g117
sg25
g118
ssg30
S'MG_JEN_JonesetKJones'
p1551
ssg27
g58
sg28
g58
sg29
g58
ssg1420
(lp1552
sg1445
(dp1553
g126
I00
sg2
S'@@polrep'
p1554
sg129
g130
sg131
I00
sg149
Nsg135
I01
sg136
I10
sg137
g138
sg141
g142
sg143
Nsg18
(dp1555
g20
S'MG_JEN_Joneset::FJones()'
p1556
sg22
g1445
sg23
(dp1557
g137
I01
sg2
I01
sg147
I01
sg25
I01
sg129
I01
sg148
I01
sg141
I01
sg26
I01
sg143
I01
sg149
I01
sg12
I01
sg27
I01
sg28
I01
sg136
I01
sg29
I01
ssg123
g367
sg32
g33
sg34
S'MG_JEN_Joneset::FJones()  version=16dec2005  defined=2006-03-29 19:26'
p1558
sg36
S'FJones'
p1559
sg38
(dp1560
g126
(lp1561
I01
aI00
aS'@@reset_funklet'
p1562
asg2
(lp1563
g3
ag41
ag1554
asg129
(lp1564
g130
aS'@@color'
p1565
asg131
(lp1566
I01
aI00
aS'@@save_all'
p1567
asg149
(lp1568
NaS'@@tfdeg'
p1569
asg135
(lp1570
I01
aI00
aS'@@auto_save'
p1571
asg136
(lp1572
I10
aS'@@size'
p1573
asg137
(lp1574
g138
aS'@@style'
p1575
asg141
(lp1576
g142
aS'@@condeq_corrs'
p1577
asg143
(lp1578
NaS'@@funklet_shape'
p1579
asg27
(lp1580
g56
aS'@@@Jsequence_KJones'
p1581
asg29
(lp1582
g56
aS'@@@Jsequence'
p1583
asg147
(lp1584
F1.0
aS'@@c00_default'
p1585
asg26
(lp1586
I00
aS'@@uvplane_effect'
p1587
asg25
(lp1588
(lp1589
I0
aI1
aI2
aI3
aI4
aa(lp1590
I0
aI1
aI2
aI3
aI4
aI5
aI6
aa(lp1591
I0
aI1
aI2
aI3
aI4
aI5
aI6
aI7
aI8
aI9
aI10
aI11
aI12
aI13
aa(lp1592
I0
aI1
aI2
aI3
aI4
aI5
aI6
aI7
aI8
aI9
aI10
aI11
aI12
aI13
aI14
aag47
aS'@@stations'
p1593
asg404
(lp1594
I0
aI1
aI2
aI3
aS'@@tdeg_RM'
p1595
asg210
(lp1596
I01
aI00
aS'@@use_previous'
p1597
asg409
(lp1598
I0
aI1
aI2
aI3
aS'@@fdeg_RM'
p1599
asg148
(lp1600
NaS'@@subtile_size'
p1601
asg12
(lp1602
Nag69
aS'@@parmtable'
p1603
asg416
(lp1604
NaI1
aI2
aI5
aI10
aI20
aI50
aI100
aI200
aI500
aS'@@subtile_size_RM'
p1605
asg28
(lp1606
g56
aS'@@@Jsequence_simul'
p1607
assg77
g1243
sg79
I00
sg80
S'2006-03-29 19:26'
p1608
sg82
g351
sg84
S'MG_JEN_Joneset'
p1609
sg224
(dp1610
g126
I00
sg131
I00
sg135
I00
sg210
I00
ssg86
S'** Specific description of inarg record for: MG_JEN_Joneset::FJones()  version=16dec2005  defined=2006-03-29 19:26'
p1611
sg105
(dp1612
g26
I00
sg12
I00
sg2
I00
sg25
I00
ssg104
g1608
sg107
(lp1613
g18
ag25
ag2
ag29
ag28
ag27
ag12
ag26
ag404
ag409
ag416
ag210
ag135
ag131
ag126
ag129
ag137
ag136
ag147
ag149
ag143
ag148
ag141
asg115
(dp1614
g126
g230
sg2
g117
sg129
g232
sg131
g233
sg149
g246
sg135
g236
sg136
g237
sg137
g238
sg141
g239
sg143
g240
sg27
g122
sg29
g122
sg147
g242
sg26
g120
sg25
g118
sg404
g428
sg210
g244
sg409
g429
sg148
g245
sg12
g121
sg416
g430
sg28
g122
ssg30
S'MG_JEN_JonesetFJones'
p1615
ssg27
g56
sg29
g56
sg147
F1.0
sg26
g1587
sg25
g1593
sg404
I0
sg210
I01
sg409
I2
sg148
Nsg12
g1603
sg416
I1
sg28
g56
sssg29
NssS'[solve]./MG_JEN_Cohset.predict_cps()'
p1616
(dp1617
g2
S'@@polrep'
p1618
sg25
S'@@stations'
p1619
sg18
(dp1620
g20
S'MG_JEN_Cohset::predict_cps()'
p1621
sg22
g1616
sg23
(dp1622
g27
I01
sg28
I01
sg29
I01
sg2
I01
sg25
I01
ssg30
S'MG_JEN_Cohsetpredict_cps'
p1623
sg32
g33
sg34
S'MG_JEN_Cohset::predict_cps()  version=20mar2006  defined=2006-03-29 19:26'
p1624
sg36
S'predict_cps'
p1625
sg38
(dp1626
g27
(lp1627
NaS'@@@Jsequence_KJones'
p1628
asg28
(lp1629
NaS'@@@Jsequence_simul'
p1630
asg29
(lp1631
NaS'@@@Jsequence'
p1632
asg2
(lp1633
g3
ag41
ag1618
asg25
(lp1634
(lp1635
I0
aI1
aI2
aI3
aI4
aa(lp1636
I0
aI1
aI2
aI3
aI4
aI5
aI6
aa(lp1637
I0
aI1
aI2
aI3
aI4
aI5
aI6
aI7
aI8
aI9
aI10
aI11
aI12
aI13
aa(lp1638
I0
aI1
aI2
aI3
aI4
aI5
aI6
aI7
aI8
aI9
aI10
aI11
aI12
aI13
aI14
aag47
ag1619
assg77
g1023
sg79
I00
sg80
S'2006-03-29 19:26'
p1639
sg82
g1168
sg84
S'MG_JEN_Cohset'
p1640
sg86
S'** Specific description of inarg record for: MG_JEN_Cohset::predict_cps()  version=20mar2006  defined=2006-03-29 19:26'
p1641
sg105
(dp1642
g2
I00
sg25
I00
ssg104
g1639
sg107
(lp1643
g18
ag25
ag2
ag29
ag28
ag27
asg115
(dp1644
g27
g122
sg28
g122
sg29
g122
sg2
g117
sg25
g118
ssg123
g1179
ssg27
Nsg28
Nsg29
Nssg18
(dp1645
g22
S'./MG_JEN_simul.'
p1646
sg115
(dp1647
g27
g122
sg1
S'if True, add to existing uv-data (from MS column)'
p1648
sS'rms_noise_Jy'
p1649
S'rms noise, to be added'
p1650
sg2
g117
sS'master_reqseq'
p1651
S'if True, use a master reqseq for solver(s)'
p1652
sS'LSM_simul'
p1653
S'(file)name of a Local Sky Model to be used for simulation(instead of a predefined punit)'
p1654
sg25
g118
sS'redun'
p1655
S'if True, redundant spacing calibration'
p1656
sg14
S'if True, insert a solver'
p1657
sg10
S'name of the (AIPS++) Measurement Set'
p1658
sS'chain_solvers'
p1659
S'if True, chain the solvers (recommended)'
p1660
sS'num_cells'
p1661
S'if defined, ModRes argument [ntime,nfreq]'
p1662
sg12
g121
sg608
S'(file)name of a Local Sky Model to be used for solving(instead of a predefined punit)'
p1663
sg28
g122
sS'tile_size'
p1664
S'(inputrec) size (in time-slots) of the input data-tile'
p1665
sg26
g120
sg29
g122
ssS'reference'
p1666
I00
sg32
g33
sg84
S'MG_JEN_simul'
p1667
sg23
(dp1668
g27
I01
sg2
I00
sg1651
I01
sg1653
I00
sg25
I00
sS'last_changed'
p1669
I01
sg1655
I00
sg26
I00
sg1659
I01
sg1661
I00
sg608
I00
sg28
I01
sg29
I01
ssS'browse'
p1670
(dp1671
g10
S'*.MS'
p1672
sg1653
S'*.lsm'
p1673
sg608
g1673
ssg82
g507
sg123
S"\n    -------------------------------------------------------------\n    General description of the MeqTree TDL script MG_JEN_simul.py\n    -------------------------------------------------------------\n\n    The MG_JEN_simul.py script is used to put simulated visibilities into the\n    CORRECTED_DATA column of an existing Measurement Set (MS). The original DATA\n    in the MS are untouched. The advantage of this approach is that it is not\n    necessary to specify pointing centre, uv-coverage, spectral-window etc.\n\n    * The input source model is either an existing Local Sky Model (LSM),\n    or a 'punit' point source in the centre of the field.\n\n    * The nominal source visibilities may be corrupted by:\n      - various (uv-plane) Jones matrices\n      - image-plane effects from EJones and IJones (MIM)\n      - ifr-based errors (additive, multiplicative)\n      - noise\n\n    * Optionally, the simulated visibilities may be added to the existing uv-data,\n    either from the DATA column or the CORRECTED_DATA column of the MS\n\n    * Optionally, a parallel solver branch may be inserted, which uses the simulated\n    uv-data to solve for instrumental parameters. The latter may be compared with\n    the simulated instrumental parameters.\n\n    Different types of simulations may be specified by loading (and editing) socalled\n    'inarg' records from files (like this one). These contain input arguments\n    for generating a suitable MeqTree forest for the desired operation.\n    "
p1674
sg224
(dp1675
g1
I00
sg1651
I00
sg1655
I00
sg14
I00
sg1669
I00
ssg34
S'** Top-level CTRL-record of: MG_JEN_simul.inarg'
p1676
sg38
(dp1677
g27
(lp1678
NaS'@@@Jsequence_KJones'
p1679
asg1
(lp1680
I01
aI00
aS'@@add_to_existing'
p1681
asg1649
(lp1682
I0
aF0.01
aF0.10000000000000001
aI1
aS'@@rms_noise_Jy'
p1683
asg2
(lp1684
g3
ag41
aS'@@polrep'
p1685
asg1651
(lp1686
I01
aI00
aS'@@master_reqseq'
p1687
asg1653
(lp1688
NaS'@@LSM_simul'
p1689
asg25
(lp1690
(lp1691
I0
aI1
aI2
aI3
aI4
aa(lp1692
I0
aI1
aI2
aI3
aI4
aI5
aI6
aa(lp1693
I0
aI1
aI2
aI3
aI4
aI5
aI6
aI7
aI8
aI9
aI10
aI11
aI12
aI13
aa(lp1694
I0
aI1
aI2
aI3
aI4
aI5
aI6
aI7
aI8
aI9
aI10
aI11
aI12
aI13
aI14
aag47
aS'@@stations'
p1695
asg1669
(lp1696
S'd30jan2006'
p1697
aS'@@last_changed'
p1698
asg14
(lp1699
I01
aI00
aS'@@insert_solver'
p1700
asg1655
(lp1701
I01
aI00
aS'@@redun'
p1702
asg10
(lp1703
g11
aS'@@ms_name'
p1704
asg1659
(lp1705
I01
aS'@@chain_solvers'
p1706
asg1661
(lp1707
Na(lp1708
I5
aI2
aa(lp1709
I2
aI2
aa(lp1710
I3
aI3
aaS'@@num_cells'
p1711
asg12
(lp1712
Nag69
aS'@@parmtable'
p1713
asg608
(lp1714
NaS'@@LSM_solve'
p1715
asg28
(lp1716
NaS'@@@Jsequence_simul'
p1717
asg1664
(lp1718
I1
aI2
aI3
aI5
aI10
aI20
aI50
aI100
aS'@@tile_size'
p1719
asg26
(lp1720
I00
aS'@@uvplane_effect'
p1721
asg29
(lp1722
NaS'@@@Jsequence'
p1723
assg77
Nsg104
S'2006-03-29 19:26'
p1724
sS'HISTORY'
p1725
(dp1726
g90
S'2006-03-29 19:26: Derived from: MG_JEN_simul_lsm_DJones.inarg'
p1727
sg92
S'2006-03-29 19:26: Derived from: MG_JEN_simul.inarg'
p1728
ssg20
g9
sg86
S'Predefined inarg record for simulating with DJones corruption'
p1729
sS'save_file'
p1730
S'MG_JEN_simul_lsm_DJones_protected.inarg'
p1731
sS'file_filter'
p1732
S'MG_JEN_simul*.inarg'
p1733
sg36
S''
p1734
sg79
I01
sg80
g1724
sg88
(dp1735
S'24'
p1736
S".modify():   ** OK ** (['I0', 'Qpct', 'Vpct', 'SI', 'RM', 'Upct', 'punit'])"
p1737
sS'20'
p1738
S'  0: ./MG_JEN_simul. (qual=None): .modify(insert_solver):   True  ->  False'
p1739
sS'21'
p1740
S'  0: ./MG_JEN_simul. (qual=None): .modify(parmtable):   None  ->  simul_lsm_DJones'
p1741
sS'22'
p1742
S'  0: ./MG_JEN_simul. (qual=None): .modify(LSM_solve):   None  ->  lsm_current.lsm'
p1743
sS'23'
p1744
S".modify():   ** OK ** (['LSM_simul', 'Jsequence_solve_uvp', 'insert_solver', 'parmtable', 'solvegroup', 'nr_lsm_sources', 'LSM_solve', 'num_iter', 'Jsequence_simul_uvp'])"
p1745
sg90
S'  0: ./MG_JEN_simul. (qual=None): .modify(tile_size):   10  ->  1'
p1746
sg92
S'  0: ./MG_JEN_simul. (qual=None): .modify(uvplane_effect):   False  ->  True'
p1747
sg94
S'** JEN_inarg.separator(): : uv-data (MS) stream_control'
p1748
sg96
S".modify():   ** OK ** (['uvplane_effect', 'tile_size'])"
p1749
sg98
S'** JEN_inarg.attach(): attached: ./MG_JEN_Cohset.make_spigots()'
p1750
sg100
S'** JEN_inarg.attach(): attached: ./MG_JEN_exec.stream_control()'
p1751
sS'7'
p1752
S'** JEN_inarg.attach(): attached: [simul]./MG_JEN_Sixpack.newstar_source()'
p1753
sg102
S'** JEN_inarg.separator(): : uv-data simulation (LeafSet)'
p1754
sS'9'
p1755
S'** JEN_inarg.attach(): attached: [simul]./MG_JEN_Cohset.predict_cps()'
p1756
sS'8'
p1757
S'** JEN_inarg.attach(): attached: [simul_uvp]./MG_JEN_Cohset.Jones()'
p1758
sS'11'
p1759
S'** JEN_inarg.separator(): : solver-branch (ParmSet)'
p1760
sS'10'
p1761
S'** JEN_inarg.attach(): attached: [simul]./MG_JEN_Cohset.predict_lsm()'
p1762
sS'13'
p1763
S'** JEN_inarg.attach(): attached: [solve_uvp]./MG_JEN_Cohset.Jones()'
p1764
sS'12'
p1765
S'** JEN_inarg.attach(): attached: [solve]./MG_JEN_Sixpack.newstar_source()'
p1766
sS'15'
p1767
S'** JEN_inarg.attach(): attached: [solve]./MG_JEN_Cohset.predict_lsm()'
p1768
sS'14'
p1769
S'** JEN_inarg.attach(): attached: [solve]./MG_JEN_Cohset.predict_cps()'
p1770
sS'17'
p1771
S'** JEN_inarg.separator(): : finishing touches'
p1772
sS'16'
p1773
S'** JEN_inarg.attach(): attached: ./MG_JEN_Cohset.insert_solver()'
p1774
sS'19'
p1775
S'  0: ./MG_JEN_simul. (qual=None): .modify(LSM_simul):   None  ->  lsm_current.lsm'
p1776
sS'18'
p1777
S'** JEN_inarg.attach(): attached: ./MG_JEN_Cohset.make_sinks()'
p1778
ssg107
(lp1779
g18
ag8
ag1669
ag10
ag1664
ag25
ag2
ag29
ag28
ag27
ag12
ag26
ag1659
ag1651
ag1655
ag1661
ag1
ag1649
ag14
ag4
aS'./MG_JEN_exec.stream_control()'
p1780
aS'./MG_JEN_Cohset.make_spigots()'
p1781
aS'_JEN_inarg_separator_record:_2'
p1782
ag1653
aS'[simul]./MG_JEN_Sixpack.newstar_source()'
p1783
ag610
aS'[simul]./MG_JEN_Cohset.predict_cps()'
p1784
ag1140
aS'_JEN_inarg_separator_record:_3'
p1785
ag608
ag1003
ag15
ag1616
aS'[solve]./MG_JEN_Cohset.predict_lsm()'
p1786
aS'./MG_JEN_Cohset.insert_solver()'
p1787
aS'_JEN_inarg_separator_record:_4'
p1788
aS'./MG_JEN_Cohset.make_sinks()'
p1789
assg1789
(dp1790
S'fullDomainMux'
p1791
I01
sS'output_col'
p1792
S'PREDICT'
p1793
sS'visu'
p1794
I01
sS'flag'
p1795
I00
sg18
(dp1796
g20
S'MG_JEN_Cohset::make_sinks()'
p1797
sg22
g1789
sg104
S'2006-03-29 19:26'
p1798
sg86
S'** Specific description of inarg record for: MG_JEN_Cohset::make_sinks()  version=25dec2005  defined=2006-03-29 19:26'
p1799
sg30
S'MG_JEN_Cohsetmake_sinks'
p1800
sg32
g33
sg34
S'MG_JEN_Cohset::make_sinks()  version=25dec2005  defined=2006-03-29 19:26'
p1801
sg36
S'make_sinks'
p1802
sg38
(dp1803
g1795
(lp1804
I01
aI00
aS'@@flag'
p1805
asg1794
(lp1806
I01
aI00
aS'@@visu'
p1807
asg1791
(lp1808
I01
aI00
aS'@@fullDomainMux'
p1809
asg1792
(lp1810
g1793
aS'RESIDUALS'
p1811
aS'DATA'
p1812
aS'@@output_col'
p1813
asS'visu_array_config'
p1814
(lp1815
I01
aI00
aS'@@visu_array_config'
p1816
assg77
Nsg82
g83
sg80
g1798
sg84
S'MG_JEN_Cohset'
p1817
sg224
(dp1818
g1795
I00
sg1794
I00
sg1791
I00
sg1814
I00
ssg79
I00
sg107
(lp1819
g18
ag1792
ag1814
ag1794
ag1795
ag1791
asg115
(dp1820
g1795
S'if True, insert a flagger for the output uv-data'
p1821
sg1794
S'if True, visualise the output uv-data'
p1822
sg1791
S'if True, attach an extra VisDataMux'
p1823
sg1792
S'name of the logical (VisTile) output column'
p1824
sg1814
S'if True, visualise the array config (from MS)'
p1825
ssg123
S'Make sink nodes in the given Cohset object'
p1826
ssg1814
I01
ssg27
Nsg1781
(dp1827
g1795
I00
sg1794
I01
sg18
(dp1828
g20
S'MG_JEN_Cohset::make_spigots()'
p1829
sg22
g1781
sg104
S'2006-03-29 19:26'
p1830
sg23
(dp1831
S'input_col'
p1832
I01
ssg30
S'MG_JEN_Cohsetmake_spigots'
p1833
sg32
g33
sg34
S'MG_JEN_Cohset::make_spigots()  version=25dec2005  defined=2006-03-29 19:26'
p1834
sg36
S'make_spigots'
p1835
sg38
(dp1836
g1795
(lp1837
I01
aI00
aS'@@flag'
p1838
asS'MS_corr_index'
p1839
(lp1840
(lp1841
I0
aI1
aI2
aI3
aa(lp1842
I0
aI-1
aI-1
aI1
aa(lp1843
I0
aI-1
aI-1
aI3
aaS'@@MS_corr_index'
p1844
asg1832
(lp1845
g1812
ag1793
ag1811
aS'@@input_col'
p1846
asg1794
(lp1847
I01
aI00
aS'@@visu'
p1848
assg77
Nsg82
g83
sg80
g1830
sg84
S'MG_JEN_Cohset'
p1849
sg224
(dp1850
g1795
I00
sg1794
I00
ssg86
S'** Specific description of inarg record for: MG_JEN_Cohset::make_spigots()  version=25dec2005  defined=2006-03-29 19:26'
p1851
sg79
I00
sg107
(lp1852
g18
ag1832
ag1839
ag1794
ag1795
asg115
(dp1853
g1795
S'if True, insert a flagger for the input uv-data'
p1854
sg1839
S'correlations to be used: \n- [0,1,2,3]:   all corrs available, use all \n- [0,-1,-1,1]: only XX/YY (or RR/LL) available \n- [0,-1,-1,3]: all available, but use only XX/YY or RR/LL'
p1855
sg1832
S'name of the logical (VisTile) input column'
p1856
sg1794
S'if True, visualise the input uv-data'
p1857
ssg123
S'Make spigot nodes in the given Cohset object'
p1858
ssg1832
g1812
sg1839
(lp1859
I0
aI1
aI2
aI3
assg1786
(dp1860
S'[solve_imp]./MG_JEN_Cohset.Jones()'
p1861
(dp1862
S'[solve_imp]./MG_JEN_Joneset.FJones()'
p1863
(dp1864
g126
I00
sg2
S'@@polrep'
p1865
sg129
g130
sg131
I00
sg149
Nsg135
I01
sg136
I10
sg137
g138
sg141
g142
sg143
Nsg18
(dp1866
g20
S'MG_JEN_Joneset::FJones()'
p1867
sg22
g1863
sg23
(dp1868
g137
I01
sg2
I01
sg147
I01
sg25
I01
sg129
I01
sg148
I01
sg141
I01
sg26
I01
sg143
I01
sg149
I01
sg12
I01
sg27
I01
sg28
I01
sg136
I01
sg29
I01
ssg123
g367
sg32
g33
sg34
S'MG_JEN_Joneset::FJones()  version=16dec2005  defined=2006-03-29 19:26'
p1869
sg36
S'FJones'
p1870
sg38
(dp1871
g126
(lp1872
I01
aI00
aS'@@reset_funklet'
p1873
asg2
(lp1874
g3
ag41
ag1865
asg129
(lp1875
g130
aS'@@color'
p1876
asg131
(lp1877
I01
aI00
aS'@@save_all'
p1878
asg149
(lp1879
NaS'@@tfdeg'
p1880
asg135
(lp1881
I01
aI00
aS'@@auto_save'
p1882
asg136
(lp1883
I10
aS'@@size'
p1884
asg137
(lp1885
g138
aS'@@style'
p1886
asg141
(lp1887
g142
aS'@@condeq_corrs'
p1888
asg143
(lp1889
NaS'@@funklet_shape'
p1890
asg27
(lp1891
g56
aS'@@@Jsequence_KJones'
p1892
asg29
(lp1893
g56
aS'@@@Jsequence'
p1894
asg147
(lp1895
F1.0
aS'@@c00_default'
p1896
asg26
(lp1897
I00
aS'@@uvplane_effect'
p1898
asg25
(lp1899
(lp1900
I0
aI1
aI2
aI3
aI4
aa(lp1901
I0
aI1
aI2
aI3
aI4
aI5
aI6
aa(lp1902
I0
aI1
aI2
aI3
aI4
aI5
aI6
aI7
aI8
aI9
aI10
aI11
aI12
aI13
aa(lp1903
I0
aI1
aI2
aI3
aI4
aI5
aI6
aI7
aI8
aI9
aI10
aI11
aI12
aI13
aI14
aag47
aS'@@stations'
p1904
asg404
(lp1905
I0
aI1
aI2
aI3
aS'@@tdeg_RM'
p1906
asg210
(lp1907
I01
aI00
aS'@@use_previous'
p1908
asg409
(lp1909
I0
aI1
aI2
aI3
aS'@@fdeg_RM'
p1910
asg148
(lp1911
NaS'@@subtile_size'
p1912
asg12
(lp1913
Nag69
aS'@@parmtable'
p1914
asg416
(lp1915
NaI1
aI2
aI5
aI10
aI20
aI50
aI100
aI200
aI500
aS'@@subtile_size_RM'
p1916
asg28
(lp1917
g56
aS'@@@Jsequence_simul'
p1918
assg77
S'solve_imp'
p1919
sg79
I00
sg80
S'2006-03-29 19:26'
p1920
sg82
g351
sg84
S'MG_JEN_Joneset'
p1921
sg224
(dp1922
g126
I00
sg131
I00
sg135
I00
sg210
I00
ssg86
S'** Specific description of inarg record for: MG_JEN_Joneset::FJones()  version=16dec2005  defined=2006-03-29 19:26'
p1923
sg105
(dp1924
g26
I00
sg12
I00
sg2
I00
sg25
I00
ssg104
g1920
sg107
(lp1925
g18
ag25
ag2
ag29
ag28
ag27
ag12
ag26
ag404
ag409
ag416
ag210
ag135
ag131
ag126
ag129
ag137
ag136
ag147
ag149
ag143
ag148
ag141
asg115
(dp1926
g126
g230
sg2
g117
sg129
g232
sg131
g233
sg149
g246
sg135
g236
sg136
g237
sg137
g238
sg141
g239
sg143
g240
sg27
g122
sg29
g122
sg147
g242
sg26
g120
sg25
g118
sg404
g428
sg210
g244
sg409
g429
sg148
g245
sg12
g121
sg416
g430
sg28
g122
ssg30
S'MG_JEN_JonesetFJones'
p1927
ssg27
g56
sg29
g56
sg147
F1.0
sg26
g1898
sg25
g1904
sg404
I0
sg210
I01
sg409
I2
sg148
Nsg12
g1914
sg416
I1
sg28
g56
ssg27
NsS'[solve_imp]./MG_JEN_Joneset.JJones()'
p1928
(dp1929
g126
I00
sg2
S'@@polrep'
p1930
sg128
I0
sg129
g130
sg131
I00
sg132
Nsg12
S'@@parmtable'
p1931
sg134
Nsg135
I01
sg136
I10
sg137
g138
sg139
g140
sg141
g142
sg143
Nsg18
(dp1932
g20
S'MG_JEN_Joneset::JJones()'
p1933
sg22
g1928
sg23
(dp1934
g137
I01
sg2
I01
sg147
I01
sg25
I01
sg129
I01
sg148
I01
sg141
I01
sg26
I01
sg143
I01
sg149
I01
sg12
I01
sg27
I01
sg28
I01
sg136
I01
sg29
I01
ssg123
g151
sg32
g33
sg34
S'MG_JEN_Joneset::JJones()  version=14feb2006  defined=2006-03-29 19:26'
p1935
sg36
S'JJones'
p1936
sg38
(dp1937
g126
(lp1938
I01
aI00
aS'@@reset_funklet'
p1939
asg2
(lp1940
g3
ag41
ag1930
asg128
(lp1941
I0
aI1
aI2
aI3
aS'@@tdeg_Jreal'
p1942
asg129
(lp1943
g130
aS'@@color'
p1944
asg131
(lp1945
I01
aI00
aS'@@save_all'
p1946
asg132
(lp1947
Na(lp1948
I14
aa(lp1949
I1
aag167
aS'@@all4_always'
p1950
asg12
(lp1951
Nag69
ag1931
asg134
(lp1952
NaI1
aI2
aI5
aI10
aI20
aI50
aI100
aI200
aI500
aS'@@subtile_size_Jreal'
p1953
asg135
(lp1954
I01
aI00
aS'@@auto_save'
p1955
asg136
(lp1956
I10
aS'@@size'
p1957
asg137
(lp1958
g138
aS'@@style'
p1959
asg139
(lp1960
I0
aI1
aI2
aI3
ag140
aS'@@tdeg_Jimag'
p1961
asg141
(lp1962
g142
aS'@@condeq_corrs'
p1963
asg143
(lp1964
NaS'@@funklet_shape'
p1965
asg27
(lp1966
g63
aS'@@@Jsequence_KJones'
p1967
asg186
(lp1968
I0
aI1
aI2
aI3
aS'@@fdeg_Jreal'
p1969
asg147
(lp1970
F1.0
aS'@@c00_default'
p1971
asg26
(lp1972
I00
aS'@@uvplane_effect'
p1973
asg193
(lp1974
I0
aI1
aI2
aI3
ag195
aS'@@fdeg_Jimag'
p1975
asg197
(lp1976
g199
aNaI1
aI2
aI5
aI10
aI20
aI50
aI100
aI200
aI500
aS'@@subtile_size_Jimag'
p1977
asg25
(lp1978
(lp1979
I0
aI1
aI2
aI3
aI4
aa(lp1980
I0
aI1
aI2
aI3
aI4
aI5
aI6
aa(lp1981
I0
aI1
aI2
aI3
aI4
aI5
aI6
aI7
aI8
aI9
aI10
aI11
aI12
aI13
aa(lp1982
I0
aI1
aI2
aI3
aI4
aI5
aI6
aI7
aI8
aI9
aI10
aI11
aI12
aI13
aI14
aag47
aS'@@stations'
p1983
asg207
(lp1984
I01
aI00
aS'@@diagonal_only'
p1985
asg210
(lp1986
I01
aI00
aS'@@use_previous'
p1987
asg148
(lp1988
NaS'@@subtile_size'
p1989
asg149
(lp1990
NaS'@@tfdeg'
p1991
asg28
(lp1992
g63
aS'@@@Jsequence_simul'
p1993
asg29
(lp1994
g63
aS'@@@Jsequence'
p1995
assg77
g1919
sg79
I00
sg80
S'2006-03-29 19:26'
p1996
sg82
g222
sg84
S'MG_JEN_Joneset'
p1997
sg224
(dp1998
g126
I00
sg207
I00
sg131
I00
sg135
I00
sg210
I00
ssg86
S'** Specific description of inarg record for: MG_JEN_Joneset::JJones()  version=14feb2006  defined=2006-03-29 19:26'
p1999
sg105
(dp2000
g26
I00
sg12
I00
sg2
I00
sg25
I00
ssg104
g1996
sg107
(lp2001
g18
ag25
ag2
ag29
ag28
ag27
ag207
ag132
ag12
ag26
ag128
ag139
ag186
ag193
ag134
ag197
ag210
ag135
ag131
ag126
ag129
ag137
ag136
ag147
ag149
ag143
ag148
ag141
asg115
(dp2002
g126
g230
sg2
g117
sg128
g231
sg129
g232
sg131
g233
sg132
g234
sg12
g121
sg134
g235
sg135
g236
sg136
g237
sg137
g238
sg139
g231
sg141
g239
sg143
g240
sg27
g122
sg186
g241
sg147
g242
sg26
g120
sg193
g241
sg197
g235
sg25
g118
sg207
g243
sg210
g244
sg148
g245
sg149
g246
sg28
g122
sg29
g122
ssg30
S'MG_JEN_JonesetJJones'
p2003
ssg27
g63
sg186
I0
sg147
F1.0
sg26
g1973
sg193
g195
sg197
g199
sg25
g1983
sg207
I00
sg210
I01
sg148
Nsg149
Nsg28
g63
sg29
g63
ssg25
S'@@stations'
p2004
sS'[solve_imp]./MG_JEN_Joneset.BJones()'
p2005
(dp2006
g126
I00
sg2
S'@@polrep'
p2007
sg129
g130
sg280
g281
sg131
I00
sg282
Nsg135
I01
sg136
I10
sg137
g138
sg283
I5
sg141
g142
sg143
Nsg18
(dp2008
g20
S'MG_JEN_Joneset::BJones()'
p2009
sg22
g2005
sg23
(dp2010
g137
I01
sg2
I01
sg147
I01
sg25
I01
sg129
I01
sg148
I01
sg141
I01
sg26
I01
sg143
I01
sg149
I01
sg12
I01
sg27
I01
sg28
I01
sg136
I01
sg29
I01
ssg123
g288
sg32
g33
sg34
S'MG_JEN_Joneset::BJones()  version=16dec2005  defined=2006-03-29 19:26'
p2011
sg36
S'BJones'
p2012
sg38
(dp2013
g126
(lp2014
I01
aI00
aS'@@reset_funklet'
p2015
asg2
(lp2016
g3
ag41
ag2007
asg129
(lp2017
g130
aS'@@color'
p2018
asg280
(lp2019
g281
aNaI1
aI2
aI5
aI10
aI20
aI50
aI100
aI200
aI500
aS'@@subtile_size_Bimag'
p2020
asg131
(lp2021
I01
aI00
aS'@@save_all'
p2022
asg282
(lp2023
NaI1
aI2
aI5
aI10
aI20
aI50
aI100
aI200
aI500
aS'@@subtile_size_Breal'
p2024
asg135
(lp2025
I01
aI00
aS'@@auto_save'
p2026
asg136
(lp2027
I10
aS'@@size'
p2028
asg137
(lp2029
g138
aS'@@style'
p2030
asg283
(lp2031
I3
aI4
aI5
aI6
aS'@@fdeg_Breal'
p2032
asg141
(lp2033
g142
aS'@@condeq_corrs'
p2034
asg143
(lp2035
NaS'@@funklet_shape'
p2036
asg27
(lp2037
g54
aS'@@@Jsequence_KJones'
p2038
asg317
(lp2039
I0
aI1
aI2
aI3
ag319
aS'@@tdeg_Bimag'
p2040
asg29
(lp2041
g54
aS'@@@Jsequence'
p2042
asg147
(lp2043
F1.0
aS'@@c00_default'
p2044
asg325
(lp2045
I3
aI4
aI5
aI6
ag327
aS'@@fdeg_Bimag'
p2046
asg26
(lp2047
I00
aS'@@uvplane_effect'
p2048
asg12
(lp2049
Nag69
aS'@@parmtable'
p2050
asg25
(lp2051
(lp2052
I0
aI1
aI2
aI3
aI4
aa(lp2053
I0
aI1
aI2
aI3
aI4
aI5
aI6
aa(lp2054
I0
aI1
aI2
aI3
aI4
aI5
aI6
aI7
aI8
aI9
aI10
aI11
aI12
aI13
aa(lp2055
I0
aI1
aI2
aI3
aI4
aI5
aI6
aI7
aI8
aI9
aI10
aI11
aI12
aI13
aI14
aag47
aS'@@stations'
p2056
asg339
(lp2057
I0
aI1
aI2
aI3
aS'@@tdeg_Breal'
p2058
asg210
(lp2059
I01
aI00
aS'@@use_previous'
p2060
asg148
(lp2061
NaS'@@subtile_size'
p2062
asg149
(lp2063
NaS'@@tfdeg'
p2064
asg28
(lp2065
g54
aS'@@@Jsequence_simul'
p2066
assg77
g1919
sg79
I00
sg80
S'2006-03-29 19:26'
p2067
sg82
g351
sg84
S'MG_JEN_Joneset'
p2068
sg224
(dp2069
g126
I00
sg131
I00
sg135
I00
sg210
I00
ssg86
S'** Specific description of inarg record for: MG_JEN_Joneset::BJones()  version=16dec2005  defined=2006-03-29 19:26'
p2070
sg105
(dp2071
g26
I00
sg12
I00
sg2
I00
sg25
I00
ssg104
g2067
sg107
(lp2072
g18
ag25
ag2
ag29
ag28
ag27
ag12
ag26
ag339
ag317
ag283
ag325
ag282
ag280
ag210
ag135
ag131
ag126
ag129
ag137
ag136
ag147
ag149
ag143
ag148
ag141
asg115
(dp2073
g126
g230
sg2
g117
sg129
g232
sg280
g358
sg131
g233
sg282
g358
sg135
g236
sg136
g237
sg137
g238
sg283
g359
sg141
g239
sg143
g240
sg27
g122
sg317
g360
sg29
g122
sg147
g242
sg325
g359
sg26
g120
sg12
g121
sg25
g118
sg339
g360
sg210
g244
sg148
g245
sg149
g246
sg28
g122
ssg30
S'MG_JEN_JonesetBJones'
p2074
ssg27
g54
sg317
g319
sg29
g54
sg147
F1.0
sg325
g327
sg26
g2048
sg25
g2056
sg149
Nsg339
I0
sg210
I01
sg148
Nsg12
g2050
sg28
g54
ssS'[solve_imp]./MG_JEN_Joneset.DJones_WSRT()'
p2075
(dp2076
g126
I00
sg2
S'@@polrep'
p2077
sg129
g130
sg520
g521
sg522
I01
sg131
I00
sg12
S'@@parmtable'
p2078
sg524
Nsg135
I01
sg136
I10
sg137
g138
sg141
g142
sg143
Nsg18
(dp2079
g20
S'MG_JEN_Joneset::DJones_WSRT()'
p2080
sg22
g2075
sg23
(dp2081
g137
I01
sg2
I01
sg147
I01
sg25
I01
sg129
I01
sg148
I01
sg141
I01
sg26
I01
sg143
I01
sg149
I01
sg12
I01
sg27
I01
sg28
I01
sg136
I01
sg29
I01
ssg123
g529
sg32
g33
sg34
S'MG_JEN_Joneset::DJones_WSRT()  version=16dec2005  defined=2006-03-29 19:26'
p2082
sg36
S'DJones_WSRT'
p2083
sg38
(dp2084
g126
(lp2085
I01
aI00
aS'@@reset_funklet'
p2086
asg2
(lp2087
g3
ag41
ag2077
asg129
(lp2088
g130
aS'@@color'
p2089
asg520
(lp2090
I0
aI1
aI2
aI3
ag521
aS'@@fdeg_Dell'
p2091
asg522
(lp2092
I01
aI00
aS'@@coupled_XY_Dell'
p2093
asg131
(lp2094
I01
aI00
aS'@@save_all'
p2095
asg12
(lp2096
Nag69
ag2078
asg524
(lp2097
NaI1
aI2
aI5
aI10
aI20
aI50
aI100
aI200
aI500
aS'@@subtile_size_Dang'
p2098
asg135
(lp2099
I01
aI00
aS'@@auto_save'
p2100
asg136
(lp2101
I10
aS'@@size'
p2102
asg137
(lp2103
g138
aS'@@style'
p2104
asg141
(lp2105
g142
aS'@@condeq_corrs'
p2106
asg143
(lp2107
NaS'@@funklet_shape'
p2108
asg27
(lp2109
g60
aS'@@@Jsequence_KJones'
p2110
asg559
(lp2111
g561
aNaI1
aI2
aI5
aI10
aI20
aI50
aI100
aI200
aI500
aS'@@subtile_size_Dell'
p2112
asg29
(lp2113
g60
aS'@@@Jsequence'
p2114
asg565
(lp2115
I0
aI1
aI2
aI3
aS'@@fdeg_Dang'
p2116
asg147
(lp2117
F1.0
aS'@@c00_default'
p2118
asg26
(lp2119
I00
aS'@@uvplane_effect'
p2120
asg572
(lp2121
I0
aI1
aI2
aI3
ag574
aS'@@tdeg_Dell'
p2122
asg576
(lp2123
I01
aI00
aS'@@coupled_XY_Dang'
p2124
asg579
(lp2125
I0
aI1
aI2
aI3
aS'@@tdeg_Dang'
p2126
asg25
(lp2127
(lp2128
I0
aI1
aI2
aI3
aI4
aa(lp2129
I0
aI1
aI2
aI3
aI4
aI5
aI6
aa(lp2130
I0
aI1
aI2
aI3
aI4
aI5
aI6
aI7
aI8
aI9
aI10
aI11
aI12
aI13
aa(lp2131
I0
aI1
aI2
aI3
aI4
aI5
aI6
aI7
aI8
aI9
aI10
aI11
aI12
aI13
aI14
aag47
aS'@@stations'
p2132
asg210
(lp2133
I01
aI00
aS'@@use_previous'
p2134
asg148
(lp2135
NaS'@@subtile_size'
p2136
asg149
(lp2137
NaS'@@tfdeg'
p2138
asg28
(lp2139
g60
aS'@@@Jsequence_simul'
p2140
assg77
g1919
sg79
I00
sg80
S'2006-03-29 19:26'
p2141
sg82
g351
sg84
S'MG_JEN_Joneset'
p2142
sg224
(dp2143
g126
I00
sg522
I00
sg131
I00
sg576
I00
sg210
I00
sg135
I00
ssg86
S'** Specific description of inarg record for: MG_JEN_Joneset::DJones_WSRT()  version=16dec2005  defined=2006-03-29 19:26'
p2144
sg105
(dp2145
g26
I00
sg12
I00
sg2
I00
sg25
I00
ssg104
g2141
sg107
(lp2146
g18
ag25
ag2
ag29
ag28
ag27
ag576
ag522
ag12
ag26
ag579
ag572
ag565
ag520
ag524
ag559
ag210
ag135
ag131
ag126
ag129
ag137
ag136
ag147
ag149
ag143
ag148
ag141
asg115
(dp2147
g126
g230
sg2
g117
sg129
g232
sg520
g603
sg522
g604
sg131
g233
sg12
g121
sg524
g605
sg135
g236
sg136
g237
sg137
g238
sg141
g239
sg143
g240
sg27
g122
sg559
g605
sg29
g122
sg565
g603
sg147
g242
sg26
g120
sg572
g606
sg576
g607
sg579
g606
sg25
g118
sg210
g244
sg148
g245
sg149
g246
sg28
g122
ssg30
S'MG_JEN_JonesetDJones_WSRT'
p2148
ssg27
g60
sg559
g561
sg29
g60
sg565
I0
sg147
F1.0
sg26
g2120
sg572
g574
sg576
I01
sg579
I0
sg25
g2132
sg210
I01
sg148
Nsg149
Nsg28
g60
ssg26
S'@@uvplane_effect'
p2149
sg12
S'@@parmtable'
p2150
sg18
(dp2151
g20
g21
sg22
g1861
sg23
(dp2152
g2
I01
sg25
I01
sg26
I01
sg12
I01
sg27
I01
sg28
I01
sg29
I01
ssg30
S'MG_JEN_CohsetJones'
p2153
sg32
g33
sg123
g124
sg34
S'MG_JEN_Cohset::Jones()  version=25dec2005  defined=2006-03-29 19:26'
p2154
sg36
S'Jones'
p2155
sg38
(dp2156
g2
(lp2157
g3
ag41
aS'@@polrep'
p2158
asg25
(lp2159
(lp2160
I0
aI1
aI2
aI3
aI4
aa(lp2161
I0
aI1
aI2
aI3
aI4
aI5
aI6
aa(lp2162
I0
aI1
aI2
aI3
aI4
aI5
aI6
aI7
aI8
aI9
aI10
aI11
aI12
aI13
aa(lp2163
I0
aI1
aI2
aI3
aI4
aI5
aI6
aI7
aI8
aI9
aI10
aI11
aI12
aI13
aI14
aag47
ag2004
asg26
(lp2164
I00
ag2149
asg12
(lp2165
Nag69
ag2150
asg27
(lp2166
NaS'@@@Jsequence_KJones'
p2167
asg28
(lp2168
NaS'@@@Jsequence_simul'
p2169
asS'Jsequence_solve_imp'
p2170
(lp2171
(lp2172
g52
aa(lp2173
g54
aa(lp2174
g56
aa(lp2175
g58
aa(lp2176
g60
aa(lp2177
g52
ag60
aa(lp2178
g63
aa(lp2179
aS'@@Jsequence_solve_imp'
p2180
asg29
(lp2181
NaS'@@@Jsequence'
p2182
assg77
g1919
sg79
I00
sg80
S'2006-03-29 19:26'
p2183
sg82
g83
sg84
S'MG_JEN_Cohset'
p2184
sg86
S'** Specific description of inarg record for: MG_JEN_Cohset::Jones()  version=25dec2005  defined=2006-03-29 19:26'
p2185
sg88
(dp2186
g90
S'** JEN_inarg.attach(): attached: [solve_imp]./MG_JEN_Joneset.FJones()'
p2187
sg92
S'** JEN_inarg.attach(): attached: [solve_imp]./MG_JEN_Joneset.GJones()'
p2188
sg94
S'** JEN_inarg.attach(): attached: [solve_imp]./MG_JEN_Joneset.KJones()'
p2189
sg96
S'** JEN_inarg.attach(): attached: [solve_imp]./MG_JEN_Joneset.BJones()'
p2190
sg98
S'** JEN_inarg.attach(): attached: [solve_imp]./MG_JEN_Joneset.JJones()'
p2191
sg100
S'** JEN_inarg.attach(): attached: [solve_imp]./MG_JEN_Joneset.DJones_WSRT()'
p2192
ssg104
g2183
sg105
(dp2193
g26
I00
sg12
I00
sg2
I00
sg25
I00
ssg107
(lp2194
g18
ag25
ag2
ag29
ag28
ag27
ag12
ag26
ag2170
aS'[solve_imp]./MG_JEN_Joneset.GJones()'
p2195
ag1863
ag2005
aS'[solve_imp]./MG_JEN_Joneset.KJones()'
p2196
ag2075
ag1928
asg115
(dp2197
g2
g117
sg25
g118
sg26
g120
sg12
g121
sg27
g122
sg28
g122
sg2170
g119
sg29
g122
sssg2195
(dp2198
g126
I00
sg2
S'@@polrep'
p2199
sg433
I0
sg129
g130
sg131
I00
sg12
S'@@parmtable'
p2200
sg135
I01
sg136
I10
sg137
g138
sg435
I1
sg141
g142
sg143
Nsg18
(dp2201
g20
S'MG_JEN_Joneset::GJones()'
p2202
sg22
g2195
sg23
(dp2203
g136
I01
sg137
I01
sg2
I01
sg147
I01
sg25
I01
sg129
I01
sg148
I01
sg141
I01
sg26
I01
sg143
I01
sg149
I01
sg12
I01
sg27
I01
sg28
I01
sg439
I01
sg29
I01
ssg123
g441
sg32
g33
sg34
S'MG_JEN_Joneset::GJones()  version=15dec2005  defined=2006-03-29 19:26'
p2204
sg36
S'GJones'
p2205
sg38
(dp2206
g126
(lp2207
I01
aI00
aS'@@reset_funklet'
p2208
asg2
(lp2209
g3
ag41
ag2199
asg433
(lp2210
I0
aI1
aI2
aI3
aS'@@fdeg_Ggain'
p2211
asg129
(lp2212
g130
aS'@@color'
p2213
asg131
(lp2214
I01
aI00
aS'@@save_all'
p2215
asg12
(lp2216
Nag69
ag2200
asg135
(lp2217
I01
aI00
aS'@@auto_save'
p2218
asg136
(lp2219
I10
aS'@@size'
p2220
asg137
(lp2221
g138
aS'@@style'
p2222
asg435
(lp2223
NaI1
aI2
aI5
aI10
aI20
aI50
aI100
aI200
aI500
aS'@@subtile_size_Ggain'
p2224
asg141
(lp2225
g142
aS'@@condeq_corrs'
p2226
asg143
(lp2227
NaS'@@funklet_shape'
p2228
asg27
(lp2229
g52
aS'@@@Jsequence_KJones'
p2230
asg29
(lp2231
g52
aS'@@@Jsequence'
p2232
asg147
(lp2233
F1.0
aS'@@c00_default'
p2234
asg473
(lp2235
I0
aI1
aI2
aI3
ag475
aS'@@tdeg_Gphase'
p2236
asg477
(lp2237
I0
aI1
aI2
aI3
aS'@@tdeg_Ggain'
p2238
asg480
(lp2239
I0
aI1
aI2
aI3
ag482
aS'@@fdeg_Gphase'
p2240
asg484
(lp2241
g486
aNaI1
aI2
aI5
aI10
aI20
aI50
aI100
aI200
aI500
aS'@@subtile_size_Gphase'
p2242
asg439
(lp2243
I01
aI00
aS'@@Gpolar'
p2244
asg26
(lp2245
I00
aS'@@uvplane_effect'
p2246
asg25
(lp2247
(lp2248
I0
aI1
aI2
aI3
aI4
aa(lp2249
I0
aI1
aI2
aI3
aI4
aI5
aI6
aa(lp2250
I0
aI1
aI2
aI3
aI4
aI5
aI6
aI7
aI8
aI9
aI10
aI11
aI12
aI13
aa(lp2251
I0
aI1
aI2
aI3
aI4
aI5
aI6
aI7
aI8
aI9
aI10
aI11
aI12
aI13
aI14
aag47
aS'@@stations'
p2252
asg210
(lp2253
I01
aI00
aS'@@use_previous'
p2254
asg148
(lp2255
NaS'@@subtile_size'
p2256
asg149
(lp2257
NaS'@@tfdeg'
p2258
asg28
(lp2259
g52
aS'@@@Jsequence_simul'
p2260
assg77
g1919
sg79
I00
sg80
S'2006-03-29 19:26'
p2261
sg82
g507
sg84
S'MG_JEN_Joneset'
p2262
sg224
(dp2263
g126
I00
sg439
I00
sg131
I00
sg135
I00
sg210
I00
ssg86
S'** Specific description of inarg record for: MG_JEN_Joneset::GJones()  version=15dec2005  defined=2006-03-29 19:26'
p2264
sg105
(dp2265
g26
I00
sg12
I00
sg2
I00
sg25
I00
ssg104
g2261
sg107
(lp2266
g18
ag25
ag2
ag29
ag28
ag27
ag439
ag12
ag26
ag477
ag473
ag433
ag480
ag435
ag484
ag210
ag135
ag131
ag126
ag129
ag137
ag136
ag147
ag149
ag143
ag148
ag141
asg115
(dp2267
g126
g230
sg2
g117
sg433
g514
sg129
g232
sg131
g233
sg12
g121
sg135
g236
sg136
g237
sg137
g238
sg435
g515
sg141
g239
sg143
g240
sg27
g122
sg29
g122
sg147
g242
sg473
g516
sg477
g516
sg480
g514
sg484
g515
sg439
g517
sg26
g120
sg25
g118
sg210
g244
sg148
g245
sg149
g246
sg28
g122
ssg30
S'MG_JEN_JonesetGJones'
p2268
ssg27
g52
sg29
g52
sg147
F1.0
sg473
g475
sg477
I0
sg480
g482
sg484
g486
sg439
I01
sg26
g2246
sg25
g2252
sg210
I01
sg148
Nsg149
Nsg28
g52
ssg2
g2158
sg28
Nsg2196
(dp2269
g2
S'@@polrep'
p2270
sg25
S'@@stations'
p2271
sg18
(dp2272
g20
S'MG_JEN_Joneset::KJones()'
p2273
sg22
g2196
sg23
(dp2274
g27
I01
sg28
I01
sg29
I01
sg2
I01
sg25
I01
ssg123
g254
sg32
g33
sg34
S'MG_JEN_Joneset::KJones()  version=12dec2005  defined=2006-03-29 19:26'
p2275
sg36
S'KJones'
p2276
sg38
(dp2277
g27
(lp2278
g58
aS'@@@Jsequence_KJones'
p2279
asg28
(lp2280
g58
aS'@@@Jsequence_simul'
p2281
asg29
(lp2282
g58
aS'@@@Jsequence'
p2283
asg2
(lp2284
g3
ag41
ag2270
asg25
(lp2285
(lp2286
I0
aI1
aI2
aI3
aI4
aa(lp2287
I0
aI1
aI2
aI3
aI4
aI5
aI6
aa(lp2288
I0
aI1
aI2
aI3
aI4
aI5
aI6
aI7
aI8
aI9
aI10
aI11
aI12
aI13
aa(lp2289
I0
aI1
aI2
aI3
aI4
aI5
aI6
aI7
aI8
aI9
aI10
aI11
aI12
aI13
aI14
aag47
ag2271
assg77
g1919
sg79
I00
sg80
S'2006-03-29 19:26'
p2290
sg82
g271
sg84
S'MG_JEN_Joneset'
p2291
sg86
S'** Specific description of inarg record for: MG_JEN_Joneset::KJones()  version=12dec2005  defined=2006-03-29 19:26'
p2292
sg105
(dp2293
g2
I00
sg25
I00
ssg104
g2290
sg107
(lp2294
g18
ag25
ag2
ag29
ag28
ag27
asg115
(dp2295
g27
g122
sg28
g122
sg29
g122
sg2
g117
sg25
g118
ssg30
S'MG_JEN_JonesetKJones'
p2296
ssg27
g58
sg28
g58
sg29
g58
ssg2170
(lp2297
sg29
Nssg2
S'@@polrep'
p2298
sg25
S'@@stations'
p2299
sg18
(dp2300
g20
g1145
sg22
g1786
sg23
(dp2301
g27
I01
sg28
I01
sg29
I01
sg2
I01
sg25
I01
ssg30
S'MG_JEN_Cohsetpredict_lsm'
p2302
sg32
g33
sg34
S'MG_JEN_Cohset::predict_lsm()  version=20mar2006  defined=2006-03-29 19:26'
p2303
sg36
S'predict_lsm'
p2304
sg38
(dp2305
g2
(lp2306
g3
ag41
ag2298
asg25
(lp2307
(lp2308
I0
aI1
aI2
aI3
aI4
aa(lp2309
I0
aI1
aI2
aI3
aI4
aI5
aI6
aa(lp2310
I0
aI1
aI2
aI3
aI4
aI5
aI6
aI7
aI8
aI9
aI10
aI11
aI12
aI13
aa(lp2311
I0
aI1
aI2
aI3
aI4
aI5
aI6
aI7
aI8
aI9
aI10
aI11
aI12
aI13
aI14
aag47
ag2299
asg1157
(lp2312
I1
aI2
aI3
aI5
aI10
aI20
aI100
aS'@@nr_lsm_sources'
p2313
asg27
(lp2314
NaS'@@@Jsequence_KJones'
p2315
asg28
(lp2316
NaS'@@@Jsequence_simul'
p2317
asg29
(lp2318
NaS'@@@Jsequence'
p2319
assg77
g1023
sg79
I00
sg80
S'2006-03-29 19:26'
p2320
sg82
g1168
sg84
S'MG_JEN_Cohset'
p2321
sg86
S'** Specific description of inarg record for: MG_JEN_Cohset::predict_lsm()  version=20mar2006  defined=2006-03-29 19:26'
p2322
sg88
(dp2323
g90
S'  1: ..[solve]./MG_JEN_Cohset.predict_lsm() (qual=None): .modify(nr_lsm_sources):   1  ->  100'
p2324
sg92
S'** JEN_inarg.attach(): attached: [solve_imp]./MG_JEN_Cohset.Jones()'
p2325
ssg104
g2320
sg105
(dp2326
g2
I00
sg25
I00
ssg107
(lp2327
g18
ag1157
ag25
ag2
ag29
ag28
ag27
ag1861
asg115
(dp2328
g2
g117
sg25
g118
sg1157
g1178
sg27
g122
sg28
g122
sg29
g122
ssg123
g1179
ssg1157
I100
sg27
Nsg28
Nsg29
Nssg29
Nsg1653
g609
sg1669
g1697
sg26
I01
sg1661
Nsg1784
(dp2329
g2
S'@@polrep'
p2330
sg25
S'@@stations'
p2331
sg18
(dp2332
g20
g1621
sg22
g1784
sg23
(dp2333
g27
I01
sg28
I01
sg29
I01
sg2
I01
sg25
I01
ssg30
S'MG_JEN_Cohsetpredict_cps'
p2334
sg32
g33
sg34
S'MG_JEN_Cohset::predict_cps()  version=20mar2006  defined=2006-03-29 19:26'
p2335
sg36
S'predict_cps'
p2336
sg38
(dp2337
g27
(lp2338
NaS'@@@Jsequence_KJones'
p2339
asg28
(lp2340
NaS'@@@Jsequence_simul'
p2341
asg29
(lp2342
NaS'@@@Jsequence'
p2343
asg2
(lp2344
g3
ag41
ag2330
asg25
(lp2345
(lp2346
I0
aI1
aI2
aI3
aI4
aa(lp2347
I0
aI1
aI2
aI3
aI4
aI5
aI6
aa(lp2348
I0
aI1
aI2
aI3
aI4
aI5
aI6
aI7
aI8
aI9
aI10
aI11
aI12
aI13
aa(lp2349
I0
aI1
aI2
aI3
aI4
aI5
aI6
aI7
aI8
aI9
aI10
aI11
aI12
aI13
aI14
aag47
ag2331
assg77
g1166
sg79
I00
sg80
S'2006-03-29 19:26'
p2350
sg82
g1168
sg84
S'MG_JEN_Cohset'
p2351
sg86
S'** Specific description of inarg record for: MG_JEN_Cohset::predict_cps()  version=20mar2006  defined=2006-03-29 19:26'
p2352
sg105
(dp2353
g2
I00
sg25
I00
ssg104
g2350
sg107
(lp2354
g18
ag25
ag2
ag29
ag28
ag27
asg115
(dp2355
g27
g122
sg28
g122
sg29
g122
sg2
g117
sg25
g118
ssg123
g1179
ssg27
Nsg28
Nsg29
Nssg1649
F0.0
sg1651
I00
sg1664
I1
sg25
g1691
sg1788
(dp2356
g6
S'finishing touches'
p2357
ssg1780
(dp2358
S'channel_start_index'
p2359
I0
sS'data_column_name'
p2360
S'CORRECTED_DATA'
p2361
sS'predict_column'
p2362
g2361
sg10
S'@@ms_name'
p2363
sg18
(dp2364
g22
g1780
sg115
(dp2365
g2359
S'(inputrec.sel) index of first selected freq channel'
p2366
sg2360
S'(inputrec) MS input column'
p2367
sg2362
S'MS output column to be associated with the VisTile predict-column'
p2368
sg10
g1658
sg1664
g1665
sS'channel_increment'
p2369
S'(inputrec.sel) take every nth channel (1=all)'
p2370
sS'channel_end_index'
p2371
S'(inputrec.sel) index of last selected freq channel'
p2372
sS'write_flags'
p2373
S'(outputrec) if True, write flags to MS'
p2374
ssg32
g33
sg84
S'MG_JEN_exec'
p2375
sg23
(dp2376
g10
I01
sg1664
I01
ssg1670
(dp2377
g10
g1672
ssg82
S'20jan2006'
p2378
sg105
(dp2379
g10
I00
sg1664
I00
ssg123
S'** Description of script: MG_JEN_exec::stream_control()  version=20jan2006  defined=2006-03-29 19:26'
p2380
sg224
(dp2381
g2373
I00
ssg34
S'MG_JEN_exec::stream_control()  version=20jan2006  defined=2006-03-29 19:26'
p2382
sg38
(dp2383
g2359
(lp2384
I0
aI5
aI10
aI20
aS'@@channel_start_index'
p2385
asg2360
(lp2386
g1812
ag2361
aS'@@data_column_name'
p2387
asg2362
(lp2388
g1812
ag2361
aS'MODEL_DATA'
p2389
aS'@@predict_column'
p2390
asg10
(lp2391
g11
ag2363
asg1664
(lp2392
I1
aI2
aI3
aI5
aI10
aI20
aI50
aI100
aS'@@tile_size'
p2393
asg2369
(lp2394
I1
aI2
aI3
aI5
aI10
aS'@@channel_increment'
p2395
asg2371
(lp2396
I-1
aI25
aI50
aI100
aS'@@channel_end_index'
p2397
asg2373
(lp2398
I01
aI00
aS'@@write_flags'
p2399
assg77
Nsg104
S'2006-03-29 19:26'
p2400
sg20
S'MG_JEN_exec::stream_control()'
p2401
sg86
S'** Specific description of inarg record for: MG_JEN_exec::stream_control()  version=20jan2006  defined=2006-03-29 19:26'
p2402
sg30
S'MG_JEN_execstream_control'
p2403
sg36
S'stream_control'
p2404
sg79
I00
sg80
g2400
sg88
(dp2405
g90
S'  1: .../MG_JEN_exec.stream_control() (qual=None): .modify(channel_start_index):   10  ->  0'
p2406
sg92
S'  1: .../MG_JEN_exec.stream_control() (qual=None): .modify(data_column_name):   DATA  ->  CORRECTED_DATA'
p2407
sg96
S'  1: .../MG_JEN_exec.stream_control() (qual=None): .modify(channel_end_index):   50  ->  -1'
p2408
ssg107
(lp2409
g18
ag10
ag1664
ag2360
ag2359
ag2371
ag2369
ag2373
ag2362
assg1664
g2393
sg2369
I1
sg2371
I-1
sg2373
I00
ssg1655
I00
sg1785
(dp2410
g6
S'solver-branch (ParmSet)'
p2411
ssg1782
(dp2412
g6
S'uv-data simulation (LeafSet)'
p2413
ssg1659
I01
sg28
Nsg1783
(dp2414
g1005
F1000000.0
sg126
I00
sg1006
F0.0
sg1007
I00
sg129
g130
sg131
I00
sg1008
g1009
sg12
g13
sg1010
I-10
sg135
I01
sg136
I10
sg137
g138
sg1011
F1.0
sg148
Nsg141
g142
sg1012
Nsg143
Nsg1013
F0.0
sg18
(dp2415
g20
g1015
sg22
g1783
sg104
S'2006-03-29 19:26'
p2416
sg23
(dp2417
g1005
I01
sg1006
I01
sg1007
I01
sg1018
I01
sg147
I01
sg143
I01
sg129
I01
sg1008
I01
sg1019
I01
sg1020
I00
sg148
I01
sg1013
I01
sg141
I01
sg149
I01
sg137
I01
sg1021
I01
sg136
I01
ssg30
S'MG_JEN_Sixpacknewstar_source'
p2418
sg77
g1166
sg32
g33
sg34
S'MG_JEN_Sixpack::newstar_source()  version=10feb2006  defined=2006-03-29 19:26'
p2419
sg36
S'newstar_source'
p2420
sg38
(dp2421
g1005
(lp2422
F1000000.0
aS'@@f0'
p2423
asg126
(lp2424
I01
aI00
aS'@@reset_funklet'
p2425
asg1006
(lp2426
F0.0
aF1.0
aF10.0
aF100.0
aS'@@major'
p2427
asg1007
(lp2428
I01
aI00
aS'@@unsolvable'
p2429
asg129
(lp2430
g130
aS'@@color'
p2431
asg131
(lp2432
I01
aI00
aS'@@save_all'
p2433
asg1008
(lp2434
g1009
ag1040
aS'@@shape'
p2435
asg12
(lp2436
NaS'@@parmtable'
p2437
asg1010
(lp2438
NaF-0.10000000000000001
aF0.050000000000000003
aF-0.01
aS'@@Upct'
p2439
asg135
(lp2440
I01
aI00
aS'@@auto_save'
p2441
asg136
(lp2442
I10
aS'@@size'
p2443
asg137
(lp2444
g138
aS'@@style'
p2445
asg1011
(lp2446
F1.0
aF10.0
aS'@@I0'
p2447
asg148
(lp2448
NaS'@@subtile_size'
p2449
asg141
(lp2450
g142
aS'@@condeq_corrs'
p2451
asg1012
(lp2452
NaF0.01
aF-0.0050000000000000001
aF0.001
aS'@@Vpct'
p2453
asg143
(lp2454
NaS'@@funklet_shape'
p2455
asg1013
(lp2456
F0.0
aF1.0
aF-0.5
aS'@@pa'
p2457
asg1064
(lp2458
F0.0
aF0.5
aF1.0
aF1.4950000000000001
aF4.3570000000000002
aS'@@RA'
p2459
asg1067
(lp2460
NaF1.0
aF3.0
aF10.0
aF-10.0
aF60.0
aS'@@RM'
p2461
asg1021
(lp2462
F0.0
aF0.5
aF5.0
aF50.0
aS'@@minor'
p2463
asg147
(lp2464
F1.0
aS'@@c00_default'
p2465
asg1074
(lp2466
NaF0.10000000000000001
aF-0.050000000000000003
aF0.01
aS'@@Qpct'
p2467
asg1020
(lp2468
g1078
ag1079
ag1080
ag1081
ag1082
ag1083
ag1084
ag1085
ag1086
ag1087
ag1088
ag1089
ag1090
ag1091
ag1092
aS'@@punit'
p2469
asg1094
(lp2470
F0.5
aF1.0
aF0.87
aF1.0920000000000001
aS'@@Dec'
p2471
asg1018
(lp2472
NaS'@@name'
p2473
asg1019
(lp2474
I01
aI00
aS'@@fsr_trace'
p2475
asg210
(lp2476
I01
aI00
aS'@@use_previous'
p2477
asg1103
(lp2478
NaF-0.69999999999999996
a(lp2479
F0.44700000000000001
aF-0.184
aaS'@@SI'
p2480
asg149
(lp2481
NaS'@@tfdeg'
p2482
assg1109
(dp2483
g1020
I01
ssg82
g1111
sg80
g2416
sg84
S'MG_JEN_Sixpack'
p2484
sg224
(dp2485
g126
I00
sg1007
I00
sg1019
I00
sg131
I00
sg210
I00
sg135
I00
ssg86
S'** Specific description of inarg record for: MG_JEN_Sixpack::newstar_source()  version=10feb2006  defined=2006-03-29 19:26'
p2486
sg88
(dp2487
g90
S'  1: ..[simul]./MG_JEN_Sixpack.newstar_source() (qual=None): .modify(Qpct):   None  ->  10'
p2488
sg92
S'  1: ..[simul]./MG_JEN_Sixpack.newstar_source() (qual=None): .modify(parmtable):   None  ->  simul_lsm_DJones'
p2489
sg94
S'  1: ..[simul]./MG_JEN_Sixpack.newstar_source() (qual=None): .modify(punit):   unpol  ->  QU'
p2490
sg96
S'  1: ..[simul]./MG_JEN_Sixpack.newstar_source() (qual=None): .modify(Upct):   None  ->  -10'
p2491
ssg79
I00
sg107
(lp2492
g18
ag1020
ag1018
ag12
ag1007
ag1011
ag1074
ag1010
ag1012
ag1067
ag1103
ag1005
ag1064
ag1094
ag1019
ag1008
ag1006
ag1021
ag1013
ag210
ag135
ag131
ag126
ag129
ag137
ag136
ag147
ag149
ag143
ag148
ag141
asg115
(dp2493
g1005
g1122
sg126
g230
sg1006
g1123
sg1007
g1124
sg129
g232
sg131
g233
sg1008
g1125
sg12
g1126
sg1010
g1127
sg135
g236
sg136
g237
sg137
g238
sg1011
g1128
sg148
g245
sg141
g239
sg1012
g1129
sg143
g240
sg1013
g1130
sg1064
g1131
sg1067
g1132
sg1021
g1133
sg147
g242
sg1074
g1134
sg1020
S'name of calibrator source/patch \n- unpol:   unpolarised, I=1Jy \n- unpol2:  idem, I=2Jy \n- unpol10: idem, I=10Jy \n- RMtest:  Rotation Measure \n- SItest:  Spectral Index \n- QUV:     non-zero Q,U,V \n- QU:      non-zero Q,U \n- QU2:     stronger version of QU \n- Qonly:   non-zero Q \n- Uonly:   non-zero U \n- Vonly:   non-zero V \n- 3c286:   \n- 3c48:    \n- 3c295:   \n- 3c147:   \n- D1:      cps in D1.MS \n'
p2494
sg1094
g1136
sg1019
g1137
sg210
g244
sg1103
g1138
sg149
g246
ssg123
g1139
ssg1067
Nsg1021
F0.0
sg1064
F1.4950000000000001
sg147
F1.0
sg1074
I10
sg1020
g1082
sg1094
F0.87
sg1018
Nsg1019
I01
sg210
I01
sg1103
Nsg149
Nssg1787
(dp2495
S'correct_after'
p2496
I01
sg1651
S'@@master_reqseq'
p2497
sS'condeq_unop'
p2498
Nsg1794
I01
sg1655
S'@@redun'
p2499
sS'solver_subtree'
p2500
NsS'subtract_after'
p2501
I00
sg1659
S'@@chain_solvers'
p2502
sg18
(dp2503
g20
S'MG_JEN_Cohset::insert_solver()'
p2504
sg22
g1787
sg23
(dp2505
g1651
I01
sg1655
I01
sg2500
I01
sg1659
I01
sS'flag_residuals'
p2506
I01
sg1661
I01
ssg30
S'MG_JEN_Cohsetinsert_solver'
p2507
sg32
g33
sg34
S'MG_JEN_Cohset::insert_solver()  version=25dec2005  defined=2006-03-29 19:26'
p2508
sg36
S'insert_solver'
p2509
sg38
(dp2510
g2496
(lp2511
I01
aI00
aS'@@correct_after'
p2512
asg1651
(lp2513
I01
aI00
ag2497
asg2498
(lp2514
NaS'Abs'
p2515
aS'Arg'
p2516
aS'@@condeq_unop'
p2517
asg1794
(lp2518
I01
aI00
aS'@@visu'
p2519
asg1655
(lp2520
I01
aI00
ag2499
asg2500
(lp2521
NaS'@@solver_subtree'
p2522
asg2501
(lp2523
I01
aI00
aS'@@subtract_after'
p2524
asg1659
(lp2525
I01
ag2502
asg2506
(lp2526
I01
aI00
aS'@@flag_residuals'
p2527
asg1661
(lp2528
Na(lp2529
I5
aI2
aa(lp2530
I2
aI2
aa(lp2531
I3
aI3
aaS'@@num_cells'
p2532
assg77
Nsg79
I00
sg80
S'2006-03-29 19:26'
p2533
sg82
g83
sg84
S'MG_JEN_Cohset'
p2534
sg224
(dp2535
g2496
I00
sg1651
I00
sg1794
I00
sg1655
I00
sg2501
I00
sg2506
I00
ssg86
S'** Specific description of inarg record for: MG_JEN_Cohset::insert_solver()  version=25dec2005  defined=2006-03-29 19:26'
p2536
sg88
(dp2537
g92
S'** JEN_inarg.attach(): attached: ./MG_JEN_Cohset.solver_subtree()'
p2538
ssg104
g2533
sg105
(dp2539
g1655
I00
sg1659
I00
sg1651
I00
sg1661
I00
ssg107
(lp2540
g18
ag2500
ag1655
ag1661
ag1659
ag1651
ag2498
ag1794
ag2501
ag2496
ag2506
aS'./MG_JEN_Cohset.solver_subtree()'
p2541
asg115
(dp2542
g2496
S'if True, correct measured with predicted.Joneset'
p2543
sg1651
g1652
sg2498
S'Optional unary operation on Condeq inputs'
p2544
sg1794
S'if True, include full visualisation'
p2545
sg1655
g1656
sg2500
S'solver subtree qualifier(s)'
p2546
sg2501
S'if True, subtract predicted from measured'
p2547
sg1659
g1660
sg2506
S'if True, flag the residuals'
p2548
sg1661
g1662
ssg123
S'insert one or more solver subtrees in the data stream'
p2549
ssg1661
g2532
sg2541
(dp2550
S'rmin'
p2551
NsS'setBalanced'
p2552
I00
sg1794
I01
sS'epsilon'
p2553
F0.0001
sS'rmax'
p2554
NsS'derivative_eps'
p2555
F1e-08
sS'usesvd'
p2556
I01
sS'debug_level'
p2557
I10
sS'solvegroup'
p2558
(lp2559
S'DJones'
p2560
asg18
(dp2561
g20
S'MG_JEN_Cohset::solver_subtree()'
p2562
sg22
g2541
sg88
(dp2563
g90
S'  2: ...../MG_JEN_Cohset.solver_subtree() (qual=None): .modify(num_iter):   5  ->  2'
p2564
sg92
S"  2: ...../MG_JEN_Cohset.solver_subtree() (qual=None): .modify(solvegroup):   []  ->  ['DJones']"
p2565
ssg23
(dp2566
g2557
I01
sg2555
I01
sg2552
I01
sS'epsval'
p2567
I01
sg1661
I00
ssg30
S'MG_JEN_Cohsetsolver_subtree'
p2568
sg32
g33
sg123
S'Make a solver-subtree for the given Condeq Cohset'
p2569
sg34
S'MG_JEN_Cohset::solver_subtree()  version=20dec2005  defined=2006-03-29 19:26'
p2570
sg36
S'solver_subtree'
p2571
sg38
(dp2572
g2551
(lp2573
NaI100
aI200
aI500
aS'@@rmin'
p2574
asg1794
(lp2575
I01
aI00
aS'@@visu'
p2576
asg2553
(lp2577
F0.001
aF0.0001
aF1.0000000000000001e-05
aS'@@epsilon'
p2578
asS'colin_factor'
p2579
(lp2580
F1e-08
aF0.0
aS'@@colin_factor'
p2581
asg2554
(lp2582
NaI500
aI1000
aI2000
aS'@@rmax'
p2583
asg2555
(lp2584
F1e-08
aF0.001
aF0.0001
aF1.0000000000000001e-05
aS'@@derivative_eps'
p2585
asg2556
(lp2586
I01
aI00
aS'@@usesvd'
p2587
asg2557
(lp2588
I10
aS'@@debug_level'
p2589
asg2558
(lp2590
(lp2591
a(lp2592
g52
aa(lp2593
S'Ggain'
p2594
aa(lp2595
S'Gphase'
p2596
aa(lp2597
S'Gpol1'
p2598
aa(lp2599
S'Gpol2'
p2600
aa(lp2601
g63
aa(lp2602
g63
aS'stokesU'
p2603
aa(lp2604
g63
aS'stokesQ'
p2605
aa(lp2606
g63
aS'stokesV'
p2607
aa(lp2608
S'stokesQU'
p2609
ag63
aa(lp2610
S'stokesQUV'
p2611
ag63
aa(lp2612
g52
aS'stokesI'
p2613
aa(lp2614
g2613
aa(lp2615
S'stokesIQU'
p2616
aa(lp2617
S'stokesIQUV'
p2618
aa(lp2619
S'stokesIV'
p2620
aa(lp2621
g2609
aa(lp2622
g2611
aa(lp2623
g52
ag2560
aa(lp2624
g2560
aa(lp2625
S'Dang'
p2626
aa(lp2627
S'Dell'
p2628
aa(lp2629
S'Dreal'
p2630
aa(lp2631
S'Dimag'
p2632
aa(lp2633
g52
ag2560
ag56
aa(lp2634
g56
aa(lp2635
g52
ag54
aa(lp2636
g54
aa(lp2637
S'Breal'
p2638
aa(lp2639
S'Bimag'
p2640
aa(lp2641
S'Bpol1'
p2642
aa(lp2643
S'Bpol2'
p2644
aaS'@@solvegroup'
p2645
asg2567
(lp2646
F1e-08
aF0.001
aF0.0001
aF1.0000000000000001e-05
aS'@@epsval'
p2647
asg1661
(lp2648
Na(lp2649
I5
aI2
aa(lp2650
I2
aI2
aa(lp2651
I3
aI3
aaS'@@num_cells'
p2652
asg2552
(lp2653
I01
aI00
aS'@@setBalanced'
p2654
asS'num_iter'
p2655
(lp2656
I1
aI3
aI5
aI10
aI20
aS'@@num_iter'
p2657
asS'condition'
p2658
(lp2659
NaS'Gphase_X_sum=0.0'
p2660
aS'Gphase_Y_sum=0.0'
p2661
a(lp2662
g2660
ag2661
aa(lp2663
S'Gphase_X_first=0.0'
p2664
aS'Gphase_Y_first=0.0'
p2665
aa(lp2666
S'Gphase_X_last=0.0'
p2667
aS'Gphase_Y_last=0.0'
p2668
aaS'Dang_sum=0.0'
p2669
a(lp2670
S'Bimag_X_sum=0.0'
p2671
aS'Bimag_Y_sum=0.0'
p2672
aa(lp2673
S'Breal_X_product=1.0'
p2674
aS'Breal_Y_product=1.0'
p2675
aaS'@@condition'
p2676
asS'history'
p2677
(lp2678
I01
aI00
aS'@@history'
p2679
assg77
Nsg82
S'20dec2005'
p2680
sg80
S'2006-03-29 19:26'
p2681
sg84
S'MG_JEN_Cohset'
p2682
sg224
(dp2683
g2556
I00
sg2552
I00
sg1794
I00
sg2677
I00
ssg86
S'** Specific description of inarg record for: MG_JEN_Cohset::solver_subtree()  version=20dec2005  defined=2006-03-29 19:26'
p2684
sg79
I00
sg104
g2681
sg107
(lp2685
g18
ag2558
ag2658
ag2551
ag2554
ag1661
ag2655
ag2553
ag2567
ag2555
ag2579
ag2556
ag2552
ag2557
ag1794
ag2677
asg115
(dp2686
g2551
S'if specified, only use baselines>=rmin'
p2687
sg1794
S'if True, include visualisation'
p2688
sg2553
S'iteration control criterion...'
p2689
sg2579
S'colinearity factor'
p2690
sg2554
S'if specified, only use baselines<=rmax'
p2691
sg2555
S'NEW: also iteration control...'
p2692
sg2556
S'if True, use Singular Value Decomposition (SVD)'
p2693
sg2557
S'solver debug_level'
p2694
sg2558
S'group (list) of parmgroups, to be solved for:\n- [GJones]:  all GJones MeqParms\n- [Ggain]:   GJones station gains (both pols)\n- [Gphase]:  GJones station phases (both pols)\n- [Gpol1]:   All GJones MeqParms for pol1 (X or R)\n- [Gpol2]:   All GJones MeqParms for pol2 (Y or L)\n- [JJones,stokesU]:     actually solves for U!\n- [JJones,stokesQ]:     -> zero Q(?), but better freq sol(?)\n- [JJones,stokesV]:     -> punit V(?)...\n- [stokesI]:    stokes I (incl SI(f), if relevant)\n- [stokesIQU]:  stokes I,Q,U (incl RM and SI(f))\n- [stokesIQUV]: stokes I,Q,U,V (incl RM and SI(f))'
p2695
sg2567
S'NEW: WNB version of epsilon....'
p2696
sg1661
g1662
sg2552
S'NEW: if True, add (..) to diagonal, otherwise multiply (1+lambda)'
p2697
sg2655
S'max number of iterations (now also in fitter)'
p2698
sg2658
S'(list of) extra condition equations:\n- [...phase_sum=0.0]:   sum of phases = zero\n- [...phase_first=0.0]: phase of first station = zero\n- [...phase_last=0.0]:  phase of last station = zero\n- [Dang_sum=0.0]:   sum of dipole pos.angle errors = zero\n- [...imag_sum=0.0]:   sum of imag.parts = zero\n- [...real_product=1.0]:   product of real.parts = unity'
p2699
sg2677
S'if True, include history collection of metrics'
p2700
sssg1661
Nsg2567
F1e-08
sg2677
I01
sg2655
I2
sg2658
Nsg2579
F0.0
ssg2506
I00
ss.