(dp0
S'add_to_existing'
p1
I00
sS'polrep'
p2
S'linear'
p3
sS'external_uvp_Joneset'
p4
I00
sS'_JEN_inarg_separator_record:_1'
p5
(dp6
S'txt'
p7
S'uv-data (MS) stream_control'
p8
ssS'script_name'
p9
S'MG_JEN_simul'
p10
sS'ms_name'
p11
S'D1.MS'
p12
sS'parmtable'
p13
S'simul_GJones'
p14
sS'insert_solver'
p15
I00
sS'use_same_LSM'
p16
I01
sS'[simul]./MG_JEN_lsm.get_lsm()'
p17
(dp18
S'saveAs'
p19
NsS'test_pattern'
p20
S'single'
p21
sS'[simul]./MG_JEN_lsm.add_single()'
p22
(dp23
S'[simul_single]./MG_JEN_Sixpack.newstar_source()'
p24
(dp25
S'f0'
p26
F1000000.0
sS'reset_funklet'
p27
I00
sS'major'
p28
F0.0
sS'unsolvable'
p29
I00
sS'color'
p30
S'red'
p31
sS'save_all'
p32
I00
sS'shape'
p33
S'point'
p34
sg13
g14
sS'Upct'
p35
NsS'unit'
p36
NsS'size'
p37
I10
sS'style'
p38
S'circle'
p39
sS'descr'
p40
S'<descr>'
p41
sS'I0'
p42
F1.0
sS'subtile_size'
p43
NsS'condeq_corrs'
p44
S'*'
p45
sS'Vpct'
p46
NsS'funklet_shape'
p47
NsS'pa'
p48
F0.0
sS'_JEN_inarg_CTRL_record:'
p49
(dp50
S'localscope'
p51
g24
sS'help'
p52
(dp53
g26
S'reference freq (Hz): I=I0 @ f=f0'
p54
sg27
S'if True, do NOT use any MeqParm table values when solvable'
p55
sg28
S'major axis (arcsec)'
p56
sg29
S'if True, do NOT store solvegroup/parmgroup info'
p57
sg30
S'plot_color'
p58
sg32
S'if True, save the update result even if not converged'
p59
sg33
S'source shape'
p60
sg13
S'name of the MeqParm table (AIPS++)'
p61
sg35
S'Stokes U (percentage of I)'
p62
sg36
g36
sg37
S'size of plotted symbol'
p63
sg38
S'plot_style'
p64
sg40
S'brief description'
p65
sg42
S'Stokes I: Total intensity @ f=f0 (usually 1 MHz)'
p66
sg43
S'size (time-slots) of a domain sub-tile'
p67
sg44
S'correlations to be used for solving'
p68
sg46
S'Stokes V (percentage of I)'
p69
sg47
S'shape [time,freq] of default funklet'
p70
sg48
S'position angle (rad)'
p71
sS'RA'
p72
S'Right Ascension (rad, J2000)'
p73
sS'RM'
p74
S'Intrinsic Rotation Measure (rad/m2)'
p75
sS'minor'
p76
S'minor axis (arcsec)'
p77
sS'c00_default'
p78
S'default value of c[0,0] coefficient'
p79
sS'Qpct'
p80
S'Stokes Q (percentage of I)'
p81
sS'punit'
p82
S'name of calibrator source/patch \n- unpol:     unpolarised, I=1Jy \n- unpol2:    idem, I=2Jy \n- unpol10:   idem, I=10Jy \n- RMtest:    Rotation Measure \n- SItest:    Spectral Index \n- ellgauss:  Elliptic Gaussian \n- QUV:       non-zero Q,U,V \n- QU:        non-zero Q,U \n- QU2:       stronger version of QU \n- Qonly:     non-zero Q \n- Uonly:     non-zero U \n- Vonly:     non-zero V \n- 3c286:     \n- 3c48:      \n- 3c295:     \n- 3c147:     \n- D1:        cps in D1.MS \n'
p83
sS'Dec'
p84
S'Declination (rad, J2000)'
p85
sS'fsr_trace'
p86
S'If True, attach to forest state record'
p87
sS'use_previous'
p88
S'if True, start with the previous solution'
p89
sS'SI'
p90
S'Spectral Index (generalised)\n   A scalar represents the classical SI: I(f)=I0*(f/f0)^SI\n   A vector represents a freq-dependent SI (....)'
p91
sS'tfdeg'
p92
S'(time,freq) polynomial degree'
p93
sS'auto_save'
p94
S'if True, save the result of every iteration (slow!)'
p95
ssS'target_dir'
p96
S'.'
p97
sS'target_module'
p98
S'MG_JEN_Sixpack'
p99
sS'hide'
p100
(dp101
g26
I01
sg28
I01
sg29
I01
sS'name'
p102
I01
sg40
I01
sg47
I01
sg30
I01
sg33
I01
sg86
I01
sg82
I00
sg43
I01
sg48
I01
sg44
I01
sg92
I01
sg36
I01
sg78
I01
sg38
I01
sg76
I01
sg37
I01
ssS'version'
p103
S'10feb2006'
p104
sS'description'
p105
S'Make a Sixpack (I,Q,U,V,Ra,Dec) for a source with NEWSTAR parametrisation'
p106
sS'editable'
p107
(dp108
g27
I00
sg29
I00
sg86
I00
sg32
I00
sg88
I00
sg94
I00
ssS'oneliner'
p109
S'MG_JEN_Sixpack::newstar_source()  version=10feb2006  defined=2006-04-13 12:19'
p110
sS'choice'
p111
(dp112
g26
(lp113
F1000000.0
aS'@@f0'
p114
asg27
(lp115
I01
aI00
aS'@@reset_funklet'
p116
asg28
(lp117
F0.0
aF1.0
aF10.0
aF100.0
aS'@@major'
p118
asg29
(lp119
I01
aI00
aS'@@unsolvable'
p120
asg30
(lp121
g31
aS'@@color'
p122
asg32
(lp123
I01
aI00
aS'@@save_all'
p124
asg33
(lp125
g34
aS'ell.gauss'
p126
aS'@@shape'
p127
asg13
(lp128
NaS'@@parmtable'
p129
asg35
(lp130
NaF-0.10000000000000001
aF0.050000000000000003
aF-0.01
aS'@@Upct'
p131
asg36
(lp132
NaS'@@unit'
p133
asg37
(lp134
I10
aS'@@size'
p135
asg38
(lp136
g39
aS'@@style'
p137
asg40
(lp138
g41
aS'@@descr'
p139
asg42
(lp140
F1.0
aF10.0
aS'@@I0'
p141
asg43
(lp142
NaS'@@subtile_size'
p143
asg44
(lp144
g45
aS'@@condeq_corrs'
p145
asg46
(lp146
NaF0.01
aF-0.0050000000000000001
aF0.001
aS'@@Vpct'
p147
asg47
(lp148
NaS'@@funklet_shape'
p149
asg48
(lp150
F0.0
aF1.0
aF-0.5
aS'@@pa'
p151
asg72
(lp152
F0.0
aF0.5
aF1.0
aF1.4950000000000001
aF4.3570000000000002
aS'@@RA'
p153
asg74
(lp154
NaF1.0
aF3.0
aF10.0
aF-10.0
aF60.0
aS'@@RM'
p155
asg76
(lp156
F0.0
aF0.5
aF5.0
aF50.0
aS'@@minor'
p157
asg78
(lp158
F1.0
aS'@@c00_default'
p159
asg80
(lp160
NaF0.10000000000000001
aF-0.050000000000000003
aF0.01
aS'@@Qpct'
p161
asg82
(lp162
S'unpol'
p163
aS'unpol2'
p164
aS'unpol10'
p165
aS'QUV'
p166
aS'QU'
p167
aS'Qonly'
p168
aS'Uonly'
p169
aS'Vonly'
p170
aS'3c147'
p171
aS'3c286'
p172
aS'3c48'
p173
aS'3c295'
p174
aS'D1'
p175
aS'RMtest'
p176
aS'SItest'
p177
aS'ellgauss'
p178
aS'@@punit'
p179
asg84
(lp180
F0.5
aF1.0
aF0.87
aF1.0920000000000001
aS'@@Dec'
p181
asg102
(lp182
NaS'@@name'
p183
asg86
(lp184
I01
aI00
aS'@@fsr_trace'
p185
asg88
(lp186
I01
aI00
aS'@@use_previous'
p187
asg90
(lp188
NaF-0.69999999999999996
a(lp189
F0.44700000000000001
aF-0.184
aaS'@@SI'
p190
asg92
(lp191
NaS'@@tfdeg'
p192
asg94
(lp193
I01
aI00
aS'@@auto_save'
p194
assS'qual'
p195
S'simul_single'
p196
sS'last_edited'
p197
S'2006-04-13 12:19'
p198
sS'target_definition'
p199
S'MG_JEN_Sixpack::newstar_source()'
p200
sS'inarg_specific'
p201
S'** Specific description of inarg record for: MG_JEN_Sixpack::newstar_source()  version=10feb2006  defined=2006-04-13 12:19'
p202
sS'barescope'
p203
S'MG_JEN_Sixpacknewstar_source'
p204
sS'target_function'
p205
S'newstar_source'
p206
sS'callback'
p207
(dp208
g82
I01
ssS'available_inargs'
p209
S'** Description of available inarg record(s) for: MG_JEN_Sixpack::newstar_source()  version=10feb2006  defined=2006-04-13 12:19'
p210
sS'protected'
p211
I00
sS'datetime_defined'
p212
g198
sS'MESSAGE'
p213
(dp214
S'0'
p215
S'  3: ......[simul_single]./MG_JEN_Sixpack.newstar_source() (qual=None): .modify(parmtable):   None  ->  simul_GJones'
p216
ssS'order'
p217
(lp218
g49
ag82
ag102
ag13
ag29
ag42
ag80
ag35
ag46
ag74
ag90
ag26
ag72
ag84
ag86
ag33
ag28
ag76
ag48
ag88
ag94
ag32
ag27
ag40
ag36
ag30
ag38
ag37
ag78
ag92
ag47
ag43
ag44
assg74
Nsg76
F0.0
sg72
F1.4950000000000001
sg78
F1.0
sg80
Nsg82
g163
sg84
F0.87
sg102
Nsg86
I01
sg88
I01
sg90
Nsg92
Nsg94
I00
ssg49
(dp219
g199
S'MG_JEN_lsm::add_single()'
p220
sg51
g22
sg201
S'** Specific description of inarg record for: MG_JEN_lsm::add_single()  version=10feb2006  defined=2006-04-13 12:19'
p221
sg105
S'Add a test-source (Sixpack) to the given lsm'
p222
sg96
g97
sg109
S'MG_JEN_lsm::add_single()  version=10feb2006  defined=2006-04-13 12:19'
p223
sg205
S'add_single'
p224
sg195
S'simul'
p225
sg209
S'** Description of available inarg record(s) for: MG_JEN_lsm::add_single()  version=10feb2006  defined=2006-04-13 12:19'
p226
sg211
I00
sg212
S'2006-04-13 12:19'
p227
sg103
g104
sg98
S'MG_JEN_lsm'
p228
sg213
(dp229
g215
S'** JEN_inarg.attach(): attached: [simul_single]./MG_JEN_Sixpack.newstar_source()'
p230
ssg197
g227
sg217
(lp231
g49
ag24
asg203
S'MG_JEN_lsmadd_single'
p232
sssS'[simul]./MG_JEN_lsm.add_grid()'
p233
(dp234
S'taper'
p235
F1.0
sS'[simul_grid]./MG_JEN_Sixpack.newstar_source()'
p236
(dp237
g26
F1000000.0
sg27
I00
sg28
F0.0
sg29
I00
sg30
g31
sg32
I00
sg33
g34
sg13
g14
sg35
Nsg36
Nsg37
I10
sg38
g39
sg40
g41
sg42
F1.0
sg43
Nsg44
g45
sg46
Nsg47
Nsg48
F0.0
sg49
(dp238
g51
g236
sg52
(dp239
g26
g54
sg27
g55
sg28
g56
sg29
g57
sg30
g58
sg32
g59
sg33
g60
sg13
g61
sg35
g62
sg36
g36
sg37
g63
sg38
g64
sg40
g65
sg42
g66
sg43
g67
sg44
g68
sg46
g69
sg47
g70
sg48
g71
sg72
g73
sg74
g75
sg76
g77
sg78
g79
sg80
g81
sg82
S'name of calibrator source/patch \n- unpol:     unpolarised, I=1Jy \n- unpol2:    idem, I=2Jy \n- unpol10:   idem, I=10Jy \n- RMtest:    Rotation Measure \n- SItest:    Spectral Index \n- ellgauss:  Elliptic Gaussian \n- QUV:       non-zero Q,U,V \n- QU:        non-zero Q,U \n- QU2:       stronger version of QU \n- Qonly:     non-zero Q \n- Uonly:     non-zero U \n- Vonly:     non-zero V \n- 3c286:     \n- 3c48:      \n- 3c295:     \n- 3c147:     \n- D1:        cps in D1.MS \n'
p240
sg84
g85
sg86
g87
sg88
g89
sg90
g91
sg92
g93
sg94
g95
ssg96
g97
sg98
S'MG_JEN_Sixpack'
p241
sg100
(dp242
g26
I01
sg28
I01
sg29
I01
sg102
I01
sg40
I01
sg47
I01
sg30
I01
sg33
I01
sg86
I01
sg82
I00
sg43
I01
sg48
I01
sg44
I01
sg92
I01
sg36
I01
sg78
I01
sg38
I01
sg76
I01
sg37
I01
ssg103
g104
sg105
g106
sg107
(dp243
g27
I00
sg29
I00
sg86
I00
sg32
I00
sg88
I00
sg94
I00
ssg109
S'MG_JEN_Sixpack::newstar_source()  version=10feb2006  defined=2006-04-13 12:19'
p244
sg111
(dp245
g26
(lp246
F1000000.0
aS'@@f0'
p247
asg27
(lp248
I01
aI00
aS'@@reset_funklet'
p249
asg28
(lp250
F0.0
aF1.0
aF10.0
aF100.0
aS'@@major'
p251
asg29
(lp252
I01
aI00
aS'@@unsolvable'
p253
asg30
(lp254
g31
aS'@@color'
p255
asg32
(lp256
I01
aI00
aS'@@save_all'
p257
asg33
(lp258
g34
ag126
aS'@@shape'
p259
asg13
(lp260
NaS'@@parmtable'
p261
asg35
(lp262
NaF-0.10000000000000001
aF0.050000000000000003
aF-0.01
aS'@@Upct'
p263
asg36
(lp264
NaS'@@unit'
p265
asg37
(lp266
I10
aS'@@size'
p267
asg38
(lp268
g39
aS'@@style'
p269
asg40
(lp270
g41
aS'@@descr'
p271
asg42
(lp272
F1.0
aF10.0
aS'@@I0'
p273
asg43
(lp274
NaS'@@subtile_size'
p275
asg44
(lp276
g45
aS'@@condeq_corrs'
p277
asg46
(lp278
NaF0.01
aF-0.0050000000000000001
aF0.001
aS'@@Vpct'
p279
asg47
(lp280
NaS'@@funklet_shape'
p281
asg48
(lp282
F0.0
aF1.0
aF-0.5
aS'@@pa'
p283
asg72
(lp284
F0.0
aF0.5
aF1.0
aF1.4950000000000001
aF4.3570000000000002
aS'@@RA'
p285
asg74
(lp286
NaF1.0
aF3.0
aF10.0
aF-10.0
aF60.0
aS'@@RM'
p287
asg76
(lp288
F0.0
aF0.5
aF5.0
aF50.0
aS'@@minor'
p289
asg78
(lp290
F1.0
aS'@@c00_default'
p291
asg80
(lp292
NaF0.10000000000000001
aF-0.050000000000000003
aF0.01
aS'@@Qpct'
p293
asg82
(lp294
g163
ag164
ag165
ag166
ag167
ag168
ag169
ag170
ag171
ag172
ag173
ag174
ag175
ag176
ag177
ag178
aS'@@punit'
p295
asg84
(lp296
F0.5
aF1.0
aF0.87
aF1.0920000000000001
aS'@@Dec'
p297
asg102
(lp298
NaS'@@name'
p299
asg86
(lp300
I01
aI00
aS'@@fsr_trace'
p301
asg88
(lp302
I01
aI00
aS'@@use_previous'
p303
asg90
(lp304
NaF-0.69999999999999996
a(lp305
F0.44700000000000001
aF-0.184
aaS'@@SI'
p306
asg92
(lp307
NaS'@@tfdeg'
p308
asg94
(lp309
I01
aI00
aS'@@auto_save'
p310
assg195
S'simul_grid'
p311
sg197
S'2006-04-13 12:19'
p312
sg199
g200
sg201
S'** Specific description of inarg record for: MG_JEN_Sixpack::newstar_source()  version=10feb2006  defined=2006-04-13 12:19'
p313
sg203
S'MG_JEN_Sixpacknewstar_source'
p314
sg205
S'newstar_source'
p315
sg207
(dp316
g82
I01
ssg209
S'** Description of available inarg record(s) for: MG_JEN_Sixpack::newstar_source()  version=10feb2006  defined=2006-04-13 12:19'
p317
sg211
I00
sg212
g312
sg213
(dp318
g215
S'  3: ......[simul_grid]./MG_JEN_Sixpack.newstar_source() (qual=None): .modify(parmtable):   None  ->  simul_GJones'
p319
ssg217
(lp320
g49
ag82
ag102
ag13
ag29
ag42
ag80
ag35
ag46
ag74
ag90
ag26
ag72
ag84
ag86
ag33
ag28
ag76
ag48
ag88
ag94
ag32
ag27
ag40
ag36
ag30
ag38
ag37
ag78
ag92
ag47
ag43
ag44
assg74
Nsg76
F0.0
sg72
F1.4950000000000001
sg78
F1.0
sg80
Nsg82
g163
sg84
F0.87
sg102
Nsg86
I01
sg88
I01
sg90
Nsg92
Nsg94
I00
ssS'nRA2'
p321
I1
sS'dDec'
p322
I20
sS'relpos'
p323
S'trq'
p324
sg49
(dp325
g199
S'MG_JEN_lsm::add_grid()'
p326
sg51
g233
sg201
S'** Specific description of inarg record for: MG_JEN_lsm::add_grid()  version=10feb2006  defined=2006-04-13 12:19'
p327
sg203
S'MG_JEN_lsmadd_grid'
p328
sg96
g97
sg105
S'Add a rectangular grid of identical test-sources to the given lsm'
p329
sg109
S'MG_JEN_lsm::add_grid()  version=10feb2006  defined=2006-04-13 12:19'
p330
sg205
S'add_grid'
p331
sg111
(dp332
g235
(lp333
F0.5
aI1
aI2
aI5
aI10
aI100
aNaS'@@taper'
p334
asg321
(lp335
I0
aI1
aI2
aI3
aS'@@nRA2'
p336
asg322
(lp337
I5
aI10
aI20
aS'@@dDec'
p338
asg323
(lp339
S'center'
p340
aS'top'
p341
aS'bottom'
p342
aS'left'
p343
aS'right'
p344
aS'tlq'
p345
ag324
aS'blq'
p346
aS'brq'
p347
aS'@@relpos'
p348
asS'dRA'
p349
(lp350
I5
aI10
aI20
aS'@@dRA'
p351
asS'nDec2'
p352
(lp353
I0
aI1
aI2
aI3
aS'@@nDec2'
p354
assg195
g225
sg209
S'** Description of available inarg record(s) for: MG_JEN_lsm::add_grid()  version=10feb2006  defined=2006-04-13 12:19'
p355
sg211
I00
sg212
S'2006-04-13 12:19'
p356
sg103
g104
sg98
S'MG_JEN_lsm'
p357
sg213
(dp358
g215
S'** JEN_inarg.attach(): attached: [simul_grid]./MG_JEN_Sixpack.newstar_source()'
p359
ssg197
g356
sg217
(lp360
g49
ag321
ag352
ag349
ag322
ag235
ag323
ag236
asg52
(dp361
g235
S'Scale (degr) of gaussian FOV taper'
p362
sg321
S'(half) nr of sources in RA direction'
p363
sg322
S'Dec grid spacing (arcmin)'
p364
sg323
S'Relative position w.r.t. the nominal punit (RA,Dec)'
p365
sg349
S'RA grid spacing (arcmin)'
p366
sg352
S'(half) nr of sources in DEC direction'
p367
sssg349
I20
sg352
I1
ssg49
(dp368
g199
S'MG_JEN_lsm::get_lsm()'
p369
sg51
g17
sg201
S'** Specific description of inarg record for: MG_JEN_lsm::get_lsm()  version=02apr2006  defined=2006-04-13 12:19'
p370
sg203
S'MG_JEN_lsmget_lsm'
p371
sS'browse'
p372
(dp373
S'input_LSM'
p374
S'*.lsm'
p375
sg19
g375
ssg96
g97
sg109
S'MG_JEN_lsm::get_lsm()  version=02apr2006  defined=2006-04-13 12:19'
p376
sg205
S'get_lsm'
p377
sg111
(dp378
g374
(lp379
S'lsm_current.lsm'
p380
aS'3c343_nvss.lsm'
p381
aS'abel963.lsm'
p382
aS'D1.lsm'
p383
aNaS'@@input_LSM'
p384
asg19
(lp385
S'<automatic>'
p386
aNaS'@@saveAs'
p387
asg20
(lp388
Nag21
aS'double'
p389
aS'grid'
p390
aS'spiral'
p391
aS'@@test_pattern'
p392
asS'display'
p393
(lp394
I01
aI00
aS'@@display'
p395
asS'save_as_current'
p396
(lp397
I01
aI00
aS'@@save_as_current'
p398
assg195
g225
sg209
S'** Description of available inarg record(s) for: MG_JEN_lsm::get_lsm()  version=02apr2006  defined=2006-04-13 12:19'
p399
sg211
I00
sg212
S'2006-04-13 12:19'
p400
sg103
S'02apr2006'
p401
sg98
S'MG_JEN_lsm'
p402
sg107
(dp403
g393
I00
sg396
I00
ssg213
(dp404
S'1'
p405
S'** JEN_inarg.attach(): attached: [simul]./MG_JEN_lsm.add_double()'
p406
sg215
S'** JEN_inarg.attach(): attached: [simul]./MG_JEN_lsm.add_single()'
p407
sS'3'
p408
S'** JEN_inarg.attach(): attached: [simul]./MG_JEN_lsm.add_spiral()'
p409
sS'2'
p410
S'** JEN_inarg.attach(): attached: [simul]./MG_JEN_lsm.add_grid()'
p411
ssg197
g400
sg217
(lp412
g49
ag374
ag393
ag396
ag19
ag20
ag22
aS'[simul]./MG_JEN_lsm.add_double()'
p413
ag233
aS'[simul]./MG_JEN_lsm.add_spiral()'
p414
asg52
(dp415
g374
S'(file)name of the Local Sky Model to be added to'
p416
sg19
S'Save the new/modified LSM afterwards as...'
p417
sg20
S'pattern of test-sources to be generated'
p418
sg393
S'Display the new/modified LSM'
p419
sg396
S'Save the new/modified LSM afterwards as lsm_current.lsm'
p420
ssg105
S'Generate an existing/new/modified Local Sky Model'
p421
ssg414
(dp422
S'nr_of_sources'
p423
I5
sg235
F1.0
sS'[simul_spiral]./MG_JEN_Sixpack.newstar_source()'
p424
(dp425
g26
F1000000.0
sg27
I00
sg28
F0.0
sg29
I00
sg30
g31
sg32
I00
sg33
g34
sg13
g14
sg35
Nsg36
Nsg37
I10
sg38
g39
sg40
g41
sg42
F1.0
sg43
Nsg44
g45
sg46
Nsg47
Nsg48
F0.0
sg49
(dp426
g51
g424
sg52
(dp427
g26
g54
sg27
g55
sg28
g56
sg29
g57
sg30
g58
sg32
g59
sg33
g60
sg13
g61
sg35
g62
sg36
g36
sg37
g63
sg38
g64
sg40
g65
sg42
g66
sg43
g67
sg44
g68
sg46
g69
sg47
g70
sg48
g71
sg72
g73
sg74
g75
sg76
g77
sg78
g79
sg80
g81
sg82
S'name of calibrator source/patch \n- unpol:     unpolarised, I=1Jy \n- unpol2:    idem, I=2Jy \n- unpol10:   idem, I=10Jy \n- RMtest:    Rotation Measure \n- SItest:    Spectral Index \n- ellgauss:  Elliptic Gaussian \n- QUV:       non-zero Q,U,V \n- QU:        non-zero Q,U \n- QU2:       stronger version of QU \n- Qonly:     non-zero Q \n- Uonly:     non-zero U \n- Vonly:     non-zero V \n- 3c286:     \n- 3c48:      \n- 3c295:     \n- 3c147:     \n- D1:        cps in D1.MS \n'
p428
sg84
g85
sg86
g87
sg88
g89
sg90
g91
sg92
g93
sg94
g95
ssg96
g97
sg98
S'MG_JEN_Sixpack'
p429
sg100
(dp430
g26
I01
sg28
I01
sg29
I01
sg102
I01
sg40
I01
sg47
I01
sg30
I01
sg33
I01
sg86
I01
sg82
I00
sg43
I01
sg48
I01
sg44
I01
sg92
I01
sg36
I01
sg78
I01
sg38
I01
sg76
I01
sg37
I01
ssg103
g104
sg105
g106
sg107
(dp431
g27
I00
sg29
I00
sg86
I00
sg32
I00
sg88
I00
sg94
I00
ssg109
S'MG_JEN_Sixpack::newstar_source()  version=10feb2006  defined=2006-04-13 12:19'
p432
sg111
(dp433
g26
(lp434
F1000000.0
aS'@@f0'
p435
asg27
(lp436
I01
aI00
aS'@@reset_funklet'
p437
asg28
(lp438
F0.0
aF1.0
aF10.0
aF100.0
aS'@@major'
p439
asg29
(lp440
I01
aI00
aS'@@unsolvable'
p441
asg30
(lp442
g31
aS'@@color'
p443
asg32
(lp444
I01
aI00
aS'@@save_all'
p445
asg33
(lp446
g34
ag126
aS'@@shape'
p447
asg13
(lp448
NaS'@@parmtable'
p449
asg35
(lp450
NaF-0.10000000000000001
aF0.050000000000000003
aF-0.01
aS'@@Upct'
p451
asg36
(lp452
NaS'@@unit'
p453
asg37
(lp454
I10
aS'@@size'
p455
asg38
(lp456
g39
aS'@@style'
p457
asg40
(lp458
g41
aS'@@descr'
p459
asg42
(lp460
F1.0
aF10.0
aS'@@I0'
p461
asg43
(lp462
NaS'@@subtile_size'
p463
asg44
(lp464
g45
aS'@@condeq_corrs'
p465
asg46
(lp466
NaF0.01
aF-0.0050000000000000001
aF0.001
aS'@@Vpct'
p467
asg47
(lp468
NaS'@@funklet_shape'
p469
asg48
(lp470
F0.0
aF1.0
aF-0.5
aS'@@pa'
p471
asg72
(lp472
F0.0
aF0.5
aF1.0
aF1.4950000000000001
aF4.3570000000000002
aS'@@RA'
p473
asg74
(lp474
NaF1.0
aF3.0
aF10.0
aF-10.0
aF60.0
aS'@@RM'
p475
asg76
(lp476
F0.0
aF0.5
aF5.0
aF50.0
aS'@@minor'
p477
asg78
(lp478
F1.0
aS'@@c00_default'
p479
asg80
(lp480
NaF0.10000000000000001
aF-0.050000000000000003
aF0.01
aS'@@Qpct'
p481
asg82
(lp482
g163
ag164
ag165
ag166
ag167
ag168
ag169
ag170
ag171
ag172
ag173
ag174
ag175
ag176
ag177
ag178
aS'@@punit'
p483
asg84
(lp484
F0.5
aF1.0
aF0.87
aF1.0920000000000001
aS'@@Dec'
p485
asg102
(lp486
NaS'@@name'
p487
asg86
(lp488
I01
aI00
aS'@@fsr_trace'
p489
asg88
(lp490
I01
aI00
aS'@@use_previous'
p491
asg90
(lp492
NaF-0.69999999999999996
a(lp493
F0.44700000000000001
aF-0.184
aaS'@@SI'
p494
asg92
(lp495
NaS'@@tfdeg'
p496
asg94
(lp497
I01
aI00
aS'@@auto_save'
p498
assg195
S'simul_spiral'
p499
sg197
S'2006-04-13 12:19'
p500
sg199
g200
sg201
S'** Specific description of inarg record for: MG_JEN_Sixpack::newstar_source()  version=10feb2006  defined=2006-04-13 12:19'
p501
sg203
S'MG_JEN_Sixpacknewstar_source'
p502
sg205
S'newstar_source'
p503
sg207
(dp504
g82
I01
ssg209
S'** Description of available inarg record(s) for: MG_JEN_Sixpack::newstar_source()  version=10feb2006  defined=2006-04-13 12:19'
p505
sg211
I00
sg212
g500
sg213
(dp506
g215
S'  3: ......[simul_spiral]./MG_JEN_Sixpack.newstar_source() (qual=None): .modify(parmtable):   None  ->  simul_GJones'
p507
ssg217
(lp508
g49
ag82
ag102
ag13
ag29
ag42
ag80
ag35
ag46
ag74
ag90
ag26
ag72
ag84
ag86
ag33
ag28
ag76
ag48
ag88
ag94
ag32
ag27
ag40
ag36
ag30
ag38
ag37
ag78
ag92
ag47
ag43
ag44
assg74
Nsg76
F0.0
sg72
F1.4950000000000001
sg78
F1.0
sg80
Nsg82
g163
sg84
F0.87
sg102
Nsg86
I01
sg88
I01
sg90
Nsg92
Nsg94
I00
ssS'astart'
p509
I0
sS'rmult'
p510
F1.1000000000000001
sS'rstart'
p511
I20
sg49
(dp512
g199
S'MG_JEN_lsm::add_spiral()'
p513
sg51
g414
sg201
S'** Specific description of inarg record for: MG_JEN_lsm::add_spiral()  version=10feb2006  defined=2006-04-13 12:19'
p514
sg203
S'MG_JEN_lsmadd_spiral'
p515
sg96
g97
sg105
S'Add a spiral pattern of identical test-sources to the given lsm'
p516
sg109
S'MG_JEN_lsm::add_spiral()  version=10feb2006  defined=2006-04-13 12:19'
p517
sg205
S'add_spiral'
p518
sg111
(dp519
g423
(lp520
I2
aI3
aI4
aI5
aI10
aS'@@nr_of_sources'
p521
asg235
(lp522
F0.5
aI1
aI2
aI5
aI10
aI100
aNaS'@@taper'
p523
asg509
(lp524
I0
aI30
aI45
aI90
aI180
aI270
aS'@@astart'
p525
asg510
(lp526
F1.01
aF1.1000000000000001
aF1.2
aF1.5
aI2
aS'@@rmult'
p527
asg511
(lp528
I1
aI2
aI5
aI10
aI20
aI50
aI100
aS'@@rstart'
p529
asS'ainc'
p530
(lp531
I10
aI20
aI30
aI45
aI90
aI180
aI360
aI0
aS'@@ainc'
p532
assg195
g225
sg209
S'** Description of available inarg record(s) for: MG_JEN_lsm::add_spiral()  version=10feb2006  defined=2006-04-13 12:19'
p533
sg211
I00
sg212
S'2006-04-13 12:19'
p534
sg103
g104
sg98
S'MG_JEN_lsm'
p535
sg213
(dp536
g215
S'** JEN_inarg.attach(): attached: [simul_spiral]./MG_JEN_Sixpack.newstar_source()'
p537
ssg197
g534
sg217
(lp538
g49
ag423
ag511
ag509
ag510
ag530
ag235
ag424
asg52
(dp539
g423
S'nr of sources'
p540
sg235
S'Scale (degr) of gaussian FOV taper'
p541
sg509
S'start position angle (deg)'
p542
sg510
S'radius multiplication factor'
p543
sg511
S'start position radius (arcmin)'
p544
sg530
S'position angle increment (deg)'
p545
sssg530
I10
ssg396
I01
sg374
Nsg413
(dp546
g322
I20
sg349
I20
sS'[simul_double_2]./MG_JEN_Sixpack.newstar_source()'
p547
(dp548
g26
F1000000.0
sg27
I00
sg28
F0.0
sg29
I00
sg30
g31
sg32
I00
sg33
g34
sg13
g14
sg35
Nsg36
Nsg37
I10
sg38
g39
sg40
g41
sg42
F1.0
sg43
Nsg44
g45
sg46
Nsg47
Nsg48
F0.0
sg49
(dp549
g51
g547
sg52
(dp550
g26
g54
sg27
g55
sg28
g56
sg29
g57
sg30
g58
sg32
g59
sg33
g60
sg13
g61
sg35
g62
sg36
g36
sg37
g63
sg38
g64
sg40
g65
sg42
g66
sg43
g67
sg44
g68
sg46
g69
sg47
g70
sg48
g71
sg72
g73
sg74
g75
sg76
g77
sg78
g79
sg80
g81
sg82
S'name of calibrator source/patch \n- unpol:     unpolarised, I=1Jy \n- unpol2:    idem, I=2Jy \n- unpol10:   idem, I=10Jy \n- RMtest:    Rotation Measure \n- SItest:    Spectral Index \n- ellgauss:  Elliptic Gaussian \n- QUV:       non-zero Q,U,V \n- QU:        non-zero Q,U \n- QU2:       stronger version of QU \n- Qonly:     non-zero Q \n- Uonly:     non-zero U \n- Vonly:     non-zero V \n- 3c286:     \n- 3c48:      \n- 3c295:     \n- 3c147:     \n- D1:        cps in D1.MS \n'
p551
sg84
g85
sg86
g87
sg88
g89
sg90
g91
sg92
g93
sg94
g95
ssg96
g97
sg98
S'MG_JEN_Sixpack'
p552
sg100
(dp553
g26
I01
sg28
I01
sg29
I01
sg102
I01
sg40
I01
sg47
I01
sg30
I01
sg33
I01
sg86
I01
sg82
I00
sg43
I01
sg48
I01
sg44
I01
sg92
I01
sg36
I01
sg78
I01
sg38
I01
sg76
I01
sg37
I01
ssg103
g104
sg105
g106
sg107
(dp554
g27
I00
sg29
I00
sg86
I00
sg32
I00
sg88
I00
sg94
I00
ssg109
S'MG_JEN_Sixpack::newstar_source()  version=10feb2006  defined=2006-04-13 12:19'
p555
sg111
(dp556
g26
(lp557
F1000000.0
aS'@@f0'
p558
asg27
(lp559
I01
aI00
aS'@@reset_funklet'
p560
asg28
(lp561
F0.0
aF1.0
aF10.0
aF100.0
aS'@@major'
p562
asg29
(lp563
I01
aI00
aS'@@unsolvable'
p564
asg30
(lp565
g31
aS'@@color'
p566
asg32
(lp567
I01
aI00
aS'@@save_all'
p568
asg33
(lp569
g34
ag126
aS'@@shape'
p570
asg13
(lp571
NaS'@@parmtable'
p572
asg35
(lp573
NaF-0.10000000000000001
aF0.050000000000000003
aF-0.01
aS'@@Upct'
p574
asg36
(lp575
NaS'@@unit'
p576
asg37
(lp577
I10
aS'@@size'
p578
asg38
(lp579
g39
aS'@@style'
p580
asg40
(lp581
g41
aS'@@descr'
p582
asg42
(lp583
F1.0
aF10.0
aS'@@I0'
p584
asg43
(lp585
NaS'@@subtile_size'
p586
asg44
(lp587
g45
aS'@@condeq_corrs'
p588
asg46
(lp589
NaF0.01
aF-0.0050000000000000001
aF0.001
aS'@@Vpct'
p590
asg47
(lp591
NaS'@@funklet_shape'
p592
asg48
(lp593
F0.0
aF1.0
aF-0.5
aS'@@pa'
p594
asg72
(lp595
F0.0
aF0.5
aF1.0
aF1.4950000000000001
aF4.3570000000000002
aS'@@RA'
p596
asg74
(lp597
NaF1.0
aF3.0
aF10.0
aF-10.0
aF60.0
aS'@@RM'
p598
asg76
(lp599
F0.0
aF0.5
aF5.0
aF50.0
aS'@@minor'
p600
asg78
(lp601
F1.0
aS'@@c00_default'
p602
asg80
(lp603
NaF0.10000000000000001
aF-0.050000000000000003
aF0.01
aS'@@Qpct'
p604
asg82
(lp605
g163
ag164
ag165
ag166
ag167
ag168
ag169
ag170
ag171
ag172
ag173
ag174
ag175
ag176
ag177
ag178
aS'@@punit'
p606
asg84
(lp607
F0.5
aF1.0
aF0.87
aF1.0920000000000001
aS'@@Dec'
p608
asg102
(lp609
NaS'@@name'
p610
asg86
(lp611
I01
aI00
aS'@@fsr_trace'
p612
asg88
(lp613
I01
aI00
aS'@@use_previous'
p614
asg90
(lp615
NaF-0.69999999999999996
a(lp616
F0.44700000000000001
aF-0.184
aaS'@@SI'
p617
asg92
(lp618
NaS'@@tfdeg'
p619
asg94
(lp620
I01
aI00
aS'@@auto_save'
p621
assg195
S'simul_double_2'
p622
sg197
S'2006-04-13 12:19'
p623
sg199
g200
sg201
S'** Specific description of inarg record for: MG_JEN_Sixpack::newstar_source()  version=10feb2006  defined=2006-04-13 12:19'
p624
sg203
S'MG_JEN_Sixpacknewstar_source'
p625
sg205
S'newstar_source'
p626
sg207
(dp627
g82
I01
ssg209
S'** Description of available inarg record(s) for: MG_JEN_Sixpack::newstar_source()  version=10feb2006  defined=2006-04-13 12:19'
p628
sg211
I00
sg212
g623
sg213
(dp629
g215
S'  3: ......[simul_double_2]./MG_JEN_Sixpack.newstar_source() (qual=None): .modify(parmtable):   None  ->  simul_GJones'
p630
ssg217
(lp631
g49
ag82
ag102
ag13
ag29
ag42
ag80
ag35
ag46
ag74
ag90
ag26
ag72
ag84
ag86
ag33
ag28
ag76
ag48
ag88
ag94
ag32
ag27
ag40
ag36
ag30
ag38
ag37
ag78
ag92
ag47
ag43
ag44
assg74
Nsg76
F0.0
sg72
F1.4950000000000001
sg78
F1.0
sg80
Nsg82
g163
sg84
F0.87
sg102
Nsg86
I01
sg88
I01
sg90
Nsg92
Nsg94
I00
ssg49
(dp632
g199
S'MG_JEN_lsm::add_double()'
p633
sg51
g413
sg201
S'** Specific description of inarg record for: MG_JEN_lsm::add_double()  version=10feb2006  defined=2006-04-13 12:19'
p634
sg203
S'MG_JEN_lsmadd_double'
p635
sg96
g97
sg105
S'Add a double test-source (Sixpack) to the given lsm'
p636
sg109
S'MG_JEN_lsm::add_double()  version=10feb2006  defined=2006-04-13 12:19'
p637
sg205
S'add_double'
p638
sg111
(dp639
g349
(lp640
I20
aS'@@dRA'
p641
asg322
(lp642
I20
aS'@@dDec'
p643
assg195
g225
sg209
S'** Description of available inarg record(s) for: MG_JEN_lsm::add_double()  version=10feb2006  defined=2006-04-13 12:19'
p644
sg211
I00
sg212
S'2006-04-13 12:19'
p645
sg103
g104
sg98
S'MG_JEN_lsm'
p646
sg213
(dp647
g405
S'** JEN_inarg.attach(): attached: [simul_double_2]./MG_JEN_Sixpack.newstar_source()'
p648
sg215
S'** JEN_inarg.attach(): attached: [simul_double_1]./MG_JEN_Sixpack.newstar_source()'
p649
ssg197
g645
sg217
(lp650
g49
aS'[simul_double_1]./MG_JEN_Sixpack.newstar_source()'
p651
ag547
ag349
ag322
asg52
(dp652
g349
S'distance of 2nd source in RA (arcmin)'
p653
sg322
S'distance of 2nd source in Dec (arcmin)'
p654
sssg651
(dp655
g26
F1000000.0
sg27
I00
sg28
F0.0
sg29
I00
sg30
g31
sg32
I00
sg33
g34
sg13
g14
sg35
Nsg36
Nsg37
I10
sg38
g39
sg40
g41
sg42
F1.0
sg43
Nsg44
g45
sg46
Nsg47
Nsg48
F0.0
sg49
(dp656
g51
g651
sg52
(dp657
g26
g54
sg27
g55
sg28
g56
sg29
g57
sg30
g58
sg32
g59
sg33
g60
sg13
g61
sg35
g62
sg36
g36
sg37
g63
sg38
g64
sg40
g65
sg42
g66
sg43
g67
sg44
g68
sg46
g69
sg47
g70
sg48
g71
sg72
g73
sg74
g75
sg76
g77
sg78
g79
sg80
g81
sg82
S'name of calibrator source/patch \n- unpol:     unpolarised, I=1Jy \n- unpol2:    idem, I=2Jy \n- unpol10:   idem, I=10Jy \n- RMtest:    Rotation Measure \n- SItest:    Spectral Index \n- ellgauss:  Elliptic Gaussian \n- QUV:       non-zero Q,U,V \n- QU:        non-zero Q,U \n- QU2:       stronger version of QU \n- Qonly:     non-zero Q \n- Uonly:     non-zero U \n- Vonly:     non-zero V \n- 3c286:     \n- 3c48:      \n- 3c295:     \n- 3c147:     \n- D1:        cps in D1.MS \n'
p658
sg84
g85
sg86
g87
sg88
g89
sg90
g91
sg92
g93
sg94
g95
ssg96
g97
sg98
S'MG_JEN_Sixpack'
p659
sg100
(dp660
g26
I01
sg28
I01
sg29
I01
sg102
I01
sg40
I01
sg47
I01
sg30
I01
sg33
I01
sg86
I01
sg82
I00
sg43
I01
sg48
I01
sg44
I01
sg92
I01
sg36
I01
sg78
I01
sg38
I01
sg76
I01
sg37
I01
ssg103
g104
sg105
g106
sg107
(dp661
g27
I00
sg29
I00
sg86
I00
sg32
I00
sg88
I00
sg94
I00
ssg109
S'MG_JEN_Sixpack::newstar_source()  version=10feb2006  defined=2006-04-13 12:19'
p662
sg111
(dp663
g26
(lp664
F1000000.0
aS'@@f0'
p665
asg27
(lp666
I01
aI00
aS'@@reset_funklet'
p667
asg28
(lp668
F0.0
aF1.0
aF10.0
aF100.0
aS'@@major'
p669
asg29
(lp670
I01
aI00
aS'@@unsolvable'
p671
asg30
(lp672
g31
aS'@@color'
p673
asg32
(lp674
I01
aI00
aS'@@save_all'
p675
asg33
(lp676
g34
ag126
aS'@@shape'
p677
asg13
(lp678
NaS'@@parmtable'
p679
asg35
(lp680
NaF-0.10000000000000001
aF0.050000000000000003
aF-0.01
aS'@@Upct'
p681
asg36
(lp682
NaS'@@unit'
p683
asg37
(lp684
I10
aS'@@size'
p685
asg38
(lp686
g39
aS'@@style'
p687
asg40
(lp688
g41
aS'@@descr'
p689
asg42
(lp690
F1.0
aF10.0
aS'@@I0'
p691
asg43
(lp692
NaS'@@subtile_size'
p693
asg44
(lp694
g45
aS'@@condeq_corrs'
p695
asg46
(lp696
NaF0.01
aF-0.0050000000000000001
aF0.001
aS'@@Vpct'
p697
asg47
(lp698
NaS'@@funklet_shape'
p699
asg48
(lp700
F0.0
aF1.0
aF-0.5
aS'@@pa'
p701
asg72
(lp702
F0.0
aF0.5
aF1.0
aF1.4950000000000001
aF4.3570000000000002
aS'@@RA'
p703
asg74
(lp704
NaF1.0
aF3.0
aF10.0
aF-10.0
aF60.0
aS'@@RM'
p705
asg76
(lp706
F0.0
aF0.5
aF5.0
aF50.0
aS'@@minor'
p707
asg78
(lp708
F1.0
aS'@@c00_default'
p709
asg80
(lp710
NaF0.10000000000000001
aF-0.050000000000000003
aF0.01
aS'@@Qpct'
p711
asg82
(lp712
g163
ag164
ag165
ag166
ag167
ag168
ag169
ag170
ag171
ag172
ag173
ag174
ag175
ag176
ag177
ag178
aS'@@punit'
p713
asg84
(lp714
F0.5
aF1.0
aF0.87
aF1.0920000000000001
aS'@@Dec'
p715
asg102
(lp716
NaS'@@name'
p717
asg86
(lp718
I01
aI00
aS'@@fsr_trace'
p719
asg88
(lp720
I01
aI00
aS'@@use_previous'
p721
asg90
(lp722
NaF-0.69999999999999996
a(lp723
F0.44700000000000001
aF-0.184
aaS'@@SI'
p724
asg92
(lp725
NaS'@@tfdeg'
p726
asg94
(lp727
I01
aI00
aS'@@auto_save'
p728
assg195
S'simul_double_1'
p729
sg197
S'2006-04-13 12:19'
p730
sg199
g200
sg201
S'** Specific description of inarg record for: MG_JEN_Sixpack::newstar_source()  version=10feb2006  defined=2006-04-13 12:19'
p731
sg203
S'MG_JEN_Sixpacknewstar_source'
p732
sg205
S'newstar_source'
p733
sg207
(dp734
g82
I01
ssg209
S'** Description of available inarg record(s) for: MG_JEN_Sixpack::newstar_source()  version=10feb2006  defined=2006-04-13 12:19'
p735
sg211
I00
sg212
g730
sg213
(dp736
g215
S'  3: ......[simul_double_1]./MG_JEN_Sixpack.newstar_source() (qual=None): .modify(parmtable):   None  ->  simul_GJones'
p737
ssg217
(lp738
g49
ag82
ag102
ag13
ag29
ag42
ag80
ag35
ag46
ag74
ag90
ag26
ag72
ag84
ag86
ag33
ag28
ag76
ag48
ag88
ag94
ag32
ag27
ag40
ag36
ag30
ag38
ag37
ag78
ag92
ag47
ag43
ag44
assg74
Nsg76
F0.0
sg72
F1.4950000000000001
sg78
F1.0
sg80
Nsg82
g163
sg84
F0.87
sg102
Nsg86
I01
sg88
I01
sg90
Nsg92
Nsg94
I00
sssg393
I01
ssS'stddev_noise_Jy'
p739
F0.01
sS'[simul]./MG_JEN_Cohset.predict_lsm()'
p740
(dp741
S'[simul_uvp]./MG_JEN_Cohset.Jones()'
p742
(dp743
S'[simul_uvp]./MG_JEN_Joneset.JJones()'
p744
(dp745
S'unop'
p746
S'Cos'
p747
sS'diagonal_only'
p748
I00
sg2
S'@@polrep'
p749
sg30
S'yellow'
p750
sS'stddev_period'
p751
F0.10000000000000001
sS'p7_mean_stddev'
p752
(lp753
F0.0
aF0.0
asS'p8_mean_stddev'
p754
(lp755
F0.0
aF0.0
asS'all4_always'
p756
NsS'fdeg'
p757
I0
sg36
Nsg37
I5
sg38
S'triangle'
p758
sS'p1_mean_stddev'
p759
(lp760
F0.0
aF0.0
asg40
S'<descr>'
p761
sS'mean_tampl'
p762
F0.20000000000000001
sS'p5_mean_stddev'
p763
(lp764
F0.0
aF0.0
asg49
(dp765
g199
S'MG_JEN_Joneset::JJones()'
p766
sg51
g744
sg100
(dp767
g746
I00
sg2
I01
sg30
I01
sg752
I01
sg754
I01
sg757
I01
sg36
I01
sS'simul_funklet'
p768
I01
sg38
I01
sg759
I01
sg40
I01
sg763
I01
sS'p0_mean_stddev'
p769
I01
sg37
I01
sS'@Jsequence'
p770
I01
sg78
I01
sS'@Jsequence_KJones'
p771
I01
sS'p9_mean_stddev'
p772
I01
sS'stations'
p773
I01
sS'timescale_min'
p774
I01
sS'p3_mean_stddev'
p775
I01
sS'p6_mean_stddev'
p776
I01
sS'p2_mean_stddev'
p777
I01
sS'p4_mean_stddev'
p778
I01
sS'c00_scale'
p779
I01
sS'@Jsequence_simul'
p780
I01
ssg105
S'Defines diagonal 2x2 Jones matrices for full polarisation:\n    Jjones(station,source) matrix elements:\n    - J_11 = (Jreal_11,Jimag_11)\n    - J_12 = (Jreal_12,Jimag_12)\n    - J_21 = (Jreal_21,Jimag_21)\n    - J_22 = (Jreal_22,Jimag_22)\n    For circular polarisation, R and L are used rather than X and Y\n    '
p781
sg96
g97
sg109
S'MG_JEN_Joneset::JJones()  version=14feb2006  defined=2006-04-13 12:19'
p782
sg205
S'JJones'
p783
sg111
(dp784
g746
(lp785
g747
aS'Sin'
p786
a(lp787
g747
ag786
aaNaS'@@unop'
p788
asg748
(lp789
I01
aI00
aS'@@diagonal_only'
p790
asg2
(lp791
g3
aS'circular'
p792
ag749
asg30
(lp793
g750
aS'@@color'
p794
asg751
(lp795
I0
aF0.01
aF0.10000000000000001
aF0.20000000000000001
aF0.5
aS'@@stddev_period'
p796
asg752
(lp797
g753
aS'@@p7_mean_stddev'
p798
asg754
(lp799
g755
aS'@@p8_mean_stddev'
p800
asg756
(lp801
Na(lp802
I14
aa(lp803
I1
aaS'WSRT/WHAT'
p804
aS'@@all4_always'
p805
asg757
(lp806
I0
aS'@@fdeg'
p807
asg36
(lp808
NaS'@@unit'
p809
asg768
(lp810
S'p0*cos(6.28*x0/p1)'
p811
aNaS'@@simul_funklet'
p812
asg38
(lp813
g758
aS'@@style'
p814
asg759
(lp815
g760
aS'@@p1_mean_stddev'
p816
asg40
(lp817
g761
aS'@@descr'
p818
asg763
(lp819
g764
aS'@@p5_mean_stddev'
p820
asg771
(lp821
S'JJones'
p822
aS'@@@Jsequence_KJones'
p823
asg37
(lp824
I5
aS'@@size'
p825
asg770
(lp826
g822
aS'@@@Jsequence'
p827
asg78
(lp828
F1.0
aS'@@c00_default'
p829
asg769
(lp830
(lp831
F0.0
aF0.0
aaS'@@p0_mean_stddev'
p832
asS'mean_c00'
p833
(lp834
I0
aF0.10000000000000001
aF0.20000000000000001
aF0.5
aF-0.10000000000000001
aS'@@mean_c00'
p835
asg772
(lp836
(lp837
F0.0
aF0.0
aaS'@@p9_mean_stddev'
p838
asg773
(lp839
(lp840
I0
aI1
aI2
aI3
aI4
aa(lp841
I0
aI1
aI2
aI3
aI4
aI5
aI6
aa(lp842
I0
aI1
aI2
aI3
aI4
aI5
aI6
aI7
aI8
aI9
aI10
aI11
aI12
aI13
aa(lp843
I0
aI1
aI2
aI3
aI4
aI5
aI6
aI7
aI8
aI9
aI10
aI11
aI12
aI13
aI14
aaS'range(5)'
p844
aS'@@stations'
p845
asg774
(lp846
I20
aS'@@timescale_min'
p847
asg775
(lp848
(lp849
F0.0
aF0.0
aaS'@@p3_mean_stddev'
p850
asg776
(lp851
(lp852
F0.0
aF0.0
aaS'@@p6_mean_stddev'
p853
asS'mean_period'
p854
(lp855
F0.29999999999999999
aF0.5
aI1
aI2
aI3
aS'@@mean_period'
p856
asg777
(lp857
(lp858
F0.0
aF0.0
aaS'@@p2_mean_stddev'
p859
asS'stddev_c00'
p860
(lp861
I0
aF0.0001
aF0.001
aF0.01
aF0.10000000000000001
aI1
aS'@@stddev_c00'
p862
asg778
(lp863
(lp864
F0.0
aF0.0
aaS'@@p4_mean_stddev'
p865
asg779
(lp866
F1.0
aS'@@c00_scale'
p867
asg780
(lp868
g822
aS'@@@Jsequence_simul'
p869
assg195
S'simul_uvp'
p870
sg209
S'** Description of available inarg record(s) for: MG_JEN_Joneset::JJones()  version=14feb2006  defined=2006-04-13 12:19'
p871
sg211
I00
sg212
S'2006-04-13 12:19'
p872
sg103
S'14feb2006'
p873
sg98
S'MG_JEN_Joneset'
p874
sg107
(dp875
g748
I00
ssg201
S'** Specific description of inarg record for: MG_JEN_Joneset::JJones()  version=14feb2006  defined=2006-04-13 12:19'
p876
sS'mutable'
p877
(dp878
g2
I00
sg773
I00
ssg197
g872
sg217
(lp879
g49
ag773
ag2
ag770
ag780
ag771
ag748
ag756
ag833
ag860
ag854
ag751
ag746
ag774
ag757
ag30
ag38
ag37
ag78
ag779
ag40
ag36
ag768
ag769
ag759
ag777
ag775
ag778
ag763
ag776
ag752
ag754
ag772
asg52
(dp880
g746
S'time-variability function'
p881
sg748
S'if True, solve for diagonal (11,22) elements only'
p882
sg2
S'polarisation representation'
p883
sg30
g58
sg751
S'scatter in period T (fraction of timescale_min)'
p884
sg752
S'[mean, stddev] of funklet coeff p7'
p885
sg754
S'[mean, stddev] of funklet coeff p8'
p886
sg756
S'stations for which all 4 elements will always be solved for'
p887
sg757
S'degree of freq polynomial'
p888
sg36
g36
sg768
S'(x0=time, x1=freq)'
p889
sg38
g64
sg759
S'[mean, stddev] of funklet coeff p1'
p890
sg40
S'brief description'
p891
sg763
S'[mean, stddev] of funklet coeff p5'
p892
sg771
S'list membership indication (used in JEN_inargGui)'
p893
sg37
S'size of plotted symbol'
p894
sg770
g893
sg78
S'default value of c00'
p895
sg769
S'[mean, stddev] of funklet coeff p0'
p896
sg833
S'mean of EXTRA c00 (fraction of c00_scale)'
p897
sg772
S'[mean, stddev] of funklet coeff p9'
p898
sg773
S'the (subset of) stations to be used'
p899
sg774
S'group timescale in minutes'
p900
sg775
S'[mean, stddev] of funklet coeff p3'
p901
sg776
S'[mean, stddev] of funklet coeff p6'
p902
sg854
S'mean time-period T (fraction of timescale_min)'
p903
sg777
S'[mean, stddev] of funklet coeff p2'
p904
sg860
S'scatter in EXTRA c00 (fraction of c00_scale'
p905
sg778
S'[mean, stddev] of funklet coeff p4'
p906
sg779
S'scale of c00'
p907
sg780
g893
ssg203
S'MG_JEN_JonesetJJones'
p908
ssg771
g822
sg768
Nsg770
g822
sS'stddev_period_s'
p909
I50
sg78
F1.0
sS'mean_period_s'
p910
I500
sg769
g831
sg833
F0.10000000000000001
sg772
g837
sg773
g845
sg774
I20
sg775
g849
sg776
g852
sg854
F1.0
sg777
g858
sg860
F0.01
sg778
g864
sg779
F1.0
sg780
g822
sS'stddev_tampl'
p911
F0.02
ssg2
S'@@polrep'
p912
sS'uvplane_effect'
p913
S'@@uvplane_effect'
p914
sS'[simul_uvp]./MG_JEN_Joneset.BJones()'
p915
(dp916
g746
g747
sg2
S'@@polrep'
p917
sg30
g750
sg751
F0.10000000000000001
sg752
(lp918
F0.0
aF0.0
asg754
(lp919
F0.0
aF0.0
asg757
I0
sg36
Nsg768
Nsg38
g758
sg759
(lp920
F0.0
aF0.0
asg40
g761
sg762
F0.20000000000000001
sg763
(lp921
F0.0
aF0.0
asg49
(dp922
g199
S'MG_JEN_Joneset::BJones()'
p923
sg51
g915
sg100
(dp924
g746
I00
sg2
I01
sg30
I01
sg752
I01
sg754
I01
sg757
I01
sg36
I01
sg768
I01
sg38
I01
sg759
I01
sg40
I01
sg763
I01
sg769
I01
sg37
I01
sg770
I01
sg78
I01
sg771
I01
sg772
I01
sg773
I01
sg774
I01
sg775
I01
sg776
I01
sg777
I01
sg778
I01
sg779
I01
sg780
I01
ssg105
S'Defines diagonal 2x2 Jones matrices that represent the IF bandpass:\n    Bjones(station,source) matrix elements:\n    - B_11 = (Breal_X,Bimag_X)\n    - B_12 = 0\n    - B_21 = 0\n    - B_22 = (Breal_Y,Bimag_Y)\n    For circular polarisation, R and L are used rather than X and Y\n    NB: The main differences with Gjones are:\n      - the higher-order (~5) freq-polynomial\n      - solving for real/imag rather than gain/phase \n    '
p925
sg96
g97
sg109
S'MG_JEN_Joneset::BJones()  version=16dec2005  defined=2006-04-13 12:19'
p926
sg205
S'BJones'
p927
sg111
(dp928
g746
(lp929
g747
ag786
a(lp930
g747
ag786
aaNaS'@@unop'
p931
asg2
(lp932
g3
ag792
ag917
asg30
(lp933
g750
aS'@@color'
p934
asg751
(lp935
I0
aF0.01
aF0.10000000000000001
aF0.20000000000000001
aF0.5
aS'@@stddev_period'
p936
asg752
(lp937
g918
aS'@@p7_mean_stddev'
p938
asg754
(lp939
g919
aS'@@p8_mean_stddev'
p940
asg757
(lp941
I0
aS'@@fdeg'
p942
asg36
(lp943
NaS'@@unit'
p944
asg768
(lp945
g811
aNaS'@@simul_funklet'
p946
asg38
(lp947
g758
aS'@@style'
p948
asg759
(lp949
g920
aS'@@p1_mean_stddev'
p950
asg40
(lp951
g761
aS'@@descr'
p952
asg763
(lp953
g921
aS'@@p5_mean_stddev'
p954
asg769
(lp955
(lp956
F0.0
aF0.0
aaS'@@p0_mean_stddev'
p957
asg37
(lp958
I5
aS'@@size'
p959
asg770
(lp960
S'BJones'
p961
aS'@@@Jsequence'
p962
asg78
(lp963
F1.0
aS'@@c00_default'
p964
asg771
(lp965
g961
aS'@@@Jsequence_KJones'
p966
asg833
(lp967
I0
aF0.10000000000000001
aF0.20000000000000001
aF0.5
aF-0.10000000000000001
aS'@@mean_c00'
p968
asg772
(lp969
(lp970
F0.0
aF0.0
aaS'@@p9_mean_stddev'
p971
asg773
(lp972
(lp973
I0
aI1
aI2
aI3
aI4
aa(lp974
I0
aI1
aI2
aI3
aI4
aI5
aI6
aa(lp975
I0
aI1
aI2
aI3
aI4
aI5
aI6
aI7
aI8
aI9
aI10
aI11
aI12
aI13
aa(lp976
I0
aI1
aI2
aI3
aI4
aI5
aI6
aI7
aI8
aI9
aI10
aI11
aI12
aI13
aI14
aag844
aS'@@stations'
p977
asg774
(lp978
I20
aS'@@timescale_min'
p979
asg775
(lp980
(lp981
F0.0
aF0.0
aaS'@@p3_mean_stddev'
p982
asg776
(lp983
(lp984
F0.0
aF0.0
aaS'@@p6_mean_stddev'
p985
asg854
(lp986
F0.29999999999999999
aF0.5
aI1
aI2
aI3
aS'@@mean_period'
p987
asg777
(lp988
(lp989
F0.0
aF0.0
aaS'@@p2_mean_stddev'
p990
asg860
(lp991
I0
aF0.0001
aF0.001
aF0.01
aF0.10000000000000001
aI1
aS'@@stddev_c00'
p992
asg778
(lp993
(lp994
F0.0
aF0.0
aaS'@@p4_mean_stddev'
p995
asg779
(lp996
F1.0
aS'@@c00_scale'
p997
asg780
(lp998
g961
aS'@@@Jsequence_simul'
p999
assg195
g870
sg209
S'** Description of available inarg record(s) for: MG_JEN_Joneset::BJones()  version=16dec2005  defined=2006-04-13 12:19'
p1000
sg211
I00
sg212
S'2006-04-13 12:19'
p1001
sg103
S'16dec2005'
p1002
sg98
S'MG_JEN_Joneset'
p1003
sg201
S'** Specific description of inarg record for: MG_JEN_Joneset::BJones()  version=16dec2005  defined=2006-04-13 12:19'
p1004
sg877
(dp1005
g2
I00
sg773
I00
ssg197
g1001
sg217
(lp1006
g49
ag773
ag2
ag770
ag780
ag771
ag833
ag860
ag854
ag751
ag746
ag774
ag757
ag30
ag38
ag37
ag78
ag779
ag40
ag36
ag768
ag769
ag759
ag777
ag775
ag778
ag763
ag776
ag752
ag754
ag772
asg52
(dp1007
g746
g881
sg2
g883
sg30
g58
sg751
g884
sg752
g885
sg754
g886
sg757
g888
sg36
g36
sg768
g889
sg38
g64
sg759
g890
sg40
g891
sg763
g892
sg769
g896
sg37
g894
sg770
g893
sg78
g895
sg771
g893
sg833
g897
sg772
g898
sg773
g899
sg774
g900
sg775
g901
sg776
g902
sg854
g903
sg777
g904
sg860
g905
sg778
g906
sg779
g907
sg780
g893
ssg203
S'MG_JEN_JonesetBJones'
p1008
ssg771
g961
sg37
I5
sg770
g961
sg909
I100
sg78
F1.0
sg910
I5000
sg769
g956
sg833
F0.10000000000000001
sg772
g970
sg773
g977
sg774
I20
sg775
g981
sg776
g984
sg854
F1.0
sg777
g989
sg860
F0.01
sg778
g994
sg779
F1.0
sg780
g961
sg911
F0.02
ssg773
S'@@stations'
p1009
sS'[simul_uvp]./MG_JEN_Joneset.KJones()'
p1010
(dp1011
g2
S'@@polrep'
p1012
sg773
S'@@stations'
p1013
sg49
(dp1014
g199
S'MG_JEN_Joneset::KJones()'
p1015
sg51
g1010
sg100
(dp1016
g771
I01
sg780
I01
sg770
I01
sg2
I01
sg773
I01
ssg105
S'defines diagonal KJones matrices for DFT Fourier kernel'
p1017
sg96
g97
sg109
S'MG_JEN_Joneset::KJones()  version=12dec2005  defined=2006-04-13 12:19'
p1018
sg205
S'KJones'
p1019
sg111
(dp1020
g771
(lp1021
S'KJones'
p1022
aS'@@@Jsequence_KJones'
p1023
asg780
(lp1024
g1022
aS'@@@Jsequence_simul'
p1025
asg770
(lp1026
g1022
aS'@@@Jsequence'
p1027
asg2
(lp1028
g3
ag792
ag1012
asg773
(lp1029
(lp1030
I0
aI1
aI2
aI3
aI4
aa(lp1031
I0
aI1
aI2
aI3
aI4
aI5
aI6
aa(lp1032
I0
aI1
aI2
aI3
aI4
aI5
aI6
aI7
aI8
aI9
aI10
aI11
aI12
aI13
aa(lp1033
I0
aI1
aI2
aI3
aI4
aI5
aI6
aI7
aI8
aI9
aI10
aI11
aI12
aI13
aI14
aag844
ag1013
assg195
g870
sg209
S'** Description of available inarg record(s) for: MG_JEN_Joneset::KJones()  version=12dec2005  defined=2006-04-13 12:19'
p1034
sg211
I00
sg212
S'2006-04-13 12:19'
p1035
sg103
S'12dec2005'
p1036
sg98
S'MG_JEN_Joneset'
p1037
sg201
S'** Specific description of inarg record for: MG_JEN_Joneset::KJones()  version=12dec2005  defined=2006-04-13 12:19'
p1038
sg877
(dp1039
g2
I00
sg773
I00
ssg197
g1035
sg217
(lp1040
g49
ag773
ag2
ag770
ag780
ag771
asg52
(dp1041
g771
g893
sg780
g893
sg770
g893
sg2
g883
sg773
g899
ssg203
S'MG_JEN_JonesetKJones'
p1042
ssg771
g1022
sg780
g1022
sg770
g1022
ssS'[simul_uvp]./MG_JEN_Joneset.FJones()'
p1043
(dp1044
g746
g747
sg2
S'@@polrep'
p1045
sg30
g750
sg751
F0.10000000000000001
sg752
(lp1046
F0.0
aF0.0
asg754
(lp1047
F0.0
aF0.0
asg757
I0
sg36
Nsg768
Nsg38
g758
sg759
(lp1048
F0.0
aF0.0
asg40
g761
sg762
F0.20000000000000001
sg763
(lp1049
F0.0
aF0.0
asg49
(dp1050
g199
S'MG_JEN_Joneset::FJones()'
p1051
sg51
g1043
sg100
(dp1052
g746
I00
sg2
I01
sg30
I01
sg752
I01
sg754
I01
sg757
I01
sg36
I01
sg768
I01
sg38
I01
sg759
I01
sg40
I01
sg763
I01
sg769
I01
sg37
I01
sg770
I01
sg78
I01
sg771
I01
sg772
I01
sg773
I01
sg774
I01
sg775
I01
sg776
I01
sg777
I01
sg778
I01
sg779
I01
sg780
I01
ssg105
S'defines diagonal FJones Faraday rotation matrices'
p1053
sg96
g97
sg109
S'MG_JEN_Joneset::FJones()  version=16dec2005  defined=2006-04-13 12:19'
p1054
sg205
S'FJones'
p1055
sg111
(dp1056
g746
(lp1057
g747
ag786
a(lp1058
g747
ag786
aaNaS'@@unop'
p1059
asg2
(lp1060
g3
ag792
ag1045
asg30
(lp1061
g750
aS'@@color'
p1062
asg751
(lp1063
I0
aF0.01
aF0.10000000000000001
aF0.20000000000000001
aF0.5
aS'@@stddev_period'
p1064
asg752
(lp1065
g1046
aS'@@p7_mean_stddev'
p1066
asg754
(lp1067
g1047
aS'@@p8_mean_stddev'
p1068
asg757
(lp1069
I0
aS'@@fdeg'
p1070
asg36
(lp1071
NaS'@@unit'
p1072
asg768
(lp1073
g811
aNaS'@@simul_funklet'
p1074
asg38
(lp1075
g758
aS'@@style'
p1076
asg759
(lp1077
g1048
aS'@@p1_mean_stddev'
p1078
asg40
(lp1079
g761
aS'@@descr'
p1080
asg763
(lp1081
g1049
aS'@@p5_mean_stddev'
p1082
asg769
(lp1083
(lp1084
F0.0
aF0.0
aaS'@@p0_mean_stddev'
p1085
asg37
(lp1086
I5
aS'@@size'
p1087
asg770
(lp1088
S'FJones'
p1089
aS'@@@Jsequence'
p1090
asg78
(lp1091
F1.0
aS'@@c00_default'
p1092
asg771
(lp1093
g1089
aS'@@@Jsequence_KJones'
p1094
asg833
(lp1095
I0
aF0.10000000000000001
aF0.20000000000000001
aF0.5
aF-0.10000000000000001
aS'@@mean_c00'
p1096
asg772
(lp1097
(lp1098
F0.0
aF0.0
aaS'@@p9_mean_stddev'
p1099
asg773
(lp1100
(lp1101
I0
aI1
aI2
aI3
aI4
aa(lp1102
I0
aI1
aI2
aI3
aI4
aI5
aI6
aa(lp1103
I0
aI1
aI2
aI3
aI4
aI5
aI6
aI7
aI8
aI9
aI10
aI11
aI12
aI13
aa(lp1104
I0
aI1
aI2
aI3
aI4
aI5
aI6
aI7
aI8
aI9
aI10
aI11
aI12
aI13
aI14
aag844
aS'@@stations'
p1105
asg774
(lp1106
I20
aS'@@timescale_min'
p1107
asg775
(lp1108
(lp1109
F0.0
aF0.0
aaS'@@p3_mean_stddev'
p1110
asg776
(lp1111
(lp1112
F0.0
aF0.0
aaS'@@p6_mean_stddev'
p1113
asg854
(lp1114
F0.29999999999999999
aF0.5
aI1
aI2
aI3
aS'@@mean_period'
p1115
asg777
(lp1116
(lp1117
F0.0
aF0.0
aaS'@@p2_mean_stddev'
p1118
asg860
(lp1119
I0
aF0.0001
aF0.001
aF0.01
aF0.10000000000000001
aI1
aS'@@stddev_c00'
p1120
asg778
(lp1121
(lp1122
F0.0
aF0.0
aaS'@@p4_mean_stddev'
p1123
asg779
(lp1124
F1.0
aS'@@c00_scale'
p1125
asg780
(lp1126
g1089
aS'@@@Jsequence_simul'
p1127
assg195
g870
sg209
S'** Description of available inarg record(s) for: MG_JEN_Joneset::FJones()  version=16dec2005  defined=2006-04-13 12:19'
p1128
sg211
I00
sg212
S'2006-04-13 12:19'
p1129
sg103
g1002
sg98
S'MG_JEN_Joneset'
p1130
sg201
S'** Specific description of inarg record for: MG_JEN_Joneset::FJones()  version=16dec2005  defined=2006-04-13 12:19'
p1131
sg877
(dp1132
g2
I00
sg773
I00
ssg197
g1129
sg217
(lp1133
g49
ag773
ag2
ag770
ag780
ag771
ag833
ag860
ag854
ag751
ag746
ag774
ag757
ag30
ag38
ag37
ag78
ag779
ag40
ag36
ag768
ag769
ag759
ag777
ag775
ag778
ag763
ag776
ag752
ag754
ag772
asg52
(dp1134
g746
g881
sg2
g883
sg30
g58
sg751
g884
sg752
g885
sg754
g886
sg757
g888
sg36
g36
sg768
g889
sg38
g64
sg759
g890
sg40
g891
sg763
g892
sg769
g896
sg37
g894
sg770
g893
sg78
g895
sg771
g893
sg833
g897
sg772
g898
sg773
g899
sg774
g900
sg775
g901
sg776
g902
sg854
g903
sg777
g904
sg860
g905
sg778
g906
sg779
g907
sg780
g893
ssg203
S'MG_JEN_JonesetFJones'
p1135
ssg771
g1089
sg37
I5
sg770
g1089
sg909
I50
sg78
F1.0
sg910
I500
sg769
g1084
sg833
F0.10000000000000001
sg772
g1098
sg773
g1105
sg774
I20
sg775
g1109
sg776
g1112
sg854
F1.0
sg777
g1117
sg860
F0.01
sg778
g1122
sg779
F1.0
sg780
g1089
sg911
F0.02
ssg13
S'@@parmtable'
p1136
sS'[simul_uvp]./MG_JEN_Joneset.DJones_WSRT()'
p1137
(dp1138
g746
g747
sg2
S'@@polrep'
p1139
sg30
g750
sg751
F0.10000000000000001
sg752
(lp1140
F0.0
aF0.0
asS'coupled_XY_Dell'
p1141
I01
sg754
(lp1142
F0.0
aF0.0
asg757
I0
sg36
Nsg37
I5
sg38
g758
sg759
(lp1143
F0.0
aF0.0
asg40
g761
sg762
F0.002
sg763
(lp1144
F0.0
aF0.0
asg49
(dp1145
g199
S'MG_JEN_Joneset::DJones_WSRT()'
p1146
sg51
g1137
sg100
(dp1147
g746
I00
sg2
I01
sg30
I01
sg752
I01
sg754
I01
sg757
I01
sg36
I01
sg768
I01
sg38
I01
sg759
I01
sg40
I01
sg763
I01
sg769
I01
sg37
I01
sg770
I01
sg78
I01
sg771
I01
sg772
I01
sg773
I01
sg774
I01
sg775
I01
sg776
I01
sg777
I01
sg778
I01
sg779
I01
sg780
I01
ssg105
S'defines 2x2 DJones_WSRT (polarisation leakage) matrices'
p1148
sg96
g97
sg109
S'MG_JEN_Joneset::DJones_WSRT()  version=16dec2005  defined=2006-04-13 12:19'
p1149
sg205
S'DJones_WSRT'
p1150
sg111
(dp1151
g746
(lp1152
g747
ag786
a(lp1153
g747
ag786
aaNaS'@@unop'
p1154
asg2
(lp1155
g3
ag792
ag1139
asg30
(lp1156
g750
aS'@@color'
p1157
asg751
(lp1158
I0
aF0.01
aF0.10000000000000001
aF0.20000000000000001
aF0.5
aS'@@stddev_period'
p1159
asg752
(lp1160
g1140
aS'@@p7_mean_stddev'
p1161
asg1141
(lp1162
I01
aI00
aS'@@coupled_XY_Dell'
p1163
asg754
(lp1164
g1142
aS'@@p8_mean_stddev'
p1165
asg757
(lp1166
I0
aS'@@fdeg'
p1167
asg36
(lp1168
NaS'@@unit'
p1169
asg768
(lp1170
g811
aNaS'@@simul_funklet'
p1171
asg38
(lp1172
g758
aS'@@style'
p1173
asg759
(lp1174
g1143
aS'@@p1_mean_stddev'
p1175
asg40
(lp1176
g761
aS'@@descr'
p1177
asg763
(lp1178
g1144
aS'@@p5_mean_stddev'
p1179
asg771
(lp1180
S'DJones_WSRT'
p1181
aS'@@@Jsequence_KJones'
p1182
asg37
(lp1183
I5
aS'@@size'
p1184
asg770
(lp1185
g1181
aS'@@@Jsequence'
p1186
asg78
(lp1187
F1.0
aS'@@c00_default'
p1188
asg769
(lp1189
(lp1190
F0.0
aF0.0
aaS'@@p0_mean_stddev'
p1191
asg833
(lp1192
I0
aF0.10000000000000001
aF0.20000000000000001
aF0.5
aF-0.10000000000000001
aS'@@mean_c00'
p1193
asS'coupled_XY_Dang'
p1194
(lp1195
I01
aI00
aS'@@coupled_XY_Dang'
p1196
asg772
(lp1197
(lp1198
F0.0
aF0.0
aaS'@@p9_mean_stddev'
p1199
asg773
(lp1200
(lp1201
I0
aI1
aI2
aI3
aI4
aa(lp1202
I0
aI1
aI2
aI3
aI4
aI5
aI6
aa(lp1203
I0
aI1
aI2
aI3
aI4
aI5
aI6
aI7
aI8
aI9
aI10
aI11
aI12
aI13
aa(lp1204
I0
aI1
aI2
aI3
aI4
aI5
aI6
aI7
aI8
aI9
aI10
aI11
aI12
aI13
aI14
aag844
aS'@@stations'
p1205
asg774
(lp1206
I20
aS'@@timescale_min'
p1207
asg775
(lp1208
(lp1209
F0.0
aF0.0
aaS'@@p3_mean_stddev'
p1210
asg776
(lp1211
(lp1212
F0.0
aF0.0
aaS'@@p6_mean_stddev'
p1213
asg854
(lp1214
F0.29999999999999999
aF0.5
aI1
aI2
aI3
aS'@@mean_period'
p1215
asg777
(lp1216
(lp1217
F0.0
aF0.0
aaS'@@p2_mean_stddev'
p1218
asg860
(lp1219
I0
aF0.0001
aF0.001
aF0.01
aF0.10000000000000001
aI1
aS'@@stddev_c00'
p1220
asg778
(lp1221
(lp1222
F0.0
aF0.0
aaS'@@p4_mean_stddev'
p1223
asg779
(lp1224
F1.0
aS'@@c00_scale'
p1225
asg780
(lp1226
g1181
aS'@@@Jsequence_simul'
p1227
assg195
g870
sg209
S'** Description of available inarg record(s) for: MG_JEN_Joneset::DJones_WSRT()  version=16dec2005  defined=2006-04-13 12:19'
p1228
sg211
I00
sg212
S'2006-04-13 12:19'
p1229
sg103
g1002
sg98
S'MG_JEN_Joneset'
p1230
sg107
(dp1231
g1194
I00
sg1141
I00
ssg201
S'** Specific description of inarg record for: MG_JEN_Joneset::DJones_WSRT()  version=16dec2005  defined=2006-04-13 12:19'
p1232
sg877
(dp1233
g2
I00
sg773
I00
ssg197
g1229
sg217
(lp1234
g49
ag773
ag2
ag770
ag780
ag771
ag1194
ag1141
ag833
ag860
ag854
ag751
ag746
ag774
ag757
ag30
ag38
ag37
ag78
ag779
ag40
ag36
ag768
ag769
ag759
ag777
ag775
ag778
ag763
ag776
ag752
ag754
ag772
asg52
(dp1235
g746
g881
sg2
g883
sg30
g58
sg751
g884
sg752
g885
sg1141
S'if True, XDell = -YDell per station'
p1236
sg754
g886
sg757
g888
sg36
g36
sg768
g889
sg38
g64
sg759
g890
sg40
g891
sg763
g892
sg771
g893
sg37
g894
sg770
g893
sg78
g895
sg769
g896
sg833
g897
sg1194
S'if True, XDang = YDang per station'
p1237
sg772
g898
sg773
g899
sg774
g900
sg775
g901
sg776
g902
sg854
g903
sg777
g904
sg860
g905
sg778
g906
sg779
g907
sg780
g893
ssg203
S'MG_JEN_JonesetDJones_WSRT'
p1238
ssg771
g1181
sg768
Nsg770
g1181
sg909
I100
sg78
F1.0
sg910
I3000
sg769
g1190
sg833
F0.10000000000000001
sg1194
I01
sg772
g1198
sg773
g1205
sg774
I20
sg775
g1209
sg776
g1212
sg854
F1.0
sg777
g1217
sg860
F0.01
sg778
g1222
sg779
F1.0
sg780
g1181
sg911
F0.00020000000000000001
ssg49
(dp1239
g199
S'MG_JEN_Cohset::Jones()'
p1240
sg51
g742
sg100
(dp1241
g2
I01
sg773
I01
sg913
I01
sg13
I01
sg771
I01
sg780
I01
sg770
I01
ssg203
S'MG_JEN_CohsetJones'
p1242
sg96
g97
sg105
S'Make a Joneset by creating and multiplying a sequence of one ore more Jonesets'
p1243
sg109
S'MG_JEN_Cohset::Jones()  version=25dec2005  defined=2006-04-13 12:19'
p1244
sg205
S'Jones'
p1245
sg111
(dp1246
g2
(lp1247
g3
ag792
ag912
asg773
(lp1248
(lp1249
I0
aI1
aI2
aI3
aI4
aa(lp1250
I0
aI1
aI2
aI3
aI4
aI5
aI6
aa(lp1251
I0
aI1
aI2
aI3
aI4
aI5
aI6
aI7
aI8
aI9
aI10
aI11
aI12
aI13
aa(lp1252
I0
aI1
aI2
aI3
aI4
aI5
aI6
aI7
aI8
aI9
aI10
aI11
aI12
aI13
aI14
aag844
ag1009
asg913
(lp1253
I00
ag914
asg13
(lp1254
NaS'test'
p1255
ag1136
asg771
(lp1256
NaS'@@@Jsequence_KJones'
p1257
asg780
(lp1258
NaS'@@@Jsequence_simul'
p1259
asS'Jsequence'
p1260
(lp1261
(lp1262
S'GJones'
p1263
aa(lp1264
g961
aa(lp1265
g1089
aa(lp1266
g1022
aa(lp1267
g1181
aa(lp1268
g1263
ag1181
aa(lp1269
S'EJones_WSRT'
p1270
aa(lp1271
g1263
ag1270
aa(lp1272
g822
aa(lp1273
aS'@@Jsequence'
p1274
asg770
(lp1275
NaS'@@@Jsequence'
p1276
assg195
g870
sg209
S'** Description of available inarg record(s) for: MG_JEN_Cohset::Jones()  version=25dec2005  defined=2006-04-13 12:19'
p1277
sg211
I00
sg212
S'2006-04-13 12:19'
p1278
sg103
S'25dec2005'
p1279
sg98
S'MG_JEN_Cohset'
p1280
sg201
S'** Specific description of inarg record for: MG_JEN_Cohset::Jones()  version=25dec2005  defined=2006-04-13 12:19'
p1281
sg213
(dp1282
g405
S'** JEN_inarg.attach(): attached: [simul_uvp]./MG_JEN_Joneset.FJones()'
p1283
sg215
S'** JEN_inarg.attach(): attached: [simul_uvp]./MG_JEN_Joneset.GJones()'
p1284
sg408
S'** JEN_inarg.attach(): attached: [simul_uvp]./MG_JEN_Joneset.KJones()'
p1285
sg410
S'** JEN_inarg.attach(): attached: [simul_uvp]./MG_JEN_Joneset.BJones()'
p1286
sS'5'
p1287
S'** JEN_inarg.attach(): attached: [simul_uvp]./MG_JEN_Joneset.EJones_WSRT()'
p1288
sS'4'
p1289
S'** JEN_inarg.attach(): attached: [simul_uvp]./MG_JEN_Joneset.DJones_WSRT()'
p1290
sS'7'
p1291
S"  2: ....[simul_uvp]./MG_JEN_Cohset.Jones() (qual=simul_uvp): .modify(Jsequence):   []  ->  ['GJones']"
p1292
sS'6'
p1293
S'** JEN_inarg.attach(): attached: [simul_uvp]./MG_JEN_Joneset.JJones()'
p1294
ssg197
g1278
sg877
(dp1295
g913
I00
sg13
I00
sg2
I00
sg773
I00
ssg217
(lp1296
g49
ag773
ag2
ag770
ag780
ag771
ag13
ag913
ag1260
aS'[simul_uvp]./MG_JEN_Joneset.GJones()'
p1297
ag1043
ag915
ag1010
ag1137
aS'[simul_uvp]./MG_JEN_Joneset.EJones_WSRT()'
p1298
ag744
asg52
(dp1299
g2
g883
sg773
g899
sg913
S'if True, the Joneset reprsents uv-plane effects (q=uvp)'
p1300
sg13
S'name of the MeqParm table to be used'
p1301
sg771
g893
sg780
g893
sg1260
S'sequence of Jones matrices to be used'
p1302
sg770
g893
sssg771
Nsg780
Nsg1260
(lp1303
g1263
asg1297
(dp1304
g746
g747
sg2
S'@@polrep'
p1305
sg30
g750
sg751
F0.10000000000000001
sg752
(lp1306
F0.0
aF0.0
asg754
(lp1307
F0.0
aF0.0
asg757
I0
sg36
Nsg37
I5
sg38
g758
sg759
(lp1308
F0.0
aF0.0
asg40
g761
sg763
(lp1309
F0.0
aF0.0
asg49
(dp1310
g199
S'MG_JEN_Joneset::GJones()'
p1311
sg51
g1297
sg100
(dp1312
g746
I00
sg2
I01
sg30
I01
sg752
I01
sg754
I01
sg757
I01
sg36
I01
sg768
I01
sg38
I01
sg759
I01
sg40
I01
sg763
I01
sg769
I01
sg37
I01
sg770
I01
sg78
I01
sg771
I01
sS'Gpolar'
p1313
I01
sg772
I01
sg773
I01
sg774
I01
sg775
I01
sg776
I01
sg777
I01
sg778
I01
sg779
I01
sg780
I01
ssg105
S'Defines diagonal 2x2 Jones matrices that represent complex gain:\n    Gjones(station,source) matrix elements:\n    - G_11 = Ggain_X*exp(iGphase_X)\n    - G_12 = 0\n    - G_21 = 0\n    - G_22 = Ggain_Y*exp(iGphase_Y)\n    For circular polarisation, R and L are used rather than X and Y\n    '
p1314
sg96
g97
sg109
S'MG_JEN_Joneset::GJones()  version=15dec2005  defined=2006-04-13 12:19'
p1315
sg205
S'GJones'
p1316
sg111
(dp1317
g746
(lp1318
g747
ag786
a(lp1319
g747
ag786
aaNaS'@@unop'
p1320
asg2
(lp1321
g3
ag792
ag1305
asg30
(lp1322
g750
aS'@@color'
p1323
asg751
(lp1324
I0
aF0.01
aF0.10000000000000001
aF0.20000000000000001
aF0.5
aS'@@stddev_period'
p1325
asg752
(lp1326
g1306
aS'@@p7_mean_stddev'
p1327
asg754
(lp1328
g1307
aS'@@p8_mean_stddev'
p1329
asg757
(lp1330
I0
aS'@@fdeg'
p1331
asg36
(lp1332
NaS'@@unit'
p1333
asg768
(lp1334
g811
aNaS'@@simul_funklet'
p1335
asg38
(lp1336
g758
aS'@@style'
p1337
asg759
(lp1338
g1308
aS'@@p1_mean_stddev'
p1339
asg40
(lp1340
g761
aS'@@descr'
p1341
asg763
(lp1342
g1309
aS'@@p5_mean_stddev'
p1343
asg769
(lp1344
(lp1345
F0.0
aF0.0
aaS'@@p0_mean_stddev'
p1346
asg37
(lp1347
I5
aS'@@size'
p1348
asg770
(lp1349
g1263
aS'@@@Jsequence'
p1350
asg78
(lp1351
F1.0
aS'@@c00_default'
p1352
asg771
(lp1353
g1263
aS'@@@Jsequence_KJones'
p1354
asg833
(lp1355
I0
aF0.10000000000000001
aF0.20000000000000001
aF0.5
aF-0.10000000000000001
aS'@@mean_c00'
p1356
asg1313
(lp1357
I01
aI00
aS'@@Gpolar'
p1358
asg772
(lp1359
(lp1360
F0.0
aF0.0
aaS'@@p9_mean_stddev'
p1361
asg773
(lp1362
(lp1363
I0
aI1
aI2
aI3
aI4
aa(lp1364
I0
aI1
aI2
aI3
aI4
aI5
aI6
aa(lp1365
I0
aI1
aI2
aI3
aI4
aI5
aI6
aI7
aI8
aI9
aI10
aI11
aI12
aI13
aa(lp1366
I0
aI1
aI2
aI3
aI4
aI5
aI6
aI7
aI8
aI9
aI10
aI11
aI12
aI13
aI14
aag844
aS'@@stations'
p1367
asg774
(lp1368
I20
aS'@@timescale_min'
p1369
asg775
(lp1370
(lp1371
F0.0
aF0.0
aaS'@@p3_mean_stddev'
p1372
asg776
(lp1373
(lp1374
F0.0
aF0.0
aaS'@@p6_mean_stddev'
p1375
asg854
(lp1376
F0.29999999999999999
aF0.5
aI1
aI2
aI3
aS'@@mean_period'
p1377
asg777
(lp1378
(lp1379
F0.0
aF0.0
aaS'@@p2_mean_stddev'
p1380
asg860
(lp1381
I0
aF0.0001
aF0.001
aF0.01
aF0.10000000000000001
aI1
aS'@@stddev_c00'
p1382
asg778
(lp1383
(lp1384
F0.0
aF0.0
aaS'@@p4_mean_stddev'
p1385
asg779
(lp1386
F1.0
aS'@@c00_scale'
p1387
asg780
(lp1388
g1263
aS'@@@Jsequence_simul'
p1389
assg195
g870
sg209
S'** Description of available inarg record(s) for: MG_JEN_Joneset::GJones()  version=15dec2005  defined=2006-04-13 12:19'
p1390
sg211
I00
sg212
S'2006-04-13 12:19'
p1391
sg103
S'15dec2005'
p1392
sg98
S'MG_JEN_Joneset'
p1393
sg107
(dp1394
g1313
I00
ssg201
S'** Specific description of inarg record for: MG_JEN_Joneset::GJones()  version=15dec2005  defined=2006-04-13 12:19'
p1395
sg877
(dp1396
g2
I00
sg773
I00
ssg197
g1391
sg217
(lp1397
g49
ag773
ag2
ag770
ag780
ag771
ag1313
ag833
ag860
ag854
ag751
ag746
ag774
ag757
ag30
ag38
ag37
ag78
ag779
ag40
ag36
ag768
ag769
ag759
ag777
ag775
ag778
ag763
ag776
ag752
ag754
ag772
asg52
(dp1398
g746
g881
sg2
g883
sg30
g58
sg751
g884
sg752
g885
sg754
g886
sg757
g888
sg36
g36
sg768
g889
sg38
g64
sg759
g890
sg40
g891
sg763
g892
sg769
g896
sg37
g894
sg770
g893
sg78
g895
sg771
g893
sg833
g897
sg1313
S'obsolete, kept only for upward compatibility'
p1399
sg772
g898
sg773
g899
sg774
g900
sg775
g901
sg776
g902
sg854
g903
sg777
g904
sg860
g905
sg778
g906
sg779
g907
sg780
g893
ssg203
S'MG_JEN_JonesetGJones'
p1400
ssg771
g1263
sg768
Nsg770
g1263
sg78
F1.0
sg769
g1345
sg833
F0.10000000000000001
sg1313
I01
sg772
g1360
sg773
g1367
sg774
I20
sg775
g1371
sg776
g1374
sg854
F1.0
sg777
g1379
sg860
F0.01
sg778
g1384
sg779
F1.0
sg780
g1263
ssg1298
(dp1401
g746
g747
sg2
S'@@polrep'
p1402
sg30
g750
sg751
F0.10000000000000001
sg752
(lp1403
F0.0
aF0.0
asg754
(lp1404
F0.0
aF0.0
asg757
I0
sg36
Nsg768
Nsg38
g758
sg759
(lp1405
F0.0
aF0.0
asg40
g761
sg763
(lp1406
F0.0
aF0.0
asg49
(dp1407
g199
S'MG_JEN_Joneset::EJones_WSRT()'
p1408
sg51
g1298
sg100
(dp1409
g746
I00
sg2
I01
sg30
I01
sg752
I01
sg754
I01
sg757
I01
sg36
I01
sg768
I01
sg38
I01
sg759
I01
sg40
I01
sg763
I01
sg769
I01
sg37
I01
sg770
I01
sg78
I01
sg771
I01
sg772
I01
sg773
I01
sg774
I01
sg775
I01
sg776
I01
sg777
I01
sg778
I01
sg779
I01
sg780
I01
ssg105
S'defines EJones (voltage beamshape) matrices for WSRT (l,m interpolatable)\n    Ejones(station,source) matrix elements:\n    - E_11 = Egain_X*exp(iEphase_X)\n    - E_12 = 0\n    - E_21 = 0\n    - E_22 = Egain_Y*exp(iEphase_Y)\n    For circular polarisation, R and L are used rather than X and Y\n    '
p1410
sg96
g97
sg109
S'MG_JEN_Joneset::EJones_WSRT()  version=15dec2005  defined=2006-04-13 12:19'
p1411
sg205
S'EJones_WSRT'
p1412
sg111
(dp1413
g746
(lp1414
g747
ag786
a(lp1415
g747
ag786
aaNaS'@@unop'
p1416
asg2
(lp1417
g3
ag792
ag1402
asg30
(lp1418
g750
aS'@@color'
p1419
asg751
(lp1420
I0
aF0.01
aF0.10000000000000001
aF0.20000000000000001
aF0.5
aS'@@stddev_period'
p1421
asg752
(lp1422
g1403
aS'@@p7_mean_stddev'
p1423
asg754
(lp1424
g1404
aS'@@p8_mean_stddev'
p1425
asg757
(lp1426
I0
aS'@@fdeg'
p1427
asg36
(lp1428
NaS'@@unit'
p1429
asg768
(lp1430
g811
aNaS'@@simul_funklet'
p1431
asg38
(lp1432
g758
aS'@@style'
p1433
asg759
(lp1434
g1405
aS'@@p1_mean_stddev'
p1435
asg40
(lp1436
g761
aS'@@descr'
p1437
asg763
(lp1438
g1406
aS'@@p5_mean_stddev'
p1439
asg769
(lp1440
(lp1441
F0.0
aF0.0
aaS'@@p0_mean_stddev'
p1442
asg37
(lp1443
I5
aS'@@size'
p1444
asg770
(lp1445
g1270
aS'@@@Jsequence'
p1446
asg78
(lp1447
F1.0
aS'@@c00_default'
p1448
asg771
(lp1449
g1270
aS'@@@Jsequence_KJones'
p1450
asg833
(lp1451
I0
aF0.10000000000000001
aF0.20000000000000001
aF0.5
aF-0.10000000000000001
aS'@@mean_c00'
p1452
asg772
(lp1453
(lp1454
F0.0
aF0.0
aaS'@@p9_mean_stddev'
p1455
asg773
(lp1456
(lp1457
I0
aI1
aI2
aI3
aI4
aa(lp1458
I0
aI1
aI2
aI3
aI4
aI5
aI6
aa(lp1459
I0
aI1
aI2
aI3
aI4
aI5
aI6
aI7
aI8
aI9
aI10
aI11
aI12
aI13
aa(lp1460
I0
aI1
aI2
aI3
aI4
aI5
aI6
aI7
aI8
aI9
aI10
aI11
aI12
aI13
aI14
aag844
aS'@@stations'
p1461
asg774
(lp1462
I20
aS'@@timescale_min'
p1463
asg775
(lp1464
(lp1465
F0.0
aF0.0
aaS'@@p3_mean_stddev'
p1466
asg776
(lp1467
(lp1468
F0.0
aF0.0
aaS'@@p6_mean_stddev'
p1469
asg854
(lp1470
F0.29999999999999999
aF0.5
aI1
aI2
aI3
aS'@@mean_period'
p1471
asg777
(lp1472
(lp1473
F0.0
aF0.0
aaS'@@p2_mean_stddev'
p1474
asg860
(lp1475
I0
aF0.0001
aF0.001
aF0.01
aF0.10000000000000001
aI1
aS'@@stddev_c00'
p1476
asg778
(lp1477
(lp1478
F0.0
aF0.0
aaS'@@p4_mean_stddev'
p1479
asg779
(lp1480
F1.0
aS'@@c00_scale'
p1481
asg780
(lp1482
g1270
aS'@@@Jsequence_simul'
p1483
assg195
g870
sg209
S'** Description of available inarg record(s) for: MG_JEN_Joneset::EJones_WSRT()  version=15dec2005  defined=2006-04-13 12:19'
p1484
sg211
I00
sg212
S'2006-04-13 12:19'
p1485
sg103
g1392
sg98
S'MG_JEN_Joneset'
p1486
sg201
S'** Specific description of inarg record for: MG_JEN_Joneset::EJones_WSRT()  version=15dec2005  defined=2006-04-13 12:19'
p1487
sg877
(dp1488
g2
I00
sg773
I00
ssg197
g1485
sg217
(lp1489
g49
ag773
ag2
ag770
ag780
ag771
ag833
ag860
ag854
ag751
ag746
ag774
ag757
ag30
ag38
ag37
ag78
ag779
ag40
ag36
ag768
ag769
ag759
ag777
ag775
ag778
ag763
ag776
ag752
ag754
ag772
asg52
(dp1490
g746
g881
sg2
g883
sg30
g58
sg751
g884
sg752
g885
sg754
g886
sg757
g888
sg36
g36
sg768
g889
sg38
g64
sg759
g890
sg40
g891
sg763
g892
sg769
g896
sg37
g894
sg770
g893
sg78
g895
sg771
g893
sg833
g897
sg772
g898
sg773
g899
sg774
g900
sg775
g901
sg776
g902
sg854
g903
sg777
g904
sg860
g905
sg778
g906
sg779
g907
sg780
g893
ssg203
S'MG_JEN_JonesetEJones_WSRT'
p1491
ssg771
g1270
sg37
I5
sg770
g1270
sg78
F1.0
sg769
g1441
sg833
F0.10000000000000001
sg772
g1454
sg773
g1461
sg774
I20
sg775
g1465
sg776
g1468
sg854
F1.0
sg777
g1473
sg860
F0.01
sg778
g1478
sg779
F1.0
sg780
g1270
ssg770
Nssg2
S'@@polrep'
p1492
sg773
S'@@stations'
p1493
sS'visu'
p1494
I01
sg49
(dp1495
g51
g740
sg52
(dp1496
g2
g883
sg773
g899
sg1494
S'if True, visualise the source contribitions'
p1497
sS'nr_lsm_sources'
p1498
S'nr of lsm sources to be included (in order of brightness)'
p1499
sg771
g893
sg780
g893
sg770
g893
ssg96
g97
sg98
S'MG_JEN_Cohset'
p1500
sg100
(dp1501
g771
I01
sg780
I01
sg770
I01
sg2
I01
sg773
I01
ssg103
S'20mar2006'
p1502
sg877
(dp1503
g2
I00
sg773
I00
ssg105
S'Obsolete (upward compatibility) version of .predict_cps()'
p1504
sg107
(dp1505
g1494
I00
ssg109
S'MG_JEN_Cohset::predict_lsm()  version=20mar2006  defined=2006-04-13 12:19'
p1506
sg111
(dp1507
g2
(lp1508
g3
ag792
ag1492
asg773
(lp1509
(lp1510
I0
aI1
aI2
aI3
aI4
aa(lp1511
I0
aI1
aI2
aI3
aI4
aI5
aI6
aa(lp1512
I0
aI1
aI2
aI3
aI4
aI5
aI6
aI7
aI8
aI9
aI10
aI11
aI12
aI13
aa(lp1513
I0
aI1
aI2
aI3
aI4
aI5
aI6
aI7
aI8
aI9
aI10
aI11
aI12
aI13
aI14
aag844
ag1493
asg1494
(lp1514
I01
aI00
aS'@@visu'
p1515
asg1498
(lp1516
I1
aI2
aI3
aI5
aI10
aI20
aI100
aI1000
aI10000
aS'@@nr_lsm_sources'
p1517
asg771
(lp1518
NaS'@@@Jsequence_KJones'
p1519
asg780
(lp1520
NaS'@@@Jsequence_simul'
p1521
asg770
(lp1522
NaS'@@@Jsequence'
p1523
assg195
g225
sg197
S'2006-04-13 12:19'
p1524
sg199
S'MG_JEN_Cohset::predict_lsm()'
p1525
sg201
S'** Specific description of inarg record for: MG_JEN_Cohset::predict_lsm()  version=20mar2006  defined=2006-04-13 12:19'
p1526
sg203
S'MG_JEN_Cohsetpredict_lsm'
p1527
sg205
S'predict_lsm'
p1528
sg209
S'** Description of available inarg record(s) for: MG_JEN_Cohset::predict_lsm()  version=20mar2006  defined=2006-04-13 12:19'
p1529
sg211
I00
sg212
g1524
sg213
(dp1530
g405
S'** JEN_inarg.attach(): attached: [simul_uvp]./MG_JEN_Cohset.Jones()'
p1531
sg215
S'** JEN_inarg.attach(): attached: [simul_imp]./MG_JEN_Cohset.Jones()'
p1532
ssg217
(lp1533
g49
ag1498
ag1494
ag773
ag2
ag770
ag780
ag771
aS'[simul_imp]./MG_JEN_Cohset.Jones()'
p1534
ag742
assg1498
I10000
sg771
Nsg780
Nsg1534
(dp1535
S'[simul_imp]./MG_JEN_Joneset.BJones()'
p1536
(dp1537
g746
g747
sg2
S'@@polrep'
p1538
sg30
g750
sg751
F0.10000000000000001
sg752
(lp1539
F0.0
aF0.0
asg754
(lp1540
F0.0
aF0.0
asg757
I0
sg36
Nsg768
Nsg38
g758
sg759
(lp1541
F0.0
aF0.0
asg40
g761
sg762
F0.20000000000000001
sg763
(lp1542
F0.0
aF0.0
asg49
(dp1543
g199
S'MG_JEN_Joneset::BJones()'
p1544
sg51
g1536
sg100
(dp1545
g746
I00
sg2
I01
sg30
I01
sg752
I01
sg754
I01
sg757
I01
sg36
I01
sg768
I01
sg38
I01
sg759
I01
sg40
I01
sg763
I01
sg769
I01
sg37
I01
sg770
I01
sg78
I01
sg771
I01
sg772
I01
sg773
I01
sg774
I01
sg775
I01
sg776
I01
sg777
I01
sg778
I01
sg779
I01
sg780
I01
ssg105
g925
sg96
g97
sg109
S'MG_JEN_Joneset::BJones()  version=16dec2005  defined=2006-04-13 12:19'
p1546
sg205
S'BJones'
p1547
sg111
(dp1548
g746
(lp1549
g747
ag786
a(lp1550
g747
ag786
aaNaS'@@unop'
p1551
asg2
(lp1552
g3
ag792
ag1538
asg30
(lp1553
g750
aS'@@color'
p1554
asg751
(lp1555
I0
aF0.01
aF0.10000000000000001
aF0.20000000000000001
aF0.5
aS'@@stddev_period'
p1556
asg752
(lp1557
g1539
aS'@@p7_mean_stddev'
p1558
asg754
(lp1559
g1540
aS'@@p8_mean_stddev'
p1560
asg757
(lp1561
I0
aS'@@fdeg'
p1562
asg36
(lp1563
NaS'@@unit'
p1564
asg768
(lp1565
g811
aNaS'@@simul_funklet'
p1566
asg38
(lp1567
g758
aS'@@style'
p1568
asg759
(lp1569
g1541
aS'@@p1_mean_stddev'
p1570
asg40
(lp1571
g761
aS'@@descr'
p1572
asg763
(lp1573
g1542
aS'@@p5_mean_stddev'
p1574
asg769
(lp1575
(lp1576
F0.0
aF0.0
aaS'@@p0_mean_stddev'
p1577
asg37
(lp1578
I5
aS'@@size'
p1579
asg770
(lp1580
g961
aS'@@@Jsequence'
p1581
asg78
(lp1582
F1.0
aS'@@c00_default'
p1583
asg771
(lp1584
g961
aS'@@@Jsequence_KJones'
p1585
asg833
(lp1586
I0
aF0.10000000000000001
aF0.20000000000000001
aF0.5
aF-0.10000000000000001
aS'@@mean_c00'
p1587
asg772
(lp1588
(lp1589
F0.0
aF0.0
aaS'@@p9_mean_stddev'
p1590
asg773
(lp1591
(lp1592
I0
aI1
aI2
aI3
aI4
aa(lp1593
I0
aI1
aI2
aI3
aI4
aI5
aI6
aa(lp1594
I0
aI1
aI2
aI3
aI4
aI5
aI6
aI7
aI8
aI9
aI10
aI11
aI12
aI13
aa(lp1595
I0
aI1
aI2
aI3
aI4
aI5
aI6
aI7
aI8
aI9
aI10
aI11
aI12
aI13
aI14
aag844
aS'@@stations'
p1596
asg774
(lp1597
I20
aS'@@timescale_min'
p1598
asg775
(lp1599
(lp1600
F0.0
aF0.0
aaS'@@p3_mean_stddev'
p1601
asg776
(lp1602
(lp1603
F0.0
aF0.0
aaS'@@p6_mean_stddev'
p1604
asg854
(lp1605
F0.29999999999999999
aF0.5
aI1
aI2
aI3
aS'@@mean_period'
p1606
asg777
(lp1607
(lp1608
F0.0
aF0.0
aaS'@@p2_mean_stddev'
p1609
asg860
(lp1610
I0
aF0.0001
aF0.001
aF0.01
aF0.10000000000000001
aI1
aS'@@stddev_c00'
p1611
asg778
(lp1612
(lp1613
F0.0
aF0.0
aaS'@@p4_mean_stddev'
p1614
asg779
(lp1615
F1.0
aS'@@c00_scale'
p1616
asg780
(lp1617
g961
aS'@@@Jsequence_simul'
p1618
assg195
S'simul_imp'
p1619
sg209
S'** Description of available inarg record(s) for: MG_JEN_Joneset::BJones()  version=16dec2005  defined=2006-04-13 12:19'
p1620
sg211
I00
sg212
S'2006-04-13 12:19'
p1621
sg103
g1002
sg98
S'MG_JEN_Joneset'
p1622
sg201
S'** Specific description of inarg record for: MG_JEN_Joneset::BJones()  version=16dec2005  defined=2006-04-13 12:19'
p1623
sg877
(dp1624
g2
I00
sg773
I00
ssg197
g1621
sg217
(lp1625
g49
ag773
ag2
ag770
ag780
ag771
ag833
ag860
ag854
ag751
ag746
ag774
ag757
ag30
ag38
ag37
ag78
ag779
ag40
ag36
ag768
ag769
ag759
ag777
ag775
ag778
ag763
ag776
ag752
ag754
ag772
asg52
(dp1626
g746
g881
sg2
g883
sg30
g58
sg751
g884
sg752
g885
sg754
g886
sg757
g888
sg36
g36
sg768
g889
sg38
g64
sg759
g890
sg40
g891
sg763
g892
sg769
g896
sg37
g894
sg770
g893
sg78
g895
sg771
g893
sg833
g897
sg772
g898
sg773
g899
sg774
g900
sg775
g901
sg776
g902
sg854
g903
sg777
g904
sg860
g905
sg778
g906
sg779
g907
sg780
g893
ssg203
S'MG_JEN_JonesetBJones'
p1627
ssg771
g961
sg37
I5
sg770
g961
sg909
I100
sg78
F1.0
sg910
I5000
sg769
g1576
sg833
F0.10000000000000001
sg772
g1589
sg773
g1596
sg774
I20
sg775
g1600
sg776
g1603
sg854
F1.0
sg777
g1608
sg860
F0.01
sg778
g1613
sg779
F1.0
sg780
g961
sg911
F0.02
ssg2
S'@@polrep'
p1628
sS'[simul_imp]./MG_JEN_Joneset.EJones_WSRT()'
p1629
(dp1630
g746
g747
sg2
S'@@polrep'
p1631
sg30
g750
sg751
F0.10000000000000001
sg752
(lp1632
F0.0
aF0.0
asg754
(lp1633
F0.0
aF0.0
asg757
I0
sg36
Nsg768
Nsg38
g758
sg759
(lp1634
F0.0
aF0.0
asg40
g761
sg763
(lp1635
F0.0
aF0.0
asg49
(dp1636
g199
S'MG_JEN_Joneset::EJones_WSRT()'
p1637
sg51
g1629
sg100
(dp1638
g746
I00
sg2
I01
sg30
I01
sg752
I01
sg754
I01
sg757
I01
sg36
I01
sg768
I01
sg38
I01
sg759
I01
sg40
I01
sg763
I01
sg769
I01
sg37
I01
sg770
I01
sg78
I01
sg771
I01
sg772
I01
sg773
I01
sg774
I01
sg775
I01
sg776
I01
sg777
I01
sg778
I01
sg779
I01
sg780
I01
ssg105
g1410
sg96
g97
sg109
S'MG_JEN_Joneset::EJones_WSRT()  version=15dec2005  defined=2006-04-13 12:19'
p1639
sg205
S'EJones_WSRT'
p1640
sg111
(dp1641
g746
(lp1642
g747
ag786
a(lp1643
g747
ag786
aaNaS'@@unop'
p1644
asg2
(lp1645
g3
ag792
ag1631
asg30
(lp1646
g750
aS'@@color'
p1647
asg751
(lp1648
I0
aF0.01
aF0.10000000000000001
aF0.20000000000000001
aF0.5
aS'@@stddev_period'
p1649
asg752
(lp1650
g1632
aS'@@p7_mean_stddev'
p1651
asg754
(lp1652
g1633
aS'@@p8_mean_stddev'
p1653
asg757
(lp1654
I0
aS'@@fdeg'
p1655
asg36
(lp1656
NaS'@@unit'
p1657
asg768
(lp1658
g811
aNaS'@@simul_funklet'
p1659
asg38
(lp1660
g758
aS'@@style'
p1661
asg759
(lp1662
g1634
aS'@@p1_mean_stddev'
p1663
asg40
(lp1664
g761
aS'@@descr'
p1665
asg763
(lp1666
g1635
aS'@@p5_mean_stddev'
p1667
asg769
(lp1668
(lp1669
F0.0
aF0.0
aaS'@@p0_mean_stddev'
p1670
asg37
(lp1671
I5
aS'@@size'
p1672
asg770
(lp1673
g1270
aS'@@@Jsequence'
p1674
asg78
(lp1675
F1.0
aS'@@c00_default'
p1676
asg771
(lp1677
g1270
aS'@@@Jsequence_KJones'
p1678
asg833
(lp1679
I0
aF0.10000000000000001
aF0.20000000000000001
aF0.5
aF-0.10000000000000001
aS'@@mean_c00'
p1680
asg772
(lp1681
(lp1682
F0.0
aF0.0
aaS'@@p9_mean_stddev'
p1683
asg773
(lp1684
(lp1685
I0
aI1
aI2
aI3
aI4
aa(lp1686
I0
aI1
aI2
aI3
aI4
aI5
aI6
aa(lp1687
I0
aI1
aI2
aI3
aI4
aI5
aI6
aI7
aI8
aI9
aI10
aI11
aI12
aI13
aa(lp1688
I0
aI1
aI2
aI3
aI4
aI5
aI6
aI7
aI8
aI9
aI10
aI11
aI12
aI13
aI14
aag844
aS'@@stations'
p1689
asg774
(lp1690
I20
aS'@@timescale_min'
p1691
asg775
(lp1692
(lp1693
F0.0
aF0.0
aaS'@@p3_mean_stddev'
p1694
asg776
(lp1695
(lp1696
F0.0
aF0.0
aaS'@@p6_mean_stddev'
p1697
asg854
(lp1698
F0.29999999999999999
aF0.5
aI1
aI2
aI3
aS'@@mean_period'
p1699
asg777
(lp1700
(lp1701
F0.0
aF0.0
aaS'@@p2_mean_stddev'
p1702
asg860
(lp1703
I0
aF0.0001
aF0.001
aF0.01
aF0.10000000000000001
aI1
aS'@@stddev_c00'
p1704
asg778
(lp1705
(lp1706
F0.0
aF0.0
aaS'@@p4_mean_stddev'
p1707
asg779
(lp1708
F1.0
aS'@@c00_scale'
p1709
asg780
(lp1710
g1270
aS'@@@Jsequence_simul'
p1711
assg195
g1619
sg209
S'** Description of available inarg record(s) for: MG_JEN_Joneset::EJones_WSRT()  version=15dec2005  defined=2006-04-13 12:19'
p1712
sg211
I00
sg212
S'2006-04-13 12:19'
p1713
sg103
g1392
sg98
S'MG_JEN_Joneset'
p1714
sg201
S'** Specific description of inarg record for: MG_JEN_Joneset::EJones_WSRT()  version=15dec2005  defined=2006-04-13 12:19'
p1715
sg877
(dp1716
g2
I00
sg773
I00
ssg197
g1713
sg217
(lp1717
g49
ag773
ag2
ag770
ag780
ag771
ag833
ag860
ag854
ag751
ag746
ag774
ag757
ag30
ag38
ag37
ag78
ag779
ag40
ag36
ag768
ag769
ag759
ag777
ag775
ag778
ag763
ag776
ag752
ag754
ag772
asg52
(dp1718
g746
g881
sg2
g883
sg30
g58
sg751
g884
sg752
g885
sg754
g886
sg757
g888
sg36
g36
sg768
g889
sg38
g64
sg759
g890
sg40
g891
sg763
g892
sg769
g896
sg37
g894
sg770
g893
sg78
g895
sg771
g893
sg833
g897
sg772
g898
sg773
g899
sg774
g900
sg775
g901
sg776
g902
sg854
g903
sg777
g904
sg860
g905
sg778
g906
sg779
g907
sg780
g893
ssg203
S'MG_JEN_JonesetEJones_WSRT'
p1719
ssg771
g1270
sg37
I5
sg770
g1270
sg78
F1.0
sg769
g1669
sg833
F0.10000000000000001
sg772
g1682
sg773
g1689
sg774
I20
sg775
g1693
sg776
g1696
sg854
F1.0
sg777
g1701
sg860
F0.01
sg778
g1706
sg779
F1.0
sg780
g1270
ssg773
S'@@stations'
p1720
sS'[simul_imp]./MG_JEN_Joneset.GJones()'
p1721
(dp1722
g746
g747
sg2
S'@@polrep'
p1723
sg30
g750
sg751
F0.10000000000000001
sg752
(lp1724
F0.0
aF0.0
asg754
(lp1725
F0.0
aF0.0
asg757
I0
sg36
Nsg37
I5
sg38
g758
sg759
(lp1726
F0.0
aF0.0
asg40
g761
sg763
(lp1727
F0.0
aF0.0
asg49
(dp1728
g199
S'MG_JEN_Joneset::GJones()'
p1729
sg51
g1721
sg100
(dp1730
g746
I00
sg2
I01
sg30
I01
sg752
I01
sg754
I01
sg757
I01
sg36
I01
sg768
I01
sg38
I01
sg759
I01
sg40
I01
sg763
I01
sg769
I01
sg37
I01
sg770
I01
sg78
I01
sg771
I01
sg1313
I01
sg772
I01
sg773
I01
sg774
I01
sg775
I01
sg776
I01
sg777
I01
sg778
I01
sg779
I01
sg780
I01
ssg105
g1314
sg96
g97
sg109
S'MG_JEN_Joneset::GJones()  version=15dec2005  defined=2006-04-13 12:19'
p1731
sg205
S'GJones'
p1732
sg111
(dp1733
g746
(lp1734
g747
ag786
a(lp1735
g747
ag786
aaNaS'@@unop'
p1736
asg2
(lp1737
g3
ag792
ag1723
asg30
(lp1738
g750
aS'@@color'
p1739
asg751
(lp1740
I0
aF0.01
aF0.10000000000000001
aF0.20000000000000001
aF0.5
aS'@@stddev_period'
p1741
asg752
(lp1742
g1724
aS'@@p7_mean_stddev'
p1743
asg754
(lp1744
g1725
aS'@@p8_mean_stddev'
p1745
asg757
(lp1746
I0
aS'@@fdeg'
p1747
asg36
(lp1748
NaS'@@unit'
p1749
asg768
(lp1750
g811
aNaS'@@simul_funklet'
p1751
asg38
(lp1752
g758
aS'@@style'
p1753
asg759
(lp1754
g1726
aS'@@p1_mean_stddev'
p1755
asg40
(lp1756
g761
aS'@@descr'
p1757
asg763
(lp1758
g1727
aS'@@p5_mean_stddev'
p1759
asg769
(lp1760
(lp1761
F0.0
aF0.0
aaS'@@p0_mean_stddev'
p1762
asg37
(lp1763
I5
aS'@@size'
p1764
asg770
(lp1765
g1263
aS'@@@Jsequence'
p1766
asg78
(lp1767
F1.0
aS'@@c00_default'
p1768
asg771
(lp1769
g1263
aS'@@@Jsequence_KJones'
p1770
asg833
(lp1771
I0
aF0.10000000000000001
aF0.20000000000000001
aF0.5
aF-0.10000000000000001
aS'@@mean_c00'
p1772
asg1313
(lp1773
I01
aI00
aS'@@Gpolar'
p1774
asg772
(lp1775
(lp1776
F0.0
aF0.0
aaS'@@p9_mean_stddev'
p1777
asg773
(lp1778
(lp1779
I0
aI1
aI2
aI3
aI4
aa(lp1780
I0
aI1
aI2
aI3
aI4
aI5
aI6
aa(lp1781
I0
aI1
aI2
aI3
aI4
aI5
aI6
aI7
aI8
aI9
aI10
aI11
aI12
aI13
aa(lp1782
I0
aI1
aI2
aI3
aI4
aI5
aI6
aI7
aI8
aI9
aI10
aI11
aI12
aI13
aI14
aag844
aS'@@stations'
p1783
asg774
(lp1784
I20
aS'@@timescale_min'
p1785
asg775
(lp1786
(lp1787
F0.0
aF0.0
aaS'@@p3_mean_stddev'
p1788
asg776
(lp1789
(lp1790
F0.0
aF0.0
aaS'@@p6_mean_stddev'
p1791
asg854
(lp1792
F0.29999999999999999
aF0.5
aI1
aI2
aI3
aS'@@mean_period'
p1793
asg777
(lp1794
(lp1795
F0.0
aF0.0
aaS'@@p2_mean_stddev'
p1796
asg860
(lp1797
I0
aF0.0001
aF0.001
aF0.01
aF0.10000000000000001
aI1
aS'@@stddev_c00'
p1798
asg778
(lp1799
(lp1800
F0.0
aF0.0
aaS'@@p4_mean_stddev'
p1801
asg779
(lp1802
F1.0
aS'@@c00_scale'
p1803
asg780
(lp1804
g1263
aS'@@@Jsequence_simul'
p1805
assg195
g1619
sg209
S'** Description of available inarg record(s) for: MG_JEN_Joneset::GJones()  version=15dec2005  defined=2006-04-13 12:19'
p1806
sg211
I00
sg212
S'2006-04-13 12:19'
p1807
sg103
g1392
sg98
S'MG_JEN_Joneset'
p1808
sg107
(dp1809
g1313
I00
ssg201
S'** Specific description of inarg record for: MG_JEN_Joneset::GJones()  version=15dec2005  defined=2006-04-13 12:19'
p1810
sg877
(dp1811
g2
I00
sg773
I00
ssg197
g1807
sg217
(lp1812
g49
ag773
ag2
ag770
ag780
ag771
ag1313
ag833
ag860
ag854
ag751
ag746
ag774
ag757
ag30
ag38
ag37
ag78
ag779
ag40
ag36
ag768
ag769
ag759
ag777
ag775
ag778
ag763
ag776
ag752
ag754
ag772
asg52
(dp1813
g746
g881
sg2
g883
sg30
g58
sg751
g884
sg752
g885
sg754
g886
sg757
g888
sg36
g36
sg768
g889
sg38
g64
sg759
g890
sg40
g891
sg763
g892
sg769
g896
sg37
g894
sg770
g893
sg78
g895
sg771
g893
sg833
g897
sg1313
g1399
sg772
g898
sg773
g899
sg774
g900
sg775
g901
sg776
g902
sg854
g903
sg777
g904
sg860
g905
sg778
g906
sg779
g907
sg780
g893
ssg203
S'MG_JEN_JonesetGJones'
p1814
ssg771
g1263
sg768
Nsg770
g1263
sg78
F1.0
sg769
g1761
sg833
F0.10000000000000001
sg1313
I01
sg772
g1776
sg773
g1783
sg774
I20
sg775
g1787
sg776
g1790
sg854
F1.0
sg777
g1795
sg860
F0.01
sg778
g1800
sg779
F1.0
sg780
g1263
ssg1260
(lp1815
sS'[simul_imp]./MG_JEN_Joneset.DJones_WSRT()'
p1816
(dp1817
g746
g747
sg2
S'@@polrep'
p1818
sg30
g750
sg751
F0.10000000000000001
sg752
(lp1819
F0.0
aF0.0
asg1141
I01
sg754
(lp1820
F0.0
aF0.0
asg757
I0
sg36
Nsg37
I5
sg38
g758
sg759
(lp1821
F0.0
aF0.0
asg40
g761
sg762
F0.002
sg763
(lp1822
F0.0
aF0.0
asg49
(dp1823
g199
S'MG_JEN_Joneset::DJones_WSRT()'
p1824
sg51
g1816
sg100
(dp1825
g746
I00
sg2
I01
sg30
I01
sg752
I01
sg754
I01
sg757
I01
sg36
I01
sg768
I01
sg38
I01
sg759
I01
sg40
I01
sg763
I01
sg769
I01
sg37
I01
sg770
I01
sg78
I01
sg771
I01
sg772
I01
sg773
I01
sg774
I01
sg775
I01
sg776
I01
sg777
I01
sg778
I01
sg779
I01
sg780
I01
ssg105
g1148
sg96
g97
sg109
S'MG_JEN_Joneset::DJones_WSRT()  version=16dec2005  defined=2006-04-13 12:19'
p1826
sg205
S'DJones_WSRT'
p1827
sg111
(dp1828
g746
(lp1829
g747
ag786
a(lp1830
g747
ag786
aaNaS'@@unop'
p1831
asg2
(lp1832
g3
ag792
ag1818
asg30
(lp1833
g750
aS'@@color'
p1834
asg751
(lp1835
I0
aF0.01
aF0.10000000000000001
aF0.20000000000000001
aF0.5
aS'@@stddev_period'
p1836
asg752
(lp1837
g1819
aS'@@p7_mean_stddev'
p1838
asg1141
(lp1839
I01
aI00
aS'@@coupled_XY_Dell'
p1840
asg754
(lp1841
g1820
aS'@@p8_mean_stddev'
p1842
asg757
(lp1843
I0
aS'@@fdeg'
p1844
asg36
(lp1845
NaS'@@unit'
p1846
asg768
(lp1847
g811
aNaS'@@simul_funklet'
p1848
asg38
(lp1849
g758
aS'@@style'
p1850
asg759
(lp1851
g1821
aS'@@p1_mean_stddev'
p1852
asg40
(lp1853
g761
aS'@@descr'
p1854
asg763
(lp1855
g1822
aS'@@p5_mean_stddev'
p1856
asg771
(lp1857
g1181
aS'@@@Jsequence_KJones'
p1858
asg37
(lp1859
I5
aS'@@size'
p1860
asg770
(lp1861
g1181
aS'@@@Jsequence'
p1862
asg78
(lp1863
F1.0
aS'@@c00_default'
p1864
asg769
(lp1865
(lp1866
F0.0
aF0.0
aaS'@@p0_mean_stddev'
p1867
asg833
(lp1868
I0
aF0.10000000000000001
aF0.20000000000000001
aF0.5
aF-0.10000000000000001
aS'@@mean_c00'
p1869
asg1194
(lp1870
I01
aI00
aS'@@coupled_XY_Dang'
p1871
asg772
(lp1872
(lp1873
F0.0
aF0.0
aaS'@@p9_mean_stddev'
p1874
asg773
(lp1875
(lp1876
I0
aI1
aI2
aI3
aI4
aa(lp1877
I0
aI1
aI2
aI3
aI4
aI5
aI6
aa(lp1878
I0
aI1
aI2
aI3
aI4
aI5
aI6
aI7
aI8
aI9
aI10
aI11
aI12
aI13
aa(lp1879
I0
aI1
aI2
aI3
aI4
aI5
aI6
aI7
aI8
aI9
aI10
aI11
aI12
aI13
aI14
aag844
aS'@@stations'
p1880
asg774
(lp1881
I20
aS'@@timescale_min'
p1882
asg775
(lp1883
(lp1884
F0.0
aF0.0
aaS'@@p3_mean_stddev'
p1885
asg776
(lp1886
(lp1887
F0.0
aF0.0
aaS'@@p6_mean_stddev'
p1888
asg854
(lp1889
F0.29999999999999999
aF0.5
aI1
aI2
aI3
aS'@@mean_period'
p1890
asg777
(lp1891
(lp1892
F0.0
aF0.0
aaS'@@p2_mean_stddev'
p1893
asg860
(lp1894
I0
aF0.0001
aF0.001
aF0.01
aF0.10000000000000001
aI1
aS'@@stddev_c00'
p1895
asg778
(lp1896
(lp1897
F0.0
aF0.0
aaS'@@p4_mean_stddev'
p1898
asg779
(lp1899
F1.0
aS'@@c00_scale'
p1900
asg780
(lp1901
g1181
aS'@@@Jsequence_simul'
p1902
assg195
g1619
sg209
S'** Description of available inarg record(s) for: MG_JEN_Joneset::DJones_WSRT()  version=16dec2005  defined=2006-04-13 12:19'
p1903
sg211
I00
sg212
S'2006-04-13 12:19'
p1904
sg103
g1002
sg98
S'MG_JEN_Joneset'
p1905
sg107
(dp1906
g1194
I00
sg1141
I00
ssg201
S'** Specific description of inarg record for: MG_JEN_Joneset::DJones_WSRT()  version=16dec2005  defined=2006-04-13 12:19'
p1907
sg877
(dp1908
g2
I00
sg773
I00
ssg197
g1904
sg217
(lp1909
g49
ag773
ag2
ag770
ag780
ag771
ag1194
ag1141
ag833
ag860
ag854
ag751
ag746
ag774
ag757
ag30
ag38
ag37
ag78
ag779
ag40
ag36
ag768
ag769
ag759
ag777
ag775
ag778
ag763
ag776
ag752
ag754
ag772
asg52
(dp1910
g746
g881
sg2
g883
sg30
g58
sg751
g884
sg752
g885
sg1141
g1236
sg754
g886
sg757
g888
sg36
g36
sg768
g889
sg38
g64
sg759
g890
sg40
g891
sg763
g892
sg771
g893
sg37
g894
sg770
g893
sg78
g895
sg769
g896
sg833
g897
sg1194
g1237
sg772
g898
sg773
g899
sg774
g900
sg775
g901
sg776
g902
sg854
g903
sg777
g904
sg860
g905
sg778
g906
sg779
g907
sg780
g893
ssg203
S'MG_JEN_JonesetDJones_WSRT'
p1911
ssg771
g1181
sg768
Nsg770
g1181
sg909
I100
sg78
F1.0
sg910
I3000
sg769
g1866
sg833
F0.10000000000000001
sg1194
I01
sg772
g1873
sg773
g1880
sg774
I20
sg775
g1884
sg776
g1887
sg854
F1.0
sg777
g1892
sg860
F0.01
sg778
g1897
sg779
F1.0
sg780
g1181
sg911
F0.00020000000000000001
ssg913
S'@@uvplane_effect'
p1912
sg13
S'@@parmtable'
p1913
sg49
(dp1914
g199
g1240
sg51
g1534
sg100
(dp1915
g2
I01
sg773
I01
sg913
I01
sg13
I01
sg771
I01
sg780
I01
sg770
I01
ssg203
S'MG_JEN_CohsetJones'
p1916
sg96
g97
sg105
g1243
sg109
S'MG_JEN_Cohset::Jones()  version=25dec2005  defined=2006-04-13 12:19'
p1917
sg205
S'Jones'
p1918
sg111
(dp1919
g2
(lp1920
g3
ag792
ag1628
asg773
(lp1921
(lp1922
I0
aI1
aI2
aI3
aI4
aa(lp1923
I0
aI1
aI2
aI3
aI4
aI5
aI6
aa(lp1924
I0
aI1
aI2
aI3
aI4
aI5
aI6
aI7
aI8
aI9
aI10
aI11
aI12
aI13
aa(lp1925
I0
aI1
aI2
aI3
aI4
aI5
aI6
aI7
aI8
aI9
aI10
aI11
aI12
aI13
aI14
aag844
ag1720
asg913
(lp1926
I00
ag1912
asg13
(lp1927
Nag1255
ag1913
asg771
(lp1928
NaS'@@@Jsequence_KJones'
p1929
asg780
(lp1930
NaS'@@@Jsequence_simul'
p1931
asg1260
(lp1932
(lp1933
g1263
aa(lp1934
g961
aa(lp1935
g1089
aa(lp1936
g1022
aa(lp1937
g1181
aa(lp1938
g1263
ag1181
aa(lp1939
g1270
aa(lp1940
g1263
ag1270
aa(lp1941
g822
aa(lp1942
aS'@@Jsequence'
p1943
asg770
(lp1944
NaS'@@@Jsequence'
p1945
assg195
g1619
sg209
S'** Description of available inarg record(s) for: MG_JEN_Cohset::Jones()  version=25dec2005  defined=2006-04-13 12:19'
p1946
sg211
I00
sg212
S'2006-04-13 12:19'
p1947
sg103
g1279
sg98
S'MG_JEN_Cohset'
p1948
sg201
S'** Specific description of inarg record for: MG_JEN_Cohset::Jones()  version=25dec2005  defined=2006-04-13 12:19'
p1949
sg213
(dp1950
g405
S'** JEN_inarg.attach(): attached: [simul_imp]./MG_JEN_Joneset.FJones()'
p1951
sg215
S'** JEN_inarg.attach(): attached: [simul_imp]./MG_JEN_Joneset.GJones()'
p1952
sg408
S'** JEN_inarg.attach(): attached: [simul_imp]./MG_JEN_Joneset.KJones()'
p1953
sg410
S'** JEN_inarg.attach(): attached: [simul_imp]./MG_JEN_Joneset.BJones()'
p1954
sg1287
S'** JEN_inarg.attach(): attached: [simul_imp]./MG_JEN_Joneset.EJones_WSRT()'
p1955
sg1289
S'** JEN_inarg.attach(): attached: [simul_imp]./MG_JEN_Joneset.DJones_WSRT()'
p1956
sg1293
S'** JEN_inarg.attach(): attached: [simul_imp]./MG_JEN_Joneset.JJones()'
p1957
ssg197
g1947
sg877
(dp1958
g913
I00
sg13
I00
sg2
I00
sg773
I00
ssg217
(lp1959
g49
ag773
ag2
ag770
ag780
ag771
ag13
ag913
ag1260
ag1721
aS'[simul_imp]./MG_JEN_Joneset.FJones()'
p1960
ag1536
aS'[simul_imp]./MG_JEN_Joneset.KJones()'
p1961
ag1816
ag1629
aS'[simul_imp]./MG_JEN_Joneset.JJones()'
p1962
asg52
(dp1963
g2
g883
sg773
g899
sg913
g1300
sg13
g1301
sg771
g893
sg780
g893
sg1260
g1302
sg770
g893
sssg1962
(dp1964
g746
g747
sg748
I00
sg2
S'@@polrep'
p1965
sg30
g750
sg751
F0.10000000000000001
sg752
(lp1966
F0.0
aF0.0
asg754
(lp1967
F0.0
aF0.0
asg756
Nsg757
I0
sg36
Nsg37
I5
sg38
g758
sg759
(lp1968
F0.0
aF0.0
asg40
g761
sg762
F0.20000000000000001
sg763
(lp1969
F0.0
aF0.0
asg49
(dp1970
g199
S'MG_JEN_Joneset::JJones()'
p1971
sg51
g1962
sg100
(dp1972
g746
I00
sg2
I01
sg30
I01
sg752
I01
sg754
I01
sg757
I01
sg36
I01
sg768
I01
sg38
I01
sg759
I01
sg40
I01
sg763
I01
sg769
I01
sg37
I01
sg770
I01
sg78
I01
sg771
I01
sg772
I01
sg773
I01
sg774
I01
sg775
I01
sg776
I01
sg777
I01
sg778
I01
sg779
I01
sg780
I01
ssg105
g781
sg96
g97
sg109
S'MG_JEN_Joneset::JJones()  version=14feb2006  defined=2006-04-13 12:19'
p1973
sg205
S'JJones'
p1974
sg111
(dp1975
g746
(lp1976
g747
ag786
a(lp1977
g747
ag786
aaNaS'@@unop'
p1978
asg748
(lp1979
I01
aI00
aS'@@diagonal_only'
p1980
asg2
(lp1981
g3
ag792
ag1965
asg30
(lp1982
g750
aS'@@color'
p1983
asg751
(lp1984
I0
aF0.01
aF0.10000000000000001
aF0.20000000000000001
aF0.5
aS'@@stddev_period'
p1985
asg752
(lp1986
g1966
aS'@@p7_mean_stddev'
p1987
asg754
(lp1988
g1967
aS'@@p8_mean_stddev'
p1989
asg756
(lp1990
Na(lp1991
I14
aa(lp1992
I1
aag804
aS'@@all4_always'
p1993
asg757
(lp1994
I0
aS'@@fdeg'
p1995
asg36
(lp1996
NaS'@@unit'
p1997
asg768
(lp1998
g811
aNaS'@@simul_funklet'
p1999
asg38
(lp2000
g758
aS'@@style'
p2001
asg759
(lp2002
g1968
aS'@@p1_mean_stddev'
p2003
asg40
(lp2004
g761
aS'@@descr'
p2005
asg763
(lp2006
g1969
aS'@@p5_mean_stddev'
p2007
asg771
(lp2008
g822
aS'@@@Jsequence_KJones'
p2009
asg37
(lp2010
I5
aS'@@size'
p2011
asg770
(lp2012
g822
aS'@@@Jsequence'
p2013
asg78
(lp2014
F1.0
aS'@@c00_default'
p2015
asg769
(lp2016
(lp2017
F0.0
aF0.0
aaS'@@p0_mean_stddev'
p2018
asg833
(lp2019
I0
aF0.10000000000000001
aF0.20000000000000001
aF0.5
aF-0.10000000000000001
aS'@@mean_c00'
p2020
asg772
(lp2021
(lp2022
F0.0
aF0.0
aaS'@@p9_mean_stddev'
p2023
asg773
(lp2024
(lp2025
I0
aI1
aI2
aI3
aI4
aa(lp2026
I0
aI1
aI2
aI3
aI4
aI5
aI6
aa(lp2027
I0
aI1
aI2
aI3
aI4
aI5
aI6
aI7
aI8
aI9
aI10
aI11
aI12
aI13
aa(lp2028
I0
aI1
aI2
aI3
aI4
aI5
aI6
aI7
aI8
aI9
aI10
aI11
aI12
aI13
aI14
aag844
aS'@@stations'
p2029
asg774
(lp2030
I20
aS'@@timescale_min'
p2031
asg775
(lp2032
(lp2033
F0.0
aF0.0
aaS'@@p3_mean_stddev'
p2034
asg776
(lp2035
(lp2036
F0.0
aF0.0
aaS'@@p6_mean_stddev'
p2037
asg854
(lp2038
F0.29999999999999999
aF0.5
aI1
aI2
aI3
aS'@@mean_period'
p2039
asg777
(lp2040
(lp2041
F0.0
aF0.0
aaS'@@p2_mean_stddev'
p2042
asg860
(lp2043
I0
aF0.0001
aF0.001
aF0.01
aF0.10000000000000001
aI1
aS'@@stddev_c00'
p2044
asg778
(lp2045
(lp2046
F0.0
aF0.0
aaS'@@p4_mean_stddev'
p2047
asg779
(lp2048
F1.0
aS'@@c00_scale'
p2049
asg780
(lp2050
g822
aS'@@@Jsequence_simul'
p2051
assg195
g1619
sg209
S'** Description of available inarg record(s) for: MG_JEN_Joneset::JJones()  version=14feb2006  defined=2006-04-13 12:19'
p2052
sg211
I00
sg212
S'2006-04-13 12:19'
p2053
sg103
g873
sg98
S'MG_JEN_Joneset'
p2054
sg107
(dp2055
g748
I00
ssg201
S'** Specific description of inarg record for: MG_JEN_Joneset::JJones()  version=14feb2006  defined=2006-04-13 12:19'
p2056
sg877
(dp2057
g2
I00
sg773
I00
ssg197
g2053
sg217
(lp2058
g49
ag773
ag2
ag770
ag780
ag771
ag748
ag756
ag833
ag860
ag854
ag751
ag746
ag774
ag757
ag30
ag38
ag37
ag78
ag779
ag40
ag36
ag768
ag769
ag759
ag777
ag775
ag778
ag763
ag776
ag752
ag754
ag772
asg52
(dp2059
g746
g881
sg748
g882
sg2
g883
sg30
g58
sg751
g884
sg752
g885
sg754
g886
sg756
g887
sg757
g888
sg36
g36
sg768
g889
sg38
g64
sg759
g890
sg40
g891
sg763
g892
sg771
g893
sg37
g894
sg770
g893
sg78
g895
sg769
g896
sg833
g897
sg772
g898
sg773
g899
sg774
g900
sg775
g901
sg776
g902
sg854
g903
sg777
g904
sg860
g905
sg778
g906
sg779
g907
sg780
g893
ssg203
S'MG_JEN_JonesetJJones'
p2060
ssg771
g822
sg768
Nsg770
g822
sg909
I50
sg78
F1.0
sg910
I500
sg769
g2017
sg833
F0.10000000000000001
sg772
g2022
sg773
g2029
sg774
I20
sg775
g2033
sg776
g2036
sg854
F1.0
sg777
g2041
sg860
F0.01
sg778
g2046
sg779
F1.0
sg780
g822
sg911
F0.02
ssg771
Nsg780
Nsg770
Nsg1961
(dp2061
g2
S'@@polrep'
p2062
sg773
S'@@stations'
p2063
sg49
(dp2064
g199
S'MG_JEN_Joneset::KJones()'
p2065
sg51
g1961
sg100
(dp2066
g771
I01
sg780
I01
sg770
I01
sg2
I01
sg773
I01
ssg105
g1017
sg96
g97
sg109
S'MG_JEN_Joneset::KJones()  version=12dec2005  defined=2006-04-13 12:19'
p2067
sg205
S'KJones'
p2068
sg111
(dp2069
g771
(lp2070
g1022
aS'@@@Jsequence_KJones'
p2071
asg780
(lp2072
g1022
aS'@@@Jsequence_simul'
p2073
asg770
(lp2074
g1022
aS'@@@Jsequence'
p2075
asg2
(lp2076
g3
ag792
ag2062
asg773
(lp2077
(lp2078
I0
aI1
aI2
aI3
aI4
aa(lp2079
I0
aI1
aI2
aI3
aI4
aI5
aI6
aa(lp2080
I0
aI1
aI2
aI3
aI4
aI5
aI6
aI7
aI8
aI9
aI10
aI11
aI12
aI13
aa(lp2081
I0
aI1
aI2
aI3
aI4
aI5
aI6
aI7
aI8
aI9
aI10
aI11
aI12
aI13
aI14
aag844
ag2063
assg195
g1619
sg209
S'** Description of available inarg record(s) for: MG_JEN_Joneset::KJones()  version=12dec2005  defined=2006-04-13 12:19'
p2082
sg211
I00
sg212
S'2006-04-13 12:19'
p2083
sg103
g1036
sg98
S'MG_JEN_Joneset'
p2084
sg201
S'** Specific description of inarg record for: MG_JEN_Joneset::KJones()  version=12dec2005  defined=2006-04-13 12:19'
p2085
sg877
(dp2086
g2
I00
sg773
I00
ssg197
g2083
sg217
(lp2087
g49
ag773
ag2
ag770
ag780
ag771
asg52
(dp2088
g771
g893
sg780
g893
sg770
g893
sg2
g883
sg773
g899
ssg203
S'MG_JEN_JonesetKJones'
p2089
ssg771
g1022
sg780
g1022
sg770
g1022
ssg1960
(dp2090
g746
g747
sg2
S'@@polrep'
p2091
sg30
g750
sg751
F0.10000000000000001
sg752
(lp2092
F0.0
aF0.0
asg754
(lp2093
F0.0
aF0.0
asg757
I0
sg36
Nsg768
Nsg38
g758
sg759
(lp2094
F0.0
aF0.0
asg40
g761
sg762
F0.20000000000000001
sg763
(lp2095
F0.0
aF0.0
asg49
(dp2096
g199
S'MG_JEN_Joneset::FJones()'
p2097
sg51
g1960
sg100
(dp2098
g746
I00
sg2
I01
sg30
I01
sg752
I01
sg754
I01
sg757
I01
sg36
I01
sg768
I01
sg38
I01
sg759
I01
sg40
I01
sg763
I01
sg769
I01
sg37
I01
sg770
I01
sg78
I01
sg771
I01
sg772
I01
sg773
I01
sg774
I01
sg775
I01
sg776
I01
sg777
I01
sg778
I01
sg779
I01
sg780
I01
ssg105
g1053
sg96
g97
sg109
S'MG_JEN_Joneset::FJones()  version=16dec2005  defined=2006-04-13 12:19'
p2099
sg205
S'FJones'
p2100
sg111
(dp2101
g746
(lp2102
g747
ag786
a(lp2103
g747
ag786
aaNaS'@@unop'
p2104
asg2
(lp2105
g3
ag792
ag2091
asg30
(lp2106
g750
aS'@@color'
p2107
asg751
(lp2108
I0
aF0.01
aF0.10000000000000001
aF0.20000000000000001
aF0.5
aS'@@stddev_period'
p2109
asg752
(lp2110
g2092
aS'@@p7_mean_stddev'
p2111
asg754
(lp2112
g2093
aS'@@p8_mean_stddev'
p2113
asg757
(lp2114
I0
aS'@@fdeg'
p2115
asg36
(lp2116
NaS'@@unit'
p2117
asg768
(lp2118
g811
aNaS'@@simul_funklet'
p2119
asg38
(lp2120
g758
aS'@@style'
p2121
asg759
(lp2122
g2094
aS'@@p1_mean_stddev'
p2123
asg40
(lp2124
g761
aS'@@descr'
p2125
asg763
(lp2126
g2095
aS'@@p5_mean_stddev'
p2127
asg769
(lp2128
(lp2129
F0.0
aF0.0
aaS'@@p0_mean_stddev'
p2130
asg37
(lp2131
I5
aS'@@size'
p2132
asg770
(lp2133
g1089
aS'@@@Jsequence'
p2134
asg78
(lp2135
F1.0
aS'@@c00_default'
p2136
asg771
(lp2137
g1089
aS'@@@Jsequence_KJones'
p2138
asg833
(lp2139
I0
aF0.10000000000000001
aF0.20000000000000001
aF0.5
aF-0.10000000000000001
aS'@@mean_c00'
p2140
asg772
(lp2141
(lp2142
F0.0
aF0.0
aaS'@@p9_mean_stddev'
p2143
asg773
(lp2144
(lp2145
I0
aI1
aI2
aI3
aI4
aa(lp2146
I0
aI1
aI2
aI3
aI4
aI5
aI6
aa(lp2147
I0
aI1
aI2
aI3
aI4
aI5
aI6
aI7
aI8
aI9
aI10
aI11
aI12
aI13
aa(lp2148
I0
aI1
aI2
aI3
aI4
aI5
aI6
aI7
aI8
aI9
aI10
aI11
aI12
aI13
aI14
aag844
aS'@@stations'
p2149
asg774
(lp2150
I20
aS'@@timescale_min'
p2151
asg775
(lp2152
(lp2153
F0.0
aF0.0
aaS'@@p3_mean_stddev'
p2154
asg776
(lp2155
(lp2156
F0.0
aF0.0
aaS'@@p6_mean_stddev'
p2157
asg854
(lp2158
F0.29999999999999999
aF0.5
aI1
aI2
aI3
aS'@@mean_period'
p2159
asg777
(lp2160
(lp2161
F0.0
aF0.0
aaS'@@p2_mean_stddev'
p2162
asg860
(lp2163
I0
aF0.0001
aF0.001
aF0.01
aF0.10000000000000001
aI1
aS'@@stddev_c00'
p2164
asg778
(lp2165
(lp2166
F0.0
aF0.0
aaS'@@p4_mean_stddev'
p2167
asg779
(lp2168
F1.0
aS'@@c00_scale'
p2169
asg780
(lp2170
g1089
aS'@@@Jsequence_simul'
p2171
assg195
g1619
sg209
S'** Description of available inarg record(s) for: MG_JEN_Joneset::FJones()  version=16dec2005  defined=2006-04-13 12:19'
p2172
sg211
I00
sg212
S'2006-04-13 12:19'
p2173
sg103
g1002
sg98
S'MG_JEN_Joneset'
p2174
sg201
S'** Specific description of inarg record for: MG_JEN_Joneset::FJones()  version=16dec2005  defined=2006-04-13 12:19'
p2175
sg877
(dp2176
g2
I00
sg773
I00
ssg197
g2173
sg217
(lp2177
g49
ag773
ag2
ag770
ag780
ag771
ag833
ag860
ag854
ag751
ag746
ag774
ag757
ag30
ag38
ag37
ag78
ag779
ag40
ag36
ag768
ag769
ag759
ag777
ag775
ag778
ag763
ag776
ag752
ag754
ag772
asg52
(dp2178
g746
g881
sg2
g883
sg30
g58
sg751
g884
sg752
g885
sg754
g886
sg757
g888
sg36
g36
sg768
g889
sg38
g64
sg759
g890
sg40
g891
sg763
g892
sg769
g896
sg37
g894
sg770
g893
sg78
g895
sg771
g893
sg833
g897
sg772
g898
sg773
g899
sg774
g900
sg775
g901
sg776
g902
sg854
g903
sg777
g904
sg860
g905
sg778
g906
sg779
g907
sg780
g893
ssg203
S'MG_JEN_JonesetFJones'
p2179
ssg771
g1089
sg37
I5
sg770
g1089
sg909
I50
sg78
F1.0
sg910
I500
sg769
g2129
sg833
F0.10000000000000001
sg772
g2142
sg773
g2149
sg774
I20
sg775
g2153
sg776
g2156
sg854
F1.0
sg777
g2161
sg860
F0.01
sg778
g2166
sg779
F1.0
sg780
g1089
sg911
F0.02
sssg770
Nssg49
(dp2180
g51
S'./MG_JEN_simul.'
p2181
sg52
(dp2182
g1
S'if True, add to existing uv-data (from MS column)'
p2183
sg2
g883
sS'master_reqseq'
p2184
S'if True, use a master reqseq for solver(s)'
p2185
sg773
g899
sg16
S'if True, use same (simul) LSM for solving too'
p2186
sS'redun'
p2187
S'if True, redundant spacing calibration'
p2188
sg739
S'stddev of gaussian noise, to be added'
p2189
sg11
S'name of the (AIPS++) Measurement Set'
p2190
sS'chain_solvers'
p2191
S'if True, chain the solvers (recommended)'
p2192
sg15
S'if True, insert a solver'
p2193
sS'num_cells'
p2194
S'if defined, ModRes argument [ntime,nfreq]'
p2195
sg13
g1301
sg771
g893
sg780
g893
sS'tile_size'
p2196
S'(inputrec) size (in time-slots) of the input data-tile'
p2197
sg913
g1300
sg770
g893
ssS'reference'
p2198
I00
sg96
g97
sg98
S'MG_JEN_simul'
p2199
sg100
(dp2200
g2
I00
sg2184
I01
sg773
I00
sS'last_changed'
p2201
I01
sg2187
I00
sg913
I00
sg2191
I01
sg2194
I00
sg771
I01
sg780
I01
sg770
I01
ssg372
(dp2202
g11
S'*.MS'
p2203
ssg103
g1392
sg105
S"\n    -------------------------------------------------------------\n    General description of the MeqTree TDL script MG_JEN_simul.py\n    -------------------------------------------------------------\n\n    The MG_JEN_simul.py script is used to put simulated visibilities into the\n    CORRECTED_DATA column of an existing Measurement Set (MS). The original DATA\n    in the MS are untouched. The advantage of this approach is that it is not\n    necessary to specify pointing centre, uv-coverage, spectral-window etc.\n\n    * The input source model is either an existing Local Sky Model (LSM),\n    or a 'punit' point source in the centre of the field.\n\n    * The nominal source visibilities may be corrupted by:\n      - various (uv-plane) Jones matrices\n      - image-plane effects from EJones and IJones (MIM)\n      - ifr-based errors (additive, multiplicative)\n      - noise\n\n    * Optionally, the simulated visibilities may be added to the existing uv-data,\n    either from the DATA column or the CORRECTED_DATA column of the MS\n\n    * Optionally, a parallel solver branch may be inserted, which uses the simulated\n    uv-data to solve for instrumental parameters. The latter may be compared with\n    the simulated instrumental parameters.\n\n    Different types of simulations may be specified by loading (and editing) socalled\n    'inarg' records from files (like this one). These contain input arguments\n    for generating a suitable MeqTree forest for the desired operation.\n    "
p2204
sg107
(dp2205
g1
I00
sg2184
I00
sg16
I00
sg2201
I00
sg15
I00
sg2187
I00
ssg109
S'** Top-level CTRL-record of: MG_JEN_simul.inarg'
p2206
sg111
(dp2207
g1
(lp2208
I01
aI00
aS'@@add_to_existing'
p2209
asg2
(lp2210
g3
ag792
aS'@@polrep'
p2211
asg2184
(lp2212
I01
aI00
aS'@@master_reqseq'
p2213
asg773
(lp2214
(lp2215
I0
aI1
aI2
aI3
aI4
aa(lp2216
I0
aI1
aI2
aI3
aI4
aI5
aI6
aa(lp2217
I0
aI1
aI2
aI3
aI4
aI5
aI6
aI7
aI8
aI9
aI10
aI11
aI12
aI13
aa(lp2218
I0
aI1
aI2
aI3
aI4
aI5
aI6
aI7
aI8
aI9
aI10
aI11
aI12
aI13
aI14
aag844
aS'@@stations'
p2219
asg16
(lp2220
I01
aI00
aS'@@use_same_LSM'
p2221
asg2201
(lp2222
S'd30jan2006'
p2223
aS'@@last_changed'
p2224
asg739
(lp2225
I0
aF0.001
aF0.0030000000000000001
aF0.01
aF0.029999999999999999
aF0.10000000000000001
aF0.29999999999999999
aI1
aI3
aS'@@stddev_noise_Jy'
p2226
asg2187
(lp2227
I01
aI00
aS'@@redun'
p2228
asg11
(lp2229
g12
aS'@@ms_name'
p2230
asg2191
(lp2231
I01
aS'@@chain_solvers'
p2232
asg15
(lp2233
I01
aI00
aS'@@insert_solver'
p2234
asg2194
(lp2235
Na(lp2236
I5
aI2
aa(lp2237
I2
aI2
aa(lp2238
I3
aI3
aaS'@@num_cells'
p2239
asg13
(lp2240
Nag1255
aS'@@parmtable'
p2241
asg771
(lp2242
NaS'@@@Jsequence_KJones'
p2243
asg780
(lp2244
NaS'@@@Jsequence_simul'
p2245
asg2196
(lp2246
I1
aI2
aI3
aI5
aI10
aI20
aI50
aI100
aS'@@tile_size'
p2247
asg913
(lp2248
I00
aS'@@uvplane_effect'
p2249
asg770
(lp2250
NaS'@@@Jsequence'
p2251
assg195
Nsg197
S'2006-04-13 12:19'
p2252
sS'HISTORY'
p2253
(dp2254
g405
S'2006-04-13 12:20: Derived from: MG_JEN_simul_GJones.inarg'
p2255
sg215
S'2006-04-13 12:20: Derived from: MG_JEN_simul.inarg'
p2256
ssg199
g10
sg201
S'Predefined inarg record for simulating with GJones corruption'
p2257
sS'save_file'
p2258
S'MG_JEN_simul_GJones_protected.inarg'
p2259
sS'file_filter'
p2260
S'MG_JEN_simul*.inarg'
p2261
sg205
S''
p2262
sg209
S'\n====================================================\n** Description of available predefined inarg records (files)\n   for the TDL script: MG_JEN_simul:\n\n====================================================\n\n\n** Description of predefined inarg record (file): MG_JEN_simul_GJones.inarg:\nPredefined inarg record for simulating with GJones corruption\n\n\n** Description of predefined inarg record (file): MG_JEN_simul_DJones.inarg:\nPredefined inarg record for simulating with DJones corruption\n\n\n** Description of predefined inarg record (file): MG_JEN_simul_EJones.inarg:\nPredefined inarg record for simulating with EJones corruption\n====================================================\n'
p2263
sg211
I01
sg212
g2252
sg213
(dp2264
S'11'
p2265
S'** JEN_inarg.attach(): attached: [solve]./MG_JEN_Cohset.predict_lsm()'
p2266
sS'10'
p2267
S'** JEN_inarg.attach(): attached: [solve]./MG_JEN_lsm.get_lsm()'
p2268
sS'13'
p2269
S'** JEN_inarg.separator(): : finishing touches'
p2270
sS'12'
p2271
S'** JEN_inarg.attach(): attached: ./MG_JEN_Cohset.insert_solver()'
p2272
sS'15'
p2273
S".modify():   ** OK ** (['Jsequence'])"
p2274
sS'14'
p2275
S'** JEN_inarg.attach(): attached: ./MG_JEN_Cohset.make_sinks()'
p2276
sS'17'
p2277
S'  0: ./MG_JEN_simul. (qual=None): .modify(parmtable):   None  ->  simul_GJones'
p2278
sS'16'
p2279
S".modify():   ** OK ** (['Jsequence'])"
p2280
sS'19'
p2281
S".modify():   ** OK ** (['parmtable', 'solvegroup', 'num_iter', 'insert_solver'])"
p2282
sS'18'
p2283
S'  0: ./MG_JEN_simul. (qual=None): .modify(insert_solver):   True  ->  False'
p2284
sg405
S'  0: ./MG_JEN_simul. (qual=None): .modify(tile_size):   10  ->  1'
p2285
sg215
S'  0: ./MG_JEN_simul. (qual=None): .modify(uvplane_effect):   False  ->  True'
p2286
sg408
S'** JEN_inarg.separator(): : uv-data (MS) stream_control'
p2287
sg410
S".modify():   ** OK ** (['uvplane_effect', 'tile_size'])"
p2288
sg1287
S'** JEN_inarg.attach(): attached: ./MG_JEN_Cohset.make_spigots()'
p2289
sg1289
S'** JEN_inarg.attach(): attached: ./MG_JEN_exec.stream_control()'
p2290
sg1291
S'** JEN_inarg.attach(): attached: [simul]./MG_JEN_lsm.get_lsm()'
p2291
sg1293
S'** JEN_inarg.separator(): : uv-data simulation (LeafSet)'
p2292
sS'9'
p2293
S'** JEN_inarg.separator(): : solver-branch (ParmSet)'
p2294
sS'8'
p2295
S'** JEN_inarg.attach(): attached: [simul]./MG_JEN_Cohset.predict_lsm()'
p2296
ssg217
(lp2297
g49
ag9
ag2201
ag11
ag2196
ag773
ag2
ag770
ag780
ag771
ag13
ag913
ag2191
ag2184
ag2187
ag2194
ag1
ag739
ag15
ag5
aS'./MG_JEN_exec.stream_control()'
p2298
aS'./MG_JEN_Cohset.make_spigots()'
p2299
aS'_JEN_inarg_separator_record:_2'
p2300
ag17
ag740
aS'_JEN_inarg_separator_record:_3'
p2301
ag16
aS'[solve]./MG_JEN_lsm.get_lsm()'
p2302
aS'[solve]./MG_JEN_Cohset.predict_lsm()'
p2303
aS'./MG_JEN_Cohset.insert_solver()'
p2304
aS'_JEN_inarg_separator_record:_4'
p2305
aS'./MG_JEN_Cohset.make_sinks()'
p2306
assg2306
(dp2307
S'fullDomainMux'
p2308
I01
sS'output_col'
p2309
S'PREDICT'
p2310
sg1494
I01
sS'flag'
p2311
I00
sg49
(dp2312
g199
S'MG_JEN_Cohset::make_sinks()'
p2313
sg51
g2306
sg197
S'2006-04-13 12:19'
p2314
sg201
S'** Specific description of inarg record for: MG_JEN_Cohset::make_sinks()  version=25dec2005  defined=2006-04-13 12:19'
p2315
sg203
S'MG_JEN_Cohsetmake_sinks'
p2316
sg96
g97
sg109
S'MG_JEN_Cohset::make_sinks()  version=25dec2005  defined=2006-04-13 12:19'
p2317
sg205
S'make_sinks'
p2318
sg111
(dp2319
g2311
(lp2320
I01
aI00
aS'@@flag'
p2321
asg1494
(lp2322
I01
aI00
aS'@@visu'
p2323
asg2308
(lp2324
I01
aI00
aS'@@fullDomainMux'
p2325
asg2309
(lp2326
g2310
aS'RESIDUALS'
p2327
aS'DATA'
p2328
aS'@@output_col'
p2329
asS'visu_array_config'
p2330
(lp2331
I01
aI00
aS'@@visu_array_config'
p2332
assg195
Nsg209
S'** Description of available inarg record(s) for: MG_JEN_Cohset::make_sinks()  version=25dec2005  defined=2006-04-13 12:19'
p2333
sg103
g1279
sg212
g2314
sg98
S'MG_JEN_Cohset'
p2334
sg107
(dp2335
g2311
I00
sg1494
I00
sg2308
I00
sg2330
I00
ssg211
I00
sg217
(lp2336
g49
ag2309
ag2330
ag1494
ag2311
ag2308
asg52
(dp2337
g2311
S'if True, insert a flagger for the output uv-data'
p2338
sg1494
S'if True, visualise the output uv-data'
p2339
sg2308
S'if True, attach an extra VisDataMux'
p2340
sg2309
S'name of the logical (VisTile) output column'
p2341
sg2330
S'if True, visualise the array config (from MS)'
p2342
ssg105
S'Make sink nodes in the given Cohset object'
p2343
ssg2330
I01
ssg2196
I1
sg2299
(dp2344
g2311
I00
sg1494
I01
sg49
(dp2345
g199
S'MG_JEN_Cohset::make_spigots()'
p2346
sg51
g2299
sg197
S'2006-04-13 12:19'
p2347
sg100
(dp2348
S'input_col'
p2349
I01
ssg203
S'MG_JEN_Cohsetmake_spigots'
p2350
sg96
g97
sg109
S'MG_JEN_Cohset::make_spigots()  version=25dec2005  defined=2006-04-13 12:19'
p2351
sg205
S'make_spigots'
p2352
sg111
(dp2353
g2311
(lp2354
I01
aI00
aS'@@flag'
p2355
asS'MS_corr_index'
p2356
(lp2357
(lp2358
I0
aI1
aI2
aI3
aa(lp2359
I0
aI-1
aI-1
aI1
aa(lp2360
I0
aI-1
aI-1
aI3
aaS'@@MS_corr_index'
p2361
asg2349
(lp2362
g2328
ag2310
ag2327
aS'@@input_col'
p2363
asg1494
(lp2364
I01
aI00
aS'@@visu'
p2365
assg195
Nsg209
S'** Description of available inarg record(s) for: MG_JEN_Cohset::make_spigots()  version=25dec2005  defined=2006-04-13 12:19'
p2366
sg103
g1279
sg212
g2347
sg98
S'MG_JEN_Cohset'
p2367
sg107
(dp2368
g2311
I00
sg1494
I00
ssg201
S'** Specific description of inarg record for: MG_JEN_Cohset::make_spigots()  version=25dec2005  defined=2006-04-13 12:19'
p2369
sg211
I00
sg217
(lp2370
g49
ag2349
ag2356
ag1494
ag2311
asg52
(dp2371
g2311
S'if True, insert a flagger for the input uv-data'
p2372
sg2356
S'correlations to be used: \n- [0,1,2,3]:   all corrs available, use all \n- [0,-1,-1,1]: only XX/YY (or RR/LL) available \n- [0,-1,-1,3]: all available, but use only XX/YY or RR/LL'
p2373
sg2349
S'name of the logical (VisTile) input column'
p2374
sg1494
S'if True, visualise the input uv-data'
p2375
ssg105
S'Make spigot nodes in the given Cohset object'
p2376
ssg2349
g2328
sg2356
(lp2377
I0
aI1
aI2
aI3
assg2303
(dp2378
S'[solve_imp]./MG_JEN_Cohset.Jones()'
p2379
(dp2380
S'[solve_imp]./MG_JEN_Joneset.FJones()'
p2381
(dp2382
g27
I00
sg2
S'@@polrep'
p2383
sg30
g31
sg32
I00
sg13
S'@@parmtable'
p2384
sg36
Nsg37
I10
sg38
g39
sg40
g41
sg44
g45
sg47
Nsg49
(dp2385
g199
S'MG_JEN_Joneset::FJones()'
p2386
sg51
g2381
sg100
(dp2387
g38
I01
sg2
I01
sg78
I01
sg40
I01
sg773
I01
sg30
I01
sg43
I01
sg44
I01
sg913
I01
sg47
I01
sg92
I01
sg13
I01
sg771
I01
sg780
I01
sg37
I01
sg36
I01
sg770
I01
ssg105
g1053
sg96
g97
sg109
S'MG_JEN_Joneset::FJones()  version=16dec2005  defined=2006-04-13 12:19'
p2388
sg205
S'FJones'
p2389
sg111
(dp2390
g27
(lp2391
I01
aI00
aS'@@reset_funklet'
p2392
asg2
(lp2393
g3
ag792
ag2383
asg30
(lp2394
g31
aS'@@color'
p2395
asg32
(lp2396
I01
aI00
aS'@@save_all'
p2397
asg92
(lp2398
NaS'@@tfdeg'
p2399
asg36
(lp2400
NaS'@@unit'
p2401
asg37
(lp2402
I10
aS'@@size'
p2403
asg38
(lp2404
g39
aS'@@style'
p2405
asg40
(lp2406
g41
aS'@@descr'
p2407
asg44
(lp2408
g45
aS'@@condeq_corrs'
p2409
asg47
(lp2410
NaS'@@funklet_shape'
p2411
asg94
(lp2412
I01
aI00
aS'@@auto_save'
p2413
asg771
(lp2414
g1089
aS'@@@Jsequence_KJones'
p2415
asg770
(lp2416
g1089
aS'@@@Jsequence'
p2417
asg78
(lp2418
F1.0
aS'@@c00_default'
p2419
asg913
(lp2420
I00
aS'@@uvplane_effect'
p2421
asg773
(lp2422
(lp2423
I0
aI1
aI2
aI3
aI4
aa(lp2424
I0
aI1
aI2
aI3
aI4
aI5
aI6
aa(lp2425
I0
aI1
aI2
aI3
aI4
aI5
aI6
aI7
aI8
aI9
aI10
aI11
aI12
aI13
aa(lp2426
I0
aI1
aI2
aI3
aI4
aI5
aI6
aI7
aI8
aI9
aI10
aI11
aI12
aI13
aI14
aag844
aS'@@stations'
p2427
asS'tdeg_RM'
p2428
(lp2429
I0
aI1
aI2
aI3
aS'@@tdeg_RM'
p2430
asg88
(lp2431
I01
aI00
aS'@@use_previous'
p2432
asS'fdeg_RM'
p2433
(lp2434
I0
aI1
aI2
aI3
aS'@@fdeg_RM'
p2435
asg43
(lp2436
NaS'@@subtile_size'
p2437
asg13
(lp2438
Nag1255
ag2384
asS'subtile_size_RM'
p2439
(lp2440
NaI1
aI2
aI5
aI10
aI20
aI50
aI100
aI200
aI500
aS'@@subtile_size_RM'
p2441
asg780
(lp2442
g1089
aS'@@@Jsequence_simul'
p2443
assg195
S'solve_imp'
p2444
sg209
S'** Description of available inarg record(s) for: MG_JEN_Joneset::FJones()  version=16dec2005  defined=2006-04-13 12:19'
p2445
sg211
I00
sg212
S'2006-04-13 12:19'
p2446
sg103
g1002
sg98
S'MG_JEN_Joneset'
p2447
sg107
(dp2448
g27
I00
sg32
I00
sg94
I00
sg88
I00
ssg201
S'** Specific description of inarg record for: MG_JEN_Joneset::FJones()  version=16dec2005  defined=2006-04-13 12:19'
p2449
sg877
(dp2450
g913
I00
sg13
I00
sg2
I00
sg773
I00
ssg197
g2446
sg217
(lp2451
g49
ag773
ag2
ag770
ag780
ag771
ag13
ag913
ag2428
ag2433
ag2439
ag88
ag94
ag32
ag27
ag40
ag36
ag30
ag38
ag37
ag78
ag92
ag47
ag43
ag44
asg52
(dp2452
g27
g55
sg2
g883
sg30
g58
sg32
g59
sg92
g93
sg36
g36
sg37
g63
sg38
g64
sg40
g65
sg44
g68
sg47
g70
sg94
g95
sg771
g893
sg770
g893
sg78
g79
sg913
g1300
sg773
g899
sg2428
S'degree of time polynomial'
p2453
sg88
g89
sg2433
S'degree of freq polynomial'
p2454
sg43
g67
sg13
g1301
sg2439
S'sub-tile size (None=entire tile)'
p2455
sg780
g893
ssg203
S'MG_JEN_JonesetFJones'
p2456
ssg771
g1089
sg770
g1089
sg78
F1.0
sg913
g2421
sg773
g2427
sg2428
I0
sg88
I01
sg2433
I2
sg43
Nsg92
Nsg2439
I1
sg780
g1089
sg94
I00
ssg771
NsS'[solve_imp]./MG_JEN_Joneset.JJones()'
p2457
(dp2458
g27
I00
sg2
S'@@polrep'
p2459
sS'tdeg_Jreal'
p2460
I0
sg30
g31
sg32
I00
sg756
Nsg13
S'@@parmtable'
p2461
sS'subtile_size_Jreal'
p2462
Nsg36
Nsg37
I10
sg38
g39
sS'tdeg_Jimag'
p2463
S'@tdeg_Jreal'
p2464
sg40
g41
sg44
g45
sg47
Nsg49
(dp2465
g199
S'MG_JEN_Joneset::JJones()'
p2466
sg51
g2457
sg100
(dp2467
g38
I01
sg2
I01
sg78
I01
sg40
I01
sg773
I01
sg30
I01
sg43
I01
sg44
I01
sg913
I01
sg47
I01
sg92
I01
sg13
I01
sg771
I01
sg780
I01
sg37
I01
sg36
I01
sg770
I01
ssg105
g781
sg96
g97
sg109
S'MG_JEN_Joneset::JJones()  version=14feb2006  defined=2006-04-13 12:19'
p2468
sg205
S'JJones'
p2469
sg111
(dp2470
g27
(lp2471
I01
aI00
aS'@@reset_funklet'
p2472
asg2
(lp2473
g3
ag792
ag2459
asg2460
(lp2474
I0
aI1
aI2
aI3
aS'@@tdeg_Jreal'
p2475
asg30
(lp2476
g31
aS'@@color'
p2477
asg32
(lp2478
I01
aI00
aS'@@save_all'
p2479
asg756
(lp2480
Na(lp2481
I14
aa(lp2482
I1
aag804
aS'@@all4_always'
p2483
asg13
(lp2484
Nag1255
ag2461
asg2462
(lp2485
NaI1
aI2
aI5
aI10
aI20
aI50
aI100
aI200
aI500
aS'@@subtile_size_Jreal'
p2486
asg36
(lp2487
NaS'@@unit'
p2488
asg37
(lp2489
I10
aS'@@size'
p2490
asg38
(lp2491
g39
aS'@@style'
p2492
asg2463
(lp2493
I0
aI1
aI2
aI3
ag2464
aS'@@tdeg_Jimag'
p2494
asg40
(lp2495
g41
aS'@@descr'
p2496
asg44
(lp2497
g45
aS'@@condeq_corrs'
p2498
asg47
(lp2499
NaS'@@funklet_shape'
p2500
asg94
(lp2501
I01
aI00
aS'@@auto_save'
p2502
asg771
(lp2503
g822
aS'@@@Jsequence_KJones'
p2504
asS'fdeg_Jreal'
p2505
(lp2506
I0
aI1
aI2
aI3
aS'@@fdeg_Jreal'
p2507
asg78
(lp2508
F1.0
aS'@@c00_default'
p2509
asg913
(lp2510
I00
aS'@@uvplane_effect'
p2511
asS'fdeg_Jimag'
p2512
(lp2513
I0
aI1
aI2
aI3
aS'@fdeg_Jreal'
p2514
aS'@@fdeg_Jimag'
p2515
asS'subtile_size_Jimag'
p2516
(lp2517
S'@subtile_size_Jreal'
p2518
aNaI1
aI2
aI5
aI10
aI20
aI50
aI100
aI200
aI500
aS'@@subtile_size_Jimag'
p2519
asg773
(lp2520
(lp2521
I0
aI1
aI2
aI3
aI4
aa(lp2522
I0
aI1
aI2
aI3
aI4
aI5
aI6
aa(lp2523
I0
aI1
aI2
aI3
aI4
aI5
aI6
aI7
aI8
aI9
aI10
aI11
aI12
aI13
aa(lp2524
I0
aI1
aI2
aI3
aI4
aI5
aI6
aI7
aI8
aI9
aI10
aI11
aI12
aI13
aI14
aag844
aS'@@stations'
p2525
asg748
(lp2526
I01
aI00
aS'@@diagonal_only'
p2527
asg88
(lp2528
I01
aI00
aS'@@use_previous'
p2529
asg43
(lp2530
NaS'@@subtile_size'
p2531
asg92
(lp2532
NaS'@@tfdeg'
p2533
asg780
(lp2534
g822
aS'@@@Jsequence_simul'
p2535
asg770
(lp2536
g822
aS'@@@Jsequence'
p2537
assg195
g2444
sg209
S'** Description of available inarg record(s) for: MG_JEN_Joneset::JJones()  version=14feb2006  defined=2006-04-13 12:19'
p2538
sg211
I00
sg212
S'2006-04-13 12:19'
p2539
sg103
g873
sg98
S'MG_JEN_Joneset'
p2540
sg107
(dp2541
g27
I00
sg748
I00
sg32
I00
sg94
I00
sg88
I00
ssg201
S'** Specific description of inarg record for: MG_JEN_Joneset::JJones()  version=14feb2006  defined=2006-04-13 12:19'
p2542
sg877
(dp2543
g913
I00
sg13
I00
sg2
I00
sg773
I00
ssg197
g2539
sg217
(lp2544
g49
ag773
ag2
ag770
ag780
ag771
ag748
ag756
ag13
ag913
ag2460
ag2463
ag2505
ag2512
ag2462
ag2516
ag88
ag94
ag32
ag27
ag40
ag36
ag30
ag38
ag37
ag78
ag92
ag47
ag43
ag44
asg52
(dp2545
g27
g55
sg2
g883
sg2460
S'degree of time polynomial'
p2546
sg30
g58
sg32
g59
sg756
g887
sg13
g1301
sg2462
S'sub-tile size (None=entire tile)'
p2547
sg36
g36
sg37
g63
sg38
g64
sg2463
g2546
sg40
g65
sg44
g68
sg47
g70
sg94
g95
sg771
g893
sg2505
S'degree of freq polynomial'
p2548
sg78
g79
sg913
g1300
sg2512
g2548
sg2516
g2547
sg773
g899
sg748
g882
sg88
g89
sg43
g67
sg92
g93
sg780
g893
sg770
g893
ssg203
S'MG_JEN_JonesetJJones'
p2549
ssg771
g822
sg2505
I0
sg78
F1.0
sg913
g2511
sg2512
g2514
sg2516
g2518
sg773
g2525
sg748
I00
sg88
I01
sg43
Nsg92
Nsg780
g822
sg770
g822
sg94
I00
ssg773
S'@@stations'
p2550
sS'[solve_imp]./MG_JEN_Joneset.BJones()'
p2551
(dp2552
g27
I00
sg2
S'@@polrep'
p2553
sg30
g31
sS'subtile_size_Bimag'
p2554
S'@subtile_size_Breal'
p2555
sg32
I00
sS'subtile_size_Breal'
p2556
Nsg36
Nsg37
I10
sg38
g39
sg40
g41
sS'fdeg_Breal'
p2557
I5
sg44
g45
sg47
Nsg49
(dp2558
g199
S'MG_JEN_Joneset::BJones()'
p2559
sg51
g2551
sg100
(dp2560
g38
I01
sg2
I01
sg78
I01
sg40
I01
sg773
I01
sg30
I01
sg43
I01
sg44
I01
sg913
I01
sg47
I01
sg92
I01
sg13
I01
sg771
I01
sg780
I01
sg37
I01
sg36
I01
sg770
I01
ssg105
g925
sg96
g97
sg109
S'MG_JEN_Joneset::BJones()  version=16dec2005  defined=2006-04-13 12:19'
p2561
sg205
S'BJones'
p2562
sg111
(dp2563
g27
(lp2564
I01
aI00
aS'@@reset_funklet'
p2565
asg2
(lp2566
g3
ag792
ag2553
asg30
(lp2567
g31
aS'@@color'
p2568
asg2554
(lp2569
g2555
aNaI1
aI2
aI5
aI10
aI20
aI50
aI100
aI200
aI500
aS'@@subtile_size_Bimag'
p2570
asg32
(lp2571
I01
aI00
aS'@@save_all'
p2572
asg2556
(lp2573
NaI1
aI2
aI5
aI10
aI20
aI50
aI100
aI200
aI500
aS'@@subtile_size_Breal'
p2574
asg36
(lp2575
NaS'@@unit'
p2576
asg37
(lp2577
I10
aS'@@size'
p2578
asg38
(lp2579
g39
aS'@@style'
p2580
asg40
(lp2581
g41
aS'@@descr'
p2582
asg2557
(lp2583
I3
aI4
aI5
aI6
aS'@@fdeg_Breal'
p2584
asg44
(lp2585
g45
aS'@@condeq_corrs'
p2586
asg47
(lp2587
NaS'@@funklet_shape'
p2588
asg94
(lp2589
I01
aI00
aS'@@auto_save'
p2590
asg771
(lp2591
g961
aS'@@@Jsequence_KJones'
p2592
asS'tdeg_Bimag'
p2593
(lp2594
I0
aI1
aI2
aI3
aS'@tdeg_Breal'
p2595
aS'@@tdeg_Bimag'
p2596
asg770
(lp2597
g961
aS'@@@Jsequence'
p2598
asg78
(lp2599
F1.0
aS'@@c00_default'
p2600
asS'fdeg_Bimag'
p2601
(lp2602
I3
aI4
aI5
aI6
aS'@fdeg_Breal'
p2603
aS'@@fdeg_Bimag'
p2604
asg913
(lp2605
I00
aS'@@uvplane_effect'
p2606
asg773
(lp2607
(lp2608
I0
aI1
aI2
aI3
aI4
aa(lp2609
I0
aI1
aI2
aI3
aI4
aI5
aI6
aa(lp2610
I0
aI1
aI2
aI3
aI4
aI5
aI6
aI7
aI8
aI9
aI10
aI11
aI12
aI13
aa(lp2611
I0
aI1
aI2
aI3
aI4
aI5
aI6
aI7
aI8
aI9
aI10
aI11
aI12
aI13
aI14
aag844
aS'@@stations'
p2612
asg92
(lp2613
NaS'@@tfdeg'
p2614
asS'tdeg_Breal'
p2615
(lp2616
I0
aI1
aI2
aI3
aS'@@tdeg_Breal'
p2617
asg88
(lp2618
I01
aI00
aS'@@use_previous'
p2619
asg43
(lp2620
NaS'@@subtile_size'
p2621
asg13
(lp2622
Nag1255
aS'@@parmtable'
p2623
asg780
(lp2624
g961
aS'@@@Jsequence_simul'
p2625
assg195
g2444
sg209
S'** Description of available inarg record(s) for: MG_JEN_Joneset::BJones()  version=16dec2005  defined=2006-04-13 12:19'
p2626
sg211
I00
sg212
S'2006-04-13 12:19'
p2627
sg103
g1002
sg98
S'MG_JEN_Joneset'
p2628
sg107
(dp2629
g27
I00
sg32
I00
sg94
I00
sg88
I00
ssg201
S'** Specific description of inarg record for: MG_JEN_Joneset::BJones()  version=16dec2005  defined=2006-04-13 12:19'
p2630
sg877
(dp2631
g913
I00
sg13
I00
sg2
I00
sg773
I00
ssg197
g2627
sg217
(lp2632
g49
ag773
ag2
ag770
ag780
ag771
ag13
ag913
ag2615
ag2593
ag2557
ag2601
ag2556
ag2554
ag88
ag94
ag32
ag27
ag40
ag36
ag30
ag38
ag37
ag78
ag92
ag47
ag43
ag44
asg52
(dp2633
g27
g55
sg2
g883
sg30
g58
sg2554
S'sub-tile size (None=entire tile)'
p2634
sg32
g59
sg2556
g2634
sg36
g36
sg37
g63
sg38
g64
sg40
g65
sg2557
S'degree of freq polynomial'
p2635
sg44
g68
sg47
g70
sg94
g95
sg771
g893
sg2593
S'degree of time polynomial'
p2636
sg770
g893
sg78
g79
sg2601
g2635
sg913
g1300
sg773
g899
sg92
g93
sg2615
g2636
sg88
g89
sg43
g67
sg13
g1301
sg780
g893
ssg203
S'MG_JEN_JonesetBJones'
p2637
ssg771
g961
sg2593
g2595
sg770
g961
sg78
F1.0
sg2601
g2603
sg913
g2606
sg773
g2612
sg92
Nsg2615
I0
sg88
I01
sg43
Nsg13
g2623
sg780
g961
sg94
I00
ssS'[solve_imp]./MG_JEN_Joneset.DJones_WSRT()'
p2638
(dp2639
g27
I00
sg2
S'@@polrep'
p2640
sg30
g31
sS'fdeg_Dell'
p2641
S'@fdeg_Dang'
p2642
sg1141
I01
sg32
I00
sg36
Nsg13
S'@@parmtable'
p2643
sS'subtile_size_Dang'
p2644
Nsg94
I00
sg37
I10
sg38
g39
sg40
g41
sg44
g45
sg47
Nsg49
(dp2645
g199
S'MG_JEN_Joneset::DJones_WSRT()'
p2646
sg51
g2638
sg100
(dp2647
g38
I01
sg2
I01
sg78
I01
sg40
I01
sg773
I01
sg30
I01
sg43
I01
sg44
I01
sg913
I01
sg47
I01
sg92
I01
sg13
I01
sg771
I01
sg780
I01
sg37
I01
sg36
I01
sg770
I01
ssg105
g1148
sg96
g97
sg109
S'MG_JEN_Joneset::DJones_WSRT()  version=16dec2005  defined=2006-04-13 12:19'
p2648
sg205
S'DJones_WSRT'
p2649
sg111
(dp2650
g27
(lp2651
I01
aI00
aS'@@reset_funklet'
p2652
asg2
(lp2653
g3
ag792
ag2640
asg30
(lp2654
g31
aS'@@color'
p2655
asg2641
(lp2656
I0
aI1
aI2
aI3
ag2642
aS'@@fdeg_Dell'
p2657
asg1141
(lp2658
I01
aI00
aS'@@coupled_XY_Dell'
p2659
asg32
(lp2660
I01
aI00
aS'@@save_all'
p2661
asg13
(lp2662
Nag1255
ag2643
asg2644
(lp2663
NaI1
aI2
aI5
aI10
aI20
aI50
aI100
aI200
aI500
aS'@@subtile_size_Dang'
p2664
asg36
(lp2665
NaS'@@unit'
p2666
asg37
(lp2667
I10
aS'@@size'
p2668
asg38
(lp2669
g39
aS'@@style'
p2670
asg40
(lp2671
g41
aS'@@descr'
p2672
asg44
(lp2673
g45
aS'@@condeq_corrs'
p2674
asg47
(lp2675
NaS'@@funklet_shape'
p2676
asg94
(lp2677
I01
aI00
aS'@@auto_save'
p2678
asg771
(lp2679
g1181
aS'@@@Jsequence_KJones'
p2680
asS'subtile_size_Dell'
p2681
(lp2682
S'@subtile_size_Dang'
p2683
aNaI1
aI2
aI5
aI10
aI20
aI50
aI100
aI200
aI500
aS'@@subtile_size_Dell'
p2684
asg770
(lp2685
g1181
aS'@@@Jsequence'
p2686
asS'fdeg_Dang'
p2687
(lp2688
I0
aI1
aI2
aI3
aS'@@fdeg_Dang'
p2689
asg78
(lp2690
F1.0
aS'@@c00_default'
p2691
asg913
(lp2692
I00
aS'@@uvplane_effect'
p2693
asS'tdeg_Dell'
p2694
(lp2695
I0
aI1
aI2
aI3
aS'@tdeg_Dang'
p2696
aS'@@tdeg_Dell'
p2697
asg1194
(lp2698
I01
aI00
aS'@@coupled_XY_Dang'
p2699
asS'tdeg_Dang'
p2700
(lp2701
I0
aI1
aI2
aI3
aS'@@tdeg_Dang'
p2702
asg773
(lp2703
(lp2704
I0
aI1
aI2
aI3
aI4
aa(lp2705
I0
aI1
aI2
aI3
aI4
aI5
aI6
aa(lp2706
I0
aI1
aI2
aI3
aI4
aI5
aI6
aI7
aI8
aI9
aI10
aI11
aI12
aI13
aa(lp2707
I0
aI1
aI2
aI3
aI4
aI5
aI6
aI7
aI8
aI9
aI10
aI11
aI12
aI13
aI14
aag844
aS'@@stations'
p2708
asg88
(lp2709
I01
aI00
aS'@@use_previous'
p2710
asg43
(lp2711
NaS'@@subtile_size'
p2712
asg92
(lp2713
NaS'@@tfdeg'
p2714
asg780
(lp2715
g1181
aS'@@@Jsequence_simul'
p2716
assg195
g2444
sg209
S'** Description of available inarg record(s) for: MG_JEN_Joneset::DJones_WSRT()  version=16dec2005  defined=2006-04-13 12:19'
p2717
sg211
I00
sg212
S'2006-04-13 12:19'
p2718
sg103
g1002
sg98
S'MG_JEN_Joneset'
p2719
sg107
(dp2720
g27
I00
sg1141
I00
sg32
I00
sg1194
I00
sg88
I00
sg94
I00
ssg201
S'** Specific description of inarg record for: MG_JEN_Joneset::DJones_WSRT()  version=16dec2005  defined=2006-04-13 12:19'
p2721
sg877
(dp2722
g913
I00
sg13
I00
sg2
I00
sg773
I00
ssg197
g2718
sg217
(lp2723
g49
ag773
ag2
ag770
ag780
ag771
ag1194
ag1141
ag13
ag913
ag2700
ag2694
ag2687
ag2641
ag2644
ag2681
ag88
ag94
ag32
ag27
ag40
ag36
ag30
ag38
ag37
ag78
ag92
ag47
ag43
ag44
asg52
(dp2724
g27
g55
sg2
g883
sg30
g58
sg2641
S'degree of freq polynomial'
p2725
sg1141
g1236
sg32
g59
sg13
g1301
sg2644
S'sub-tile size (None=entire tile)'
p2726
sg36
g36
sg37
g63
sg38
g64
sg40
g65
sg44
g68
sg47
g70
sg94
g95
sg771
g893
sg2681
g2726
sg770
g893
sg2687
g2725
sg78
g79
sg913
g1300
sg2694
S'degree of time polynomial'
p2727
sg1194
g1237
sg2700
g2727
sg773
g899
sg88
g89
sg43
g67
sg92
g93
sg780
g893
ssg203
S'MG_JEN_JonesetDJones_WSRT'
p2728
ssg771
g1181
sg2681
g2683
sg770
g1181
sg2687
I0
sg78
F1.0
sg913
g2693
sg2694
g2696
sg1194
I01
sg2700
I0
sg773
g2708
sg88
I01
sg43
Nsg92
Nsg780
g1181
ssg913
S'@@uvplane_effect'
p2729
sg13
S'@@parmtable'
p2730
sg49
(dp2731
g199
g1240
sg51
g2379
sg100
(dp2732
g2
I01
sg773
I01
sg913
I01
sg13
I01
sg771
I01
sg780
I01
sg770
I01
ssg203
S'MG_JEN_CohsetJones'
p2733
sg96
g97
sg105
g1243
sg109
S'MG_JEN_Cohset::Jones()  version=25dec2005  defined=2006-04-13 12:19'
p2734
sg205
S'Jones'
p2735
sg111
(dp2736
g2
(lp2737
g3
ag792
aS'@@polrep'
p2738
asg773
(lp2739
(lp2740
I0
aI1
aI2
aI3
aI4
aa(lp2741
I0
aI1
aI2
aI3
aI4
aI5
aI6
aa(lp2742
I0
aI1
aI2
aI3
aI4
aI5
aI6
aI7
aI8
aI9
aI10
aI11
aI12
aI13
aa(lp2743
I0
aI1
aI2
aI3
aI4
aI5
aI6
aI7
aI8
aI9
aI10
aI11
aI12
aI13
aI14
aag844
ag2550
asg913
(lp2744
I00
ag2729
asg13
(lp2745
Nag1255
ag2730
asg771
(lp2746
NaS'@@@Jsequence_KJones'
p2747
asg780
(lp2748
NaS'@@@Jsequence_simul'
p2749
asg1260
(lp2750
(lp2751
g1263
aa(lp2752
g961
aa(lp2753
g1089
aa(lp2754
g1022
aa(lp2755
g1181
aa(lp2756
g1263
ag1181
aa(lp2757
g1270
aa(lp2758
g1263
ag1270
aa(lp2759
g822
aa(lp2760
aS'@@Jsequence'
p2761
asg770
(lp2762
NaS'@@@Jsequence'
p2763
assg195
g2444
sg209
S'** Description of available inarg record(s) for: MG_JEN_Cohset::Jones()  version=25dec2005  defined=2006-04-13 12:19'
p2764
sg211
I00
sg212
S'2006-04-13 12:19'
p2765
sg103
g1279
sg98
S'MG_JEN_Cohset'
p2766
sg201
S'** Specific description of inarg record for: MG_JEN_Cohset::Jones()  version=25dec2005  defined=2006-04-13 12:19'
p2767
sg213
(dp2768
g405
S'** JEN_inarg.attach(): attached: [solve_imp]./MG_JEN_Joneset.FJones()'
p2769
sg215
S'** JEN_inarg.attach(): attached: [solve_imp]./MG_JEN_Joneset.GJones()'
p2770
sg408
S'** JEN_inarg.attach(): attached: [solve_imp]./MG_JEN_Joneset.KJones()'
p2771
sg410
S'** JEN_inarg.attach(): attached: [solve_imp]./MG_JEN_Joneset.BJones()'
p2772
sg1287
S'** JEN_inarg.attach(): attached: [solve_imp]./MG_JEN_Joneset.EJones_WSRT()'
p2773
sg1289
S'** JEN_inarg.attach(): attached: [solve_imp]./MG_JEN_Joneset.DJones_WSRT()'
p2774
sg1293
S'** JEN_inarg.attach(): attached: [solve_imp]./MG_JEN_Joneset.JJones()'
p2775
ssg197
g2765
sg877
(dp2776
g913
I00
sg13
I00
sg2
I00
sg773
I00
ssg217
(lp2777
g49
ag773
ag2
ag770
ag780
ag771
ag13
ag913
ag1260
aS'[solve_imp]./MG_JEN_Joneset.GJones()'
p2778
ag2381
ag2551
aS'[solve_imp]./MG_JEN_Joneset.KJones()'
p2779
ag2638
aS'[solve_imp]./MG_JEN_Joneset.EJones_WSRT()'
p2780
ag2457
asg52
(dp2781
g2
g883
sg773
g899
sg913
g1300
sg13
g1301
sg771
g893
sg780
g893
sg1260
g1302
sg770
g893
sssg2778
(dp2782
g27
I00
sg2
S'@@polrep'
p2783
sS'fdeg_Ggain'
p2784
I0
sg30
g31
sg32
I00
sg13
S'@@parmtable'
p2785
sg36
Nsg37
I10
sg38
g39
sg40
g41
sS'subtile_size_Ggain'
p2786
I1
sg44
g45
sg47
Nsg49
(dp2787
g199
S'MG_JEN_Joneset::GJones()'
p2788
sg51
g2778
sg100
(dp2789
g37
I01
sg38
I01
sg2
I01
sg78
I01
sg40
I01
sg773
I01
sg30
I01
sg43
I01
sg44
I01
sg913
I01
sg47
I01
sg92
I01
sg13
I01
sg771
I01
sg780
I01
sg1313
I01
sg36
I01
sg770
I01
ssg105
g1314
sg96
g97
sg109
S'MG_JEN_Joneset::GJones()  version=15dec2005  defined=2006-04-13 12:19'
p2790
sg205
S'GJones'
p2791
sg111
(dp2792
g27
(lp2793
I01
aI00
aS'@@reset_funklet'
p2794
asg2
(lp2795
g3
ag792
ag2783
asg2784
(lp2796
I0
aI1
aI2
aI3
aS'@@fdeg_Ggain'
p2797
asg30
(lp2798
g31
aS'@@color'
p2799
asg32
(lp2800
I01
aI00
aS'@@save_all'
p2801
asg13
(lp2802
Nag1255
ag2785
asg36
(lp2803
NaS'@@unit'
p2804
asg37
(lp2805
I10
aS'@@size'
p2806
asg38
(lp2807
g39
aS'@@style'
p2808
asg40
(lp2809
g41
aS'@@descr'
p2810
asg2786
(lp2811
NaI1
aI2
aI5
aI10
aI20
aI50
aI100
aI200
aI500
aS'@@subtile_size_Ggain'
p2812
asg44
(lp2813
g45
aS'@@condeq_corrs'
p2814
asg47
(lp2815
NaS'@@funklet_shape'
p2816
asg94
(lp2817
I01
aI00
aS'@@auto_save'
p2818
asg771
(lp2819
g1263
aS'@@@Jsequence_KJones'
p2820
asg770
(lp2821
g1263
aS'@@@Jsequence'
p2822
asg78
(lp2823
F1.0
aS'@@c00_default'
p2824
asS'tdeg_Gphase'
p2825
(lp2826
I0
aI1
aI2
aI3
aS'@tdeg_Ggain'
p2827
aS'@@tdeg_Gphase'
p2828
asS'tdeg_Ggain'
p2829
(lp2830
I0
aI1
aI2
aI3
aS'@@tdeg_Ggain'
p2831
asS'fdeg_Gphase'
p2832
(lp2833
I0
aI1
aI2
aI3
aS'@fdeg_Ggain'
p2834
aS'@@fdeg_Gphase'
p2835
asS'subtile_size_Gphase'
p2836
(lp2837
S'@subtile_size_Ggain'
p2838
aNaI1
aI2
aI5
aI10
aI20
aI50
aI100
aI200
aI500
aS'@@subtile_size_Gphase'
p2839
asg1313
(lp2840
I01
aI00
aS'@@Gpolar'
p2841
asg913
(lp2842
I00
aS'@@uvplane_effect'
p2843
asg773
(lp2844
(lp2845
I0
aI1
aI2
aI3
aI4
aa(lp2846
I0
aI1
aI2
aI3
aI4
aI5
aI6
aa(lp2847
I0
aI1
aI2
aI3
aI4
aI5
aI6
aI7
aI8
aI9
aI10
aI11
aI12
aI13
aa(lp2848
I0
aI1
aI2
aI3
aI4
aI5
aI6
aI7
aI8
aI9
aI10
aI11
aI12
aI13
aI14
aag844
aS'@@stations'
p2849
asg88
(lp2850
I01
aI00
aS'@@use_previous'
p2851
asg43
(lp2852
NaS'@@subtile_size'
p2853
asg92
(lp2854
NaS'@@tfdeg'
p2855
asg780
(lp2856
g1263
aS'@@@Jsequence_simul'
p2857
assg195
g2444
sg209
S'** Description of available inarg record(s) for: MG_JEN_Joneset::GJones()  version=15dec2005  defined=2006-04-13 12:19'
p2858
sg211
I00
sg212
S'2006-04-13 12:19'
p2859
sg103
g1392
sg98
S'MG_JEN_Joneset'
p2860
sg107
(dp2861
g27
I00
sg1313
I00
sg32
I00
sg94
I00
sg88
I00
ssg201
S'** Specific description of inarg record for: MG_JEN_Joneset::GJones()  version=15dec2005  defined=2006-04-13 12:19'
p2862
sg877
(dp2863
g913
I00
sg13
I00
sg2
I00
sg773
I00
ssg197
g2859
sg217
(lp2864
g49
ag773
ag2
ag770
ag780
ag771
ag1313
ag13
ag913
ag2829
ag2825
ag2784
ag2832
ag2786
ag2836
ag88
ag94
ag32
ag27
ag40
ag36
ag30
ag38
ag37
ag78
ag92
ag47
ag43
ag44
asg52
(dp2865
g27
g55
sg2
g883
sg2784
S'degree of freq polynomial'
p2866
sg30
g58
sg32
g59
sg13
g1301
sg36
g36
sg37
g63
sg38
g64
sg40
g65
sg2786
S'sub-tile size (None=entire tile)'
p2867
sg44
g68
sg47
g70
sg94
g95
sg771
g893
sg770
g893
sg78
g79
sg2825
S'degree of time polynomial'
p2868
sg2829
g2868
sg2832
g2866
sg2836
g2867
sg1313
g1399
sg913
g1300
sg773
g899
sg88
g89
sg43
g67
sg92
g93
sg780
g893
ssg203
S'MG_JEN_JonesetGJones'
p2869
ssg771
g1263
sg770
g1263
sg78
F1.0
sg2825
g2827
sg2829
I0
sg2832
g2834
sg2836
g2838
sg1313
I01
sg913
g2843
sg773
g2849
sg88
I01
sg43
Nsg92
Nsg780
g1263
sg94
I00
ssg2
g2738
sg780
Nsg2779
(dp2870
g2
S'@@polrep'
p2871
sg773
S'@@stations'
p2872
sg49
(dp2873
g199
S'MG_JEN_Joneset::KJones()'
p2874
sg51
g2779
sg100
(dp2875
g771
I01
sg780
I01
sg770
I01
sg2
I01
sg773
I01
ssg105
g1017
sg96
g97
sg109
S'MG_JEN_Joneset::KJones()  version=12dec2005  defined=2006-04-13 12:19'
p2876
sg205
S'KJones'
p2877
sg111
(dp2878
g771
(lp2879
g1022
aS'@@@Jsequence_KJones'
p2880
asg780
(lp2881
g1022
aS'@@@Jsequence_simul'
p2882
asg770
(lp2883
g1022
aS'@@@Jsequence'
p2884
asg2
(lp2885
g3
ag792
ag2871
asg773
(lp2886
(lp2887
I0
aI1
aI2
aI3
aI4
aa(lp2888
I0
aI1
aI2
aI3
aI4
aI5
aI6
aa(lp2889
I0
aI1
aI2
aI3
aI4
aI5
aI6
aI7
aI8
aI9
aI10
aI11
aI12
aI13
aa(lp2890
I0
aI1
aI2
aI3
aI4
aI5
aI6
aI7
aI8
aI9
aI10
aI11
aI12
aI13
aI14
aag844
ag2872
assg195
g2444
sg209
S'** Description of available inarg record(s) for: MG_JEN_Joneset::KJones()  version=12dec2005  defined=2006-04-13 12:19'
p2891
sg211
I00
sg212
S'2006-04-13 12:19'
p2892
sg103
g1036
sg98
S'MG_JEN_Joneset'
p2893
sg201
S'** Specific description of inarg record for: MG_JEN_Joneset::KJones()  version=12dec2005  defined=2006-04-13 12:19'
p2894
sg877
(dp2895
g2
I00
sg773
I00
ssg197
g2892
sg217
(lp2896
g49
ag773
ag2
ag770
ag780
ag771
asg52
(dp2897
g771
g893
sg780
g893
sg770
g893
sg2
g883
sg773
g899
ssg203
S'MG_JEN_JonesetKJones'
p2898
ssg771
g1022
sg780
g1022
sg770
g1022
ssg1260
(lp2899
sg2780
(dp2900
g27
I00
sg2
S'@@polrep'
p2901
sg30
g31
sg32
I00
sg36
Nsg13
S'@@parmtable'
p2902
sg94
I00
sg37
I10
sS'tdeg_Edl'
p2903
I0
sS'tdeg_Edm'
p2904
S'@tdeg_Edl'
p2905
sg38
g39
sg40
g41
sg43
Nsg44
g45
sg47
Nsg49
(dp2906
g199
S'MG_JEN_Joneset::EJones_WSRT()'
p2907
sg51
g2780
sg100
(dp2908
g38
I01
sg2
I01
sg78
I01
sg40
I01
sg773
I01
sg30
I01
sg43
I01
sg44
I01
sg913
I01
sg47
I01
sg92
I01
sg13
I01
sg771
I01
sg780
I01
sg37
I01
sg36
I01
sg770
I01
ssg105
g1410
sg96
g97
sg109
S'MG_JEN_Joneset::EJones_WSRT()  version=15dec2005  defined=2006-04-13 12:19'
p2909
sg205
S'EJones_WSRT'
p2910
sg111
(dp2911
g27
(lp2912
I01
aI00
aS'@@reset_funklet'
p2913
asg2
(lp2914
g3
ag792
ag2901
asg30
(lp2915
g31
aS'@@color'
p2916
asg32
(lp2917
I01
aI00
aS'@@save_all'
p2918
asg13
(lp2919
Nag1255
ag2902
asg36
(lp2920
NaS'@@unit'
p2921
asg37
(lp2922
I10
aS'@@size'
p2923
asg2903
(lp2924
I0
aI1
aI2
aI3
aS'@@tdeg_Edl'
p2925
asg2904
(lp2926
I0
aI1
aI2
aI3
ag2905
aS'@@tdeg_Edm'
p2927
asg38
(lp2928
g39
aS'@@style'
p2929
asg40
(lp2930
g41
aS'@@descr'
p2931
asg43
(lp2932
NaS'@@subtile_size'
p2933
asg44
(lp2934
g45
aS'@@condeq_corrs'
p2935
asg47
(lp2936
NaS'@@funklet_shape'
p2937
asg94
(lp2938
I01
aI00
aS'@@auto_save'
p2939
asg771
(lp2940
g1270
aS'@@@Jsequence_KJones'
p2941
asg770
(lp2942
g1270
aS'@@@Jsequence'
p2943
asg78
(lp2944
F1.0
aS'@@c00_default'
p2945
asg913
(lp2946
I00
aS'@@uvplane_effect'
p2947
asg773
(lp2948
(lp2949
I0
aI1
aI2
aI3
aI4
aa(lp2950
I0
aI1
aI2
aI3
aI4
aI5
aI6
aa(lp2951
I0
aI1
aI2
aI3
aI4
aI5
aI6
aI7
aI8
aI9
aI10
aI11
aI12
aI13
aa(lp2952
I0
aI1
aI2
aI3
aI4
aI5
aI6
aI7
aI8
aI9
aI10
aI11
aI12
aI13
aI14
aag844
aS'@@stations'
p2953
asg92
(lp2954
NaS'@@tfdeg'
p2955
asg88
(lp2956
I01
aI00
aS'@@use_previous'
p2957
asS'subtile_size_Edl'
p2958
(lp2959
NaI1
aI2
aI5
aI10
aI20
aI50
aI100
aI200
aI500
aS'@@subtile_size_Edl'
p2960
asS'subtile_size_Edm'
p2961
(lp2962
S'@subtile_size_Edl'
p2963
aNaI1
aI2
aI5
aI10
aI20
aI50
aI100
aI200
aI500
aS'@@subtile_size_Edm'
p2964
asg780
(lp2965
g1270
aS'@@@Jsequence_simul'
p2966
asS'fdeg_Edl'
p2967
(lp2968
I0
aI1
aI2
aI3
aS'@@fdeg_Edl'
p2969
asS'fdeg_Edm'
p2970
(lp2971
I0
aI1
aI2
aI3
aS'@fdeg_Edl'
p2972
aS'@@fdeg_Edm'
p2973
assg195
g2444
sg209
S'** Description of available inarg record(s) for: MG_JEN_Joneset::EJones_WSRT()  version=15dec2005  defined=2006-04-13 12:19'
p2974
sg211
I00
sg212
S'2006-04-13 12:19'
p2975
sg103
g1392
sg98
S'MG_JEN_Joneset'
p2976
sg107
(dp2977
g27
I00
sg32
I00
sg94
I00
sg88
I00
ssg201
S'** Specific description of inarg record for: MG_JEN_Joneset::EJones_WSRT()  version=15dec2005  defined=2006-04-13 12:19'
p2978
sg877
(dp2979
g913
I00
sg13
I00
sg2
I00
sg773
I00
ssg197
g2975
sg217
(lp2980
g49
ag773
ag2
ag770
ag780
ag771
ag13
ag913
ag2903
ag2904
ag2967
ag2970
ag2958
ag2961
ag88
ag94
ag32
ag27
ag40
ag36
ag30
ag38
ag37
ag78
ag92
ag47
ag43
ag44
asg52
(dp2981
g27
g55
sg2
g883
sg30
g58
sg32
g59
sg13
g1301
sg36
g36
sg37
g63
sg2903
S'degree of time polynomial'
p2982
sg2904
g2982
sg38
g64
sg40
g65
sg43
g67
sg44
g68
sg47
g70
sg94
g95
sg771
g893
sg770
g893
sg78
g79
sg913
g1300
sg773
g899
sg92
g93
sg88
g89
sg2958
S'sub-tile size (None=entire tile)'
p2983
sg2961
g2983
sg780
g893
sg2967
S'degree of freq polynomial'
p2984
sg2970
g2984
ssg203
S'MG_JEN_JonesetEJones_WSRT'
p2985
ssg771
g1270
sg770
g1270
sg78
F1.0
sg913
g2947
sg773
g2953
sg92
Nsg88
I01
sg2958
Nsg2961
g2963
sg780
g1270
sg2967
I0
sg2970
g2972
ssg770
Nssg2
S'@@polrep'
p2986
sg773
S'@@stations'
p2987
sg1494
I01
sg49
(dp2988
g51
g2303
sg52
(dp2989
g2
g883
sg773
g899
sg1494
g1497
sg1498
g1499
sg771
g893
sg780
g893
sg770
g893
ssg96
g97
sg98
S'MG_JEN_Cohset'
p2990
sg100
(dp2991
g771
I01
sg780
I01
sg770
I01
sg2
I01
sg773
I01
ssg103
g1502
sg877
(dp2992
g2
I00
sg773
I00
ssg105
g1504
sg107
(dp2993
g1494
I00
ssg109
S'MG_JEN_Cohset::predict_lsm()  version=20mar2006  defined=2006-04-13 12:19'
p2994
sg111
(dp2995
g2
(lp2996
g3
ag792
ag2986
asg773
(lp2997
(lp2998
I0
aI1
aI2
aI3
aI4
aa(lp2999
I0
aI1
aI2
aI3
aI4
aI5
aI6
aa(lp3000
I0
aI1
aI2
aI3
aI4
aI5
aI6
aI7
aI8
aI9
aI10
aI11
aI12
aI13
aa(lp3001
I0
aI1
aI2
aI3
aI4
aI5
aI6
aI7
aI8
aI9
aI10
aI11
aI12
aI13
aI14
aag844
ag2987
asg1494
(lp3002
I01
aI00
aS'@@visu'
p3003
asg1498
(lp3004
I1
aI2
aI3
aI5
aI10
aI20
aI100
aI1000
aI10000
aS'@@nr_lsm_sources'
p3005
asg771
(lp3006
NaS'@@@Jsequence_KJones'
p3007
asg780
(lp3008
NaS'@@@Jsequence_simul'
p3009
asg770
(lp3010
NaS'@@@Jsequence'
p3011
assg195
S'solve'
p3012
sg197
S'2006-04-13 12:19'
p3013
sg199
g1525
sg201
S'** Specific description of inarg record for: MG_JEN_Cohset::predict_lsm()  version=20mar2006  defined=2006-04-13 12:19'
p3014
sg203
S'MG_JEN_Cohsetpredict_lsm'
p3015
sg205
S'predict_lsm'
p3016
sg209
S'** Description of available inarg record(s) for: MG_JEN_Cohset::predict_lsm()  version=20mar2006  defined=2006-04-13 12:19'
p3017
sg211
I00
sg212
g3013
sg213
(dp3018
g405
S'** JEN_inarg.attach(): attached: [solve_uvp]./MG_JEN_Cohset.Jones()'
p3019
sg215
S'** JEN_inarg.attach(): attached: [solve_imp]./MG_JEN_Cohset.Jones()'
p3020
ssg217
(lp3021
g49
ag1498
ag1494
ag773
ag2
ag770
ag780
ag771
ag2379
aS'[solve_uvp]./MG_JEN_Cohset.Jones()'
p3022
assg3022
(dp3023
g771
Nsg2
S'@@polrep'
p3024
sg773
S'@@stations'
p3025
sg1260
(lp3026
g1263
asS'[solve_uvp]./MG_JEN_Joneset.KJones()'
p3027
(dp3028
g2
S'@@polrep'
p3029
sg773
S'@@stations'
p3030
sg49
(dp3031
g199
S'MG_JEN_Joneset::KJones()'
p3032
sg51
g3027
sg100
(dp3033
g771
I01
sg780
I01
sg770
I01
sg2
I01
sg773
I01
ssg105
g1017
sg96
g97
sg109
S'MG_JEN_Joneset::KJones()  version=12dec2005  defined=2006-04-13 12:19'
p3034
sg205
S'KJones'
p3035
sg111
(dp3036
g771
(lp3037
g1022
aS'@@@Jsequence_KJones'
p3038
asg780
(lp3039
g1022
aS'@@@Jsequence_simul'
p3040
asg770
(lp3041
g1022
aS'@@@Jsequence'
p3042
asg2
(lp3043
g3
ag792
ag3029
asg773
(lp3044
(lp3045
I0
aI1
aI2
aI3
aI4
aa(lp3046
I0
aI1
aI2
aI3
aI4
aI5
aI6
aa(lp3047
I0
aI1
aI2
aI3
aI4
aI5
aI6
aI7
aI8
aI9
aI10
aI11
aI12
aI13
aa(lp3048
I0
aI1
aI2
aI3
aI4
aI5
aI6
aI7
aI8
aI9
aI10
aI11
aI12
aI13
aI14
aag844
ag3030
assg195
S'solve_uvp'
p3049
sg209
S'** Description of available inarg record(s) for: MG_JEN_Joneset::KJones()  version=12dec2005  defined=2006-04-13 12:19'
p3050
sg211
I00
sg212
S'2006-04-13 12:19'
p3051
sg103
g1036
sg98
S'MG_JEN_Joneset'
p3052
sg201
S'** Specific description of inarg record for: MG_JEN_Joneset::KJones()  version=12dec2005  defined=2006-04-13 12:19'
p3053
sg877
(dp3054
g2
I00
sg773
I00
ssg197
g3051
sg217
(lp3055
g49
ag773
ag2
ag770
ag780
ag771
asg52
(dp3056
g771
g893
sg780
g893
sg770
g893
sg2
g883
sg773
g899
ssg203
S'MG_JEN_JonesetKJones'
p3057
ssg771
g1022
sg780
g1022
sg770
g1022
ssg913
S'@@uvplane_effect'
p3058
sg13
S'@@parmtable'
p3059
sS'[solve_uvp]./MG_JEN_Joneset.BJones()'
p3060
(dp3061
g27
I00
sg2
S'@@polrep'
p3062
sg30
g31
sg2554
g2555
sg32
I00
sg2556
Nsg36
Nsg37
I10
sg38
g39
sg40
g41
sg2557
I5
sg44
g45
sg47
Nsg49
(dp3063
g199
S'MG_JEN_Joneset::BJones()'
p3064
sg51
g3060
sg100
(dp3065
g38
I01
sg2
I01
sg78
I01
sg40
I01
sg773
I01
sg30
I01
sg43
I01
sg44
I01
sg913
I01
sg47
I01
sg92
I01
sg13
I01
sg771
I01
sg780
I01
sg37
I01
sg36
I01
sg770
I01
ssg105
g925
sg96
g97
sg109
S'MG_JEN_Joneset::BJones()  version=16dec2005  defined=2006-04-13 12:19'
p3066
sg205
S'BJones'
p3067
sg111
(dp3068
g27
(lp3069
I01
aI00
aS'@@reset_funklet'
p3070
asg2
(lp3071
g3
ag792
ag3062
asg30
(lp3072
g31
aS'@@color'
p3073
asg2554
(lp3074
g2555
aNaI1
aI2
aI5
aI10
aI20
aI50
aI100
aI200
aI500
aS'@@subtile_size_Bimag'
p3075
asg32
(lp3076
I01
aI00
aS'@@save_all'
p3077
asg2556
(lp3078
NaI1
aI2
aI5
aI10
aI20
aI50
aI100
aI200
aI500
aS'@@subtile_size_Breal'
p3079
asg36
(lp3080
NaS'@@unit'
p3081
asg37
(lp3082
I10
aS'@@size'
p3083
asg38
(lp3084
g39
aS'@@style'
p3085
asg40
(lp3086
g41
aS'@@descr'
p3087
asg2557
(lp3088
I3
aI4
aI5
aI6
aS'@@fdeg_Breal'
p3089
asg44
(lp3090
g45
aS'@@condeq_corrs'
p3091
asg47
(lp3092
NaS'@@funklet_shape'
p3093
asg94
(lp3094
I01
aI00
aS'@@auto_save'
p3095
asg771
(lp3096
g961
aS'@@@Jsequence_KJones'
p3097
asg2593
(lp3098
I0
aI1
aI2
aI3
ag2595
aS'@@tdeg_Bimag'
p3099
asg770
(lp3100
g961
aS'@@@Jsequence'
p3101
asg78
(lp3102
F1.0
aS'@@c00_default'
p3103
asg2601
(lp3104
I3
aI4
aI5
aI6
ag2603
aS'@@fdeg_Bimag'
p3105
asg913
(lp3106
I00
aS'@@uvplane_effect'
p3107
asg773
(lp3108
(lp3109
I0
aI1
aI2
aI3
aI4
aa(lp3110
I0
aI1
aI2
aI3
aI4
aI5
aI6
aa(lp3111
I0
aI1
aI2
aI3
aI4
aI5
aI6
aI7
aI8
aI9
aI10
aI11
aI12
aI13
aa(lp3112
I0
aI1
aI2
aI3
aI4
aI5
aI6
aI7
aI8
aI9
aI10
aI11
aI12
aI13
aI14
aag844
aS'@@stations'
p3113
asg92
(lp3114
NaS'@@tfdeg'
p3115
asg2615
(lp3116
I0
aI1
aI2
aI3
aS'@@tdeg_Breal'
p3117
asg88
(lp3118
I01
aI00
aS'@@use_previous'
p3119
asg43
(lp3120
NaS'@@subtile_size'
p3121
asg13
(lp3122
Nag1255
aS'@@parmtable'
p3123
asg780
(lp3124
g961
aS'@@@Jsequence_simul'
p3125
assg195
g3049
sg209
S'** Description of available inarg record(s) for: MG_JEN_Joneset::BJones()  version=16dec2005  defined=2006-04-13 12:19'
p3126
sg211
I00
sg212
S'2006-04-13 12:19'
p3127
sg103
g1002
sg98
S'MG_JEN_Joneset'
p3128
sg107
(dp3129
g27
I00
sg32
I00
sg94
I00
sg88
I00
ssg201
S'** Specific description of inarg record for: MG_JEN_Joneset::BJones()  version=16dec2005  defined=2006-04-13 12:19'
p3130
sg877
(dp3131
g913
I00
sg13
I00
sg2
I00
sg773
I00
ssg197
g3127
sg217
(lp3132
g49
ag773
ag2
ag770
ag780
ag771
ag13
ag913
ag2615
ag2593
ag2557
ag2601
ag2556
ag2554
ag88
ag94
ag32
ag27
ag40
ag36
ag30
ag38
ag37
ag78
ag92
ag47
ag43
ag44
asg52
(dp3133
g27
g55
sg2
g883
sg30
g58
sg2554
g2634
sg32
g59
sg2556
g2634
sg36
g36
sg37
g63
sg38
g64
sg40
g65
sg2557
g2635
sg44
g68
sg47
g70
sg94
g95
sg771
g893
sg2593
g2636
sg770
g893
sg78
g79
sg2601
g2635
sg913
g1300
sg773
g899
sg92
g93
sg2615
g2636
sg88
g89
sg43
g67
sg13
g1301
sg780
g893
ssg203
S'MG_JEN_JonesetBJones'
p3134
ssg771
g961
sg2593
g2595
sg770
g961
sg78
F1.0
sg2601
g2603
sg913
g3107
sg773
g3113
sg92
Nsg2615
I0
sg88
I01
sg43
Nsg13
g3123
sg780
g961
sg94
I00
ssg49
(dp3135
g199
g1240
sg51
g3022
sg100
(dp3136
g2
I01
sg773
I01
sg913
I01
sg13
I01
sg771
I01
sg780
I01
sg770
I01
ssg203
S'MG_JEN_CohsetJones'
p3137
sg96
g97
sg105
g1243
sg109
S'MG_JEN_Cohset::Jones()  version=25dec2005  defined=2006-04-13 12:19'
p3138
sg205
S'Jones'
p3139
sg111
(dp3140
g2
(lp3141
g3
ag792
ag3024
asg773
(lp3142
(lp3143
I0
aI1
aI2
aI3
aI4
aa(lp3144
I0
aI1
aI2
aI3
aI4
aI5
aI6
aa(lp3145
I0
aI1
aI2
aI3
aI4
aI5
aI6
aI7
aI8
aI9
aI10
aI11
aI12
aI13
aa(lp3146
I0
aI1
aI2
aI3
aI4
aI5
aI6
aI7
aI8
aI9
aI10
aI11
aI12
aI13
aI14
aag844
ag3025
asg913
(lp3147
I00
ag3058
asg13
(lp3148
Nag1255
ag3059
asg771
(lp3149
NaS'@@@Jsequence_KJones'
p3150
asg780
(lp3151
NaS'@@@Jsequence_simul'
p3152
asg1260
(lp3153
(lp3154
g1263
aa(lp3155
g961
aa(lp3156
g1089
aa(lp3157
g1022
aa(lp3158
g1181
aa(lp3159
g1263
ag1181
aa(lp3160
g1270
aa(lp3161
g1263
ag1270
aa(lp3162
g822
aa(lp3163
aS'@@Jsequence'
p3164
asg770
(lp3165
NaS'@@@Jsequence'
p3166
assg195
g3049
sg209
S'** Description of available inarg record(s) for: MG_JEN_Cohset::Jones()  version=25dec2005  defined=2006-04-13 12:19'
p3167
sg211
I00
sg212
S'2006-04-13 12:19'
p3168
sg103
g1279
sg98
S'MG_JEN_Cohset'
p3169
sg201
S'** Specific description of inarg record for: MG_JEN_Cohset::Jones()  version=25dec2005  defined=2006-04-13 12:19'
p3170
sg213
(dp3171
g405
S'** JEN_inarg.attach(): attached: [solve_uvp]./MG_JEN_Joneset.FJones()'
p3172
sg215
S'** JEN_inarg.attach(): attached: [solve_uvp]./MG_JEN_Joneset.GJones()'
p3173
sg408
S'** JEN_inarg.attach(): attached: [solve_uvp]./MG_JEN_Joneset.KJones()'
p3174
sg410
S'** JEN_inarg.attach(): attached: [solve_uvp]./MG_JEN_Joneset.BJones()'
p3175
sg1287
S'** JEN_inarg.attach(): attached: [solve_uvp]./MG_JEN_Joneset.EJones_WSRT()'
p3176
sg1289
S'** JEN_inarg.attach(): attached: [solve_uvp]./MG_JEN_Joneset.DJones_WSRT()'
p3177
sg1291
S"  2: ....[solve_uvp]./MG_JEN_Cohset.Jones() (qual=solve_uvp): .modify(Jsequence):   []  ->  ['GJones']"
p3178
sg1293
S'** JEN_inarg.attach(): attached: [solve_uvp]./MG_JEN_Joneset.JJones()'
p3179
ssg197
g3168
sg877
(dp3180
g913
I00
sg13
I00
sg2
I00
sg773
I00
ssg217
(lp3181
g49
ag773
ag2
ag770
ag780
ag771
ag13
ag913
ag1260
aS'[solve_uvp]./MG_JEN_Joneset.GJones()'
p3182
aS'[solve_uvp]./MG_JEN_Joneset.FJones()'
p3183
ag3060
ag3027
aS'[solve_uvp]./MG_JEN_Joneset.DJones_WSRT()'
p3184
aS'[solve_uvp]./MG_JEN_Joneset.EJones_WSRT()'
p3185
aS'[solve_uvp]./MG_JEN_Joneset.JJones()'
p3186
asg52
(dp3187
g2
g883
sg773
g899
sg913
g1300
sg13
g1301
sg771
g893
sg780
g893
sg1260
g1302
sg770
g893
sssg3182
(dp3188
g27
I00
sg2
S'@@polrep'
p3189
sg2784
I0
sg30
g31
sg32
I00
sg13
S'@@parmtable'
p3190
sg36
Nsg37
I10
sg38
g39
sg40
g41
sg2786
I1
sg44
g45
sg47
Nsg49
(dp3191
g199
S'MG_JEN_Joneset::GJones()'
p3192
sg51
g3182
sg100
(dp3193
g37
I01
sg38
I01
sg2
I01
sg78
I01
sg40
I01
sg773
I01
sg30
I01
sg43
I01
sg44
I01
sg913
I01
sg47
I01
sg92
I01
sg13
I01
sg771
I01
sg780
I01
sg1313
I01
sg36
I01
sg770
I01
ssg105
g1314
sg96
g97
sg109
S'MG_JEN_Joneset::GJones()  version=15dec2005  defined=2006-04-13 12:19'
p3194
sg205
S'GJones'
p3195
sg111
(dp3196
g27
(lp3197
I01
aI00
aS'@@reset_funklet'
p3198
asg2
(lp3199
g3
ag792
ag3189
asg2784
(lp3200
I0
aI1
aI2
aI3
aS'@@fdeg_Ggain'
p3201
asg30
(lp3202
g31
aS'@@color'
p3203
asg32
(lp3204
I01
aI00
aS'@@save_all'
p3205
asg13
(lp3206
Nag1255
ag3190
asg36
(lp3207
NaS'@@unit'
p3208
asg37
(lp3209
I10
aS'@@size'
p3210
asg38
(lp3211
g39
aS'@@style'
p3212
asg40
(lp3213
g41
aS'@@descr'
p3214
asg2786
(lp3215
NaI1
aI2
aI5
aI10
aI20
aI50
aI100
aI200
aI500
aS'@@subtile_size_Ggain'
p3216
asg44
(lp3217
g45
aS'@@condeq_corrs'
p3218
asg47
(lp3219
NaS'@@funklet_shape'
p3220
asg94
(lp3221
I01
aI00
aS'@@auto_save'
p3222
asg771
(lp3223
g1263
aS'@@@Jsequence_KJones'
p3224
asg770
(lp3225
g1263
aS'@@@Jsequence'
p3226
asg78
(lp3227
F1.0
aS'@@c00_default'
p3228
asg2825
(lp3229
I0
aI1
aI2
aI3
ag2827
aS'@@tdeg_Gphase'
p3230
asg2829
(lp3231
I0
aI1
aI2
aI3
aS'@@tdeg_Ggain'
p3232
asg2832
(lp3233
I0
aI1
aI2
aI3
ag2834
aS'@@fdeg_Gphase'
p3234
asg2836
(lp3235
g2838
aNaI1
aI2
aI5
aI10
aI20
aI50
aI100
aI200
aI500
aS'@@subtile_size_Gphase'
p3236
asg1313
(lp3237
I01
aI00
aS'@@Gpolar'
p3238
asg913
(lp3239
I00
aS'@@uvplane_effect'
p3240
asg773
(lp3241
(lp3242
I0
aI1
aI2
aI3
aI4
aa(lp3243
I0
aI1
aI2
aI3
aI4
aI5
aI6
aa(lp3244
I0
aI1
aI2
aI3
aI4
aI5
aI6
aI7
aI8
aI9
aI10
aI11
aI12
aI13
aa(lp3245
I0
aI1
aI2
aI3
aI4
aI5
aI6
aI7
aI8
aI9
aI10
aI11
aI12
aI13
aI14
aag844
aS'@@stations'
p3246
asg88
(lp3247
I01
aI00
aS'@@use_previous'
p3248
asg43
(lp3249
NaS'@@subtile_size'
p3250
asg92
(lp3251
NaS'@@tfdeg'
p3252
asg780
(lp3253
g1263
aS'@@@Jsequence_simul'
p3254
assg195
g3049
sg209
S'** Description of available inarg record(s) for: MG_JEN_Joneset::GJones()  version=15dec2005  defined=2006-04-13 12:19'
p3255
sg211
I00
sg212
S'2006-04-13 12:19'
p3256
sg103
g1392
sg98
S'MG_JEN_Joneset'
p3257
sg107
(dp3258
g27
I00
sg1313
I00
sg32
I00
sg94
I00
sg88
I00
ssg201
S'** Specific description of inarg record for: MG_JEN_Joneset::GJones()  version=15dec2005  defined=2006-04-13 12:19'
p3259
sg877
(dp3260
g913
I00
sg13
I00
sg2
I00
sg773
I00
ssg197
g3256
sg217
(lp3261
g49
ag773
ag2
ag770
ag780
ag771
ag1313
ag13
ag913
ag2829
ag2825
ag2784
ag2832
ag2786
ag2836
ag88
ag94
ag32
ag27
ag40
ag36
ag30
ag38
ag37
ag78
ag92
ag47
ag43
ag44
asg52
(dp3262
g27
g55
sg2
g883
sg2784
g2866
sg30
g58
sg32
g59
sg13
g1301
sg36
g36
sg37
g63
sg38
g64
sg40
g65
sg2786
g2867
sg44
g68
sg47
g70
sg94
g95
sg771
g893
sg770
g893
sg78
g79
sg2825
g2868
sg2829
g2868
sg2832
g2866
sg2836
g2867
sg1313
g1399
sg913
g1300
sg773
g899
sg88
g89
sg43
g67
sg92
g93
sg780
g893
ssg203
S'MG_JEN_JonesetGJones'
p3263
ssg771
g1263
sg770
g1263
sg78
F1.0
sg2825
g2827
sg2829
I0
sg2832
g2834
sg2836
g2838
sg1313
I01
sg913
g3240
sg773
g3246
sg88
I01
sg43
Nsg92
Nsg780
g1263
sg94
I00
ssg3186
(dp3264
g27
I00
sg2
S'@@polrep'
p3265
sg2460
I0
sg30
g31
sg32
I00
sg756
Nsg13
S'@@parmtable'
p3266
sg2462
Nsg36
Nsg37
I10
sg38
g39
sg2463
g2464
sg40
g41
sg44
g45
sg47
Nsg49
(dp3267
g199
S'MG_JEN_Joneset::JJones()'
p3268
sg51
g3186
sg100
(dp3269
g38
I01
sg2
I01
sg78
I01
sg40
I01
sg773
I01
sg30
I01
sg43
I01
sg44
I01
sg913
I01
sg47
I01
sg92
I01
sg13
I01
sg771
I01
sg780
I01
sg37
I01
sg36
I01
sg770
I01
ssg105
g781
sg96
g97
sg109
S'MG_JEN_Joneset::JJones()  version=14feb2006  defined=2006-04-13 12:19'
p3270
sg205
S'JJones'
p3271
sg111
(dp3272
g27
(lp3273
I01
aI00
aS'@@reset_funklet'
p3274
asg2
(lp3275
g3
ag792
ag3265
asg2460
(lp3276
I0
aI1
aI2
aI3
aS'@@tdeg_Jreal'
p3277
asg30
(lp3278
g31
aS'@@color'
p3279
asg32
(lp3280
I01
aI00
aS'@@save_all'
p3281
asg756
(lp3282
Na(lp3283
I14
aa(lp3284
I1
aag804
aS'@@all4_always'
p3285
asg13
(lp3286
Nag1255
ag3266
asg2462
(lp3287
NaI1
aI2
aI5
aI10
aI20
aI50
aI100
aI200
aI500
aS'@@subtile_size_Jreal'
p3288
asg36
(lp3289
NaS'@@unit'
p3290
asg37
(lp3291
I10
aS'@@size'
p3292
asg38
(lp3293
g39
aS'@@style'
p3294
asg2463
(lp3295
I0
aI1
aI2
aI3
ag2464
aS'@@tdeg_Jimag'
p3296
asg40
(lp3297
g41
aS'@@descr'
p3298
asg44
(lp3299
g45
aS'@@condeq_corrs'
p3300
asg47
(lp3301
NaS'@@funklet_shape'
p3302
asg94
(lp3303
I01
aI00
aS'@@auto_save'
p3304
asg771
(lp3305
g822
aS'@@@Jsequence_KJones'
p3306
asg2505
(lp3307
I0
aI1
aI2
aI3
aS'@@fdeg_Jreal'
p3308
asg78
(lp3309
F1.0
aS'@@c00_default'
p3310
asg913
(lp3311
I00
aS'@@uvplane_effect'
p3312
asg2512
(lp3313
I0
aI1
aI2
aI3
ag2514
aS'@@fdeg_Jimag'
p3314
asg2516
(lp3315
g2518
aNaI1
aI2
aI5
aI10
aI20
aI50
aI100
aI200
aI500
aS'@@subtile_size_Jimag'
p3316
asg773
(lp3317
(lp3318
I0
aI1
aI2
aI3
aI4
aa(lp3319
I0
aI1
aI2
aI3
aI4
aI5
aI6
aa(lp3320
I0
aI1
aI2
aI3
aI4
aI5
aI6
aI7
aI8
aI9
aI10
aI11
aI12
aI13
aa(lp3321
I0
aI1
aI2
aI3
aI4
aI5
aI6
aI7
aI8
aI9
aI10
aI11
aI12
aI13
aI14
aag844
aS'@@stations'
p3322
asg748
(lp3323
I01
aI00
aS'@@diagonal_only'
p3324
asg88
(lp3325
I01
aI00
aS'@@use_previous'
p3326
asg43
(lp3327
NaS'@@subtile_size'
p3328
asg92
(lp3329
NaS'@@tfdeg'
p3330
asg780
(lp3331
g822
aS'@@@Jsequence_simul'
p3332
asg770
(lp3333
g822
aS'@@@Jsequence'
p3334
assg195
g3049
sg209
S'** Description of available inarg record(s) for: MG_JEN_Joneset::JJones()  version=14feb2006  defined=2006-04-13 12:19'
p3335
sg211
I00
sg212
S'2006-04-13 12:19'
p3336
sg103
g873
sg98
S'MG_JEN_Joneset'
p3337
sg107
(dp3338
g27
I00
sg748
I00
sg32
I00
sg94
I00
sg88
I00
ssg201
S'** Specific description of inarg record for: MG_JEN_Joneset::JJones()  version=14feb2006  defined=2006-04-13 12:19'
p3339
sg877
(dp3340
g913
I00
sg13
I00
sg2
I00
sg773
I00
ssg197
g3336
sg217
(lp3341
g49
ag773
ag2
ag770
ag780
ag771
ag748
ag756
ag13
ag913
ag2460
ag2463
ag2505
ag2512
ag2462
ag2516
ag88
ag94
ag32
ag27
ag40
ag36
ag30
ag38
ag37
ag78
ag92
ag47
ag43
ag44
asg52
(dp3342
g27
g55
sg2
g883
sg2460
g2546
sg30
g58
sg32
g59
sg756
g887
sg13
g1301
sg2462
g2547
sg36
g36
sg37
g63
sg38
g64
sg2463
g2546
sg40
g65
sg44
g68
sg47
g70
sg94
g95
sg771
g893
sg2505
g2548
sg78
g79
sg913
g1300
sg2512
g2548
sg2516
g2547
sg773
g899
sg748
g882
sg88
g89
sg43
g67
sg92
g93
sg780
g893
sg770
g893
ssg203
S'MG_JEN_JonesetJJones'
p3343
ssg771
g822
sg2505
I0
sg78
F1.0
sg913
g3312
sg2512
g2514
sg2516
g2518
sg773
g3322
sg748
I00
sg88
I01
sg43
Nsg92
Nsg780
g822
sg770
g822
sg94
I00
ssg3184
(dp3344
g27
I00
sg2
S'@@polrep'
p3345
sg30
g31
sg2641
g2642
sg1141
I01
sg32
I00
sg36
Nsg13
S'@@parmtable'
p3346
sg2644
Nsg94
I00
sg37
I10
sg38
g39
sg40
g41
sg44
g45
sg47
Nsg49
(dp3347
g199
S'MG_JEN_Joneset::DJones_WSRT()'
p3348
sg51
g3184
sg100
(dp3349
g38
I01
sg2
I01
sg78
I01
sg40
I01
sg773
I01
sg30
I01
sg43
I01
sg44
I01
sg913
I01
sg47
I01
sg92
I01
sg13
I01
sg771
I01
sg780
I01
sg37
I01
sg36
I01
sg770
I01
ssg105
g1148
sg96
g97
sg109
S'MG_JEN_Joneset::DJones_WSRT()  version=16dec2005  defined=2006-04-13 12:19'
p3350
sg205
S'DJones_WSRT'
p3351
sg111
(dp3352
g27
(lp3353
I01
aI00
aS'@@reset_funklet'
p3354
asg2
(lp3355
g3
ag792
ag3345
asg30
(lp3356
g31
aS'@@color'
p3357
asg2641
(lp3358
I0
aI1
aI2
aI3
ag2642
aS'@@fdeg_Dell'
p3359
asg1141
(lp3360
I01
aI00
aS'@@coupled_XY_Dell'
p3361
asg32
(lp3362
I01
aI00
aS'@@save_all'
p3363
asg13
(lp3364
Nag1255
ag3346
asg2644
(lp3365
NaI1
aI2
aI5
aI10
aI20
aI50
aI100
aI200
aI500
aS'@@subtile_size_Dang'
p3366
asg36
(lp3367
NaS'@@unit'
p3368
asg37
(lp3369
I10
aS'@@size'
p3370
asg38
(lp3371
g39
aS'@@style'
p3372
asg40
(lp3373
g41
aS'@@descr'
p3374
asg44
(lp3375
g45
aS'@@condeq_corrs'
p3376
asg47
(lp3377
NaS'@@funklet_shape'
p3378
asg94
(lp3379
I01
aI00
aS'@@auto_save'
p3380
asg771
(lp3381
g1181
aS'@@@Jsequence_KJones'
p3382
asg2681
(lp3383
g2683
aNaI1
aI2
aI5
aI10
aI20
aI50
aI100
aI200
aI500
aS'@@subtile_size_Dell'
p3384
asg770
(lp3385
g1181
aS'@@@Jsequence'
p3386
asg2687
(lp3387
I0
aI1
aI2
aI3
aS'@@fdeg_Dang'
p3388
asg78
(lp3389
F1.0
aS'@@c00_default'
p3390
asg913
(lp3391
I00
aS'@@uvplane_effect'
p3392
asg2694
(lp3393
I0
aI1
aI2
aI3
ag2696
aS'@@tdeg_Dell'
p3394
asg1194
(lp3395
I01
aI00
aS'@@coupled_XY_Dang'
p3396
asg2700
(lp3397
I0
aI1
aI2
aI3
aS'@@tdeg_Dang'
p3398
asg773
(lp3399
(lp3400
I0
aI1
aI2
aI3
aI4
aa(lp3401
I0
aI1
aI2
aI3
aI4
aI5
aI6
aa(lp3402
I0
aI1
aI2
aI3
aI4
aI5
aI6
aI7
aI8
aI9
aI10
aI11
aI12
aI13
aa(lp3403
I0
aI1
aI2
aI3
aI4
aI5
aI6
aI7
aI8
aI9
aI10
aI11
aI12
aI13
aI14
aag844
aS'@@stations'
p3404
asg88
(lp3405
I01
aI00
aS'@@use_previous'
p3406
asg43
(lp3407
NaS'@@subtile_size'
p3408
asg92
(lp3409
NaS'@@tfdeg'
p3410
asg780
(lp3411
g1181
aS'@@@Jsequence_simul'
p3412
assg195
g3049
sg209
S'** Description of available inarg record(s) for: MG_JEN_Joneset::DJones_WSRT()  version=16dec2005  defined=2006-04-13 12:19'
p3413
sg211
I00
sg212
S'2006-04-13 12:19'
p3414
sg103
g1002
sg98
S'MG_JEN_Joneset'
p3415
sg107
(dp3416
g27
I00
sg1141
I00
sg32
I00
sg1194
I00
sg88
I00
sg94
I00
ssg201
S'** Specific description of inarg record for: MG_JEN_Joneset::DJones_WSRT()  version=16dec2005  defined=2006-04-13 12:19'
p3417
sg877
(dp3418
g913
I00
sg13
I00
sg2
I00
sg773
I00
ssg197
g3414
sg217
(lp3419
g49
ag773
ag2
ag770
ag780
ag771
ag1194
ag1141
ag13
ag913
ag2700
ag2694
ag2687
ag2641
ag2644
ag2681
ag88
ag94
ag32
ag27
ag40
ag36
ag30
ag38
ag37
ag78
ag92
ag47
ag43
ag44
asg52
(dp3420
g27
g55
sg2
g883
sg30
g58
sg2641
g2725
sg1141
g1236
sg32
g59
sg13
g1301
sg2644
g2726
sg36
g36
sg37
g63
sg38
g64
sg40
g65
sg44
g68
sg47
g70
sg94
g95
sg771
g893
sg2681
g2726
sg770
g893
sg2687
g2725
sg78
g79
sg913
g1300
sg2694
g2727
sg1194
g1237
sg2700
g2727
sg773
g899
sg88
g89
sg43
g67
sg92
g93
sg780
g893
ssg203
S'MG_JEN_JonesetDJones_WSRT'
p3421
ssg771
g1181
sg2681
g2683
sg770
g1181
sg2687
I0
sg78
F1.0
sg913
g3392
sg2694
g2696
sg1194
I01
sg2700
I0
sg773
g3404
sg88
I01
sg43
Nsg92
Nsg780
g1181
ssg780
Nsg770
Nsg3185
(dp3422
g27
I00
sg2
S'@@polrep'
p3423
sg30
g31
sg32
I00
sg36
Nsg13
S'@@parmtable'
p3424
sg94
I00
sg37
I10
sg2903
I0
sg2904
g2905
sg38
g39
sg40
g41
sg43
Nsg44
g45
sg47
Nsg49
(dp3425
g199
S'MG_JEN_Joneset::EJones_WSRT()'
p3426
sg51
g3185
sg100
(dp3427
g38
I01
sg2
I01
sg78
I01
sg40
I01
sg773
I01
sg30
I01
sg43
I01
sg44
I01
sg913
I01
sg47
I01
sg92
I01
sg13
I01
sg771
I01
sg780
I01
sg37
I01
sg36
I01
sg770
I01
ssg105
g1410
sg96
g97
sg109
S'MG_JEN_Joneset::EJones_WSRT()  version=15dec2005  defined=2006-04-13 12:19'
p3428
sg205
S'EJones_WSRT'
p3429
sg111
(dp3430
g27
(lp3431
I01
aI00
aS'@@reset_funklet'
p3432
asg2
(lp3433
g3
ag792
ag3423
asg30
(lp3434
g31
aS'@@color'
p3435
asg32
(lp3436
I01
aI00
aS'@@save_all'
p3437
asg13
(lp3438
Nag1255
ag3424
asg36
(lp3439
NaS'@@unit'
p3440
asg37
(lp3441
I10
aS'@@size'
p3442
asg2903
(lp3443
I0
aI1
aI2
aI3
aS'@@tdeg_Edl'
p3444
asg2904
(lp3445
I0
aI1
aI2
aI3
ag2905
aS'@@tdeg_Edm'
p3446
asg38
(lp3447
g39
aS'@@style'
p3448
asg40
(lp3449
g41
aS'@@descr'
p3450
asg43
(lp3451
NaS'@@subtile_size'
p3452
asg44
(lp3453
g45
aS'@@condeq_corrs'
p3454
asg47
(lp3455
NaS'@@funklet_shape'
p3456
asg94
(lp3457
I01
aI00
aS'@@auto_save'
p3458
asg771
(lp3459
g1270
aS'@@@Jsequence_KJones'
p3460
asg770
(lp3461
g1270
aS'@@@Jsequence'
p3462
asg78
(lp3463
F1.0
aS'@@c00_default'
p3464
asg913
(lp3465
I00
aS'@@uvplane_effect'
p3466
asg773
(lp3467
(lp3468
I0
aI1
aI2
aI3
aI4
aa(lp3469
I0
aI1
aI2
aI3
aI4
aI5
aI6
aa(lp3470
I0
aI1
aI2
aI3
aI4
aI5
aI6
aI7
aI8
aI9
aI10
aI11
aI12
aI13
aa(lp3471
I0
aI1
aI2
aI3
aI4
aI5
aI6
aI7
aI8
aI9
aI10
aI11
aI12
aI13
aI14
aag844
aS'@@stations'
p3472
asg92
(lp3473
NaS'@@tfdeg'
p3474
asg88
(lp3475
I01
aI00
aS'@@use_previous'
p3476
asg2958
(lp3477
NaI1
aI2
aI5
aI10
aI20
aI50
aI100
aI200
aI500
aS'@@subtile_size_Edl'
p3478
asg2961
(lp3479
g2963
aNaI1
aI2
aI5
aI10
aI20
aI50
aI100
aI200
aI500
aS'@@subtile_size_Edm'
p3480
asg780
(lp3481
g1270
aS'@@@Jsequence_simul'
p3482
asg2967
(lp3483
I0
aI1
aI2
aI3
aS'@@fdeg_Edl'
p3484
asg2970
(lp3485
I0
aI1
aI2
aI3
ag2972
aS'@@fdeg_Edm'
p3486
assg195
g3049
sg209
S'** Description of available inarg record(s) for: MG_JEN_Joneset::EJones_WSRT()  version=15dec2005  defined=2006-04-13 12:19'
p3487
sg211
I00
sg212
S'2006-04-13 12:19'
p3488
sg103
g1392
sg98
S'MG_JEN_Joneset'
p3489
sg107
(dp3490
g27
I00
sg32
I00
sg94
I00
sg88
I00
ssg201
S'** Specific description of inarg record for: MG_JEN_Joneset::EJones_WSRT()  version=15dec2005  defined=2006-04-13 12:19'
p3491
sg877
(dp3492
g913
I00
sg13
I00
sg2
I00
sg773
I00
ssg197
g3488
sg217
(lp3493
g49
ag773
ag2
ag770
ag780
ag771
ag13
ag913
ag2903
ag2904
ag2967
ag2970
ag2958
ag2961
ag88
ag94
ag32
ag27
ag40
ag36
ag30
ag38
ag37
ag78
ag92
ag47
ag43
ag44
asg52
(dp3494
g27
g55
sg2
g883
sg30
g58
sg32
g59
sg13
g1301
sg36
g36
sg37
g63
sg2903
g2982
sg2904
g2982
sg38
g64
sg40
g65
sg43
g67
sg44
g68
sg47
g70
sg94
g95
sg771
g893
sg770
g893
sg78
g79
sg913
g1300
sg773
g899
sg92
g93
sg88
g89
sg2958
g2983
sg2961
g2983
sg780
g893
sg2967
g2984
sg2970
g2984
ssg203
S'MG_JEN_JonesetEJones_WSRT'
p3495
ssg771
g1270
sg770
g1270
sg78
F1.0
sg913
g3466
sg773
g3472
sg92
Nsg88
I01
sg2958
Nsg2961
g2963
sg780
g1270
sg2967
I0
sg2970
g2972
ssg3183
(dp3496
g27
I00
sg2
S'@@polrep'
p3497
sg30
g31
sg32
I00
sg13
S'@@parmtable'
p3498
sg36
Nsg37
I10
sg38
g39
sg40
g41
sg44
g45
sg47
Nsg49
(dp3499
g199
S'MG_JEN_Joneset::FJones()'
p3500
sg51
g3183
sg100
(dp3501
g38
I01
sg2
I01
sg78
I01
sg40
I01
sg773
I01
sg30
I01
sg43
I01
sg44
I01
sg913
I01
sg47
I01
sg92
I01
sg13
I01
sg771
I01
sg780
I01
sg37
I01
sg36
I01
sg770
I01
ssg105
g1053
sg96
g97
sg109
S'MG_JEN_Joneset::FJones()  version=16dec2005  defined=2006-04-13 12:19'
p3502
sg205
S'FJones'
p3503
sg111
(dp3504
g27
(lp3505
I01
aI00
aS'@@reset_funklet'
p3506
asg2
(lp3507
g3
ag792
ag3497
asg30
(lp3508
g31
aS'@@color'
p3509
asg32
(lp3510
I01
aI00
aS'@@save_all'
p3511
asg92
(lp3512
NaS'@@tfdeg'
p3513
asg36
(lp3514
NaS'@@unit'
p3515
asg37
(lp3516
I10
aS'@@size'
p3517
asg38
(lp3518
g39
aS'@@style'
p3519
asg40
(lp3520
g41
aS'@@descr'
p3521
asg44
(lp3522
g45
aS'@@condeq_corrs'
p3523
asg47
(lp3524
NaS'@@funklet_shape'
p3525
asg94
(lp3526
I01
aI00
aS'@@auto_save'
p3527
asg771
(lp3528
g1089
aS'@@@Jsequence_KJones'
p3529
asg770
(lp3530
g1089
aS'@@@Jsequence'
p3531
asg78
(lp3532
F1.0
aS'@@c00_default'
p3533
asg913
(lp3534
I00
aS'@@uvplane_effect'
p3535
asg773
(lp3536
(lp3537
I0
aI1
aI2
aI3
aI4
aa(lp3538
I0
aI1
aI2
aI3
aI4
aI5
aI6
aa(lp3539
I0
aI1
aI2
aI3
aI4
aI5
aI6
aI7
aI8
aI9
aI10
aI11
aI12
aI13
aa(lp3540
I0
aI1
aI2
aI3
aI4
aI5
aI6
aI7
aI8
aI9
aI10
aI11
aI12
aI13
aI14
aag844
aS'@@stations'
p3541
asg2428
(lp3542
I0
aI1
aI2
aI3
aS'@@tdeg_RM'
p3543
asg88
(lp3544
I01
aI00
aS'@@use_previous'
p3545
asg2433
(lp3546
I0
aI1
aI2
aI3
aS'@@fdeg_RM'
p3547
asg43
(lp3548
NaS'@@subtile_size'
p3549
asg13
(lp3550
Nag1255
ag3498
asg2439
(lp3551
NaI1
aI2
aI5
aI10
aI20
aI50
aI100
aI200
aI500
aS'@@subtile_size_RM'
p3552
asg780
(lp3553
g1089
aS'@@@Jsequence_simul'
p3554
assg195
g3049
sg209
S'** Description of available inarg record(s) for: MG_JEN_Joneset::FJones()  version=16dec2005  defined=2006-04-13 12:19'
p3555
sg211
I00
sg212
S'2006-04-13 12:19'
p3556
sg103
g1002
sg98
S'MG_JEN_Joneset'
p3557
sg107
(dp3558
g27
I00
sg32
I00
sg94
I00
sg88
I00
ssg201
S'** Specific description of inarg record for: MG_JEN_Joneset::FJones()  version=16dec2005  defined=2006-04-13 12:19'
p3559
sg877
(dp3560
g913
I00
sg13
I00
sg2
I00
sg773
I00
ssg197
g3556
sg217
(lp3561
g49
ag773
ag2
ag770
ag780
ag771
ag13
ag913
ag2428
ag2433
ag2439
ag88
ag94
ag32
ag27
ag40
ag36
ag30
ag38
ag37
ag78
ag92
ag47
ag43
ag44
asg52
(dp3562
g27
g55
sg2
g883
sg30
g58
sg32
g59
sg92
g93
sg36
g36
sg37
g63
sg38
g64
sg40
g65
sg44
g68
sg47
g70
sg94
g95
sg771
g893
sg770
g893
sg78
g79
sg913
g1300
sg773
g899
sg2428
g2453
sg88
g89
sg2433
g2454
sg43
g67
sg13
g1301
sg2439
g2455
sg780
g893
ssg203
S'MG_JEN_JonesetFJones'
p3563
ssg771
g1089
sg770
g1089
sg78
F1.0
sg913
g3535
sg773
g3541
sg2428
I0
sg88
I01
sg2433
I2
sg43
Nsg92
Nsg2439
I1
sg780
g1089
sg94
I00
sssg1498
I10000
sg771
Nsg780
Nsg770
Nssg770
Nsg771
Nsg2201
g2223
sg913
I01
sg2194
Nsg2184
I00
sg773
g2215
sg2305
(dp3564
g7
S'finishing touches'
p3565
ssg2298
(dp3566
S'channel_start_index'
p3567
I0
sS'data_column_name'
p3568
S'CORRECTED_DATA'
p3569
sS'predict_column'
p3570
g3569
sg11
S'@@ms_name'
p3571
sg49
(dp3572
g51
g2298
sg52
(dp3573
g3567
S'(inputrec.sel) index of first selected freq channel'
p3574
sg3568
S'(inputrec) MS input column'
p3575
sg3570
S'MS output column to be associated with the VisTile predict-column'
p3576
sg11
g2190
sg2196
g2197
sS'channel_increment'
p3577
S'(inputrec.sel) take every nth channel (1=all)'
p3578
sS'channel_end_index'
p3579
S'(inputrec.sel) index of last selected freq channel'
p3580
sS'write_flags'
p3581
S'(outputrec) if True, write flags to MS'
p3582
ssg96
g97
sg98
S'MG_JEN_exec'
p3583
sg100
(dp3584
g11
I01
sg2196
I01
ssg372
(dp3585
g11
g2203
ssg103
S'20jan2006'
p3586
sg877
(dp3587
g11
I00
sg2196
I00
ssg105
S'** Description of script: MG_JEN_exec::stream_control()  version=20jan2006  defined=2006-04-13 12:19'
p3588
sg107
(dp3589
g3581
I00
ssg109
S'MG_JEN_exec::stream_control()  version=20jan2006  defined=2006-04-13 12:19'
p3590
sg111
(dp3591
g3567
(lp3592
I0
aI5
aI10
aI20
aS'@@channel_start_index'
p3593
asg3568
(lp3594
g2328
ag3569
aS'@@data_column_name'
p3595
asg3570
(lp3596
g2328
ag3569
aS'MODEL_DATA'
p3597
aS'@@predict_column'
p3598
asg11
(lp3599
g12
ag3571
asg2196
(lp3600
I1
aI2
aI3
aI5
aI10
aI20
aI50
aI100
aS'@@tile_size'
p3601
asg3577
(lp3602
I1
aI2
aI3
aI5
aI10
aS'@@channel_increment'
p3603
asg3579
(lp3604
I-1
aI25
aI50
aI100
aS'@@channel_end_index'
p3605
asg3581
(lp3606
I01
aI00
aS'@@write_flags'
p3607
assg195
Nsg197
S'2006-04-13 12:19'
p3608
sg199
S'MG_JEN_exec::stream_control()'
p3609
sg201
S'** Specific description of inarg record for: MG_JEN_exec::stream_control()  version=20jan2006  defined=2006-04-13 12:19'
p3610
sg203
S'MG_JEN_execstream_control'
p3611
sg205
S'stream_control'
p3612
sg209
S'** Description of available inarg record(s) for: MG_JEN_exec::stream_control()  version=20jan2006  defined=2006-04-13 12:19'
p3613
sg211
I00
sg212
g3608
sg213
(dp3614
g405
S'  1: .../MG_JEN_exec.stream_control() (qual=None): .modify(channel_start_index):   10  ->  0'
p3615
sg215
S'  1: .../MG_JEN_exec.stream_control() (qual=None): .modify(data_column_name):   DATA  ->  CORRECTED_DATA'
p3616
sg410
S'  1: .../MG_JEN_exec.stream_control() (qual=None): .modify(channel_end_index):   50  ->  -1'
p3617
ssg217
(lp3618
g49
ag11
ag2196
ag3568
ag3567
ag3579
ag3577
ag3581
ag3570
assg2196
g3601
sg3577
I1
sg3579
I-1
sg3581
I00
ssg2187
I00
sg2301
(dp3619
g7
S'solver-branch (ParmSet)'
p3620
ssg2300
(dp3621
g7
S'uv-data simulation (LeafSet)'
p3622
ssg2191
I01
sg780
Nsg2302
(dp3623
g19
Nsg20
g21
sS'[solve]./MG_JEN_lsm.add_double()'
p3624
(dp3625
g322
I20
sS'[solve_double_1]./MG_JEN_Sixpack.newstar_source()'
p3626
(dp3627
g26
F1000000.0
sg27
I00
sg28
F0.0
sg29
I00
sg30
g31
sg32
I00
sg33
g34
sg13
g14
sg35
Nsg36
Nsg37
I10
sg38
g39
sg40
g41
sg42
F1.0
sg43
Nsg44
g45
sg46
Nsg47
Nsg48
F0.0
sg49
(dp3628
g51
g3626
sg52
(dp3629
g26
g54
sg27
g55
sg28
g56
sg29
g57
sg30
g58
sg32
g59
sg33
g60
sg13
g61
sg35
g62
sg36
g36
sg37
g63
sg38
g64
sg40
g65
sg42
g66
sg43
g67
sg44
g68
sg46
g69
sg47
g70
sg48
g71
sg72
g73
sg74
g75
sg76
g77
sg78
g79
sg80
g81
sg82
S'name of calibrator source/patch \n- unpol:     unpolarised, I=1Jy \n- unpol2:    idem, I=2Jy \n- unpol10:   idem, I=10Jy \n- RMtest:    Rotation Measure \n- SItest:    Spectral Index \n- ellgauss:  Elliptic Gaussian \n- QUV:       non-zero Q,U,V \n- QU:        non-zero Q,U \n- QU2:       stronger version of QU \n- Qonly:     non-zero Q \n- Uonly:     non-zero U \n- Vonly:     non-zero V \n- 3c286:     \n- 3c48:      \n- 3c295:     \n- 3c147:     \n- D1:        cps in D1.MS \n'
p3630
sg84
g85
sg86
g87
sg88
g89
sg90
g91
sg92
g93
sg94
g95
ssg96
g97
sg98
S'MG_JEN_Sixpack'
p3631
sg100
(dp3632
g26
I01
sg28
I01
sg29
I01
sg102
I01
sg40
I01
sg47
I01
sg30
I01
sg33
I01
sg86
I01
sg82
I00
sg43
I01
sg48
I01
sg44
I01
sg92
I01
sg36
I01
sg78
I01
sg38
I01
sg76
I01
sg37
I01
ssg103
g104
sg105
g106
sg107
(dp3633
g27
I00
sg29
I00
sg86
I00
sg32
I00
sg88
I00
sg94
I00
ssg109
S'MG_JEN_Sixpack::newstar_source()  version=10feb2006  defined=2006-04-13 12:19'
p3634
sg111
(dp3635
g26
(lp3636
F1000000.0
aS'@@f0'
p3637
asg27
(lp3638
I01
aI00
aS'@@reset_funklet'
p3639
asg28
(lp3640
F0.0
aF1.0
aF10.0
aF100.0
aS'@@major'
p3641
asg29
(lp3642
I01
aI00
aS'@@unsolvable'
p3643
asg30
(lp3644
g31
aS'@@color'
p3645
asg32
(lp3646
I01
aI00
aS'@@save_all'
p3647
asg33
(lp3648
g34
ag126
aS'@@shape'
p3649
asg13
(lp3650
NaS'@@parmtable'
p3651
asg35
(lp3652
NaF-0.10000000000000001
aF0.050000000000000003
aF-0.01
aS'@@Upct'
p3653
asg36
(lp3654
NaS'@@unit'
p3655
asg37
(lp3656
I10
aS'@@size'
p3657
asg38
(lp3658
g39
aS'@@style'
p3659
asg40
(lp3660
g41
aS'@@descr'
p3661
asg42
(lp3662
F1.0
aF10.0
aS'@@I0'
p3663
asg43
(lp3664
NaS'@@subtile_size'
p3665
asg44
(lp3666
g45
aS'@@condeq_corrs'
p3667
asg46
(lp3668
NaF0.01
aF-0.0050000000000000001
aF0.001
aS'@@Vpct'
p3669
asg47
(lp3670
NaS'@@funklet_shape'
p3671
asg48
(lp3672
F0.0
aF1.0
aF-0.5
aS'@@pa'
p3673
asg72
(lp3674
F0.0
aF0.5
aF1.0
aF1.4950000000000001
aF4.3570000000000002
aS'@@RA'
p3675
asg74
(lp3676
NaF1.0
aF3.0
aF10.0
aF-10.0
aF60.0
aS'@@RM'
p3677
asg76
(lp3678
F0.0
aF0.5
aF5.0
aF50.0
aS'@@minor'
p3679
asg78
(lp3680
F1.0
aS'@@c00_default'
p3681
asg80
(lp3682
NaF0.10000000000000001
aF-0.050000000000000003
aF0.01
aS'@@Qpct'
p3683
asg82
(lp3684
g163
ag164
ag165
ag166
ag167
ag168
ag169
ag170
ag171
ag172
ag173
ag174
ag175
ag176
ag177
ag178
aS'@@punit'
p3685
asg84
(lp3686
F0.5
aF1.0
aF0.87
aF1.0920000000000001
aS'@@Dec'
p3687
asg102
(lp3688
NaS'@@name'
p3689
asg86
(lp3690
I01
aI00
aS'@@fsr_trace'
p3691
asg88
(lp3692
I01
aI00
aS'@@use_previous'
p3693
asg90
(lp3694
NaF-0.69999999999999996
a(lp3695
F0.44700000000000001
aF-0.184
aaS'@@SI'
p3696
asg92
(lp3697
NaS'@@tfdeg'
p3698
asg94
(lp3699
I01
aI00
aS'@@auto_save'
p3700
assg195
S'solve_double_1'
p3701
sg197
S'2006-04-13 12:19'
p3702
sg199
g200
sg201
S'** Specific description of inarg record for: MG_JEN_Sixpack::newstar_source()  version=10feb2006  defined=2006-04-13 12:19'
p3703
sg203
S'MG_JEN_Sixpacknewstar_source'
p3704
sg205
S'newstar_source'
p3705
sg207
(dp3706
g82
I01
ssg209
S'** Description of available inarg record(s) for: MG_JEN_Sixpack::newstar_source()  version=10feb2006  defined=2006-04-13 12:19'
p3707
sg211
I00
sg212
g3702
sg213
(dp3708
g215
S'  3: ......[solve_double_1]./MG_JEN_Sixpack.newstar_source() (qual=None): .modify(parmtable):   None  ->  simul_GJones'
p3709
ssg217
(lp3710
g49
ag82
ag102
ag13
ag29
ag42
ag80
ag35
ag46
ag74
ag90
ag26
ag72
ag84
ag86
ag33
ag28
ag76
ag48
ag88
ag94
ag32
ag27
ag40
ag36
ag30
ag38
ag37
ag78
ag92
ag47
ag43
ag44
assg74
Nsg76
F0.0
sg72
F1.4950000000000001
sg78
F1.0
sg80
Nsg82
g163
sg84
F0.87
sg102
Nsg86
I01
sg88
I01
sg90
Nsg92
Nsg94
I00
ssg349
I20
sg49
(dp3711
g199
g633
sg51
g3624
sg201
S'** Specific description of inarg record for: MG_JEN_lsm::add_double()  version=10feb2006  defined=2006-04-13 12:19'
p3712
sg203
S'MG_JEN_lsmadd_double'
p3713
sg96
g97
sg105
g636
sg109
S'MG_JEN_lsm::add_double()  version=10feb2006  defined=2006-04-13 12:19'
p3714
sg205
S'add_double'
p3715
sg111
(dp3716
g349
(lp3717
I20
aS'@@dRA'
p3718
asg322
(lp3719
I20
aS'@@dDec'
p3720
assg195
g3012
sg209
S'** Description of available inarg record(s) for: MG_JEN_lsm::add_double()  version=10feb2006  defined=2006-04-13 12:19'
p3721
sg211
I00
sg212
S'2006-04-13 12:19'
p3722
sg103
g104
sg98
S'MG_JEN_lsm'
p3723
sg213
(dp3724
g405
S'** JEN_inarg.attach(): attached: [solve_double_2]./MG_JEN_Sixpack.newstar_source()'
p3725
sg215
S'** JEN_inarg.attach(): attached: [solve_double_1]./MG_JEN_Sixpack.newstar_source()'
p3726
ssg197
g3722
sg217
(lp3727
g49
ag3626
aS'[solve_double_2]./MG_JEN_Sixpack.newstar_source()'
p3728
ag349
ag322
asg52
(dp3729
g349
g653
sg322
g654
sssg3728
(dp3730
g26
F1000000.0
sg27
I00
sg28
F0.0
sg29
I00
sg30
g31
sg32
I00
sg33
g34
sg13
g14
sg35
Nsg36
Nsg37
I10
sg38
g39
sg40
g41
sg42
F1.0
sg43
Nsg44
g45
sg46
Nsg47
Nsg48
F0.0
sg49
(dp3731
g51
g3728
sg52
(dp3732
g26
g54
sg27
g55
sg28
g56
sg29
g57
sg30
g58
sg32
g59
sg33
g60
sg13
g61
sg35
g62
sg36
g36
sg37
g63
sg38
g64
sg40
g65
sg42
g66
sg43
g67
sg44
g68
sg46
g69
sg47
g70
sg48
g71
sg72
g73
sg74
g75
sg76
g77
sg78
g79
sg80
g81
sg82
S'name of calibrator source/patch \n- unpol:     unpolarised, I=1Jy \n- unpol2:    idem, I=2Jy \n- unpol10:   idem, I=10Jy \n- RMtest:    Rotation Measure \n- SItest:    Spectral Index \n- ellgauss:  Elliptic Gaussian \n- QUV:       non-zero Q,U,V \n- QU:        non-zero Q,U \n- QU2:       stronger version of QU \n- Qonly:     non-zero Q \n- Uonly:     non-zero U \n- Vonly:     non-zero V \n- 3c286:     \n- 3c48:      \n- 3c295:     \n- 3c147:     \n- D1:        cps in D1.MS \n'
p3733
sg84
g85
sg86
g87
sg88
g89
sg90
g91
sg92
g93
sg94
g95
ssg96
g97
sg98
S'MG_JEN_Sixpack'
p3734
sg100
(dp3735
g26
I01
sg28
I01
sg29
I01
sg102
I01
sg40
I01
sg47
I01
sg30
I01
sg33
I01
sg86
I01
sg82
I00
sg43
I01
sg48
I01
sg44
I01
sg92
I01
sg36
I01
sg78
I01
sg38
I01
sg76
I01
sg37
I01
ssg103
g104
sg105
g106
sg107
(dp3736
g27
I00
sg29
I00
sg86
I00
sg32
I00
sg88
I00
sg94
I00
ssg109
S'MG_JEN_Sixpack::newstar_source()  version=10feb2006  defined=2006-04-13 12:19'
p3737
sg111
(dp3738
g26
(lp3739
F1000000.0
aS'@@f0'
p3740
asg27
(lp3741
I01
aI00
aS'@@reset_funklet'
p3742
asg28
(lp3743
F0.0
aF1.0
aF10.0
aF100.0
aS'@@major'
p3744
asg29
(lp3745
I01
aI00
aS'@@unsolvable'
p3746
asg30
(lp3747
g31
aS'@@color'
p3748
asg32
(lp3749
I01
aI00
aS'@@save_all'
p3750
asg33
(lp3751
g34
ag126
aS'@@shape'
p3752
asg13
(lp3753
NaS'@@parmtable'
p3754
asg35
(lp3755
NaF-0.10000000000000001
aF0.050000000000000003
aF-0.01
aS'@@Upct'
p3756
asg36
(lp3757
NaS'@@unit'
p3758
asg37
(lp3759
I10
aS'@@size'
p3760
asg38
(lp3761
g39
aS'@@style'
p3762
asg40
(lp3763
g41
aS'@@descr'
p3764
asg42
(lp3765
F1.0
aF10.0
aS'@@I0'
p3766
asg43
(lp3767
NaS'@@subtile_size'
p3768
asg44
(lp3769
g45
aS'@@condeq_corrs'
p3770
asg46
(lp3771
NaF0.01
aF-0.0050000000000000001
aF0.001
aS'@@Vpct'
p3772
asg47
(lp3773
NaS'@@funklet_shape'
p3774
asg48
(lp3775
F0.0
aF1.0
aF-0.5
aS'@@pa'
p3776
asg72
(lp3777
F0.0
aF0.5
aF1.0
aF1.4950000000000001
aF4.3570000000000002
aS'@@RA'
p3778
asg74
(lp3779
NaF1.0
aF3.0
aF10.0
aF-10.0
aF60.0
aS'@@RM'
p3780
asg76
(lp3781
F0.0
aF0.5
aF5.0
aF50.0
aS'@@minor'
p3782
asg78
(lp3783
F1.0
aS'@@c00_default'
p3784
asg80
(lp3785
NaF0.10000000000000001
aF-0.050000000000000003
aF0.01
aS'@@Qpct'
p3786
asg82
(lp3787
g163
ag164
ag165
ag166
ag167
ag168
ag169
ag170
ag171
ag172
ag173
ag174
ag175
ag176
ag177
ag178
aS'@@punit'
p3788
asg84
(lp3789
F0.5
aF1.0
aF0.87
aF1.0920000000000001
aS'@@Dec'
p3790
asg102
(lp3791
NaS'@@name'
p3792
asg86
(lp3793
I01
aI00
aS'@@fsr_trace'
p3794
asg88
(lp3795
I01
aI00
aS'@@use_previous'
p3796
asg90
(lp3797
NaF-0.69999999999999996
a(lp3798
F0.44700000000000001
aF-0.184
aaS'@@SI'
p3799
asg92
(lp3800
NaS'@@tfdeg'
p3801
asg94
(lp3802
I01
aI00
aS'@@auto_save'
p3803
assg195
S'solve_double_2'
p3804
sg197
S'2006-04-13 12:19'
p3805
sg199
g200
sg201
S'** Specific description of inarg record for: MG_JEN_Sixpack::newstar_source()  version=10feb2006  defined=2006-04-13 12:19'
p3806
sg203
S'MG_JEN_Sixpacknewstar_source'
p3807
sg205
S'newstar_source'
p3808
sg207
(dp3809
g82
I01
ssg209
S'** Description of available inarg record(s) for: MG_JEN_Sixpack::newstar_source()  version=10feb2006  defined=2006-04-13 12:19'
p3810
sg211
I00
sg212
g3805
sg213
(dp3811
g215
S'  3: ......[solve_double_2]./MG_JEN_Sixpack.newstar_source() (qual=None): .modify(parmtable):   None  ->  simul_GJones'
p3812
ssg217
(lp3813
g49
ag82
ag102
ag13
ag29
ag42
ag80
ag35
ag46
ag74
ag90
ag26
ag72
ag84
ag86
ag33
ag28
ag76
ag48
ag88
ag94
ag32
ag27
ag40
ag36
ag30
ag38
ag37
ag78
ag92
ag47
ag43
ag44
assg74
Nsg76
F0.0
sg72
F1.4950000000000001
sg78
F1.0
sg80
Nsg82
g163
sg84
F0.87
sg102
Nsg86
I01
sg88
I01
sg90
Nsg92
Nsg94
I00
sssS'[solve]./MG_JEN_lsm.add_single()'
p3814
(dp3815
S'[solve_single]./MG_JEN_Sixpack.newstar_source()'
p3816
(dp3817
g26
F1000000.0
sg27
I00
sg28
F0.0
sg29
I00
sg30
g31
sg32
I00
sg33
g34
sg13
g14
sg35
Nsg36
Nsg37
I10
sg38
g39
sg40
g41
sg42
F1.0
sg43
Nsg44
g45
sg46
Nsg47
Nsg48
F0.0
sg49
(dp3818
g51
g3816
sg52
(dp3819
g26
g54
sg27
g55
sg28
g56
sg29
g57
sg30
g58
sg32
g59
sg33
g60
sg13
g61
sg35
g62
sg36
g36
sg37
g63
sg38
g64
sg40
g65
sg42
g66
sg43
g67
sg44
g68
sg46
g69
sg47
g70
sg48
g71
sg72
g73
sg74
g75
sg76
g77
sg78
g79
sg80
g81
sg82
S'name of calibrator source/patch \n- unpol:     unpolarised, I=1Jy \n- unpol2:    idem, I=2Jy \n- unpol10:   idem, I=10Jy \n- RMtest:    Rotation Measure \n- SItest:    Spectral Index \n- ellgauss:  Elliptic Gaussian \n- QUV:       non-zero Q,U,V \n- QU:        non-zero Q,U \n- QU2:       stronger version of QU \n- Qonly:     non-zero Q \n- Uonly:     non-zero U \n- Vonly:     non-zero V \n- 3c286:     \n- 3c48:      \n- 3c295:     \n- 3c147:     \n- D1:        cps in D1.MS \n'
p3820
sg84
g85
sg86
g87
sg88
g89
sg90
g91
sg92
g93
sg94
g95
ssg96
g97
sg98
S'MG_JEN_Sixpack'
p3821
sg100
(dp3822
g26
I01
sg28
I01
sg29
I01
sg102
I01
sg40
I01
sg47
I01
sg30
I01
sg33
I01
sg86
I01
sg82
I00
sg43
I01
sg48
I01
sg44
I01
sg92
I01
sg36
I01
sg78
I01
sg38
I01
sg76
I01
sg37
I01
ssg103
g104
sg105
g106
sg107
(dp3823
g27
I00
sg29
I00
sg86
I00
sg32
I00
sg88
I00
sg94
I00
ssg109
S'MG_JEN_Sixpack::newstar_source()  version=10feb2006  defined=2006-04-13 12:19'
p3824
sg111
(dp3825
g26
(lp3826
F1000000.0
aS'@@f0'
p3827
asg27
(lp3828
I01
aI00
aS'@@reset_funklet'
p3829
asg28
(lp3830
F0.0
aF1.0
aF10.0
aF100.0
aS'@@major'
p3831
asg29
(lp3832
I01
aI00
aS'@@unsolvable'
p3833
asg30
(lp3834
g31
aS'@@color'
p3835
asg32
(lp3836
I01
aI00
aS'@@save_all'
p3837
asg33
(lp3838
g34
ag126
aS'@@shape'
p3839
asg13
(lp3840
NaS'@@parmtable'
p3841
asg35
(lp3842
NaF-0.10000000000000001
aF0.050000000000000003
aF-0.01
aS'@@Upct'
p3843
asg36
(lp3844
NaS'@@unit'
p3845
asg37
(lp3846
I10
aS'@@size'
p3847
asg38
(lp3848
g39
aS'@@style'
p3849
asg40
(lp3850
g41
aS'@@descr'
p3851
asg42
(lp3852
F1.0
aF10.0
aS'@@I0'
p3853
asg43
(lp3854
NaS'@@subtile_size'
p3855
asg44
(lp3856
g45
aS'@@condeq_corrs'
p3857
asg46
(lp3858
NaF0.01
aF-0.0050000000000000001
aF0.001
aS'@@Vpct'
p3859
asg47
(lp3860
NaS'@@funklet_shape'
p3861
asg48
(lp3862
F0.0
aF1.0
aF-0.5
aS'@@pa'
p3863
asg72
(lp3864
F0.0
aF0.5
aF1.0
aF1.4950000000000001
aF4.3570000000000002
aS'@@RA'
p3865
asg74
(lp3866
NaF1.0
aF3.0
aF10.0
aF-10.0
aF60.0
aS'@@RM'
p3867
asg76
(lp3868
F0.0
aF0.5
aF5.0
aF50.0
aS'@@minor'
p3869
asg78
(lp3870
F1.0
aS'@@c00_default'
p3871
asg80
(lp3872
NaF0.10000000000000001
aF-0.050000000000000003
aF0.01
aS'@@Qpct'
p3873
asg82
(lp3874
g163
ag164
ag165
ag166
ag167
ag168
ag169
ag170
ag171
ag172
ag173
ag174
ag175
ag176
ag177
ag178
aS'@@punit'
p3875
asg84
(lp3876
F0.5
aF1.0
aF0.87
aF1.0920000000000001
aS'@@Dec'
p3877
asg102
(lp3878
NaS'@@name'
p3879
asg86
(lp3880
I01
aI00
aS'@@fsr_trace'
p3881
asg88
(lp3882
I01
aI00
aS'@@use_previous'
p3883
asg90
(lp3884
NaF-0.69999999999999996
a(lp3885
F0.44700000000000001
aF-0.184
aaS'@@SI'
p3886
asg92
(lp3887
NaS'@@tfdeg'
p3888
asg94
(lp3889
I01
aI00
aS'@@auto_save'
p3890
assg195
S'solve_single'
p3891
sg197
S'2006-04-13 12:19'
p3892
sg199
g200
sg201
S'** Specific description of inarg record for: MG_JEN_Sixpack::newstar_source()  version=10feb2006  defined=2006-04-13 12:19'
p3893
sg203
S'MG_JEN_Sixpacknewstar_source'
p3894
sg205
S'newstar_source'
p3895
sg207
(dp3896
g82
I01
ssg209
S'** Description of available inarg record(s) for: MG_JEN_Sixpack::newstar_source()  version=10feb2006  defined=2006-04-13 12:19'
p3897
sg211
I00
sg212
g3892
sg213
(dp3898
g215
S'  3: ......[solve_single]./MG_JEN_Sixpack.newstar_source() (qual=None): .modify(parmtable):   None  ->  simul_GJones'
p3899
ssg217
(lp3900
g49
ag82
ag102
ag13
ag29
ag42
ag80
ag35
ag46
ag74
ag90
ag26
ag72
ag84
ag86
ag33
ag28
ag76
ag48
ag88
ag94
ag32
ag27
ag40
ag36
ag30
ag38
ag37
ag78
ag92
ag47
ag43
ag44
assg74
Nsg76
F0.0
sg72
F1.4950000000000001
sg78
F1.0
sg80
Nsg82
g163
sg84
F0.87
sg102
Nsg86
I01
sg88
I01
sg90
Nsg92
Nsg94
I00
ssg49
(dp3901
g199
g220
sg51
g3814
sg201
S'** Specific description of inarg record for: MG_JEN_lsm::add_single()  version=10feb2006  defined=2006-04-13 12:19'
p3902
sg105
g222
sg96
g97
sg109
S'MG_JEN_lsm::add_single()  version=10feb2006  defined=2006-04-13 12:19'
p3903
sg205
S'add_single'
p3904
sg195
g3012
sg209
S'** Description of available inarg record(s) for: MG_JEN_lsm::add_single()  version=10feb2006  defined=2006-04-13 12:19'
p3905
sg211
I00
sg212
S'2006-04-13 12:19'
p3906
sg103
g104
sg98
S'MG_JEN_lsm'
p3907
sg213
(dp3908
g215
S'** JEN_inarg.attach(): attached: [solve_single]./MG_JEN_Sixpack.newstar_source()'
p3909
ssg197
g3906
sg217
(lp3910
g49
ag3816
asg203
S'MG_JEN_lsmadd_single'
p3911
sssS'[solve]./MG_JEN_lsm.add_grid()'
p3912
(dp3913
g235
F1.0
sg321
I1
sS'[solve_grid]./MG_JEN_Sixpack.newstar_source()'
p3914
(dp3915
g26
F1000000.0
sg27
I00
sg28
F0.0
sg29
I00
sg30
g31
sg32
I00
sg33
g34
sg13
g14
sg35
Nsg36
Nsg37
I10
sg38
g39
sg40
g41
sg42
F1.0
sg43
Nsg44
g45
sg46
Nsg47
Nsg48
F0.0
sg49
(dp3916
g51
g3914
sg52
(dp3917
g26
g54
sg27
g55
sg28
g56
sg29
g57
sg30
g58
sg32
g59
sg33
g60
sg13
g61
sg35
g62
sg36
g36
sg37
g63
sg38
g64
sg40
g65
sg42
g66
sg43
g67
sg44
g68
sg46
g69
sg47
g70
sg48
g71
sg72
g73
sg74
g75
sg76
g77
sg78
g79
sg80
g81
sg82
S'name of calibrator source/patch \n- unpol:     unpolarised, I=1Jy \n- unpol2:    idem, I=2Jy \n- unpol10:   idem, I=10Jy \n- RMtest:    Rotation Measure \n- SItest:    Spectral Index \n- ellgauss:  Elliptic Gaussian \n- QUV:       non-zero Q,U,V \n- QU:        non-zero Q,U \n- QU2:       stronger version of QU \n- Qonly:     non-zero Q \n- Uonly:     non-zero U \n- Vonly:     non-zero V \n- 3c286:     \n- 3c48:      \n- 3c295:     \n- 3c147:     \n- D1:        cps in D1.MS \n'
p3918
sg84
g85
sg86
g87
sg88
g89
sg90
g91
sg92
g93
sg94
g95
ssg96
g97
sg98
S'MG_JEN_Sixpack'
p3919
sg100
(dp3920
g26
I01
sg28
I01
sg29
I01
sg102
I01
sg40
I01
sg47
I01
sg30
I01
sg33
I01
sg86
I01
sg82
I00
sg43
I01
sg48
I01
sg44
I01
sg92
I01
sg36
I01
sg78
I01
sg38
I01
sg76
I01
sg37
I01
ssg103
g104
sg105
g106
sg107
(dp3921
g27
I00
sg29
I00
sg86
I00
sg32
I00
sg88
I00
sg94
I00
ssg109
S'MG_JEN_Sixpack::newstar_source()  version=10feb2006  defined=2006-04-13 12:19'
p3922
sg111
(dp3923
g26
(lp3924
F1000000.0
aS'@@f0'
p3925
asg27
(lp3926
I01
aI00
aS'@@reset_funklet'
p3927
asg28
(lp3928
F0.0
aF1.0
aF10.0
aF100.0
aS'@@major'
p3929
asg29
(lp3930
I01
aI00
aS'@@unsolvable'
p3931
asg30
(lp3932
g31
aS'@@color'
p3933
asg32
(lp3934
I01
aI00
aS'@@save_all'
p3935
asg33
(lp3936
g34
ag126
aS'@@shape'
p3937
asg13
(lp3938
NaS'@@parmtable'
p3939
asg35
(lp3940
NaF-0.10000000000000001
aF0.050000000000000003
aF-0.01
aS'@@Upct'
p3941
asg36
(lp3942
NaS'@@unit'
p3943
asg37
(lp3944
I10
aS'@@size'
p3945
asg38
(lp3946
g39
aS'@@style'
p3947
asg40
(lp3948
g41
aS'@@descr'
p3949
asg42
(lp3950
F1.0
aF10.0
aS'@@I0'
p3951
asg43
(lp3952
NaS'@@subtile_size'
p3953
asg44
(lp3954
g45
aS'@@condeq_corrs'
p3955
asg46
(lp3956
NaF0.01
aF-0.0050000000000000001
aF0.001
aS'@@Vpct'
p3957
asg47
(lp3958
NaS'@@funklet_shape'
p3959
asg48
(lp3960
F0.0
aF1.0
aF-0.5
aS'@@pa'
p3961
asg72
(lp3962
F0.0
aF0.5
aF1.0
aF1.4950000000000001
aF4.3570000000000002
aS'@@RA'
p3963
asg74
(lp3964
NaF1.0
aF3.0
aF10.0
aF-10.0
aF60.0
aS'@@RM'
p3965
asg76
(lp3966
F0.0
aF0.5
aF5.0
aF50.0
aS'@@minor'
p3967
asg78
(lp3968
F1.0
aS'@@c00_default'
p3969
asg80
(lp3970
NaF0.10000000000000001
aF-0.050000000000000003
aF0.01
aS'@@Qpct'
p3971
asg82
(lp3972
g163
ag164
ag165
ag166
ag167
ag168
ag169
ag170
ag171
ag172
ag173
ag174
ag175
ag176
ag177
ag178
aS'@@punit'
p3973
asg84
(lp3974
F0.5
aF1.0
aF0.87
aF1.0920000000000001
aS'@@Dec'
p3975
asg102
(lp3976
NaS'@@name'
p3977
asg86
(lp3978
I01
aI00
aS'@@fsr_trace'
p3979
asg88
(lp3980
I01
aI00
aS'@@use_previous'
p3981
asg90
(lp3982
NaF-0.69999999999999996
a(lp3983
F0.44700000000000001
aF-0.184
aaS'@@SI'
p3984
asg92
(lp3985
NaS'@@tfdeg'
p3986
asg94
(lp3987
I01
aI00
aS'@@auto_save'
p3988
assg195
S'solve_grid'
p3989
sg197
S'2006-04-13 12:19'
p3990
sg199
g200
sg201
S'** Specific description of inarg record for: MG_JEN_Sixpack::newstar_source()  version=10feb2006  defined=2006-04-13 12:19'
p3991
sg203
S'MG_JEN_Sixpacknewstar_source'
p3992
sg205
S'newstar_source'
p3993
sg207
(dp3994
g82
I01
ssg209
S'** Description of available inarg record(s) for: MG_JEN_Sixpack::newstar_source()  version=10feb2006  defined=2006-04-13 12:19'
p3995
sg211
I00
sg212
g3990
sg213
(dp3996
g215
S'  3: ......[solve_grid]./MG_JEN_Sixpack.newstar_source() (qual=None): .modify(parmtable):   None  ->  simul_GJones'
p3997
ssg217
(lp3998
g49
ag82
ag102
ag13
ag29
ag42
ag80
ag35
ag46
ag74
ag90
ag26
ag72
ag84
ag86
ag33
ag28
ag76
ag48
ag88
ag94
ag32
ag27
ag40
ag36
ag30
ag38
ag37
ag78
ag92
ag47
ag43
ag44
assg74
Nsg76
F0.0
sg72
F1.4950000000000001
sg78
F1.0
sg80
Nsg82
g163
sg84
F0.87
sg102
Nsg86
I01
sg88
I01
sg90
Nsg92
Nsg94
I00
ssg322
I20
sg323
g324
sg49
(dp3999
g199
g326
sg51
g3912
sg201
S'** Specific description of inarg record for: MG_JEN_lsm::add_grid()  version=10feb2006  defined=2006-04-13 12:19'
p4000
sg203
S'MG_JEN_lsmadd_grid'
p4001
sg96
g97
sg105
g329
sg109
S'MG_JEN_lsm::add_grid()  version=10feb2006  defined=2006-04-13 12:19'
p4002
sg205
S'add_grid'
p4003
sg111
(dp4004
g235
(lp4005
F0.5
aI1
aI2
aI5
aI10
aI100
aNaS'@@taper'
p4006
asg321
(lp4007
I0
aI1
aI2
aI3
aS'@@nRA2'
p4008
asg322
(lp4009
I5
aI10
aI20
aS'@@dDec'
p4010
asg323
(lp4011
g340
ag341
ag342
ag343
ag344
ag345
ag324
ag346
ag347
aS'@@relpos'
p4012
asg349
(lp4013
I5
aI10
aI20
aS'@@dRA'
p4014
asg352
(lp4015
I0
aI1
aI2
aI3
aS'@@nDec2'
p4016
assg195
g3012
sg209
S'** Description of available inarg record(s) for: MG_JEN_lsm::add_grid()  version=10feb2006  defined=2006-04-13 12:19'
p4017
sg211
I00
sg212
S'2006-04-13 12:19'
p4018
sg103
g104
sg98
S'MG_JEN_lsm'
p4019
sg213
(dp4020
g215
S'** JEN_inarg.attach(): attached: [solve_grid]./MG_JEN_Sixpack.newstar_source()'
p4021
ssg197
g4018
sg217
(lp4022
g49
ag321
ag352
ag349
ag322
ag235
ag323
ag3914
asg52
(dp4023
g235
g362
sg321
g363
sg322
g364
sg323
g365
sg349
g366
sg352
g367
sssg349
I20
sg352
I1
ssg49
(dp4024
g199
g369
sg51
g2302
sg201
S'** Specific description of inarg record for: MG_JEN_lsm::get_lsm()  version=02apr2006  defined=2006-04-13 12:19'
p4025
sg203
S'MG_JEN_lsmget_lsm'
p4026
sg372
(dp4027
g374
g375
sg19
g375
ssg96
g97
sg109
S'MG_JEN_lsm::get_lsm()  version=02apr2006  defined=2006-04-13 12:19'
p4028
sg205
S'get_lsm'
p4029
sg111
(dp4030
g374
(lp4031
g380
ag381
ag382
ag383
aNaS'@@input_LSM'
p4032
asg19
(lp4033
g386
aNaS'@@saveAs'
p4034
asg20
(lp4035
Nag21
ag389
ag390
ag391
aS'@@test_pattern'
p4036
asg393
(lp4037
I01
aI00
aS'@@display'
p4038
asg396
(lp4039
I01
aI00
aS'@@save_as_current'
p4040
assg195
g3012
sg209
S'** Description of available inarg record(s) for: MG_JEN_lsm::get_lsm()  version=02apr2006  defined=2006-04-13 12:19'
p4041
sg211
I00
sg212
S'2006-04-13 12:19'
p4042
sg103
g401
sg98
S'MG_JEN_lsm'
p4043
sg107
(dp4044
g393
I00
sg396
I00
ssg213
(dp4045
g405
S'** JEN_inarg.attach(): attached: [solve]./MG_JEN_lsm.add_double()'
p4046
sg215
S'** JEN_inarg.attach(): attached: [solve]./MG_JEN_lsm.add_single()'
p4047
sg408
S'** JEN_inarg.attach(): attached: [solve]./MG_JEN_lsm.add_spiral()'
p4048
sg410
S'** JEN_inarg.attach(): attached: [solve]./MG_JEN_lsm.add_grid()'
p4049
ssg197
g4042
sg217
(lp4050
g49
ag374
ag393
ag396
ag19
ag20
ag3814
ag3624
ag3912
aS'[solve]./MG_JEN_lsm.add_spiral()'
p4051
asg52
(dp4052
g374
g416
sg19
g417
sg20
g418
sg393
g419
sg396
g420
ssg105
g421
ssg396
I01
sg374
Nsg393
I01
sg4051
(dp4053
S'[solve_spiral]./MG_JEN_Sixpack.newstar_source()'
p4054
(dp4055
g26
F1000000.0
sg27
I00
sg28
F0.0
sg29
I00
sg30
g31
sg32
I00
sg33
g34
sg13
g14
sg35
Nsg36
Nsg37
I10
sg38
g39
sg40
g41
sg42
F1.0
sg43
Nsg44
g45
sg46
Nsg47
Nsg48
F0.0
sg49
(dp4056
g51
g4054
sg52
(dp4057
g26
g54
sg27
g55
sg28
g56
sg29
g57
sg30
g58
sg32
g59
sg33
g60
sg13
g61
sg35
g62
sg36
g36
sg37
g63
sg38
g64
sg40
g65
sg42
g66
sg43
g67
sg44
g68
sg46
g69
sg47
g70
sg48
g71
sg72
g73
sg74
g75
sg76
g77
sg78
g79
sg80
g81
sg82
S'name of calibrator source/patch \n- unpol:     unpolarised, I=1Jy \n- unpol2:    idem, I=2Jy \n- unpol10:   idem, I=10Jy \n- RMtest:    Rotation Measure \n- SItest:    Spectral Index \n- ellgauss:  Elliptic Gaussian \n- QUV:       non-zero Q,U,V \n- QU:        non-zero Q,U \n- QU2:       stronger version of QU \n- Qonly:     non-zero Q \n- Uonly:     non-zero U \n- Vonly:     non-zero V \n- 3c286:     \n- 3c48:      \n- 3c295:     \n- 3c147:     \n- D1:        cps in D1.MS \n'
p4058
sg84
g85
sg86
g87
sg88
g89
sg90
g91
sg92
g93
sg94
g95
ssg96
g97
sg98
S'MG_JEN_Sixpack'
p4059
sg100
(dp4060
g26
I01
sg28
I01
sg29
I01
sg102
I01
sg40
I01
sg47
I01
sg30
I01
sg33
I01
sg86
I01
sg82
I00
sg43
I01
sg48
I01
sg44
I01
sg92
I01
sg36
I01
sg78
I01
sg38
I01
sg76
I01
sg37
I01
ssg103
g104
sg105
g106
sg107
(dp4061
g27
I00
sg29
I00
sg86
I00
sg32
I00
sg88
I00
sg94
I00
ssg109
S'MG_JEN_Sixpack::newstar_source()  version=10feb2006  defined=2006-04-13 12:19'
p4062
sg111
(dp4063
g26
(lp4064
F1000000.0
aS'@@f0'
p4065
asg27
(lp4066
I01
aI00
aS'@@reset_funklet'
p4067
asg28
(lp4068
F0.0
aF1.0
aF10.0
aF100.0
aS'@@major'
p4069
asg29
(lp4070
I01
aI00
aS'@@unsolvable'
p4071
asg30
(lp4072
g31
aS'@@color'
p4073
asg32
(lp4074
I01
aI00
aS'@@save_all'
p4075
asg33
(lp4076
g34
ag126
aS'@@shape'
p4077
asg13
(lp4078
NaS'@@parmtable'
p4079
asg35
(lp4080
NaF-0.10000000000000001
aF0.050000000000000003
aF-0.01
aS'@@Upct'
p4081
asg36
(lp4082
NaS'@@unit'
p4083
asg37
(lp4084
I10
aS'@@size'
p4085
asg38
(lp4086
g39
aS'@@style'
p4087
asg40
(lp4088
g41
aS'@@descr'
p4089
asg42
(lp4090
F1.0
aF10.0
aS'@@I0'
p4091
asg43
(lp4092
NaS'@@subtile_size'
p4093
asg44
(lp4094
g45
aS'@@condeq_corrs'
p4095
asg46
(lp4096
NaF0.01
aF-0.0050000000000000001
aF0.001
aS'@@Vpct'
p4097
asg47
(lp4098
NaS'@@funklet_shape'
p4099
asg48
(lp4100
F0.0
aF1.0
aF-0.5
aS'@@pa'
p4101
asg72
(lp4102
F0.0
aF0.5
aF1.0
aF1.4950000000000001
aF4.3570000000000002
aS'@@RA'
p4103
asg74
(lp4104
NaF1.0
aF3.0
aF10.0
aF-10.0
aF60.0
aS'@@RM'
p4105
asg76
(lp4106
F0.0
aF0.5
aF5.0
aF50.0
aS'@@minor'
p4107
asg78
(lp4108
F1.0
aS'@@c00_default'
p4109
asg80
(lp4110
NaF0.10000000000000001
aF-0.050000000000000003
aF0.01
aS'@@Qpct'
p4111
asg82
(lp4112
g163
ag164
ag165
ag166
ag167
ag168
ag169
ag170
ag171
ag172
ag173
ag174
ag175
ag176
ag177
ag178
aS'@@punit'
p4113
asg84
(lp4114
F0.5
aF1.0
aF0.87
aF1.0920000000000001
aS'@@Dec'
p4115
asg102
(lp4116
NaS'@@name'
p4117
asg86
(lp4118
I01
aI00
aS'@@fsr_trace'
p4119
asg88
(lp4120
I01
aI00
aS'@@use_previous'
p4121
asg90
(lp4122
NaF-0.69999999999999996
a(lp4123
F0.44700000000000001
aF-0.184
aaS'@@SI'
p4124
asg92
(lp4125
NaS'@@tfdeg'
p4126
asg94
(lp4127
I01
aI00
aS'@@auto_save'
p4128
assg195
S'solve_spiral'
p4129
sg197
S'2006-04-13 12:19'
p4130
sg199
g200
sg201
S'** Specific description of inarg record for: MG_JEN_Sixpack::newstar_source()  version=10feb2006  defined=2006-04-13 12:19'
p4131
sg203
S'MG_JEN_Sixpacknewstar_source'
p4132
sg205
S'newstar_source'
p4133
sg207
(dp4134
g82
I01
ssg209
S'** Description of available inarg record(s) for: MG_JEN_Sixpack::newstar_source()  version=10feb2006  defined=2006-04-13 12:19'
p4135
sg211
I00
sg212
g4130
sg213
(dp4136
g215
S'  3: ......[solve_spiral]./MG_JEN_Sixpack.newstar_source() (qual=None): .modify(parmtable):   None  ->  simul_GJones'
p4137
ssg217
(lp4138
g49
ag82
ag102
ag13
ag29
ag42
ag80
ag35
ag46
ag74
ag90
ag26
ag72
ag84
ag86
ag33
ag28
ag76
ag48
ag88
ag94
ag32
ag27
ag40
ag36
ag30
ag38
ag37
ag78
ag92
ag47
ag43
ag44
assg74
Nsg76
F0.0
sg72
F1.4950000000000001
sg78
F1.0
sg80
Nsg82
g163
sg84
F0.87
sg102
Nsg86
I01
sg88
I01
sg90
Nsg92
Nsg94
I00
ssg423
I5
sg235
F1.0
sg509
I0
sg510
F1.1000000000000001
sg511
I20
sg49
(dp4139
g199
g513
sg51
g4051
sg201
S'** Specific description of inarg record for: MG_JEN_lsm::add_spiral()  version=10feb2006  defined=2006-04-13 12:19'
p4140
sg203
S'MG_JEN_lsmadd_spiral'
p4141
sg96
g97
sg105
g516
sg109
S'MG_JEN_lsm::add_spiral()  version=10feb2006  defined=2006-04-13 12:19'
p4142
sg205
S'add_spiral'
p4143
sg111
(dp4144
g423
(lp4145
I2
aI3
aI4
aI5
aI10
aS'@@nr_of_sources'
p4146
asg235
(lp4147
F0.5
aI1
aI2
aI5
aI10
aI100
aNaS'@@taper'
p4148
asg509
(lp4149
I0
aI30
aI45
aI90
aI180
aI270
aS'@@astart'
p4150
asg510
(lp4151
F1.01
aF1.1000000000000001
aF1.2
aF1.5
aI2
aS'@@rmult'
p4152
asg511
(lp4153
I1
aI2
aI5
aI10
aI20
aI50
aI100
aS'@@rstart'
p4154
asg530
(lp4155
I10
aI20
aI30
aI45
aI90
aI180
aI360
aI0
aS'@@ainc'
p4156
assg195
g3012
sg209
S'** Description of available inarg record(s) for: MG_JEN_lsm::add_spiral()  version=10feb2006  defined=2006-04-13 12:19'
p4157
sg211
I00
sg212
S'2006-04-13 12:19'
p4158
sg103
g104
sg98
S'MG_JEN_lsm'
p4159
sg213
(dp4160
g215
S'** JEN_inarg.attach(): attached: [solve_spiral]./MG_JEN_Sixpack.newstar_source()'
p4161
ssg197
g4158
sg217
(lp4162
g49
ag423
ag511
ag509
ag510
ag530
ag235
ag4054
asg52
(dp4163
g423
g540
sg235
g541
sg509
g542
sg510
g543
sg511
g544
sg530
g545
sssg530
I10
sssg2304
(dp4164
S'correct_after'
p4165
I00
sg2184
S'@@master_reqseq'
p4166
sS'condeq_unop'
p4167
Nsg1494
I01
sg2187
S'@@redun'
p4168
sS'solver_subtree'
p4169
NsS'subtract_after'
p4170
I01
sg2191
S'@@chain_solvers'
p4171
sg49
(dp4172
g51
g2304
sg52
(dp4173
g4165
S'if True, correct measured with predicted.Joneset'
p4174
sg2184
g2185
sg4167
S'Optional unary operation on Condeq inputs'
p4175
sg1494
S'if True, include full visualisation'
p4176
sg2187
g2188
sg4169
S'solver subtree qualifier(s)'
p4177
sg4170
S'if True, subtract predicted from measured'
p4178
sg2191
g2192
sS'flag_residuals'
p4179
S'if True, flag the residuals'
p4180
sg2194
g2195
ssg96
g97
sg98
S'MG_JEN_Cohset'
p4181
sg100
(dp4182
g2184
I01
sg2187
I01
sg4169
I01
sg2191
I01
sg4179
I01
sg2194
I01
ssg103
g1279
sg877
(dp4183
g2187
I00
sg2191
I00
sg2184
I00
sg2194
I00
ssg105
S'insert one or more solver subtrees in the data stream'
p4184
sg107
(dp4185
g4165
I00
sg2184
I00
sg1494
I00
sg2187
I00
sg4170
I00
sg4179
I00
ssg109
S'MG_JEN_Cohset::insert_solver()  version=25dec2005  defined=2006-04-13 12:19'
p4186
sg111
(dp4187
g4165
(lp4188
I01
aI00
aS'@@correct_after'
p4189
asg2184
(lp4190
I01
aI00
ag4166
asg4167
(lp4191
NaS'Abs'
p4192
aS'Arg'
p4193
aS'@@condeq_unop'
p4194
asg1494
(lp4195
I01
aI00
aS'@@visu'
p4196
asg2187
(lp4197
I01
aI00
ag4168
asg4169
(lp4198
NaS'@@solver_subtree'
p4199
asg4170
(lp4200
I01
aI00
aS'@@subtract_after'
p4201
asg2191
(lp4202
I01
ag4171
asg4179
(lp4203
I01
aI00
aS'@@flag_residuals'
p4204
asg2194
(lp4205
Na(lp4206
I5
aI2
aa(lp4207
I2
aI2
aa(lp4208
I3
aI3
aaS'@@num_cells'
p4209
assg195
Nsg197
S'2006-04-13 12:19'
p4210
sg199
S'MG_JEN_Cohset::insert_solver()'
p4211
sg201
S'** Specific description of inarg record for: MG_JEN_Cohset::insert_solver()  version=25dec2005  defined=2006-04-13 12:19'
p4212
sg203
S'MG_JEN_Cohsetinsert_solver'
p4213
sg205
S'insert_solver'
p4214
sg209
S'** Description of available inarg record(s) for: MG_JEN_Cohset::insert_solver()  version=25dec2005  defined=2006-04-13 12:19'
p4215
sg211
I00
sg212
g4210
sg213
(dp4216
g405
S'  1: .../MG_JEN_Cohset.insert_solver() (qual=None): .modify(subtract_after):   False  ->  True'
p4217
sg215
S'** JEN_inarg.attach(): attached: ./MG_JEN_Cohset.solver_subtree()'
p4218
sg410
S'  1: .../MG_JEN_Cohset.insert_solver() (qual=None): .modify(correct_after):   True  ->  False'
p4219
ssg217
(lp4220
g49
ag4169
ag2187
ag2194
ag2191
ag2184
ag4167
ag1494
ag4170
ag4165
ag4179
aS'./MG_JEN_Cohset.solver_subtree()'
p4221
assg2194
g4209
sg4221
(dp4222
S'rmin'
p4223
NsS'setBalanced'
p4224
I00
sg1494
I01
sS'epsilon'
p4225
F0.0001
sS'rmax'
p4226
NsS'derivative_eps'
p4227
F1e-08
sS'usesvd'
p4228
I01
sS'debug_level'
p4229
I10
sS'solvegroup'
p4230
(lp4231
g1263
asg49
(dp4232
g199
S'MG_JEN_Cohset::solver_subtree()'
p4233
sg51
g4221
sg213
(dp4234
g405
S'  2: ...../MG_JEN_Cohset.solver_subtree() (qual=None): .modify(num_iter):   5  ->  2'
p4235
sg215
S"  2: ...../MG_JEN_Cohset.solver_subtree() (qual=None): .modify(solvegroup):   []  ->  ['GJones']"
p4236
ssg100
(dp4237
g4229
I01
sg4227
I01
sg4224
I01
sS'epsval'
p4238
I01
sg2194
I00
ssg203
S'MG_JEN_Cohsetsolver_subtree'
p4239
sg96
g97
sg105
S'Make a solver-subtree for the given Condeq Cohset'
p4240
sg109
S'MG_JEN_Cohset::solver_subtree()  version=20dec2005  defined=2006-04-13 12:19'
p4241
sg205
S'solver_subtree'
p4242
sg111
(dp4243
g4223
(lp4244
NaI100
aI200
aI500
aS'@@rmin'
p4245
asg1494
(lp4246
I01
aI00
aS'@@visu'
p4247
asg4225
(lp4248
F0.001
aF0.0001
aF1.0000000000000001e-05
aS'@@epsilon'
p4249
asS'colin_factor'
p4250
(lp4251
F1e-08
aF0.0
aS'@@colin_factor'
p4252
asg4226
(lp4253
NaI500
aI1000
aI2000
aS'@@rmax'
p4254
asg4227
(lp4255
F1e-08
aF0.001
aF0.0001
aF1.0000000000000001e-05
aS'@@derivative_eps'
p4256
asg4228
(lp4257
I01
aI00
aS'@@usesvd'
p4258
asg4229
(lp4259
I10
aS'@@debug_level'
p4260
asg4230
(lp4261
(lp4262
a(lp4263
g1263
aa(lp4264
S'Ggain'
p4265
aa(lp4266
S'Gphase'
p4267
aa(lp4268
S'Gpol1'
p4269
aa(lp4270
S'Gpol2'
p4271
aa(lp4272
g822
aa(lp4273
g822
aS'stokesU'
p4274
aa(lp4275
g822
aS'stokesQ'
p4276
aa(lp4277
g822
aS'stokesV'
p4278
aa(lp4279
S'stokesQU'
p4280
ag822
aa(lp4281
S'stokesQUV'
p4282
ag822
aa(lp4283
g1263
aS'stokesI'
p4284
aa(lp4285
g4284
ag33
aa(lp4286
g4284
aa(lp4287
S'stokesIQU'
p4288
aa(lp4289
S'stokesIQUV'
p4290
aa(lp4291
S'stokesIV'
p4292
aa(lp4293
g4280
aa(lp4294
g4282
aa(lp4295
g1263
aS'DJones'
p4296
aa(lp4297
g4296
aa(lp4298
S'Dang'
p4299
aa(lp4300
S'Dell'
p4301
aa(lp4302
S'Dreal'
p4303
aa(lp4304
S'Dimag'
p4305
aa(lp4306
g1263
ag4296
ag1089
aa(lp4307
g1089
aa(lp4308
S'EJones'
p4309
aa(lp4310
S'Epointing'
p4311
aa(lp4312
g1263
ag961
aa(lp4313
g961
aa(lp4314
S'Breal'
p4315
aa(lp4316
S'Bimag'
p4317
aa(lp4318
S'Bpol1'
p4319
aa(lp4320
S'Bpol2'
p4321
aaS'@@solvegroup'
p4322
asg4238
(lp4323
F1e-08
aF0.001
aF0.0001
aF1.0000000000000001e-05
aS'@@epsval'
p4324
asg2194
(lp4325
Na(lp4326
I5
aI2
aa(lp4327
I2
aI2
aa(lp4328
I3
aI3
aaS'@@num_cells'
p4329
asg4224
(lp4330
I01
aI00
aS'@@setBalanced'
p4331
asS'num_iter'
p4332
(lp4333
I1
aI3
aI5
aI10
aI20
aS'@@num_iter'
p4334
asS'condition'
p4335
(lp4336
NaS'Gphase_X_sum=0.0'
p4337
aS'Gphase_Y_sum=0.0'
p4338
a(lp4339
g4337
ag4338
aa(lp4340
S'Gphase_X_first=0.0'
p4341
aS'Gphase_Y_first=0.0'
p4342
aa(lp4343
S'Gphase_X_last=0.0'
p4344
aS'Gphase_Y_last=0.0'
p4345
aaS'Dang_sum=0.0'
p4346
a(lp4347
S'Bimag_X_sum=0.0'
p4348
aS'Bimag_Y_sum=0.0'
p4349
aa(lp4350
S'Breal_X_product=1.0'
p4351
aS'Breal_Y_product=1.0'
p4352
aaS'@@condition'
p4353
asS'history'
p4354
(lp4355
I01
aI00
aS'@@history'
p4356
assg195
Nsg209
S'** Description of available inarg record(s) for: MG_JEN_Cohset::solver_subtree()  version=20dec2005  defined=2006-04-13 12:19'
p4357
sg103
S'20dec2005'
p4358
sg212
S'2006-04-13 12:19'
p4359
sg98
S'MG_JEN_Cohset'
p4360
sg107
(dp4361
g4228
I00
sg4224
I00
sg1494
I00
sg4354
I00
ssg201
S'** Specific description of inarg record for: MG_JEN_Cohset::solver_subtree()  version=20dec2005  defined=2006-04-13 12:19'
p4362
sg211
I00
sg197
g4359
sg217
(lp4363
g49
ag4230
ag4335
ag4223
ag4226
ag2194
ag4332
ag4225
ag4238
ag4227
ag4250
ag4228
ag4224
ag4229
ag1494
ag4354
asg52
(dp4364
g4223
S'if specified, only use baselines>=rmin'
p4365
sg1494
S'if True, include visualisation'
p4366
sg4225
S'iteration control criterion...'
p4367
sg4250
S'colinearity factor'
p4368
sg4226
S'if specified, only use baselines<=rmax'
p4369
sg4227
S'NEW: also iteration control...'
p4370
sg4228
S'if True, use Singular Value Decomposition (SVD)'
p4371
sg4229
S'solver debug_level'
p4372
sg4230
S'solvegroup: list of parmgroups, to be solved for:\n- [GJones]:  all GJones MeqParms\n- [Ggain]:   GJones station gains (both pols)\n- [Gphase]:  GJones station phases (both pols)\n- [Gpol1]:   All GJones MeqParms for pol1 (X or R)\n- [Gpol2]:   All GJones MeqParms for pol2 (Y or L)\n- [JJones,stokesU]:     actually solves for U!\n- [JJones,stokesQ]:     -> zero Q(?), but better freq sol(?)\n- [JJones,stokesV]:     -> punit V(?)...\n- [stokesI]:    stokes I (incl SI(f), if relevant)\n- [shape]:      parameters of extended source(s)\n- [stokesIQU]:  stokes I,Q,U (incl RM and SI(f))\n- [stokesIQUV]: stokes I,Q,U,V (incl RM and SI(f))'
p4373
sg4238
S'NEW: WNB version of epsilon....'
p4374
sg2194
g2195
sg4224
S'NEW: if True, add (..) to diagonal, otherwise multiply (1+lambda)'
p4375
sg4332
S'max number of iterations (now also in fitter)'
p4376
sg4335
S'(list of) extra condition equations:\n- [...phase_sum=0.0]:   sum of phases = zero\n- [...phase_first=0.0]: phase of first station = zero\n- [...phase_last=0.0]:  phase of last station = zero\n- [Dang_sum=0.0]:   sum of dipole pos.angle errors = zero\n- [...imag_sum=0.0]:   sum of imag.parts = zero\n- [...real_product=1.0]:   product of real.parts = unity'
p4377
sg4354
S'if True, include history collection of metrics'
p4378
sssg2194
Nsg4238
F1e-08
sg4354
I01
sg4332
I2
sg4335
Nsg4250
F0.0
ssg4179
I00
ss.