(dp0
S'add_to_existing'
p1
I00
sS'polrep'
p2
S'linear'
p3
sS'_JEN_inarg_separator_record:_1'
p4
(dp5
S'txt'
p6
S'uv-data (MS) stream_control'
p7
ssS'script_name'
p8
S'MG_JEN_simul'
p9
sS'ms_name'
p10
S'D1.MS'
p11
sS'parmtable'
p12
S'simul_DJones'
p13
sS'insert_solver'
p14
I00
sS'[solve_uvp]./MG_JEN_Cohset.Jones()'
p15
(dp16
g2
S'@@polrep'
p17
sS'_JEN_inarg_CTRL_record:'
p18
(dp19
S'target_definition'
p20
S'MG_JEN_Cohset::Jones()'
p21
sS'localscope'
p22
g15
sS'hide'
p23
(dp24
g2
I01
sS'stations'
p25
I01
sS'uvplane_effect'
p26
I01
sg12
I01
sS'@Jsequence_KJones'
p27
I01
sS'@Jsequence_simul'
p28
I01
sS'@Jsequence'
p29
I01
ssS'barescope'
p30
S'MG_JEN_CohsetJones'
p31
sS'target_dir'
p32
S'.'
p33
sS'oneliner'
p34
S'MG_JEN_Cohset::Jones()  version=25dec2005  defined=2006-03-31 16:56'
p35
sS'target_function'
p36
S'Jones'
p37
sS'choice'
p38
(dp39
g2
(lp40
g3
aS'circular'
p41
ag17
asg25
(lp42
(lp43
I0
aI1
aI2
aI3
aI4
aa(lp44
I0
aI1
aI2
aI3
aI4
aI5
aI6
aa(lp45
I0
aI1
aI2
aI3
aI4
aI5
aI6
aI7
aI8
aI9
aI10
aI11
aI12
aI13
aa(lp46
I0
aI1
aI2
aI3
aI4
aI5
aI6
aI7
aI8
aI9
aI10
aI11
aI12
aI13
aI14
aaS'range(5)'
p47
aS'@@stations'
p48
asS'Jsequence_solve_uvp'
p49
(lp50
(lp51
S'GJones'
p52
aa(lp53
S'BJones'
p54
aa(lp55
S'FJones'
p56
aa(lp57
S'KJones'
p58
aa(lp59
S'DJones_WSRT'
p60
aa(lp61
g52
ag60
aa(lp62
S'EJones_WSRT'
p63
aa(lp64
g52
ag63
aa(lp65
S'JJones'
p66
aa(lp67
aS'@@Jsequence_solve_uvp'
p68
asg26
(lp69
I00
aS'@@uvplane_effect'
p70
asg12
(lp71
NaS'test'
p72
aS'@@parmtable'
p73
asg27
(lp74
NaS'@@@Jsequence_KJones'
p75
asg28
(lp76
NaS'@@@Jsequence_simul'
p77
asg29
(lp78
NaS'@@@Jsequence'
p79
assS'qual'
p80
S'solve_uvp'
p81
sS'protected'
p82
I00
sS'datetime_defined'
p83
S'2006-03-31 16:56'
p84
sS'version'
p85
S'25dec2005'
p86
sS'target_module'
p87
S'MG_JEN_Cohset'
p88
sS'inarg_specific'
p89
S'** Specific description of inarg record for: MG_JEN_Cohset::Jones()  version=25dec2005  defined=2006-03-31 16:56'
p90
sS'MESSAGE'
p91
(dp92
S'1'
p93
S'** JEN_inarg.attach(): attached: [solve_uvp]./MG_JEN_Joneset.FJones()'
p94
sS'0'
p95
S'** JEN_inarg.attach(): attached: [solve_uvp]./MG_JEN_Joneset.GJones()'
p96
sS'3'
p97
S'** JEN_inarg.attach(): attached: [solve_uvp]./MG_JEN_Joneset.KJones()'
p98
sS'2'
p99
S'** JEN_inarg.attach(): attached: [solve_uvp]./MG_JEN_Joneset.BJones()'
p100
sS'5'
p101
S'** JEN_inarg.attach(): attached: [solve_uvp]./MG_JEN_Joneset.EJones_WSRT()'
p102
sS'4'
p103
S'** JEN_inarg.attach(): attached: [solve_uvp]./MG_JEN_Joneset.DJones_WSRT()'
p104
sS'7'
p105
S"  1: ..[solve_uvp]./MG_JEN_Cohset.Jones() (qual=None): .modify(Jsequence_solve_uvp):   []  ->  ['DJones_WSRT']"
p106
sS'6'
p107
S'** JEN_inarg.attach(): attached: [solve_uvp]./MG_JEN_Joneset.JJones()'
p108
ssS'last_edited'
p109
g84
sS'mutable'
p110
(dp111
g26
I00
sg12
I00
sg2
I00
sg25
I00
ssS'order'
p112
(lp113
g18
ag25
ag2
ag29
ag28
ag27
ag12
ag26
ag49
aS'[solve_uvp]./MG_JEN_Joneset.GJones()'
p114
aS'[solve_uvp]./MG_JEN_Joneset.FJones()'
p115
aS'[solve_uvp]./MG_JEN_Joneset.BJones()'
p116
aS'[solve_uvp]./MG_JEN_Joneset.KJones()'
p117
aS'[solve_uvp]./MG_JEN_Joneset.DJones_WSRT()'
p118
aS'[solve_uvp]./MG_JEN_Joneset.EJones_WSRT()'
p119
aS'[solve_uvp]./MG_JEN_Joneset.JJones()'
p120
asS'help'
p121
(dp122
g2
S'polarisation representation'
p123
sg25
S'the (subset of) stations to be used'
p124
sg49
S'sequence of Jones matrices to be used'
p125
sg26
S'if True, the Joneset reprsents uv-plane effects (q=uvp)'
p126
sg12
S'name of the MeqParm table to be used'
p127
sg27
S'list membership indication (used in JEN_inargGui)'
p128
sg28
g128
sg29
g128
ssS'description'
p129
S'Make a Joneset by creating and multiplying a sequence of one ore more Jonesets'
p130
ssg25
g48
sg120
(dp131
S'reset_funklet'
p132
I00
sg2
S'@@polrep'
p133
sS'tdeg_Jreal'
p134
I0
sS'color'
p135
S'red'
p136
sS'save_all'
p137
I00
sS'all4_always'
p138
Nsg12
S'@@parmtable'
p139
sS'subtile_size_Jreal'
p140
NsS'unit'
p141
NsS'size'
p142
I10
sS'style'
p143
S'circle'
p144
sS'tdeg_Jimag'
p145
S'@tdeg_Jreal'
p146
sS'descr'
p147
S'<descr>'
p148
sS'condeq_corrs'
p149
S'*'
p150
sS'funklet_shape'
p151
Nsg18
(dp152
g20
S'MG_JEN_Joneset::JJones()'
p153
sg22
g120
sg23
(dp154
g143
I01
sg2
I01
sS'c00_default'
p155
I01
sg147
I01
sg25
I01
sg135
I01
sg151
I01
sg149
I01
sg26
I01
sS'subtile_size'
p156
I01
sS'tfdeg'
p157
I01
sg12
I01
sg27
I01
sg28
I01
sg29
I01
sg141
I01
sg142
I01
ssg30
S'MG_JEN_JonesetJJones'
p158
sg32
g33
sg129
S'Defines diagonal 2x2 Jones matrices for full polarisation:\n    Jjones(station,source) matrix elements:\n    - J_11 = (Jreal_11,Jimag_11)\n    - J_12 = (Jreal_12,Jimag_12)\n    - J_21 = (Jreal_21,Jimag_21)\n    - J_22 = (Jreal_22,Jimag_22)\n    For circular polarisation, R and L are used rather than X and Y\n    '
p159
sg34
S'MG_JEN_Joneset::JJones()  version=14feb2006  defined=2006-03-31 16:56'
p160
sg36
S'JJones'
p161
sg38
(dp162
g132
(lp163
I01
aI00
aS'@@reset_funklet'
p164
asg2
(lp165
g3
ag41
ag133
asg134
(lp166
I0
aI1
aI2
aI3
aS'@@tdeg_Jreal'
p167
asg135
(lp168
g136
aS'@@color'
p169
asg137
(lp170
I01
aI00
aS'@@save_all'
p171
asg138
(lp172
Na(lp173
I14
aa(lp174
I1
aaS'WSRT/WHAT'
p175
aS'@@all4_always'
p176
asg12
(lp177
Nag72
ag139
asg140
(lp178
NaI1
aI2
aI5
aI10
aI20
aI50
aI100
aI200
aI500
aS'@@subtile_size_Jreal'
p179
asS'auto_save'
p180
(lp181
I01
aI00
aS'@@auto_save'
p182
asg142
(lp183
I10
aS'@@size'
p184
asg143
(lp185
g144
aS'@@style'
p186
asg145
(lp187
I0
aI1
aI2
aI3
ag146
aS'@@tdeg_Jimag'
p188
asg147
(lp189
g148
aS'@@descr'
p190
asg149
(lp191
g150
aS'@@condeq_corrs'
p192
asg151
(lp193
NaS'@@funklet_shape'
p194
asg141
(lp195
NaS'@@unit'
p196
asg27
(lp197
g66
aS'@@@Jsequence_KJones'
p198
asS'fdeg_Jreal'
p199
(lp200
I0
aI1
aI2
aI3
aS'@@fdeg_Jreal'
p201
asg155
(lp202
F1.0
aS'@@c00_default'
p203
asg26
(lp204
I00
aS'@@uvplane_effect'
p205
asS'fdeg_Jimag'
p206
(lp207
I0
aI1
aI2
aI3
aS'@fdeg_Jreal'
p208
aS'@@fdeg_Jimag'
p209
asS'subtile_size_Jimag'
p210
(lp211
S'@subtile_size_Jreal'
p212
aNaI1
aI2
aI5
aI10
aI20
aI50
aI100
aI200
aI500
aS'@@subtile_size_Jimag'
p213
asg25
(lp214
(lp215
I0
aI1
aI2
aI3
aI4
aa(lp216
I0
aI1
aI2
aI3
aI4
aI5
aI6
aa(lp217
I0
aI1
aI2
aI3
aI4
aI5
aI6
aI7
aI8
aI9
aI10
aI11
aI12
aI13
aa(lp218
I0
aI1
aI2
aI3
aI4
aI5
aI6
aI7
aI8
aI9
aI10
aI11
aI12
aI13
aI14
aag47
aS'@@stations'
p219
asS'diagonal_only'
p220
(lp221
I01
aI00
aS'@@diagonal_only'
p222
asS'use_previous'
p223
(lp224
I01
aI00
aS'@@use_previous'
p225
asg156
(lp226
NaS'@@subtile_size'
p227
asg157
(lp228
NaS'@@tfdeg'
p229
asg28
(lp230
g66
aS'@@@Jsequence_simul'
p231
asg29
(lp232
g66
aS'@@@Jsequence'
p233
assg80
g81
sg82
I00
sg83
S'2006-03-31 16:56'
p234
sg85
S'14feb2006'
p235
sg87
S'MG_JEN_Joneset'
p236
sS'editable'
p237
(dp238
g132
I00
sg223
I00
sg220
I00
sg180
I00
sg137
I00
ssg89
S'** Specific description of inarg record for: MG_JEN_Joneset::JJones()  version=14feb2006  defined=2006-03-31 16:56'
p239
sg110
(dp240
g26
I00
sg12
I00
sg2
I00
sg25
I00
ssg109
g234
sg112
(lp241
g18
ag25
ag2
ag29
ag28
ag27
ag220
ag138
ag12
ag26
ag134
ag145
ag199
ag206
ag140
ag210
ag223
ag180
ag137
ag132
ag147
ag141
ag135
ag143
ag142
ag155
ag157
ag151
ag156
ag149
asg121
(dp242
g132
S'if True, do NOT use any MeqParm table values when solvable'
p243
sg2
g123
sg134
S'degree of time polynomial'
p244
sg135
S'plot_color'
p245
sg137
S'if True, save the update result even if not converged'
p246
sg138
S'stations for which all 4 elements will always be solved for'
p247
sg12
g127
sg140
S'sub-tile size (None=entire tile)'
p248
sg180
S'if True, save the result of every iteration (slow!)'
p249
sg142
S'size of plotted symbol'
p250
sg143
S'plot_style'
p251
sg145
g244
sg147
S'brief description'
p252
sg149
S'correlations to be used for solving'
p253
sg151
S'shape [time,freq] of default funklet'
p254
sg141
g141
sg27
g128
sg199
S'degree of freq polynomial'
p255
sg155
S'default value of c[0,0] coefficient'
p256
sg26
g126
sg206
g255
sg210
g248
sg25
g124
sg220
S'if True, solve for diagonal (11,22) elements only'
p257
sg223
S'if True, start with the previous solution'
p258
sg156
S'size (time-slots) of a domain sub-tile'
p259
sg157
S'(time,freq) polynomial degree'
p260
sg28
g128
sg29
g128
sssg27
g66
sg199
I0
sg155
F1.0
sg26
g205
sg206
g208
sg210
g212
sg25
g219
sg220
I00
sg223
I01
sg156
Nsg157
Nsg28
g66
sg29
g66
sg180
I01
ssg117
(dp261
g2
S'@@polrep'
p262
sg25
S'@@stations'
p263
sg18
(dp264
g20
S'MG_JEN_Joneset::KJones()'
p265
sg22
g117
sg23
(dp266
g27
I01
sg28
I01
sg25
I01
sg2
I01
sg29
I01
ssg30
S'MG_JEN_JonesetKJones'
p267
sg32
g33
sg129
S'defines diagonal KJones matrices for DFT Fourier kernel'
p268
sg34
S'MG_JEN_Joneset::KJones()  version=12dec2005  defined=2006-03-31 16:56'
p269
sg36
S'KJones'
p270
sg38
(dp271
g27
(lp272
g58
aS'@@@Jsequence_KJones'
p273
asg28
(lp274
g58
aS'@@@Jsequence_simul'
p275
asg25
(lp276
(lp277
I0
aI1
aI2
aI3
aI4
aa(lp278
I0
aI1
aI2
aI3
aI4
aI5
aI6
aa(lp279
I0
aI1
aI2
aI3
aI4
aI5
aI6
aI7
aI8
aI9
aI10
aI11
aI12
aI13
aa(lp280
I0
aI1
aI2
aI3
aI4
aI5
aI6
aI7
aI8
aI9
aI10
aI11
aI12
aI13
aI14
aag47
ag263
asg2
(lp281
g3
ag41
ag262
asg29
(lp282
g58
aS'@@@Jsequence'
p283
assg80
g81
sg82
I00
sg83
S'2006-03-31 16:56'
p284
sg85
S'12dec2005'
p285
sg87
S'MG_JEN_Joneset'
p286
sg89
S'** Specific description of inarg record for: MG_JEN_Joneset::KJones()  version=12dec2005  defined=2006-03-31 16:56'
p287
sg110
(dp288
g2
I00
sg25
I00
ssg109
g284
sg112
(lp289
g18
ag25
ag2
ag29
ag28
ag27
asg121
(dp290
g27
g128
sg28
g128
sg25
g124
sg2
g123
sg29
g128
sssg27
g58
sg28
g58
sg29
g58
ssg49
(lp291
g60
asg26
g70
sg12
g73
sg116
(dp292
g132
I00
sg2
S'@@polrep'
p293
sg135
g136
sS'subtile_size_Bimag'
p294
S'@subtile_size_Breal'
p295
sg137
I00
sS'subtile_size_Breal'
p296
Nsg141
Nsg142
I10
sg143
g144
sg147
g148
sS'fdeg_Breal'
p297
I5
sg149
g150
sg151
Nsg18
(dp298
g20
S'MG_JEN_Joneset::BJones()'
p299
sg22
g116
sg23
(dp300
g143
I01
sg2
I01
sg155
I01
sg147
I01
sg25
I01
sg135
I01
sg151
I01
sg149
I01
sg26
I01
sg156
I01
sg157
I01
sg12
I01
sg27
I01
sg28
I01
sg29
I01
sg141
I01
sg142
I01
ssg30
S'MG_JEN_JonesetBJones'
p301
sg32
g33
sg129
S'Defines diagonal 2x2 Jones matrices that represent the IF bandpass:\n    Bjones(station,source) matrix elements:\n    - B_11 = (Breal_X,Bimag_X)\n    - B_12 = 0\n    - B_21 = 0\n    - B_22 = (Breal_Y,Bimag_Y)\n    For circular polarisation, R and L are used rather than X and Y\n    NB: The main differences with Gjones are:\n      - the higher-order (~5) freq-polynomial\n      - solving for real/imag rather than gain/phase \n    '
p302
sg34
S'MG_JEN_Joneset::BJones()  version=16dec2005  defined=2006-03-31 16:56'
p303
sg36
S'BJones'
p304
sg38
(dp305
g132
(lp306
I01
aI00
aS'@@reset_funklet'
p307
asg2
(lp308
g3
ag41
ag293
asg135
(lp309
g136
aS'@@color'
p310
asg294
(lp311
g295
aNaI1
aI2
aI5
aI10
aI20
aI50
aI100
aI200
aI500
aS'@@subtile_size_Bimag'
p312
asg137
(lp313
I01
aI00
aS'@@save_all'
p314
asg296
(lp315
NaI1
aI2
aI5
aI10
aI20
aI50
aI100
aI200
aI500
aS'@@subtile_size_Breal'
p316
asg180
(lp317
I01
aI00
aS'@@auto_save'
p318
asg142
(lp319
I10
aS'@@size'
p320
asg143
(lp321
g144
aS'@@style'
p322
asg147
(lp323
g148
aS'@@descr'
p324
asg297
(lp325
I3
aI4
aI5
aI6
aS'@@fdeg_Breal'
p326
asg149
(lp327
g150
aS'@@condeq_corrs'
p328
asg151
(lp329
NaS'@@funklet_shape'
p330
asg141
(lp331
NaS'@@unit'
p332
asg27
(lp333
g54
aS'@@@Jsequence_KJones'
p334
asS'tdeg_Bimag'
p335
(lp336
I0
aI1
aI2
aI3
aS'@tdeg_Breal'
p337
aS'@@tdeg_Bimag'
p338
asg29
(lp339
g54
aS'@@@Jsequence'
p340
asg155
(lp341
F1.0
aS'@@c00_default'
p342
asS'fdeg_Bimag'
p343
(lp344
I3
aI4
aI5
aI6
aS'@fdeg_Breal'
p345
aS'@@fdeg_Bimag'
p346
asg26
(lp347
I00
aS'@@uvplane_effect'
p348
asg12
(lp349
Nag72
aS'@@parmtable'
p350
asg25
(lp351
(lp352
I0
aI1
aI2
aI3
aI4
aa(lp353
I0
aI1
aI2
aI3
aI4
aI5
aI6
aa(lp354
I0
aI1
aI2
aI3
aI4
aI5
aI6
aI7
aI8
aI9
aI10
aI11
aI12
aI13
aa(lp355
I0
aI1
aI2
aI3
aI4
aI5
aI6
aI7
aI8
aI9
aI10
aI11
aI12
aI13
aI14
aag47
aS'@@stations'
p356
asS'tdeg_Breal'
p357
(lp358
I0
aI1
aI2
aI3
aS'@@tdeg_Breal'
p359
asg223
(lp360
I01
aI00
aS'@@use_previous'
p361
asg156
(lp362
NaS'@@subtile_size'
p363
asg157
(lp364
NaS'@@tfdeg'
p365
asg28
(lp366
g54
aS'@@@Jsequence_simul'
p367
assg80
g81
sg82
I00
sg83
S'2006-03-31 16:56'
p368
sg85
S'16dec2005'
p369
sg87
S'MG_JEN_Joneset'
p370
sg237
(dp371
g132
I00
sg223
I00
sg180
I00
sg137
I00
ssg89
S'** Specific description of inarg record for: MG_JEN_Joneset::BJones()  version=16dec2005  defined=2006-03-31 16:56'
p372
sg110
(dp373
g26
I00
sg12
I00
sg2
I00
sg25
I00
ssg109
g368
sg112
(lp374
g18
ag25
ag2
ag29
ag28
ag27
ag12
ag26
ag357
ag335
ag297
ag343
ag296
ag294
ag223
ag180
ag137
ag132
ag147
ag141
ag135
ag143
ag142
ag155
ag157
ag151
ag156
ag149
asg121
(dp375
g132
g243
sg2
g123
sg135
g245
sg294
S'sub-tile size (None=entire tile)'
p376
sg137
g246
sg296
g376
sg180
g249
sg142
g250
sg143
g251
sg147
g252
sg297
S'degree of freq polynomial'
p377
sg149
g253
sg151
g254
sg141
g141
sg27
g128
sg335
S'degree of time polynomial'
p378
sg29
g128
sg155
g256
sg343
g377
sg26
g126
sg12
g127
sg25
g124
sg357
g378
sg223
g258
sg156
g259
sg157
g260
sg28
g128
sssg27
g54
sg335
g337
sg29
g54
sg155
F1.0
sg343
g345
sg26
g348
sg12
g350
sg25
g356
sg357
I0
sg223
I01
sg156
Nsg157
Nsg28
g54
sg180
I01
ssg115
(dp379
g132
I00
sg2
S'@@polrep'
p380
sg135
g136
sg137
I00
sg12
S'@@parmtable'
p381
sg141
Nsg142
I10
sg143
g144
sg147
g148
sg149
g150
sg151
Nsg18
(dp382
g20
S'MG_JEN_Joneset::FJones()'
p383
sg22
g115
sg23
(dp384
g143
I01
sg2
I01
sg155
I01
sg147
I01
sg25
I01
sg135
I01
sg151
I01
sg149
I01
sg26
I01
sg156
I01
sg157
I01
sg12
I01
sg27
I01
sg28
I01
sg29
I01
sg141
I01
sg142
I01
ssg30
S'MG_JEN_JonesetFJones'
p385
sg32
g33
sg129
S'defines diagonal FJones Faraday rotation matrices'
p386
sg34
S'MG_JEN_Joneset::FJones()  version=16dec2005  defined=2006-03-31 16:56'
p387
sg36
S'FJones'
p388
sg38
(dp389
g132
(lp390
I01
aI00
aS'@@reset_funklet'
p391
asg2
(lp392
g3
ag41
ag380
asg135
(lp393
g136
aS'@@color'
p394
asg137
(lp395
I01
aI00
aS'@@save_all'
p396
asg157
(lp397
NaS'@@tfdeg'
p398
asg180
(lp399
I01
aI00
aS'@@auto_save'
p400
asg142
(lp401
I10
aS'@@size'
p402
asg143
(lp403
g144
aS'@@style'
p404
asg147
(lp405
g148
aS'@@descr'
p406
asg149
(lp407
g150
aS'@@condeq_corrs'
p408
asg151
(lp409
NaS'@@funklet_shape'
p410
asg141
(lp411
NaS'@@unit'
p412
asg27
(lp413
g56
aS'@@@Jsequence_KJones'
p414
asg29
(lp415
g56
aS'@@@Jsequence'
p416
asg155
(lp417
F1.0
aS'@@c00_default'
p418
asg26
(lp419
I00
aS'@@uvplane_effect'
p420
asg25
(lp421
(lp422
I0
aI1
aI2
aI3
aI4
aa(lp423
I0
aI1
aI2
aI3
aI4
aI5
aI6
aa(lp424
I0
aI1
aI2
aI3
aI4
aI5
aI6
aI7
aI8
aI9
aI10
aI11
aI12
aI13
aa(lp425
I0
aI1
aI2
aI3
aI4
aI5
aI6
aI7
aI8
aI9
aI10
aI11
aI12
aI13
aI14
aag47
aS'@@stations'
p426
asS'tdeg_RM'
p427
(lp428
I0
aI1
aI2
aI3
aS'@@tdeg_RM'
p429
asg223
(lp430
I01
aI00
aS'@@use_previous'
p431
asS'fdeg_RM'
p432
(lp433
I0
aI1
aI2
aI3
aS'@@fdeg_RM'
p434
asg156
(lp435
NaS'@@subtile_size'
p436
asg12
(lp437
Nag72
ag381
asS'subtile_size_RM'
p438
(lp439
NaI1
aI2
aI5
aI10
aI20
aI50
aI100
aI200
aI500
aS'@@subtile_size_RM'
p440
asg28
(lp441
g56
aS'@@@Jsequence_simul'
p442
assg80
g81
sg82
I00
sg83
S'2006-03-31 16:56'
p443
sg85
g369
sg87
S'MG_JEN_Joneset'
p444
sg237
(dp445
g132
I00
sg223
I00
sg180
I00
sg137
I00
ssg89
S'** Specific description of inarg record for: MG_JEN_Joneset::FJones()  version=16dec2005  defined=2006-03-31 16:56'
p446
sg110
(dp447
g26
I00
sg12
I00
sg2
I00
sg25
I00
ssg109
g443
sg112
(lp448
g18
ag25
ag2
ag29
ag28
ag27
ag12
ag26
ag427
ag432
ag438
ag223
ag180
ag137
ag132
ag147
ag141
ag135
ag143
ag142
ag155
ag157
ag151
ag156
ag149
asg121
(dp449
g132
g243
sg2
g123
sg135
g245
sg137
g246
sg157
g260
sg180
g249
sg142
g250
sg143
g251
sg147
g252
sg149
g253
sg151
g254
sg141
g141
sg27
g128
sg29
g128
sg155
g256
sg26
g126
sg25
g124
sg427
S'degree of time polynomial'
p450
sg223
g258
sg432
S'degree of freq polynomial'
p451
sg156
g259
sg12
g127
sg438
S'sub-tile size (None=entire tile)'
p452
sg28
g128
sssg27
g56
sg29
g56
sg155
F1.0
sg26
g420
sg25
g426
sg427
I0
sg223
I01
sg432
I2
sg156
Nsg157
Nsg438
I1
sg28
g56
sg180
I01
ssg114
(dp453
g132
I00
sg2
S'@@polrep'
p454
sS'fdeg_Ggain'
p455
I0
sg135
g136
sg137
I00
sg12
S'@@parmtable'
p456
sg141
Nsg142
I10
sg143
g144
sg147
g148
sS'subtile_size_Ggain'
p457
I1
sg149
g150
sg151
Nsg18
(dp458
g20
S'MG_JEN_Joneset::GJones()'
p459
sg22
g114
sg23
(dp460
g143
I01
sg2
I01
sg155
I01
sg147
I01
sg25
I01
sg135
I01
sg29
I01
sg151
I01
sg149
I01
sg26
I01
sg156
I01
sg157
I01
sg12
I01
sg27
I01
sg28
I01
sS'Gpolar'
p461
I01
sg141
I01
sg142
I01
ssg30
S'MG_JEN_JonesetGJones'
p462
sg32
g33
sg129
S'Defines diagonal 2x2 Jones matrices that represent complex gain:\n    Gjones(station,source) matrix elements:\n    - G_11 = Ggain_X*exp(iGphase_X)\n    - G_12 = 0\n    - G_21 = 0\n    - G_22 = Ggain_Y*exp(iGphase_Y)\n    For circular polarisation, R and L are used rather than X and Y\n    '
p463
sg34
S'MG_JEN_Joneset::GJones()  version=15dec2005  defined=2006-03-31 16:56'
p464
sg36
S'GJones'
p465
sg38
(dp466
g132
(lp467
I01
aI00
aS'@@reset_funklet'
p468
asg2
(lp469
g3
ag41
ag454
asg455
(lp470
I0
aI1
aI2
aI3
aS'@@fdeg_Ggain'
p471
asg135
(lp472
g136
aS'@@color'
p473
asg137
(lp474
I01
aI00
aS'@@save_all'
p475
asg12
(lp476
Nag72
ag456
asg180
(lp477
I01
aI00
aS'@@auto_save'
p478
asg142
(lp479
I10
aS'@@size'
p480
asg143
(lp481
g144
aS'@@style'
p482
asg147
(lp483
g148
aS'@@descr'
p484
asg457
(lp485
NaI1
aI2
aI5
aI10
aI20
aI50
aI100
aI200
aI500
aS'@@subtile_size_Ggain'
p486
asg149
(lp487
g150
aS'@@condeq_corrs'
p488
asg151
(lp489
NaS'@@funklet_shape'
p490
asg141
(lp491
NaS'@@unit'
p492
asg27
(lp493
g52
aS'@@@Jsequence_KJones'
p494
asg29
(lp495
g52
aS'@@@Jsequence'
p496
asg155
(lp497
F1.0
aS'@@c00_default'
p498
asS'tdeg_Gphase'
p499
(lp500
I0
aI1
aI2
aI3
aS'@tdeg_Ggain'
p501
aS'@@tdeg_Gphase'
p502
asS'tdeg_Ggain'
p503
(lp504
I0
aI1
aI2
aI3
aS'@@tdeg_Ggain'
p505
asS'fdeg_Gphase'
p506
(lp507
I0
aI1
aI2
aI3
aS'@fdeg_Ggain'
p508
aS'@@fdeg_Gphase'
p509
asS'subtile_size_Gphase'
p510
(lp511
S'@subtile_size_Ggain'
p512
aNaI1
aI2
aI5
aI10
aI20
aI50
aI100
aI200
aI500
aS'@@subtile_size_Gphase'
p513
asg461
(lp514
I01
aI00
aS'@@Gpolar'
p515
asg26
(lp516
I00
aS'@@uvplane_effect'
p517
asg25
(lp518
(lp519
I0
aI1
aI2
aI3
aI4
aa(lp520
I0
aI1
aI2
aI3
aI4
aI5
aI6
aa(lp521
I0
aI1
aI2
aI3
aI4
aI5
aI6
aI7
aI8
aI9
aI10
aI11
aI12
aI13
aa(lp522
I0
aI1
aI2
aI3
aI4
aI5
aI6
aI7
aI8
aI9
aI10
aI11
aI12
aI13
aI14
aag47
aS'@@stations'
p523
asg223
(lp524
I01
aI00
aS'@@use_previous'
p525
asg156
(lp526
NaS'@@subtile_size'
p527
asg157
(lp528
NaS'@@tfdeg'
p529
asg28
(lp530
g52
aS'@@@Jsequence_simul'
p531
assg80
g81
sg82
I00
sg83
S'2006-03-31 16:56'
p532
sg85
S'15dec2005'
p533
sg87
S'MG_JEN_Joneset'
p534
sg237
(dp535
g132
I00
sg223
I00
sg461
I00
sg180
I00
sg137
I00
ssg89
S'** Specific description of inarg record for: MG_JEN_Joneset::GJones()  version=15dec2005  defined=2006-03-31 16:56'
p536
sg110
(dp537
g26
I00
sg12
I00
sg2
I00
sg25
I00
ssg109
g532
sg112
(lp538
g18
ag25
ag2
ag29
ag28
ag27
ag461
ag12
ag26
ag503
ag499
ag455
ag506
ag457
ag510
ag223
ag180
ag137
ag132
ag147
ag141
ag135
ag143
ag142
ag155
ag157
ag151
ag156
ag149
asg121
(dp539
g132
g243
sg2
g123
sg455
S'degree of freq polynomial'
p540
sg135
g245
sg137
g246
sg12
g127
sg180
g249
sg142
g250
sg143
g251
sg147
g252
sg457
S'sub-tile size (None=entire tile)'
p541
sg149
g253
sg151
g254
sg141
g141
sg27
g128
sg29
g128
sg155
g256
sg499
S'degree of time polynomial'
p542
sg503
g542
sg506
g540
sg510
g541
sg461
S'obsolete, kept only for upward compatibility'
p543
sg26
g126
sg25
g124
sg223
g258
sg156
g259
sg157
g260
sg28
g128
sssg27
g52
sg29
g52
sg155
F1.0
sg499
g501
sg503
I0
sg506
g508
sg510
g512
sg461
I01
sg26
g517
sg25
g523
sg223
I01
sg156
Nsg157
Nsg28
g52
sg180
I01
ssg118
(dp544
g132
I00
sg2
S'@@polrep'
p545
sg135
g136
sS'fdeg_Dell'
p546
S'@fdeg_Dang'
p547
sS'coupled_XY_Dell'
p548
I01
sg137
I00
sg141
Nsg12
S'@@parmtable'
p549
sS'subtile_size_Dang'
p550
Nsg180
I01
sg142
I10
sg143
g144
sg147
g148
sg149
g150
sg151
Nsg18
(dp551
g20
S'MG_JEN_Joneset::DJones_WSRT()'
p552
sg22
g118
sg23
(dp553
g143
I01
sg2
I01
sg155
I01
sg147
I01
sg25
I01
sg135
I01
sg151
I01
sg149
I01
sg26
I01
sg156
I01
sg157
I01
sg12
I01
sg27
I01
sg28
I01
sg29
I01
sg141
I01
sg142
I01
ssg30
S'MG_JEN_JonesetDJones_WSRT'
p554
sg32
g33
sg129
S'defines 2x2 DJones_WSRT (polarisation leakage) matrices'
p555
sg34
S'MG_JEN_Joneset::DJones_WSRT()  version=16dec2005  defined=2006-03-31 16:56'
p556
sg36
S'DJones_WSRT'
p557
sg38
(dp558
g132
(lp559
I01
aI00
aS'@@reset_funklet'
p560
asg2
(lp561
g3
ag41
ag545
asg135
(lp562
g136
aS'@@color'
p563
asg546
(lp564
I0
aI1
aI2
aI3
ag547
aS'@@fdeg_Dell'
p565
asg548
(lp566
I01
aI00
aS'@@coupled_XY_Dell'
p567
asg137
(lp568
I01
aI00
aS'@@save_all'
p569
asg12
(lp570
Nag72
ag549
asg550
(lp571
NaI1
aI2
aI5
aI10
aI20
aI50
aI100
aI200
aI500
aS'@@subtile_size_Dang'
p572
asg180
(lp573
I01
aI00
aS'@@auto_save'
p574
asg142
(lp575
I10
aS'@@size'
p576
asg143
(lp577
g144
aS'@@style'
p578
asg147
(lp579
g148
aS'@@descr'
p580
asg149
(lp581
g150
aS'@@condeq_corrs'
p582
asg151
(lp583
NaS'@@funklet_shape'
p584
asg141
(lp585
NaS'@@unit'
p586
asg27
(lp587
g60
aS'@@@Jsequence_KJones'
p588
asS'subtile_size_Dell'
p589
(lp590
S'@subtile_size_Dang'
p591
aNaI1
aI2
aI5
aI10
aI20
aI50
aI100
aI200
aI500
aS'@@subtile_size_Dell'
p592
asg29
(lp593
g60
aS'@@@Jsequence'
p594
asS'fdeg_Dang'
p595
(lp596
I0
aI1
aI2
aI3
aS'@@fdeg_Dang'
p597
asg155
(lp598
F1.0
aS'@@c00_default'
p599
asg26
(lp600
I00
aS'@@uvplane_effect'
p601
asS'tdeg_Dell'
p602
(lp603
I0
aI1
aI2
aI3
aS'@tdeg_Dang'
p604
aS'@@tdeg_Dell'
p605
asS'coupled_XY_Dang'
p606
(lp607
I01
aI00
aS'@@coupled_XY_Dang'
p608
asS'tdeg_Dang'
p609
(lp610
I0
aI1
aI2
aI3
aS'@@tdeg_Dang'
p611
asg25
(lp612
(lp613
I0
aI1
aI2
aI3
aI4
aa(lp614
I0
aI1
aI2
aI3
aI4
aI5
aI6
aa(lp615
I0
aI1
aI2
aI3
aI4
aI5
aI6
aI7
aI8
aI9
aI10
aI11
aI12
aI13
aa(lp616
I0
aI1
aI2
aI3
aI4
aI5
aI6
aI7
aI8
aI9
aI10
aI11
aI12
aI13
aI14
aag47
aS'@@stations'
p617
asg223
(lp618
I01
aI00
aS'@@use_previous'
p619
asg156
(lp620
NaS'@@subtile_size'
p621
asg157
(lp622
NaS'@@tfdeg'
p623
asg28
(lp624
g60
aS'@@@Jsequence_simul'
p625
assg80
g81
sg82
I00
sg83
S'2006-03-31 16:56'
p626
sg85
g369
sg87
S'MG_JEN_Joneset'
p627
sg237
(dp628
g132
I00
sg548
I00
sg223
I00
sg606
I00
sg137
I00
sg180
I00
ssg89
S'** Specific description of inarg record for: MG_JEN_Joneset::DJones_WSRT()  version=16dec2005  defined=2006-03-31 16:56'
p629
sg110
(dp630
g26
I00
sg12
I00
sg2
I00
sg25
I00
ssg109
g626
sg112
(lp631
g18
ag25
ag2
ag29
ag28
ag27
ag606
ag548
ag12
ag26
ag609
ag602
ag595
ag546
ag550
ag589
ag223
ag180
ag137
ag132
ag147
ag141
ag135
ag143
ag142
ag155
ag157
ag151
ag156
ag149
asg121
(dp632
g132
g243
sg2
g123
sg135
g245
sg546
S'degree of freq polynomial'
p633
sg548
S'if True, XDell = -YDell per station'
p634
sg137
g246
sg12
g127
sg550
S'sub-tile size (None=entire tile)'
p635
sg180
g249
sg142
g250
sg143
g251
sg147
g252
sg149
g253
sg151
g254
sg141
g141
sg27
g128
sg589
g635
sg29
g128
sg595
g633
sg155
g256
sg26
g126
sg602
S'degree of time polynomial'
p636
sg606
S'if True, XDang = YDang per station'
p637
sg609
g636
sg25
g124
sg223
g258
sg156
g259
sg157
g260
sg28
g128
sssg27
g60
sg589
g591
sg29
g60
sg595
I0
sg155
F1.0
sg26
g601
sg602
g604
sg606
I01
sg609
I0
sg25
g617
sg223
I01
sg156
Nsg157
Nsg28
g60
ssg27
Nsg28
Nsg119
(dp638
g132
I00
sg2
S'@@polrep'
p639
sg135
g136
sg137
I00
sg141
Nsg12
S'@@parmtable'
p640
sg180
I01
sg142
I10
sS'tdeg_Edl'
p641
I0
sS'tdeg_Edm'
p642
S'@tdeg_Edl'
p643
sg143
g144
sg147
g148
sS'subtile_size_Edl'
p644
Nsg149
g150
sg151
NsS'subtile_size_Edm'
p645
S'@subtile_size_Edl'
p646
sg18
(dp647
g20
S'MG_JEN_Joneset::EJones_WSRT()'
p648
sg22
g119
sg23
(dp649
g143
I01
sg2
I01
sg155
I01
sg147
I01
sg25
I01
sg135
I01
sg151
I01
sg149
I01
sg26
I01
sg156
I01
sg157
I01
sg12
I01
sg27
I01
sg28
I01
sg29
I01
sg141
I01
sg142
I01
ssg30
S'MG_JEN_JonesetEJones_WSRT'
p650
sg32
g33
sg129
S'defines EJones (voltage beamshape) matrices for WSRT (l,m interpolatable)\n    Ejones(station,source) matrix elements:\n    - E_11 = Egain_X*exp(iEphase_X)\n    - E_12 = 0\n    - E_21 = 0\n    - E_22 = Egain_Y*exp(iEphase_Y)\n    For circular polarisation, R and L are used rather than X and Y\n    '
p651
sg34
S'MG_JEN_Joneset::EJones_WSRT()  version=15dec2005  defined=2006-03-31 16:56'
p652
sg36
S'EJones_WSRT'
p653
sg38
(dp654
g132
(lp655
I01
aI00
aS'@@reset_funklet'
p656
asg2
(lp657
g3
ag41
ag639
asg135
(lp658
g136
aS'@@color'
p659
asg137
(lp660
I01
aI00
aS'@@save_all'
p661
asg12
(lp662
Nag72
ag640
asg180
(lp663
I01
aI00
aS'@@auto_save'
p664
asg142
(lp665
I10
aS'@@size'
p666
asg641
(lp667
I0
aI1
aI2
aI3
aS'@@tdeg_Edl'
p668
asg642
(lp669
I0
aI1
aI2
aI3
ag643
aS'@@tdeg_Edm'
p670
asg143
(lp671
g144
aS'@@style'
p672
asg147
(lp673
g148
aS'@@descr'
p674
asg644
(lp675
NaI1
aI2
aI5
aI10
aI20
aI50
aI100
aI200
aI500
aS'@@subtile_size_Edl'
p676
asg149
(lp677
g150
aS'@@condeq_corrs'
p678
asg151
(lp679
NaS'@@funklet_shape'
p680
asg645
(lp681
g646
aNaI1
aI2
aI5
aI10
aI20
aI50
aI100
aI200
aI500
aS'@@subtile_size_Edm'
p682
asg141
(lp683
NaS'@@unit'
p684
asg27
(lp685
g63
aS'@@@Jsequence_KJones'
p686
asg29
(lp687
g63
aS'@@@Jsequence'
p688
asg155
(lp689
F1.0
aS'@@c00_default'
p690
asg26
(lp691
I00
aS'@@uvplane_effect'
p692
asg25
(lp693
(lp694
I0
aI1
aI2
aI3
aI4
aa(lp695
I0
aI1
aI2
aI3
aI4
aI5
aI6
aa(lp696
I0
aI1
aI2
aI3
aI4
aI5
aI6
aI7
aI8
aI9
aI10
aI11
aI12
aI13
aa(lp697
I0
aI1
aI2
aI3
aI4
aI5
aI6
aI7
aI8
aI9
aI10
aI11
aI12
aI13
aI14
aag47
aS'@@stations'
p698
asg223
(lp699
I01
aI00
aS'@@use_previous'
p700
asg156
(lp701
NaS'@@subtile_size'
p702
asg157
(lp703
NaS'@@tfdeg'
p704
asg28
(lp705
g63
aS'@@@Jsequence_simul'
p706
asS'fdeg_Edl'
p707
(lp708
I0
aI1
aI2
aI3
aS'@@fdeg_Edl'
p709
asS'fdeg_Edm'
p710
(lp711
I0
aI1
aI2
aI3
aS'@fdeg_Edl'
p712
aS'@@fdeg_Edm'
p713
assg80
g81
sg82
I00
sg83
S'2006-03-31 16:56'
p714
sg85
g533
sg87
S'MG_JEN_Joneset'
p715
sg237
(dp716
g132
I00
sg223
I00
sg180
I00
sg137
I00
ssg89
S'** Specific description of inarg record for: MG_JEN_Joneset::EJones_WSRT()  version=15dec2005  defined=2006-03-31 16:56'
p717
sg110
(dp718
g26
I00
sg12
I00
sg2
I00
sg25
I00
ssg109
g714
sg112
(lp719
g18
ag25
ag2
ag29
ag28
ag27
ag12
ag26
ag641
ag642
ag707
ag710
ag644
ag645
ag223
ag180
ag137
ag132
ag147
ag141
ag135
ag143
ag142
ag155
ag157
ag151
ag156
ag149
asg121
(dp720
g132
g243
sg2
g123
sg135
g245
sg137
g246
sg12
g127
sg180
g249
sg142
g250
sg641
S'degree of time polynomial'
p721
sg642
g721
sg143
g251
sg147
g252
sg644
S'sub-tile size (None=entire tile)'
p722
sg149
g253
sg151
g254
sg645
g722
sg141
g141
sg27
g128
sg29
g128
sg155
g256
sg26
g126
sg25
g124
sg223
g258
sg156
g259
sg157
g260
sg28
g128
sg707
S'degree of freq polynomial'
p723
sg710
g723
sssg27
g63
sg29
g63
sg155
F1.0
sg26
g692
sg25
g698
sg223
I01
sg156
Nsg157
Nsg28
g63
sg707
I0
sg710
g712
ssg29
NssS'LSM_solve'
p724
S'lsm_current.lsm'
p725
sS'[simul_uvp]./MG_JEN_Cohset.Jones()'
p726
(dp727
S'[simul_uvp]./MG_JEN_Joneset.JJones()'
p728
(dp729
S'unop'
p730
S'Cos'
p731
sg220
I00
sg2
S'@@polrep'
p732
sg135
S'yellow'
p733
sS'stddev_period'
p734
F0.10000000000000001
sg138
NsS'fdeg'
p735
I0
sg141
Nsg142
I5
sg143
S'triangle'
p736
sg147
S'<descr>'
p737
sS'mean_tampl'
p738
F0.20000000000000001
sg18
(dp739
g20
S'MG_JEN_Joneset::JJones()'
p740
sg22
g728
sg23
(dp741
g730
I00
sg143
I01
sg2
I01
sg147
I01
sg155
I01
sg25
I01
sg135
I01
sS'timescale_min'
p742
I01
sg735
I01
sg27
I01
sS'c00_scale'
p743
I01
sg28
I01
sg29
I01
sg141
I01
sg142
I01
ssg30
S'MG_JEN_JonesetJJones'
p744
sg32
g33
sg129
g159
sg34
S'MG_JEN_Joneset::JJones()  version=14feb2006  defined=2006-03-31 16:56'
p745
sg36
S'JJones'
p746
sg38
(dp747
g730
(lp748
g731
aS'Sin'
p749
a(lp750
g731
ag749
aaNaS'@@unop'
p751
asg27
(lp752
g66
aS'@@@Jsequence_KJones'
p753
asg143
(lp754
g736
aS'@@style'
p755
asg220
(lp756
I01
aI00
aS'@@diagonal_only'
p757
asg2
(lp758
g3
ag41
ag732
asg155
(lp759
F1.0
aS'@@c00_default'
p760
asg147
(lp761
g737
aS'@@descr'
p762
asg25
(lp763
(lp764
I0
aI1
aI2
aI3
aI4
aa(lp765
I0
aI1
aI2
aI3
aI4
aI5
aI6
aa(lp766
I0
aI1
aI2
aI3
aI4
aI5
aI6
aI7
aI8
aI9
aI10
aI11
aI12
aI13
aa(lp767
I0
aI1
aI2
aI3
aI4
aI5
aI6
aI7
aI8
aI9
aI10
aI11
aI12
aI13
aI14
aag47
aS'@@stations'
p768
asg135
(lp769
g733
aS'@@color'
p770
asg734
(lp771
I0
aF0.01
aF0.10000000000000001
aF0.20000000000000001
aF0.5
aS'@@stddev_period'
p772
asg742
(lp773
I20
aS'@@timescale_min'
p774
asg138
(lp775
Na(lp776
I14
aa(lp777
I1
aag175
aS'@@all4_always'
p778
asS'mean_period'
p779
(lp780
F0.29999999999999999
aF0.5
aI1
aI2
aI3
aS'@@mean_period'
p781
asS'stddev_c00'
p782
(lp783
I0
aF0.0001
aF0.001
aF0.01
aF0.10000000000000001
aI1
aS'@@stddev_c00'
p784
asg735
(lp785
I0
aS'@@fdeg'
p786
asS'mean_c00'
p787
(lp788
I0
aF0.10000000000000001
aF0.20000000000000001
aF0.5
aF-0.10000000000000001
aS'@@mean_c00'
p789
asg743
(lp790
F1.0
aS'@@c00_scale'
p791
asg28
(lp792
g66
aS'@@@Jsequence_simul'
p793
asg29
(lp794
g66
aS'@@@Jsequence'
p795
asg141
(lp796
NaS'@@unit'
p797
asg142
(lp798
I5
aS'@@size'
p799
assg80
S'simul_uvp'
p800
sg82
I00
sg83
S'2006-03-31 16:56'
p801
sg85
g235
sg87
S'MG_JEN_Joneset'
p802
sg237
(dp803
g220
I00
ssg89
S'** Specific description of inarg record for: MG_JEN_Joneset::JJones()  version=14feb2006  defined=2006-03-31 16:56'
p804
sg110
(dp805
g2
I00
sg25
I00
ssg109
g801
sg112
(lp806
g18
ag25
ag2
ag29
ag28
ag27
ag220
ag138
ag787
ag782
ag779
ag734
ag730
ag742
ag735
ag135
ag143
ag142
ag155
ag743
ag147
ag141
asg121
(dp807
g730
S'time-variability function'
p808
sg27
g128
sg143
g251
sg220
g257
sg2
g123
sg155
S'default value of c00'
p809
sg147
S'brief description'
p810
sg25
g124
sg135
g245
sg734
S'scatter in period T (fraction of timescale_min)'
p811
sg742
S'group timescale in minutes'
p812
sg138
g247
sg779
S'mean time-period T (fraction of timescale_min)'
p813
sg782
S'scatter in EXTRA c00 (fraction of c00_scale'
p814
sg735
S'degree of freq polynomial'
p815
sg787
S'mean of EXTRA c00 (fraction of c00_scale)'
p816
sg743
S'scale of c00'
p817
sg28
g128
sg29
g128
sg141
g141
sg142
S'size of plotted symbol'
p818
sssg27
g66
sg29
g66
sS'stddev_period_s'
p819
I50
sg155
F1.0
sS'mean_period_s'
p820
I500
sg787
F0.10000000000000001
sg25
g768
sg742
I20
sg779
F1.0
sg782
F0.01
sg743
F1.0
sg28
g66
sS'stddev_tampl'
p821
F0.02
ssg2
S'@@polrep'
p822
sS'[simul_uvp]./MG_JEN_Joneset.KJones()'
p823
(dp824
g2
S'@@polrep'
p825
sg25
S'@@stations'
p826
sg18
(dp827
g20
S'MG_JEN_Joneset::KJones()'
p828
sg22
g823
sg23
(dp829
g27
I01
sg28
I01
sg25
I01
sg2
I01
sg29
I01
ssg30
S'MG_JEN_JonesetKJones'
p830
sg32
g33
sg129
g268
sg34
S'MG_JEN_Joneset::KJones()  version=12dec2005  defined=2006-03-31 16:56'
p831
sg36
S'KJones'
p832
sg38
(dp833
g27
(lp834
g58
aS'@@@Jsequence_KJones'
p835
asg28
(lp836
g58
aS'@@@Jsequence_simul'
p837
asg25
(lp838
(lp839
I0
aI1
aI2
aI3
aI4
aa(lp840
I0
aI1
aI2
aI3
aI4
aI5
aI6
aa(lp841
I0
aI1
aI2
aI3
aI4
aI5
aI6
aI7
aI8
aI9
aI10
aI11
aI12
aI13
aa(lp842
I0
aI1
aI2
aI3
aI4
aI5
aI6
aI7
aI8
aI9
aI10
aI11
aI12
aI13
aI14
aag47
ag826
asg2
(lp843
g3
ag41
ag825
asg29
(lp844
g58
aS'@@@Jsequence'
p845
assg80
g800
sg82
I00
sg83
S'2006-03-31 16:56'
p846
sg85
g285
sg87
S'MG_JEN_Joneset'
p847
sg89
S'** Specific description of inarg record for: MG_JEN_Joneset::KJones()  version=12dec2005  defined=2006-03-31 16:56'
p848
sg110
(dp849
g2
I00
sg25
I00
ssg109
g846
sg112
(lp850
g18
ag25
ag2
ag29
ag28
ag27
asg121
(dp851
g27
g128
sg28
g128
sg25
g124
sg2
g123
sg29
g128
sssg27
g58
sg28
g58
sg29
g58
ssS'[simul_uvp]./MG_JEN_Joneset.BJones()'
p852
(dp853
g730
g731
sg2
S'@@polrep'
p854
sg135
g733
sg734
F0.10000000000000001
sg735
I0
sg141
Nsg142
I5
sg143
g736
sg147
g737
sg738
F0.20000000000000001
sg18
(dp855
g20
S'MG_JEN_Joneset::BJones()'
p856
sg22
g852
sg23
(dp857
g730
I00
sg143
I01
sg2
I01
sg147
I01
sg155
I01
sg25
I01
sg135
I01
sg742
I01
sg735
I01
sg27
I01
sg743
I01
sg28
I01
sg29
I01
sg141
I01
sg142
I01
ssg30
S'MG_JEN_JonesetBJones'
p858
sg32
g33
sg129
g302
sg34
S'MG_JEN_Joneset::BJones()  version=16dec2005  defined=2006-03-31 16:56'
p859
sg36
S'BJones'
p860
sg38
(dp861
g730
(lp862
g731
ag749
a(lp863
g731
ag749
aaNaS'@@unop'
p864
asg143
(lp865
g736
aS'@@style'
p866
asg2
(lp867
g3
ag41
ag854
asg147
(lp868
g737
aS'@@descr'
p869
asg155
(lp870
F1.0
aS'@@c00_default'
p871
asg25
(lp872
(lp873
I0
aI1
aI2
aI3
aI4
aa(lp874
I0
aI1
aI2
aI3
aI4
aI5
aI6
aa(lp875
I0
aI1
aI2
aI3
aI4
aI5
aI6
aI7
aI8
aI9
aI10
aI11
aI12
aI13
aa(lp876
I0
aI1
aI2
aI3
aI4
aI5
aI6
aI7
aI8
aI9
aI10
aI11
aI12
aI13
aI14
aag47
aS'@@stations'
p877
asg135
(lp878
g733
aS'@@color'
p879
asg734
(lp880
I0
aF0.01
aF0.10000000000000001
aF0.20000000000000001
aF0.5
aS'@@stddev_period'
p881
asg787
(lp882
I0
aF0.10000000000000001
aF0.20000000000000001
aF0.5
aF-0.10000000000000001
aS'@@mean_c00'
p883
asg742
(lp884
I20
aS'@@timescale_min'
p885
asg779
(lp886
F0.29999999999999999
aF0.5
aI1
aI2
aI3
aS'@@mean_period'
p887
asg782
(lp888
I0
aF0.0001
aF0.001
aF0.01
aF0.10000000000000001
aI1
aS'@@stddev_c00'
p889
asg735
(lp890
I0
aS'@@fdeg'
p891
asg27
(lp892
g54
aS'@@@Jsequence_KJones'
p893
asg743
(lp894
F1.0
aS'@@c00_scale'
p895
asg28
(lp896
g54
aS'@@@Jsequence_simul'
p897
asg29
(lp898
g54
aS'@@@Jsequence'
p899
asg141
(lp900
NaS'@@unit'
p901
asg142
(lp902
I5
aS'@@size'
p903
assg80
g800
sg82
I00
sg83
S'2006-03-31 16:56'
p904
sg85
g369
sg87
S'MG_JEN_Joneset'
p905
sg89
S'** Specific description of inarg record for: MG_JEN_Joneset::BJones()  version=16dec2005  defined=2006-03-31 16:56'
p906
sg110
(dp907
g2
I00
sg25
I00
ssg109
g904
sg112
(lp908
g18
ag25
ag2
ag29
ag28
ag27
ag787
ag782
ag779
ag734
ag730
ag742
ag735
ag135
ag143
ag142
ag155
ag743
ag147
ag141
asg121
(dp909
g730
g808
sg143
g251
sg2
g123
sg147
g810
sg155
g809
sg25
g124
sg135
g245
sg734
g811
sg787
g816
sg742
g812
sg779
g813
sg782
g814
sg735
g815
sg27
g128
sg743
g817
sg28
g128
sg29
g128
sg141
g141
sg142
g818
sssg27
g54
sg29
g54
sg819
I100
sg155
F1.0
sg820
I5000
sg787
F0.10000000000000001
sg25
g877
sg742
I20
sg779
F1.0
sg782
F0.01
sg743
F1.0
sg28
g54
sg821
F0.02
ssg25
S'@@stations'
p910
sS'[simul_uvp]./MG_JEN_Joneset.EJones_WSRT()'
p911
(dp912
g730
g731
sg27
g63
sg143
g736
sg2
S'@@polrep'
p913
sg147
g737
sg155
F1.0
sg25
S'@@stations'
p914
sg135
g733
sg734
F0.10000000000000001
sg742
I20
sg779
F1.0
sg782
F0.01
sg18
(dp915
g20
S'MG_JEN_Joneset::EJones_WSRT()'
p916
sg22
g911
sg23
(dp917
g730
I00
sg143
I01
sg2
I01
sg147
I01
sg155
I01
sg25
I01
sg135
I01
sg742
I01
sg735
I01
sg27
I01
sg743
I01
sg28
I01
sg29
I01
sg141
I01
sg142
I01
ssg30
S'MG_JEN_JonesetEJones_WSRT'
p918
sg32
g33
sg129
g651
sg34
S'MG_JEN_Joneset::EJones_WSRT()  version=15dec2005  defined=2006-03-31 16:56'
p919
sg36
S'EJones_WSRT'
p920
sg38
(dp921
g730
(lp922
g731
ag749
a(lp923
g731
ag749
aaNaS'@@unop'
p924
asg143
(lp925
g736
aS'@@style'
p926
asg2
(lp927
g3
ag41
ag913
asg147
(lp928
g737
aS'@@descr'
p929
asg155
(lp930
F1.0
aS'@@c00_default'
p931
asg25
(lp932
(lp933
I0
aI1
aI2
aI3
aI4
aa(lp934
I0
aI1
aI2
aI3
aI4
aI5
aI6
aa(lp935
I0
aI1
aI2
aI3
aI4
aI5
aI6
aI7
aI8
aI9
aI10
aI11
aI12
aI13
aa(lp936
I0
aI1
aI2
aI3
aI4
aI5
aI6
aI7
aI8
aI9
aI10
aI11
aI12
aI13
aI14
aag47
ag914
asg135
(lp937
g733
aS'@@color'
p938
asg734
(lp939
I0
aF0.01
aF0.10000000000000001
aF0.20000000000000001
aF0.5
aS'@@stddev_period'
p940
asg787
(lp941
I0
aF0.10000000000000001
aF0.20000000000000001
aF0.5
aF-0.10000000000000001
aS'@@mean_c00'
p942
asg742
(lp943
I20
aS'@@timescale_min'
p944
asg779
(lp945
F0.29999999999999999
aF0.5
aI1
aI2
aI3
aS'@@mean_period'
p946
asg782
(lp947
I0
aF0.0001
aF0.001
aF0.01
aF0.10000000000000001
aI1
aS'@@stddev_c00'
p948
asg735
(lp949
I0
aS'@@fdeg'
p950
asg27
(lp951
g63
aS'@@@Jsequence_KJones'
p952
asg743
(lp953
F1.0
aS'@@c00_scale'
p954
asg28
(lp955
g63
aS'@@@Jsequence_simul'
p956
asg29
(lp957
g63
aS'@@@Jsequence'
p958
asg141
(lp959
NaS'@@unit'
p960
asg142
(lp961
I5
aS'@@size'
p962
assg80
g800
sg82
I00
sg83
S'2006-03-31 16:56'
p963
sg85
g533
sg87
S'MG_JEN_Joneset'
p964
sg89
S'** Specific description of inarg record for: MG_JEN_Joneset::EJones_WSRT()  version=15dec2005  defined=2006-03-31 16:56'
p965
sg110
(dp966
g2
I00
sg25
I00
ssg109
g963
sg112
(lp967
g18
ag25
ag2
ag29
ag28
ag27
ag787
ag782
ag779
ag734
ag730
ag742
ag735
ag135
ag143
ag142
ag155
ag743
ag147
ag141
asg121
(dp968
g730
g808
sg143
g251
sg2
g123
sg147
g810
sg155
g809
sg25
g124
sg135
g245
sg734
g811
sg787
g816
sg742
g812
sg779
g813
sg782
g814
sg735
g815
sg27
g128
sg743
g817
sg28
g128
sg29
g128
sg141
g141
sg142
g818
sssg735
I0
sg743
F1.0
sg787
F0.10000000000000001
sg28
g63
sg29
g63
sg141
Nsg142
I5
ssg12
S'@@parmtable'
p969
sS'[simul_uvp]./MG_JEN_Joneset.DJones_WSRT()'
p970
(dp971
g730
g731
sg2
S'@@polrep'
p972
sg135
g733
sg734
F0.10000000000000001
sg548
I01
sg735
I0
sg141
Nsg142
I5
sg143
g736
sg147
g737
sg738
F0.002
sg18
(dp973
g20
S'MG_JEN_Joneset::DJones_WSRT()'
p974
sg22
g970
sg23
(dp975
g730
I00
sg143
I01
sg2
I01
sg147
I01
sg155
I01
sg25
I01
sg135
I01
sg742
I01
sg735
I01
sg27
I01
sg743
I01
sg28
I01
sg29
I01
sg141
I01
sg142
I01
ssg30
S'MG_JEN_JonesetDJones_WSRT'
p976
sg32
g33
sg129
g555
sg34
S'MG_JEN_Joneset::DJones_WSRT()  version=16dec2005  defined=2006-03-31 16:56'
p977
sg36
S'DJones_WSRT'
p978
sg38
(dp979
g730
(lp980
g731
ag749
a(lp981
g731
ag749
aaNaS'@@unop'
p982
asg27
(lp983
g60
aS'@@@Jsequence_KJones'
p984
asg143
(lp985
g736
aS'@@style'
p986
asg548
(lp987
I01
aI00
aS'@@coupled_XY_Dell'
p988
asg2
(lp989
g3
ag41
ag972
asg155
(lp990
F1.0
aS'@@c00_default'
p991
asg147
(lp992
g737
aS'@@descr'
p993
asg25
(lp994
(lp995
I0
aI1
aI2
aI3
aI4
aa(lp996
I0
aI1
aI2
aI3
aI4
aI5
aI6
aa(lp997
I0
aI1
aI2
aI3
aI4
aI5
aI6
aI7
aI8
aI9
aI10
aI11
aI12
aI13
aa(lp998
I0
aI1
aI2
aI3
aI4
aI5
aI6
aI7
aI8
aI9
aI10
aI11
aI12
aI13
aI14
aag47
aS'@@stations'
p999
asg135
(lp1000
g733
aS'@@color'
p1001
asg734
(lp1002
I0
aF0.01
aF0.10000000000000001
aF0.20000000000000001
aF0.5
aS'@@stddev_period'
p1003
asg742
(lp1004
I20
aS'@@timescale_min'
p1005
asg779
(lp1006
F0.29999999999999999
aF0.5
aI1
aI2
aI3
aS'@@mean_period'
p1007
asg782
(lp1008
I0
aF0.0001
aF0.001
aF0.01
aF0.10000000000000001
aI1
aS'@@stddev_c00'
p1009
asg735
(lp1010
I0
aS'@@fdeg'
p1011
asg787
(lp1012
I0
aF0.10000000000000001
aF0.20000000000000001
aF0.5
aF-0.10000000000000001
aS'@@mean_c00'
p1013
asg743
(lp1014
F1.0
aS'@@c00_scale'
p1015
asg28
(lp1016
g60
aS'@@@Jsequence_simul'
p1017
asg29
(lp1018
g60
aS'@@@Jsequence'
p1019
asg606
(lp1020
I01
aI00
aS'@@coupled_XY_Dang'
p1021
asg141
(lp1022
NaS'@@unit'
p1023
asg142
(lp1024
I5
aS'@@size'
p1025
assg80
g800
sg82
I00
sg83
S'2006-03-31 16:56'
p1026
sg85
g369
sg87
S'MG_JEN_Joneset'
p1027
sg237
(dp1028
g606
I00
sg548
I00
ssg89
S'** Specific description of inarg record for: MG_JEN_Joneset::DJones_WSRT()  version=16dec2005  defined=2006-03-31 16:56'
p1029
sg110
(dp1030
g2
I00
sg25
I00
ssg109
g1026
sg112
(lp1031
g18
ag25
ag2
ag29
ag28
ag27
ag606
ag548
ag787
ag782
ag779
ag734
ag730
ag742
ag735
ag135
ag143
ag142
ag155
ag743
ag147
ag141
asg121
(dp1032
g730
g808
sg27
g128
sg143
g251
sg548
g634
sg2
g123
sg155
g809
sg147
g810
sg25
g124
sg135
g245
sg734
g811
sg742
g812
sg779
g813
sg782
g814
sg735
g815
sg787
g816
sg743
g817
sg28
g128
sg29
g128
sg606
g637
sg141
g141
sg142
g818
sssg27
g60
sg29
g60
sg819
I100
sg155
F1.0
sg820
I3000
sg787
F0.10000000000000001
sg606
I01
sg25
g999
sg742
I20
sg779
F1.0
sg782
F0.01
sg743
F1.0
sg28
g60
sg821
F0.00020000000000000001
ssg18
(dp1033
g20
g21
sg22
g726
sg23
(dp1034
g2
I01
sg25
I01
sg26
I01
sg12
I01
sg27
I01
sg28
I01
sg29
I01
ssg30
S'MG_JEN_CohsetJones'
p1035
sg32
g33
sg34
S'MG_JEN_Cohset::Jones()  version=25dec2005  defined=2006-03-31 16:56'
p1036
sg36
S'Jones'
p1037
sg38
(dp1038
g2
(lp1039
g3
ag41
ag822
asg25
(lp1040
(lp1041
I0
aI1
aI2
aI3
aI4
aa(lp1042
I0
aI1
aI2
aI3
aI4
aI5
aI6
aa(lp1043
I0
aI1
aI2
aI3
aI4
aI5
aI6
aI7
aI8
aI9
aI10
aI11
aI12
aI13
aa(lp1044
I0
aI1
aI2
aI3
aI4
aI5
aI6
aI7
aI8
aI9
aI10
aI11
aI12
aI13
aI14
aag47
ag910
asg26
(lp1045
I00
aS'@@uvplane_effect'
p1046
asg12
(lp1047
Nag72
ag969
asg27
(lp1048
NaS'@@@Jsequence_KJones'
p1049
asg28
(lp1050
NaS'@@@Jsequence_simul'
p1051
asS'Jsequence_simul_uvp'
p1052
(lp1053
(lp1054
g52
aa(lp1055
g54
aa(lp1056
g56
aa(lp1057
g58
aa(lp1058
g60
aa(lp1059
g52
ag60
aa(lp1060
g63
aa(lp1061
g52
ag63
aa(lp1062
g66
aa(lp1063
aS'@@Jsequence_simul_uvp'
p1064
asg29
(lp1065
NaS'@@@Jsequence'
p1066
assg80
g800
sg82
I00
sg83
S'2006-03-31 16:56'
p1067
sg85
g86
sg87
S'MG_JEN_Cohset'
p1068
sg89
S'** Specific description of inarg record for: MG_JEN_Cohset::Jones()  version=25dec2005  defined=2006-03-31 16:56'
p1069
sg91
(dp1070
g93
S'** JEN_inarg.attach(): attached: [simul_uvp]./MG_JEN_Joneset.FJones()'
p1071
sg95
S'** JEN_inarg.attach(): attached: [simul_uvp]./MG_JEN_Joneset.GJones()'
p1072
sg97
S'** JEN_inarg.attach(): attached: [simul_uvp]./MG_JEN_Joneset.KJones()'
p1073
sg99
S'** JEN_inarg.attach(): attached: [simul_uvp]./MG_JEN_Joneset.BJones()'
p1074
sg101
S'** JEN_inarg.attach(): attached: [simul_uvp]./MG_JEN_Joneset.EJones_WSRT()'
p1075
sg103
S'** JEN_inarg.attach(): attached: [simul_uvp]./MG_JEN_Joneset.DJones_WSRT()'
p1076
sg105
S"  1: ..[simul_uvp]./MG_JEN_Cohset.Jones() (qual=None): .modify(Jsequence_simul_uvp):   []  ->  ['DJones_WSRT']"
p1077
sg107
S'** JEN_inarg.attach(): attached: [simul_uvp]./MG_JEN_Joneset.JJones()'
p1078
ssg109
g1067
sg110
(dp1079
g26
I00
sg12
I00
sg2
I00
sg25
I00
ssg112
(lp1080
g18
ag25
ag2
ag29
ag28
ag27
ag12
ag26
ag1052
aS'[simul_uvp]./MG_JEN_Joneset.GJones()'
p1081
aS'[simul_uvp]./MG_JEN_Joneset.FJones()'
p1082
ag852
ag823
ag970
ag911
ag728
asg121
(dp1083
g2
g123
sg25
g124
sg26
g126
sg12
g127
sg27
g128
sg28
g128
sg1052
g125
sg29
g128
ssg129
g130
ssg27
Nsg28
Nsg1052
(lp1084
g60
asg26
g1046
sg1081
(dp1085
g730
g731
sg143
g736
sg2
S'@@polrep'
p1086
sg155
F1.0
sg147
g737
sg25
S'@@stations'
p1087
sg135
g733
sg734
F0.10000000000000001
sg742
I20
sg743
F1.0
sg29
g52
sg779
F1.0
sg782
F0.01
sg18
(dp1088
g20
S'MG_JEN_Joneset::GJones()'
p1089
sg22
g1081
sg23
(dp1090
g730
I00
sg143
I01
sg2
I01
sg147
I01
sg155
I01
sg25
I01
sg135
I01
sg742
I01
sg29
I01
sg735
I01
sg27
I01
sg743
I01
sg28
I01
sg461
I01
sg141
I01
sg142
I01
ssg30
S'MG_JEN_JonesetGJones'
p1091
sg32
g33
sg129
g463
sg34
S'MG_JEN_Joneset::GJones()  version=15dec2005  defined=2006-03-31 16:56'
p1092
sg36
S'GJones'
p1093
sg38
(dp1094
g730
(lp1095
g731
ag749
a(lp1096
g731
ag749
aaNaS'@@unop'
p1097
asg27
(lp1098
g52
aS'@@@Jsequence_KJones'
p1099
asg143
(lp1100
g736
aS'@@style'
p1101
asg2
(lp1102
g3
ag41
ag1086
asg147
(lp1103
g737
aS'@@descr'
p1104
asg155
(lp1105
F1.0
aS'@@c00_default'
p1106
asg25
(lp1107
(lp1108
I0
aI1
aI2
aI3
aI4
aa(lp1109
I0
aI1
aI2
aI3
aI4
aI5
aI6
aa(lp1110
I0
aI1
aI2
aI3
aI4
aI5
aI6
aI7
aI8
aI9
aI10
aI11
aI12
aI13
aa(lp1111
I0
aI1
aI2
aI3
aI4
aI5
aI6
aI7
aI8
aI9
aI10
aI11
aI12
aI13
aI14
aag47
ag1087
asg135
(lp1112
g733
aS'@@color'
p1113
asg734
(lp1114
I0
aF0.01
aF0.10000000000000001
aF0.20000000000000001
aF0.5
aS'@@stddev_period'
p1115
asg742
(lp1116
I20
aS'@@timescale_min'
p1117
asg29
(lp1118
g52
aS'@@@Jsequence'
p1119
asg779
(lp1120
F0.29999999999999999
aF0.5
aI1
aI2
aI3
aS'@@mean_period'
p1121
asg782
(lp1122
I0
aF0.0001
aF0.001
aF0.01
aF0.10000000000000001
aI1
aS'@@stddev_c00'
p1123
asg735
(lp1124
I0
aS'@@fdeg'
p1125
asg787
(lp1126
I0
aF0.10000000000000001
aF0.20000000000000001
aF0.5
aF-0.10000000000000001
aS'@@mean_c00'
p1127
asg743
(lp1128
F1.0
aS'@@c00_scale'
p1129
asg28
(lp1130
g52
aS'@@@Jsequence_simul'
p1131
asg461
(lp1132
I01
aI00
aS'@@Gpolar'
p1133
asg141
(lp1134
NaS'@@unit'
p1135
asg142
(lp1136
I5
aS'@@size'
p1137
assg80
g800
sg82
I00
sg83
S'2006-03-31 16:56'
p1138
sg85
g533
sg87
S'MG_JEN_Joneset'
p1139
sg237
(dp1140
g461
I00
ssg89
S'** Specific description of inarg record for: MG_JEN_Joneset::GJones()  version=15dec2005  defined=2006-03-31 16:56'
p1141
sg110
(dp1142
g2
I00
sg25
I00
ssg109
g1138
sg112
(lp1143
g18
ag25
ag2
ag29
ag28
ag27
ag461
ag787
ag782
ag779
ag734
ag730
ag742
ag735
ag135
ag143
ag142
ag155
ag743
ag147
ag141
asg121
(dp1144
g730
g808
sg27
g128
sg143
g251
sg2
g123
sg147
g810
sg155
g809
sg25
g124
sg135
g245
sg734
g811
sg742
g812
sg29
g128
sg779
g813
sg782
g814
sg735
g815
sg787
g816
sg743
g817
sg28
g128
sg461
g543
sg141
g141
sg142
g818
sssg735
I0
sg787
F0.10000000000000001
sg27
g52
sg28
g52
sg461
I01
sg141
Nsg142
I5
ssg1082
(dp1145
g730
g731
sg2
S'@@polrep'
p1146
sg135
g733
sg734
F0.10000000000000001
sg735
I0
sg141
Nsg142
I5
sg143
g736
sg147
g737
sg738
F0.20000000000000001
sg18
(dp1147
g20
S'MG_JEN_Joneset::FJones()'
p1148
sg22
g1082
sg23
(dp1149
g730
I00
sg143
I01
sg2
I01
sg147
I01
sg155
I01
sg25
I01
sg135
I01
sg742
I01
sg735
I01
sg27
I01
sg743
I01
sg28
I01
sg29
I01
sg141
I01
sg142
I01
ssg30
S'MG_JEN_JonesetFJones'
p1150
sg32
g33
sg129
g386
sg34
S'MG_JEN_Joneset::FJones()  version=16dec2005  defined=2006-03-31 16:56'
p1151
sg36
S'FJones'
p1152
sg38
(dp1153
g730
(lp1154
g731
ag749
a(lp1155
g731
ag749
aaNaS'@@unop'
p1156
asg143
(lp1157
g736
aS'@@style'
p1158
asg2
(lp1159
g3
ag41
ag1146
asg147
(lp1160
g737
aS'@@descr'
p1161
asg155
(lp1162
F1.0
aS'@@c00_default'
p1163
asg25
(lp1164
(lp1165
I0
aI1
aI2
aI3
aI4
aa(lp1166
I0
aI1
aI2
aI3
aI4
aI5
aI6
aa(lp1167
I0
aI1
aI2
aI3
aI4
aI5
aI6
aI7
aI8
aI9
aI10
aI11
aI12
aI13
aa(lp1168
I0
aI1
aI2
aI3
aI4
aI5
aI6
aI7
aI8
aI9
aI10
aI11
aI12
aI13
aI14
aag47
aS'@@stations'
p1169
asg135
(lp1170
g733
aS'@@color'
p1171
asg734
(lp1172
I0
aF0.01
aF0.10000000000000001
aF0.20000000000000001
aF0.5
aS'@@stddev_period'
p1173
asg787
(lp1174
I0
aF0.10000000000000001
aF0.20000000000000001
aF0.5
aF-0.10000000000000001
aS'@@mean_c00'
p1175
asg742
(lp1176
I20
aS'@@timescale_min'
p1177
asg779
(lp1178
F0.29999999999999999
aF0.5
aI1
aI2
aI3
aS'@@mean_period'
p1179
asg782
(lp1180
I0
aF0.0001
aF0.001
aF0.01
aF0.10000000000000001
aI1
aS'@@stddev_c00'
p1181
asg735
(lp1182
I0
aS'@@fdeg'
p1183
asg27
(lp1184
g56
aS'@@@Jsequence_KJones'
p1185
asg743
(lp1186
F1.0
aS'@@c00_scale'
p1187
asg28
(lp1188
g56
aS'@@@Jsequence_simul'
p1189
asg29
(lp1190
g56
aS'@@@Jsequence'
p1191
asg141
(lp1192
NaS'@@unit'
p1193
asg142
(lp1194
I5
aS'@@size'
p1195
assg80
g800
sg82
I00
sg83
S'2006-03-31 16:56'
p1196
sg85
g369
sg87
S'MG_JEN_Joneset'
p1197
sg89
S'** Specific description of inarg record for: MG_JEN_Joneset::FJones()  version=16dec2005  defined=2006-03-31 16:56'
p1198
sg110
(dp1199
g2
I00
sg25
I00
ssg109
g1196
sg112
(lp1200
g18
ag25
ag2
ag29
ag28
ag27
ag787
ag782
ag779
ag734
ag730
ag742
ag735
ag135
ag143
ag142
ag155
ag743
ag147
ag141
asg121
(dp1201
g730
g808
sg143
g251
sg2
g123
sg147
g810
sg155
g809
sg25
g124
sg135
g245
sg734
g811
sg787
g816
sg742
g812
sg779
g813
sg782
g814
sg735
g815
sg27
g128
sg743
g817
sg28
g128
sg29
g128
sg141
g141
sg142
g818
sssg27
g56
sg29
g56
sg819
I50
sg155
F1.0
sg820
I500
sg787
F0.10000000000000001
sg25
g1169
sg742
I20
sg779
F1.0
sg782
F0.01
sg743
F1.0
sg28
g56
sg821
F0.02
ssg29
NssS'[solve]./MG_JEN_Sixpack.newstar_source()'
p1202
(dp1203
S'f0'
p1204
F1000000.0
sg132
I00
sS'major'
p1205
F0.0
sS'unsolvable'
p1206
I00
sg135
g136
sg137
I00
sS'shape'
p1207
S'point'
p1208
sg12
g13
sS'Upct'
p1209
I-10
sg141
Nsg142
I10
sg143
g144
sg147
g148
sS'I0'
p1210
F1.0
sg156
Nsg149
g150
sS'Vpct'
p1211
Nsg151
NsS'pa'
p1212
F0.0
sg18
(dp1213
g20
S'MG_JEN_Sixpack::newstar_source()'
p1214
sg22
g1202
sg109
S'2006-03-31 16:56'
p1215
sg23
(dp1216
g1204
I01
sg1205
I01
sg1206
I01
sS'name'
p1217
I01
sg147
I01
sg151
I01
sg135
I01
sg155
I01
sg1207
I01
sS'fsr_trace'
p1218
I01
sS'punit'
p1219
I00
sg156
I01
sg1212
I01
sg149
I01
sg157
I01
sg141
I01
sg143
I01
sS'minor'
p1220
I01
sg142
I01
ssg30
S'MG_JEN_Sixpacknewstar_source'
p1221
sg80
S'solve'
p1222
sg32
g33
sg34
S'MG_JEN_Sixpack::newstar_source()  version=10feb2006  defined=2006-03-31 16:56'
p1223
sg36
S'newstar_source'
p1224
sg38
(dp1225
g1204
(lp1226
F1000000.0
aS'@@f0'
p1227
asg132
(lp1228
I01
aI00
aS'@@reset_funklet'
p1229
asg1205
(lp1230
F0.0
aF1.0
aF10.0
aF100.0
aS'@@major'
p1231
asg1206
(lp1232
I01
aI00
aS'@@unsolvable'
p1233
asg135
(lp1234
g136
aS'@@color'
p1235
asg137
(lp1236
I01
aI00
aS'@@save_all'
p1237
asg1207
(lp1238
g1208
aS'ell.gauss'
p1239
aS'@@shape'
p1240
asg12
(lp1241
NaS'@@parmtable'
p1242
asg1209
(lp1243
NaF-0.10000000000000001
aF0.050000000000000003
aF-0.01
aS'@@Upct'
p1244
asg141
(lp1245
NaS'@@unit'
p1246
asg142
(lp1247
I10
aS'@@size'
p1248
asg143
(lp1249
g144
aS'@@style'
p1250
asg147
(lp1251
g148
aS'@@descr'
p1252
asg1210
(lp1253
F1.0
aF10.0
aS'@@I0'
p1254
asg156
(lp1255
NaS'@@subtile_size'
p1256
asg149
(lp1257
g150
aS'@@condeq_corrs'
p1258
asg1211
(lp1259
NaF0.01
aF-0.0050000000000000001
aF0.001
aS'@@Vpct'
p1260
asg151
(lp1261
NaS'@@funklet_shape'
p1262
asg1212
(lp1263
F0.0
aF1.0
aF-0.5
aS'@@pa'
p1264
asS'RA'
p1265
(lp1266
F0.0
aF0.5
aF1.0
aF1.4950000000000001
aF4.3570000000000002
aS'@@RA'
p1267
asS'RM'
p1268
(lp1269
NaF1.0
aF3.0
aF10.0
aF-10.0
aF60.0
aS'@@RM'
p1270
asg1220
(lp1271
F0.0
aF0.5
aF5.0
aF50.0
aS'@@minor'
p1272
asg155
(lp1273
F1.0
aS'@@c00_default'
p1274
asS'Qpct'
p1275
(lp1276
NaF0.10000000000000001
aF-0.050000000000000003
aF0.01
aS'@@Qpct'
p1277
asg1219
(lp1278
S'unpol'
p1279
aS'unpol2'
p1280
aS'unpol10'
p1281
aS'QUV'
p1282
aS'QU'
p1283
aS'Qonly'
p1284
aS'Uonly'
p1285
aS'Vonly'
p1286
aS'3c147'
p1287
aS'3c286'
p1288
aS'3c48'
p1289
aS'3c295'
p1290
aS'D1'
p1291
aS'RMtest'
p1292
aS'SItest'
p1293
aS'@@punit'
p1294
asS'Dec'
p1295
(lp1296
F0.5
aF1.0
aF0.87
aF1.0920000000000001
aS'@@Dec'
p1297
asg1217
(lp1298
NaS'@@name'
p1299
asg1218
(lp1300
I01
aI00
aS'@@fsr_trace'
p1301
asg223
(lp1302
I01
aI00
aS'@@use_previous'
p1303
asS'SI'
p1304
(lp1305
NaF-0.69999999999999996
a(lp1306
F0.44700000000000001
aF-0.184
aaS'@@SI'
p1307
asg157
(lp1308
NaS'@@tfdeg'
p1309
asg180
(lp1310
I01
aI00
aS'@@auto_save'
p1311
assS'callback'
p1312
(dp1313
g1219
I01
ssg85
S'10feb2006'
p1314
sg83
g1215
sg87
S'MG_JEN_Sixpack'
p1315
sg237
(dp1316
g132
I00
sg1206
I00
sg1218
I00
sg137
I00
sg223
I00
sg180
I00
ssg89
S'** Specific description of inarg record for: MG_JEN_Sixpack::newstar_source()  version=10feb2006  defined=2006-03-31 16:56'
p1317
sg91
(dp1318
g93
S'  1: ..[solve]./MG_JEN_Sixpack.newstar_source() (qual=None): .modify(Qpct):   None  ->  10'
p1319
sg95
S'  1: ..[solve]./MG_JEN_Sixpack.newstar_source() (qual=None): .modify(parmtable):   None  ->  simul_DJones'
p1320
sg97
S'  1: ..[solve]./MG_JEN_Sixpack.newstar_source() (qual=None): .modify(punit):   unpol  ->  QU'
p1321
sg99
S'  1: ..[solve]./MG_JEN_Sixpack.newstar_source() (qual=None): .modify(Upct):   None  ->  -10'
p1322
ssg82
I00
sg112
(lp1323
g18
ag1219
ag1217
ag12
ag1206
ag1210
ag1275
ag1209
ag1211
ag1268
ag1304
ag1204
ag1265
ag1295
ag1218
ag1207
ag1205
ag1220
ag1212
ag223
ag180
ag137
ag132
ag147
ag141
ag135
ag143
ag142
ag155
ag157
ag151
ag156
ag149
asg121
(dp1324
g1204
S'reference freq (Hz): I=I0 @ f=f0'
p1325
sg132
g243
sg1205
S'major axis (arcsec)'
p1326
sg1206
S'if True, do NOT store solvegroup/parmgroup info'
p1327
sg135
g245
sg137
g246
sg1207
S'source shape'
p1328
sg12
S'name of the MeqParm table (AIPS++)'
p1329
sg1209
S'Stokes U (percentage of I)'
p1330
sg141
g141
sg142
g250
sg143
g251
sg147
g252
sg1210
S'Stokes I: Total intensity @ f=f0 (usually 1 MHz)'
p1331
sg156
g259
sg149
g253
sg1211
S'Stokes V (percentage of I)'
p1332
sg151
g254
sg1212
S'position angle (rad)'
p1333
sg1265
S'Right Ascension (rad, J2000)'
p1334
sg1268
S'Intrinsic Rotation Measure (rad/m2)'
p1335
sg1220
S'minor axis (arcsec)'
p1336
sg155
g256
sg1275
S'Stokes Q (percentage of I)'
p1337
sg1219
S'name of calibrator source/patch \n- unpol:   unpolarised, I=1Jy \n- unpol2:  idem, I=2Jy \n- unpol10: idem, I=10Jy \n- RMtest:  Rotation Measure \n- SItest:  Spectral Index \n- QUV:     non-zero Q,U,V \n- QU:      non-zero Q,U \n- QU2:     stronger version of QU \n- Qonly:   non-zero Q \n- Uonly:   non-zero U \n- Vonly:   non-zero V \n- 3c286:   \n- 3c48:    \n- 3c295:   \n- 3c147:   \n- D1:      cps in D1.MS \n'
p1338
sg1295
S'Declination (rad, J2000)'
p1339
sg1218
S'If True, attach to forest state record'
p1340
sg223
g258
sg1304
S'Spectral Index (generalised)\n   A scalar represents the classical SI: I(f)=I0*(f/f0)^SI\n   A vector represents a freq-dependent SI (....)'
p1341
sg157
g260
sg180
g249
ssg129
S'Make a Sixpack (I,Q,U,V,Ra,Dec) for a source with NEWSTAR parametrisation'
p1342
ssg1268
Nsg1220
F0.0
sg1265
F1.4950000000000001
sg155
F1.0
sg1275
I10
sg1219
g1283
sg1295
F0.87
sg1217
Nsg1218
I01
sg223
I01
sg1304
Nsg157
Nsg180
I01
ssS'[simul]./MG_JEN_Cohset.predict_lsm()'
p1343
(dp1344
g2
S'@@polrep'
p1345
sg25
S'@@stations'
p1346
sg18
(dp1347
g20
S'MG_JEN_Cohset::predict_lsm()'
p1348
sg22
g1343
sg23
(dp1349
g27
I01
sg28
I01
sg29
I01
sg2
I01
sg25
I01
ssg30
S'MG_JEN_Cohsetpredict_lsm'
p1350
sg32
g33
sg34
S'MG_JEN_Cohset::predict_lsm()  version=20mar2006  defined=2006-03-31 16:56'
p1351
sg36
S'predict_lsm'
p1352
sg38
(dp1353
g2
(lp1354
g3
ag41
ag1345
asg25
(lp1355
(lp1356
I0
aI1
aI2
aI3
aI4
aa(lp1357
I0
aI1
aI2
aI3
aI4
aI5
aI6
aa(lp1358
I0
aI1
aI2
aI3
aI4
aI5
aI6
aI7
aI8
aI9
aI10
aI11
aI12
aI13
aa(lp1359
I0
aI1
aI2
aI3
aI4
aI5
aI6
aI7
aI8
aI9
aI10
aI11
aI12
aI13
aI14
aag47
ag1346
asS'nr_lsm_sources'
p1360
(lp1361
I1
aI2
aI3
aI5
aI10
aI20
aI100
aS'@@nr_lsm_sources'
p1362
asg27
(lp1363
NaS'@@@Jsequence_KJones'
p1364
asg28
(lp1365
NaS'@@@Jsequence_simul'
p1366
asg29
(lp1367
NaS'@@@Jsequence'
p1368
assg80
S'simul'
p1369
sg82
I00
sg83
S'2006-03-31 16:56'
p1370
sg85
S'20mar2006'
p1371
sg87
S'MG_JEN_Cohset'
p1372
sg89
S'** Specific description of inarg record for: MG_JEN_Cohset::predict_lsm()  version=20mar2006  defined=2006-03-31 16:56'
p1373
sg91
(dp1374
g95
S'** JEN_inarg.attach(): attached: [simul_imp]./MG_JEN_Cohset.Jones()'
p1375
ssg109
g1370
sg110
(dp1376
g2
I00
sg25
I00
ssg112
(lp1377
g18
ag1360
ag25
ag2
ag29
ag28
ag27
aS'[simul_imp]./MG_JEN_Cohset.Jones()'
p1378
asg121
(dp1379
g2
g123
sg25
g124
sg1360
S'nr of lsm sources to be included (in order of brightness'
p1380
sg27
g128
sg28
g128
sg29
g128
ssg129
S'Obsolete (upward compatibility) version of .predict_cps()'
p1381
ssg1360
I1
sg27
Nsg28
Nsg1378
(dp1382
S'[simul_imp]./MG_JEN_Joneset.BJones()'
p1383
(dp1384
g132
I00
sg2
S'@@polrep'
p1385
sg135
g136
sg294
g295
sg137
I00
sg296
Nsg141
Nsg142
I10
sg143
g144
sg147
g148
sg297
I5
sg149
g150
sg151
Nsg18
(dp1386
g20
S'MG_JEN_Joneset::BJones()'
p1387
sg22
g1383
sg23
(dp1388
g143
I01
sg2
I01
sg155
I01
sg147
I01
sg25
I01
sg135
I01
sg156
I01
sg149
I01
sg26
I01
sg151
I01
sg157
I01
sg12
I01
sg27
I01
sg28
I01
sg142
I01
sg141
I01
sg29
I01
ssg129
g302
sg32
g33
sg34
S'MG_JEN_Joneset::BJones()  version=16dec2005  defined=2006-03-31 16:56'
p1389
sg36
S'BJones'
p1390
sg38
(dp1391
g132
(lp1392
I01
aI00
aS'@@reset_funklet'
p1393
asg2
(lp1394
g3
ag41
ag1385
asg135
(lp1395
g136
aS'@@color'
p1396
asg294
(lp1397
g295
aNaI1
aI2
aI5
aI10
aI20
aI50
aI100
aI200
aI500
aS'@@subtile_size_Bimag'
p1398
asg137
(lp1399
I01
aI00
aS'@@save_all'
p1400
asg296
(lp1401
NaI1
aI2
aI5
aI10
aI20
aI50
aI100
aI200
aI500
aS'@@subtile_size_Breal'
p1402
asg141
(lp1403
NaS'@@unit'
p1404
asg142
(lp1405
I10
aS'@@size'
p1406
asg143
(lp1407
g144
aS'@@style'
p1408
asg147
(lp1409
g148
aS'@@descr'
p1410
asg297
(lp1411
I3
aI4
aI5
aI6
aS'@@fdeg_Breal'
p1412
asg149
(lp1413
g150
aS'@@condeq_corrs'
p1414
asg151
(lp1415
NaS'@@funklet_shape'
p1416
asg180
(lp1417
I01
aI00
aS'@@auto_save'
p1418
asg27
(lp1419
g54
aS'@@@Jsequence_KJones'
p1420
asg335
(lp1421
I0
aI1
aI2
aI3
ag337
aS'@@tdeg_Bimag'
p1422
asg29
(lp1423
g54
aS'@@@Jsequence'
p1424
asg155
(lp1425
F1.0
aS'@@c00_default'
p1426
asg343
(lp1427
I3
aI4
aI5
aI6
ag345
aS'@@fdeg_Bimag'
p1428
asg26
(lp1429
I00
aS'@@uvplane_effect'
p1430
asg25
(lp1431
(lp1432
I0
aI1
aI2
aI3
aI4
aa(lp1433
I0
aI1
aI2
aI3
aI4
aI5
aI6
aa(lp1434
I0
aI1
aI2
aI3
aI4
aI5
aI6
aI7
aI8
aI9
aI10
aI11
aI12
aI13
aa(lp1435
I0
aI1
aI2
aI3
aI4
aI5
aI6
aI7
aI8
aI9
aI10
aI11
aI12
aI13
aI14
aag47
aS'@@stations'
p1436
asg157
(lp1437
NaS'@@tfdeg'
p1438
asg357
(lp1439
I0
aI1
aI2
aI3
aS'@@tdeg_Breal'
p1440
asg223
(lp1441
I01
aI00
aS'@@use_previous'
p1442
asg156
(lp1443
NaS'@@subtile_size'
p1444
asg12
(lp1445
Nag72
aS'@@parmtable'
p1446
asg28
(lp1447
g54
aS'@@@Jsequence_simul'
p1448
assg80
S'simul_imp'
p1449
sg82
I00
sg83
S'2006-03-31 16:56'
p1450
sg85
g369
sg87
S'MG_JEN_Joneset'
p1451
sg237
(dp1452
g132
I00
sg137
I00
sg180
I00
sg223
I00
ssg89
S'** Specific description of inarg record for: MG_JEN_Joneset::BJones()  version=16dec2005  defined=2006-03-31 16:56'
p1453
sg110
(dp1454
g26
I00
sg12
I00
sg2
I00
sg25
I00
ssg109
g1450
sg112
(lp1455
g18
ag25
ag2
ag29
ag28
ag27
ag12
ag26
ag357
ag335
ag297
ag343
ag296
ag294
ag223
ag180
ag137
ag132
ag147
ag141
ag135
ag143
ag142
ag155
ag157
ag151
ag156
ag149
asg121
(dp1456
g132
g243
sg2
g123
sg135
g245
sg294
g376
sg137
g246
sg296
g376
sg141
g141
sg142
g250
sg143
g251
sg147
g252
sg297
g377
sg149
g253
sg151
g254
sg180
g249
sg27
g128
sg335
g378
sg29
g128
sg155
g256
sg343
g377
sg26
g126
sg25
g124
sg157
g260
sg357
g378
sg223
g258
sg156
g259
sg12
g127
sg28
g128
ssg30
S'MG_JEN_JonesetBJones'
p1457
ssg27
g54
sg335
g337
sg29
g54
sg155
F1.0
sg343
g345
sg26
g1430
sg25
g1436
sg157
Nsg357
I0
sg223
I01
sg156
Nsg12
g1446
sg28
g54
sg180
I01
ssg2
S'@@polrep'
p1458
sS'[simul_imp]./MG_JEN_Joneset.EJones_WSRT()'
p1459
(dp1460
g132
I00
sg2
S'@@polrep'
p1461
sg135
g136
sg137
I00
sg141
Nsg12
S'@@parmtable'
p1462
sg180
I01
sg142
I10
sg641
I0
sg642
g643
sg143
g144
sg147
g148
sg156
Nsg149
g150
sg151
Nsg18
(dp1463
g20
S'MG_JEN_Joneset::EJones_WSRT()'
p1464
sg22
g1459
sg23
(dp1465
g143
I01
sg2
I01
sg155
I01
sg147
I01
sg25
I01
sg135
I01
sg156
I01
sg149
I01
sg26
I01
sg151
I01
sg157
I01
sg12
I01
sg27
I01
sg28
I01
sg142
I01
sg141
I01
sg29
I01
ssg129
g651
sg32
g33
sg34
S'MG_JEN_Joneset::EJones_WSRT()  version=15dec2005  defined=2006-03-31 16:56'
p1466
sg36
S'EJones_WSRT'
p1467
sg38
(dp1468
g132
(lp1469
I01
aI00
aS'@@reset_funklet'
p1470
asg2
(lp1471
g3
ag41
ag1461
asg135
(lp1472
g136
aS'@@color'
p1473
asg137
(lp1474
I01
aI00
aS'@@save_all'
p1475
asg12
(lp1476
Nag72
ag1462
asg141
(lp1477
NaS'@@unit'
p1478
asg142
(lp1479
I10
aS'@@size'
p1480
asg641
(lp1481
I0
aI1
aI2
aI3
aS'@@tdeg_Edl'
p1482
asg642
(lp1483
I0
aI1
aI2
aI3
ag643
aS'@@tdeg_Edm'
p1484
asg143
(lp1485
g144
aS'@@style'
p1486
asg147
(lp1487
g148
aS'@@descr'
p1488
asg156
(lp1489
NaS'@@subtile_size'
p1490
asg149
(lp1491
g150
aS'@@condeq_corrs'
p1492
asg151
(lp1493
NaS'@@funklet_shape'
p1494
asg180
(lp1495
I01
aI00
aS'@@auto_save'
p1496
asg27
(lp1497
g63
aS'@@@Jsequence_KJones'
p1498
asg29
(lp1499
g63
aS'@@@Jsequence'
p1500
asg155
(lp1501
F1.0
aS'@@c00_default'
p1502
asg26
(lp1503
I00
aS'@@uvplane_effect'
p1504
asg25
(lp1505
(lp1506
I0
aI1
aI2
aI3
aI4
aa(lp1507
I0
aI1
aI2
aI3
aI4
aI5
aI6
aa(lp1508
I0
aI1
aI2
aI3
aI4
aI5
aI6
aI7
aI8
aI9
aI10
aI11
aI12
aI13
aa(lp1509
I0
aI1
aI2
aI3
aI4
aI5
aI6
aI7
aI8
aI9
aI10
aI11
aI12
aI13
aI14
aag47
aS'@@stations'
p1510
asg157
(lp1511
NaS'@@tfdeg'
p1512
asg223
(lp1513
I01
aI00
aS'@@use_previous'
p1514
asg644
(lp1515
NaI1
aI2
aI5
aI10
aI20
aI50
aI100
aI200
aI500
aS'@@subtile_size_Edl'
p1516
asg645
(lp1517
g646
aNaI1
aI2
aI5
aI10
aI20
aI50
aI100
aI200
aI500
aS'@@subtile_size_Edm'
p1518
asg28
(lp1519
g63
aS'@@@Jsequence_simul'
p1520
asg707
(lp1521
I0
aI1
aI2
aI3
aS'@@fdeg_Edl'
p1522
asg710
(lp1523
I0
aI1
aI2
aI3
ag712
aS'@@fdeg_Edm'
p1524
assg80
g1449
sg82
I00
sg83
S'2006-03-31 16:56'
p1525
sg85
g533
sg87
S'MG_JEN_Joneset'
p1526
sg237
(dp1527
g132
I00
sg137
I00
sg180
I00
sg223
I00
ssg89
S'** Specific description of inarg record for: MG_JEN_Joneset::EJones_WSRT()  version=15dec2005  defined=2006-03-31 16:56'
p1528
sg110
(dp1529
g26
I00
sg12
I00
sg2
I00
sg25
I00
ssg109
g1525
sg112
(lp1530
g18
ag25
ag2
ag29
ag28
ag27
ag12
ag26
ag641
ag642
ag707
ag710
ag644
ag645
ag223
ag180
ag137
ag132
ag147
ag141
ag135
ag143
ag142
ag155
ag157
ag151
ag156
ag149
asg121
(dp1531
g132
g243
sg2
g123
sg135
g245
sg137
g246
sg12
g127
sg141
g141
sg142
g250
sg641
g721
sg642
g721
sg143
g251
sg147
g252
sg156
g259
sg149
g253
sg151
g254
sg180
g249
sg27
g128
sg29
g128
sg155
g256
sg26
g126
sg25
g124
sg157
g260
sg223
g258
sg644
g722
sg645
g722
sg28
g128
sg707
g723
sg710
g723
ssg30
S'MG_JEN_JonesetEJones_WSRT'
p1532
ssg27
g63
sg29
g63
sg155
F1.0
sg26
g1504
sg25
g1510
sg157
Nsg223
I01
sg644
Nsg645
g646
sg28
g63
sg707
I0
sg710
g712
ssg25
S'@@stations'
p1533
sS'[simul_imp]./MG_JEN_Joneset.GJones()'
p1534
(dp1535
g132
I00
sg2
S'@@polrep'
p1536
sg455
I0
sg135
g136
sg137
I00
sg12
S'@@parmtable'
p1537
sg141
Nsg142
I10
sg143
g144
sg147
g148
sg457
I1
sg149
g150
sg151
Nsg18
(dp1538
g20
S'MG_JEN_Joneset::GJones()'
p1539
sg22
g1534
sg23
(dp1540
g142
I01
sg143
I01
sg2
I01
sg155
I01
sg147
I01
sg25
I01
sg135
I01
sg156
I01
sg149
I01
sg26
I01
sg151
I01
sg157
I01
sg12
I01
sg27
I01
sg28
I01
sg461
I01
sg141
I01
sg29
I01
ssg129
g463
sg32
g33
sg34
S'MG_JEN_Joneset::GJones()  version=15dec2005  defined=2006-03-31 16:56'
p1541
sg36
S'GJones'
p1542
sg38
(dp1543
g132
(lp1544
I01
aI00
aS'@@reset_funklet'
p1545
asg2
(lp1546
g3
ag41
ag1536
asg455
(lp1547
I0
aI1
aI2
aI3
aS'@@fdeg_Ggain'
p1548
asg135
(lp1549
g136
aS'@@color'
p1550
asg137
(lp1551
I01
aI00
aS'@@save_all'
p1552
asg12
(lp1553
Nag72
ag1537
asg141
(lp1554
NaS'@@unit'
p1555
asg142
(lp1556
I10
aS'@@size'
p1557
asg143
(lp1558
g144
aS'@@style'
p1559
asg147
(lp1560
g148
aS'@@descr'
p1561
asg457
(lp1562
NaI1
aI2
aI5
aI10
aI20
aI50
aI100
aI200
aI500
aS'@@subtile_size_Ggain'
p1563
asg149
(lp1564
g150
aS'@@condeq_corrs'
p1565
asg151
(lp1566
NaS'@@funklet_shape'
p1567
asg180
(lp1568
I01
aI00
aS'@@auto_save'
p1569
asg27
(lp1570
g52
aS'@@@Jsequence_KJones'
p1571
asg29
(lp1572
g52
aS'@@@Jsequence'
p1573
asg155
(lp1574
F1.0
aS'@@c00_default'
p1575
asg499
(lp1576
I0
aI1
aI2
aI3
ag501
aS'@@tdeg_Gphase'
p1577
asg503
(lp1578
I0
aI1
aI2
aI3
aS'@@tdeg_Ggain'
p1579
asg506
(lp1580
I0
aI1
aI2
aI3
ag508
aS'@@fdeg_Gphase'
p1581
asg510
(lp1582
g512
aNaI1
aI2
aI5
aI10
aI20
aI50
aI100
aI200
aI500
aS'@@subtile_size_Gphase'
p1583
asg461
(lp1584
I01
aI00
aS'@@Gpolar'
p1585
asg26
(lp1586
I00
aS'@@uvplane_effect'
p1587
asg25
(lp1588
(lp1589
I0
aI1
aI2
aI3
aI4
aa(lp1590
I0
aI1
aI2
aI3
aI4
aI5
aI6
aa(lp1591
I0
aI1
aI2
aI3
aI4
aI5
aI6
aI7
aI8
aI9
aI10
aI11
aI12
aI13
aa(lp1592
I0
aI1
aI2
aI3
aI4
aI5
aI6
aI7
aI8
aI9
aI10
aI11
aI12
aI13
aI14
aag47
aS'@@stations'
p1593
asg223
(lp1594
I01
aI00
aS'@@use_previous'
p1595
asg156
(lp1596
NaS'@@subtile_size'
p1597
asg157
(lp1598
NaS'@@tfdeg'
p1599
asg28
(lp1600
g52
aS'@@@Jsequence_simul'
p1601
assg80
g1449
sg82
I00
sg83
S'2006-03-31 16:56'
p1602
sg85
g533
sg87
S'MG_JEN_Joneset'
p1603
sg237
(dp1604
g132
I00
sg461
I00
sg137
I00
sg180
I00
sg223
I00
ssg89
S'** Specific description of inarg record for: MG_JEN_Joneset::GJones()  version=15dec2005  defined=2006-03-31 16:56'
p1605
sg110
(dp1606
g26
I00
sg12
I00
sg2
I00
sg25
I00
ssg109
g1602
sg112
(lp1607
g18
ag25
ag2
ag29
ag28
ag27
ag461
ag12
ag26
ag503
ag499
ag455
ag506
ag457
ag510
ag223
ag180
ag137
ag132
ag147
ag141
ag135
ag143
ag142
ag155
ag157
ag151
ag156
ag149
asg121
(dp1608
g132
g243
sg2
g123
sg455
g540
sg135
g245
sg137
g246
sg12
g127
sg141
g141
sg142
g250
sg143
g251
sg147
g252
sg457
g541
sg149
g253
sg151
g254
sg180
g249
sg27
g128
sg29
g128
sg155
g256
sg499
g542
sg503
g542
sg506
g540
sg510
g541
sg461
g543
sg26
g126
sg25
g124
sg223
g258
sg156
g259
sg157
g260
sg28
g128
ssg30
S'MG_JEN_JonesetGJones'
p1609
ssg27
g52
sg29
g52
sg155
F1.0
sg499
g501
sg503
I0
sg506
g508
sg510
g512
sg461
I01
sg26
g1587
sg25
g1593
sg223
I01
sg156
Nsg157
Nsg28
g52
sg180
I01
ssS'[simul_imp]./MG_JEN_Joneset.DJones_WSRT()'
p1610
(dp1611
g132
I00
sg2
S'@@polrep'
p1612
sg135
g136
sg546
g547
sg548
I01
sg137
I00
sg141
Nsg12
S'@@parmtable'
p1613
sg550
Nsg180
I01
sg142
I10
sg143
g144
sg147
g148
sg149
g150
sg151
Nsg18
(dp1614
g20
S'MG_JEN_Joneset::DJones_WSRT()'
p1615
sg22
g1610
sg23
(dp1616
g143
I01
sg2
I01
sg155
I01
sg147
I01
sg25
I01
sg135
I01
sg156
I01
sg149
I01
sg26
I01
sg151
I01
sg157
I01
sg12
I01
sg27
I01
sg28
I01
sg142
I01
sg141
I01
sg29
I01
ssg129
g555
sg32
g33
sg34
S'MG_JEN_Joneset::DJones_WSRT()  version=16dec2005  defined=2006-03-31 16:56'
p1617
sg36
S'DJones_WSRT'
p1618
sg38
(dp1619
g132
(lp1620
I01
aI00
aS'@@reset_funklet'
p1621
asg2
(lp1622
g3
ag41
ag1612
asg135
(lp1623
g136
aS'@@color'
p1624
asg546
(lp1625
I0
aI1
aI2
aI3
ag547
aS'@@fdeg_Dell'
p1626
asg548
(lp1627
I01
aI00
aS'@@coupled_XY_Dell'
p1628
asg137
(lp1629
I01
aI00
aS'@@save_all'
p1630
asg12
(lp1631
Nag72
ag1613
asg550
(lp1632
NaI1
aI2
aI5
aI10
aI20
aI50
aI100
aI200
aI500
aS'@@subtile_size_Dang'
p1633
asg141
(lp1634
NaS'@@unit'
p1635
asg142
(lp1636
I10
aS'@@size'
p1637
asg143
(lp1638
g144
aS'@@style'
p1639
asg147
(lp1640
g148
aS'@@descr'
p1641
asg149
(lp1642
g150
aS'@@condeq_corrs'
p1643
asg151
(lp1644
NaS'@@funklet_shape'
p1645
asg180
(lp1646
I01
aI00
aS'@@auto_save'
p1647
asg27
(lp1648
g60
aS'@@@Jsequence_KJones'
p1649
asg589
(lp1650
g591
aNaI1
aI2
aI5
aI10
aI20
aI50
aI100
aI200
aI500
aS'@@subtile_size_Dell'
p1651
asg29
(lp1652
g60
aS'@@@Jsequence'
p1653
asg595
(lp1654
I0
aI1
aI2
aI3
aS'@@fdeg_Dang'
p1655
asg155
(lp1656
F1.0
aS'@@c00_default'
p1657
asg26
(lp1658
I00
aS'@@uvplane_effect'
p1659
asg602
(lp1660
I0
aI1
aI2
aI3
ag604
aS'@@tdeg_Dell'
p1661
asg606
(lp1662
I01
aI00
aS'@@coupled_XY_Dang'
p1663
asg609
(lp1664
I0
aI1
aI2
aI3
aS'@@tdeg_Dang'
p1665
asg25
(lp1666
(lp1667
I0
aI1
aI2
aI3
aI4
aa(lp1668
I0
aI1
aI2
aI3
aI4
aI5
aI6
aa(lp1669
I0
aI1
aI2
aI3
aI4
aI5
aI6
aI7
aI8
aI9
aI10
aI11
aI12
aI13
aa(lp1670
I0
aI1
aI2
aI3
aI4
aI5
aI6
aI7
aI8
aI9
aI10
aI11
aI12
aI13
aI14
aag47
aS'@@stations'
p1671
asg223
(lp1672
I01
aI00
aS'@@use_previous'
p1673
asg156
(lp1674
NaS'@@subtile_size'
p1675
asg157
(lp1676
NaS'@@tfdeg'
p1677
asg28
(lp1678
g60
aS'@@@Jsequence_simul'
p1679
assg80
g1449
sg82
I00
sg83
S'2006-03-31 16:56'
p1680
sg85
g369
sg87
S'MG_JEN_Joneset'
p1681
sg237
(dp1682
g132
I00
sg548
I00
sg137
I00
sg606
I00
sg223
I00
sg180
I00
ssg89
S'** Specific description of inarg record for: MG_JEN_Joneset::DJones_WSRT()  version=16dec2005  defined=2006-03-31 16:56'
p1683
sg110
(dp1684
g26
I00
sg12
I00
sg2
I00
sg25
I00
ssg109
g1680
sg112
(lp1685
g18
ag25
ag2
ag29
ag28
ag27
ag606
ag548
ag12
ag26
ag609
ag602
ag595
ag546
ag550
ag589
ag223
ag180
ag137
ag132
ag147
ag141
ag135
ag143
ag142
ag155
ag157
ag151
ag156
ag149
asg121
(dp1686
g132
g243
sg2
g123
sg135
g245
sg546
g633
sg548
g634
sg137
g246
sg12
g127
sg550
g635
sg141
g141
sg142
g250
sg143
g251
sg147
g252
sg149
g253
sg151
g254
sg180
g249
sg27
g128
sg589
g635
sg29
g128
sg595
g633
sg155
g256
sg26
g126
sg602
g636
sg606
g637
sg609
g636
sg25
g124
sg223
g258
sg156
g259
sg157
g260
sg28
g128
ssg30
S'MG_JEN_JonesetDJones_WSRT'
p1687
ssg27
g60
sg589
g591
sg29
g60
sg595
I0
sg155
F1.0
sg26
g1659
sg602
g604
sg606
I01
sg609
I0
sg25
g1671
sg223
I01
sg156
Nsg157
Nsg28
g60
ssg26
S'@@uvplane_effect'
p1688
sg12
S'@@parmtable'
p1689
sg18
(dp1690
g20
g21
sg22
g1378
sg23
(dp1691
g2
I01
sg25
I01
sg26
I01
sg12
I01
sg27
I01
sg28
I01
sg29
I01
ssg30
S'MG_JEN_CohsetJones'
p1692
sg32
g33
sg129
g130
sg34
S'MG_JEN_Cohset::Jones()  version=25dec2005  defined=2006-03-31 16:56'
p1693
sg36
S'Jones'
p1694
sg38
(dp1695
g2
(lp1696
g3
ag41
ag1458
asg25
(lp1697
(lp1698
I0
aI1
aI2
aI3
aI4
aa(lp1699
I0
aI1
aI2
aI3
aI4
aI5
aI6
aa(lp1700
I0
aI1
aI2
aI3
aI4
aI5
aI6
aI7
aI8
aI9
aI10
aI11
aI12
aI13
aa(lp1701
I0
aI1
aI2
aI3
aI4
aI5
aI6
aI7
aI8
aI9
aI10
aI11
aI12
aI13
aI14
aag47
ag1533
asg26
(lp1702
I00
ag1688
asg12
(lp1703
Nag72
ag1689
asg27
(lp1704
NaS'@@@Jsequence_KJones'
p1705
asg28
(lp1706
NaS'@@@Jsequence_simul'
p1707
asS'Jsequence_simul_imp'
p1708
(lp1709
(lp1710
g52
aa(lp1711
g54
aa(lp1712
g56
aa(lp1713
g58
aa(lp1714
g60
aa(lp1715
g52
ag60
aa(lp1716
g63
aa(lp1717
g52
ag63
aa(lp1718
g66
aa(lp1719
aS'@@Jsequence_simul_imp'
p1720
asg29
(lp1721
NaS'@@@Jsequence'
p1722
assg80
g1449
sg82
I00
sg83
S'2006-03-31 16:56'
p1723
sg85
g86
sg87
S'MG_JEN_Cohset'
p1724
sg89
S'** Specific description of inarg record for: MG_JEN_Cohset::Jones()  version=25dec2005  defined=2006-03-31 16:56'
p1725
sg91
(dp1726
g93
S'** JEN_inarg.attach(): attached: [simul_imp]./MG_JEN_Joneset.FJones()'
p1727
sg95
S'** JEN_inarg.attach(): attached: [simul_imp]./MG_JEN_Joneset.GJones()'
p1728
sg97
S'** JEN_inarg.attach(): attached: [simul_imp]./MG_JEN_Joneset.KJones()'
p1729
sg99
S'** JEN_inarg.attach(): attached: [simul_imp]./MG_JEN_Joneset.BJones()'
p1730
sg101
S'** JEN_inarg.attach(): attached: [simul_imp]./MG_JEN_Joneset.EJones_WSRT()'
p1731
sg103
S'** JEN_inarg.attach(): attached: [simul_imp]./MG_JEN_Joneset.DJones_WSRT()'
p1732
sg107
S'** JEN_inarg.attach(): attached: [simul_imp]./MG_JEN_Joneset.JJones()'
p1733
ssg109
g1723
sg110
(dp1734
g26
I00
sg12
I00
sg2
I00
sg25
I00
ssg112
(lp1735
g18
ag25
ag2
ag29
ag28
ag27
ag12
ag26
ag1708
ag1534
aS'[simul_imp]./MG_JEN_Joneset.FJones()'
p1736
ag1383
aS'[simul_imp]./MG_JEN_Joneset.KJones()'
p1737
ag1610
ag1459
aS'[simul_imp]./MG_JEN_Joneset.JJones()'
p1738
asg121
(dp1739
g2
g123
sg25
g124
sg26
g126
sg12
g127
sg27
g128
sg28
g128
sg1708
g125
sg29
g128
sssg1738
(dp1740
g132
I00
sg2
S'@@polrep'
p1741
sg134
I0
sg135
g136
sg137
I00
sg138
Nsg12
S'@@parmtable'
p1742
sg140
Nsg141
Nsg142
I10
sg143
g144
sg145
g146
sg147
g148
sg149
g150
sg151
Nsg18
(dp1743
g20
S'MG_JEN_Joneset::JJones()'
p1744
sg22
g1738
sg23
(dp1745
g143
I01
sg2
I01
sg155
I01
sg147
I01
sg25
I01
sg135
I01
sg156
I01
sg149
I01
sg26
I01
sg151
I01
sg157
I01
sg12
I01
sg27
I01
sg28
I01
sg142
I01
sg141
I01
sg29
I01
ssg129
g159
sg32
g33
sg34
S'MG_JEN_Joneset::JJones()  version=14feb2006  defined=2006-03-31 16:56'
p1746
sg36
S'JJones'
p1747
sg38
(dp1748
g132
(lp1749
I01
aI00
aS'@@reset_funklet'
p1750
asg2
(lp1751
g3
ag41
ag1741
asg134
(lp1752
I0
aI1
aI2
aI3
aS'@@tdeg_Jreal'
p1753
asg135
(lp1754
g136
aS'@@color'
p1755
asg137
(lp1756
I01
aI00
aS'@@save_all'
p1757
asg138
(lp1758
Na(lp1759
I14
aa(lp1760
I1
aag175
aS'@@all4_always'
p1761
asg12
(lp1762
Nag72
ag1742
asg140
(lp1763
NaI1
aI2
aI5
aI10
aI20
aI50
aI100
aI200
aI500
aS'@@subtile_size_Jreal'
p1764
asg141
(lp1765
NaS'@@unit'
p1766
asg142
(lp1767
I10
aS'@@size'
p1768
asg143
(lp1769
g144
aS'@@style'
p1770
asg145
(lp1771
I0
aI1
aI2
aI3
ag146
aS'@@tdeg_Jimag'
p1772
asg147
(lp1773
g148
aS'@@descr'
p1774
asg149
(lp1775
g150
aS'@@condeq_corrs'
p1776
asg151
(lp1777
NaS'@@funklet_shape'
p1778
asg180
(lp1779
I01
aI00
aS'@@auto_save'
p1780
asg27
(lp1781
g66
aS'@@@Jsequence_KJones'
p1782
asg199
(lp1783
I0
aI1
aI2
aI3
aS'@@fdeg_Jreal'
p1784
asg155
(lp1785
F1.0
aS'@@c00_default'
p1786
asg26
(lp1787
I00
aS'@@uvplane_effect'
p1788
asg206
(lp1789
I0
aI1
aI2
aI3
ag208
aS'@@fdeg_Jimag'
p1790
asg210
(lp1791
g212
aNaI1
aI2
aI5
aI10
aI20
aI50
aI100
aI200
aI500
aS'@@subtile_size_Jimag'
p1792
asg25
(lp1793
(lp1794
I0
aI1
aI2
aI3
aI4
aa(lp1795
I0
aI1
aI2
aI3
aI4
aI5
aI6
aa(lp1796
I0
aI1
aI2
aI3
aI4
aI5
aI6
aI7
aI8
aI9
aI10
aI11
aI12
aI13
aa(lp1797
I0
aI1
aI2
aI3
aI4
aI5
aI6
aI7
aI8
aI9
aI10
aI11
aI12
aI13
aI14
aag47
aS'@@stations'
p1798
asg220
(lp1799
I01
aI00
aS'@@diagonal_only'
p1800
asg223
(lp1801
I01
aI00
aS'@@use_previous'
p1802
asg156
(lp1803
NaS'@@subtile_size'
p1804
asg157
(lp1805
NaS'@@tfdeg'
p1806
asg28
(lp1807
g66
aS'@@@Jsequence_simul'
p1808
asg29
(lp1809
g66
aS'@@@Jsequence'
p1810
assg80
g1449
sg82
I00
sg83
S'2006-03-31 16:56'
p1811
sg85
g235
sg87
S'MG_JEN_Joneset'
p1812
sg237
(dp1813
g132
I00
sg220
I00
sg137
I00
sg180
I00
sg223
I00
ssg89
S'** Specific description of inarg record for: MG_JEN_Joneset::JJones()  version=14feb2006  defined=2006-03-31 16:56'
p1814
sg110
(dp1815
g26
I00
sg12
I00
sg2
I00
sg25
I00
ssg109
g1811
sg112
(lp1816
g18
ag25
ag2
ag29
ag28
ag27
ag220
ag138
ag12
ag26
ag134
ag145
ag199
ag206
ag140
ag210
ag223
ag180
ag137
ag132
ag147
ag141
ag135
ag143
ag142
ag155
ag157
ag151
ag156
ag149
asg121
(dp1817
g132
g243
sg2
g123
sg134
g244
sg135
g245
sg137
g246
sg138
g247
sg12
g127
sg140
g248
sg141
g141
sg142
g250
sg143
g251
sg145
g244
sg147
g252
sg149
g253
sg151
g254
sg180
g249
sg27
g128
sg199
g255
sg155
g256
sg26
g126
sg206
g255
sg210
g248
sg25
g124
sg220
g257
sg223
g258
sg156
g259
sg157
g260
sg28
g128
sg29
g128
ssg30
S'MG_JEN_JonesetJJones'
p1818
ssg27
g66
sg199
I0
sg155
F1.0
sg26
g1788
sg206
g208
sg210
g212
sg25
g1798
sg220
I00
sg223
I01
sg156
Nsg157
Nsg28
g66
sg29
g66
sg180
I01
ssg27
Nsg28
Nsg29
Nsg1737
(dp1819
g2
S'@@polrep'
p1820
sg25
S'@@stations'
p1821
sg18
(dp1822
g20
S'MG_JEN_Joneset::KJones()'
p1823
sg22
g1737
sg23
(dp1824
g27
I01
sg28
I01
sg29
I01
sg2
I01
sg25
I01
ssg129
g268
sg32
g33
sg34
S'MG_JEN_Joneset::KJones()  version=12dec2005  defined=2006-03-31 16:56'
p1825
sg36
S'KJones'
p1826
sg38
(dp1827
g27
(lp1828
g58
aS'@@@Jsequence_KJones'
p1829
asg28
(lp1830
g58
aS'@@@Jsequence_simul'
p1831
asg29
(lp1832
g58
aS'@@@Jsequence'
p1833
asg2
(lp1834
g3
ag41
ag1820
asg25
(lp1835
(lp1836
I0
aI1
aI2
aI3
aI4
aa(lp1837
I0
aI1
aI2
aI3
aI4
aI5
aI6
aa(lp1838
I0
aI1
aI2
aI3
aI4
aI5
aI6
aI7
aI8
aI9
aI10
aI11
aI12
aI13
aa(lp1839
I0
aI1
aI2
aI3
aI4
aI5
aI6
aI7
aI8
aI9
aI10
aI11
aI12
aI13
aI14
aag47
ag1821
assg80
g1449
sg82
I00
sg83
S'2006-03-31 16:56'
p1840
sg85
g285
sg87
S'MG_JEN_Joneset'
p1841
sg89
S'** Specific description of inarg record for: MG_JEN_Joneset::KJones()  version=12dec2005  defined=2006-03-31 16:56'
p1842
sg110
(dp1843
g2
I00
sg25
I00
ssg109
g1840
sg112
(lp1844
g18
ag25
ag2
ag29
ag28
ag27
asg121
(dp1845
g27
g128
sg28
g128
sg29
g128
sg2
g123
sg25
g124
ssg30
S'MG_JEN_JonesetKJones'
p1846
ssg27
g58
sg28
g58
sg29
g58
ssg1708
(lp1847
sg1736
(dp1848
g132
I00
sg2
S'@@polrep'
p1849
sg135
g136
sg137
I00
sg12
S'@@parmtable'
p1850
sg141
Nsg142
I10
sg143
g144
sg147
g148
sg149
g150
sg151
Nsg18
(dp1851
g20
S'MG_JEN_Joneset::FJones()'
p1852
sg22
g1736
sg23
(dp1853
g143
I01
sg2
I01
sg155
I01
sg147
I01
sg25
I01
sg135
I01
sg156
I01
sg149
I01
sg26
I01
sg151
I01
sg157
I01
sg12
I01
sg27
I01
sg28
I01
sg142
I01
sg141
I01
sg29
I01
ssg129
g386
sg32
g33
sg34
S'MG_JEN_Joneset::FJones()  version=16dec2005  defined=2006-03-31 16:56'
p1854
sg36
S'FJones'
p1855
sg38
(dp1856
g132
(lp1857
I01
aI00
aS'@@reset_funklet'
p1858
asg2
(lp1859
g3
ag41
ag1849
asg135
(lp1860
g136
aS'@@color'
p1861
asg137
(lp1862
I01
aI00
aS'@@save_all'
p1863
asg157
(lp1864
NaS'@@tfdeg'
p1865
asg141
(lp1866
NaS'@@unit'
p1867
asg142
(lp1868
I10
aS'@@size'
p1869
asg143
(lp1870
g144
aS'@@style'
p1871
asg147
(lp1872
g148
aS'@@descr'
p1873
asg149
(lp1874
g150
aS'@@condeq_corrs'
p1875
asg151
(lp1876
NaS'@@funklet_shape'
p1877
asg180
(lp1878
I01
aI00
aS'@@auto_save'
p1879
asg27
(lp1880
g56
aS'@@@Jsequence_KJones'
p1881
asg29
(lp1882
g56
aS'@@@Jsequence'
p1883
asg155
(lp1884
F1.0
aS'@@c00_default'
p1885
asg26
(lp1886
I00
aS'@@uvplane_effect'
p1887
asg25
(lp1888
(lp1889
I0
aI1
aI2
aI3
aI4
aa(lp1890
I0
aI1
aI2
aI3
aI4
aI5
aI6
aa(lp1891
I0
aI1
aI2
aI3
aI4
aI5
aI6
aI7
aI8
aI9
aI10
aI11
aI12
aI13
aa(lp1892
I0
aI1
aI2
aI3
aI4
aI5
aI6
aI7
aI8
aI9
aI10
aI11
aI12
aI13
aI14
aag47
aS'@@stations'
p1893
asg427
(lp1894
I0
aI1
aI2
aI3
aS'@@tdeg_RM'
p1895
asg223
(lp1896
I01
aI00
aS'@@use_previous'
p1897
asg432
(lp1898
I0
aI1
aI2
aI3
aS'@@fdeg_RM'
p1899
asg156
(lp1900
NaS'@@subtile_size'
p1901
asg12
(lp1902
Nag72
ag1850
asg438
(lp1903
NaI1
aI2
aI5
aI10
aI20
aI50
aI100
aI200
aI500
aS'@@subtile_size_RM'
p1904
asg28
(lp1905
g56
aS'@@@Jsequence_simul'
p1906
assg80
g1449
sg82
I00
sg83
S'2006-03-31 16:56'
p1907
sg85
g369
sg87
S'MG_JEN_Joneset'
p1908
sg237
(dp1909
g132
I00
sg137
I00
sg180
I00
sg223
I00
ssg89
S'** Specific description of inarg record for: MG_JEN_Joneset::FJones()  version=16dec2005  defined=2006-03-31 16:56'
p1910
sg110
(dp1911
g26
I00
sg12
I00
sg2
I00
sg25
I00
ssg109
g1907
sg112
(lp1912
g18
ag25
ag2
ag29
ag28
ag27
ag12
ag26
ag427
ag432
ag438
ag223
ag180
ag137
ag132
ag147
ag141
ag135
ag143
ag142
ag155
ag157
ag151
ag156
ag149
asg121
(dp1913
g132
g243
sg2
g123
sg135
g245
sg137
g246
sg157
g260
sg141
g141
sg142
g250
sg143
g251
sg147
g252
sg149
g253
sg151
g254
sg180
g249
sg27
g128
sg29
g128
sg155
g256
sg26
g126
sg25
g124
sg427
g450
sg223
g258
sg432
g451
sg156
g259
sg12
g127
sg438
g452
sg28
g128
ssg30
S'MG_JEN_JonesetFJones'
p1914
ssg27
g56
sg29
g56
sg155
F1.0
sg26
g1887
sg25
g1893
sg427
I0
sg223
I01
sg432
I2
sg156
Nsg157
Nsg438
I1
sg28
g56
sg180
I01
sssg29
NssS'[solve]./MG_JEN_Cohset.predict_cps()'
p1915
(dp1916
g2
S'@@polrep'
p1917
sg25
S'@@stations'
p1918
sg18
(dp1919
g20
S'MG_JEN_Cohset::predict_cps()'
p1920
sg22
g1915
sg23
(dp1921
g27
I01
sg28
I01
sg29
I01
sg2
I01
sg25
I01
ssg30
S'MG_JEN_Cohsetpredict_cps'
p1922
sg32
g33
sg34
S'MG_JEN_Cohset::predict_cps()  version=20mar2006  defined=2006-03-31 16:56'
p1923
sg36
S'predict_cps'
p1924
sg38
(dp1925
g27
(lp1926
NaS'@@@Jsequence_KJones'
p1927
asg28
(lp1928
NaS'@@@Jsequence_simul'
p1929
asg29
(lp1930
NaS'@@@Jsequence'
p1931
asg2
(lp1932
g3
ag41
ag1917
asg25
(lp1933
(lp1934
I0
aI1
aI2
aI3
aI4
aa(lp1935
I0
aI1
aI2
aI3
aI4
aI5
aI6
aa(lp1936
I0
aI1
aI2
aI3
aI4
aI5
aI6
aI7
aI8
aI9
aI10
aI11
aI12
aI13
aa(lp1937
I0
aI1
aI2
aI3
aI4
aI5
aI6
aI7
aI8
aI9
aI10
aI11
aI12
aI13
aI14
aag47
ag1918
assg80
g1222
sg82
I00
sg83
S'2006-03-31 16:56'
p1938
sg85
g1371
sg87
S'MG_JEN_Cohset'
p1939
sg89
S'** Specific description of inarg record for: MG_JEN_Cohset::predict_cps()  version=20mar2006  defined=2006-03-31 16:56'
p1940
sg110
(dp1941
g2
I00
sg25
I00
ssg109
g1938
sg112
(lp1942
g18
ag25
ag2
ag29
ag28
ag27
asg121
(dp1943
g27
g128
sg28
g128
sg29
g128
sg2
g123
sg25
g124
ssg129
g1381
ssg27
Nsg28
Nsg29
Nssg18
(dp1944
g22
S'./MG_JEN_simul.'
p1945
sg121
(dp1946
g27
g128
sg1
S'if True, add to existing uv-data (from MS column)'
p1947
sS'rms_noise_Jy'
p1948
S'rms noise, to be added'
p1949
sg2
g123
sS'master_reqseq'
p1950
S'if True, use a master reqseq for solver(s)'
p1951
sS'LSM_simul'
p1952
S'(file)name of a Local Sky Model to be used for simulation(instead of a predefined punit)'
p1953
sg25
g124
sS'redun'
p1954
S'if True, redundant spacing calibration'
p1955
sg14
S'if True, insert a solver'
p1956
sg10
S'name of the (AIPS++) Measurement Set'
p1957
sS'chain_solvers'
p1958
S'if True, chain the solvers (recommended)'
p1959
sS'num_cells'
p1960
S'if defined, ModRes argument [ntime,nfreq]'
p1961
sg12
g127
sg724
S'(file)name of a Local Sky Model to be used for solving(instead of a predefined punit)'
p1962
sg28
g128
sS'tile_size'
p1963
S'(inputrec) size (in time-slots) of the input data-tile'
p1964
sg26
g126
sg29
g128
ssS'reference'
p1965
I00
sg32
g33
sg87
S'MG_JEN_simul'
p1966
sg23
(dp1967
g27
I01
sg2
I00
sg1950
I01
sg1952
I00
sg25
I00
sS'last_changed'
p1968
I01
sg1954
I00
sg26
I00
sg1958
I01
sg1960
I00
sg724
I00
sg28
I01
sg29
I01
ssS'browse'
p1969
(dp1970
g10
S'*.MS'
p1971
sg1952
S'*.lsm'
p1972
sg724
g1972
ssg85
g533
sg129
S"\n    -------------------------------------------------------------\n    General description of the MeqTree TDL script MG_JEN_simul.py\n    -------------------------------------------------------------\n\n    The MG_JEN_simul.py script is used to put simulated visibilities into the\n    CORRECTED_DATA column of an existing Measurement Set (MS). The original DATA\n    in the MS are untouched. The advantage of this approach is that it is not\n    necessary to specify pointing centre, uv-coverage, spectral-window etc.\n\n    * The input source model is either an existing Local Sky Model (LSM),\n    or a 'punit' point source in the centre of the field.\n\n    * The nominal source visibilities may be corrupted by:\n      - various (uv-plane) Jones matrices\n      - image-plane effects from EJones and IJones (MIM)\n      - ifr-based errors (additive, multiplicative)\n      - noise\n\n    * Optionally, the simulated visibilities may be added to the existing uv-data,\n    either from the DATA column or the CORRECTED_DATA column of the MS\n\n    * Optionally, a parallel solver branch may be inserted, which uses the simulated\n    uv-data to solve for instrumental parameters. The latter may be compared with\n    the simulated instrumental parameters.\n\n    Different types of simulations may be specified by loading (and editing) socalled\n    'inarg' records from files (like this one). These contain input arguments\n    for generating a suitable MeqTree forest for the desired operation.\n    "
p1973
sg237
(dp1974
g1
I00
sg1950
I00
sg1954
I00
sg14
I00
sg1968
I00
ssg34
S'** Top-level CTRL-record of: MG_JEN_simul.inarg'
p1975
sg38
(dp1976
g27
(lp1977
NaS'@@@Jsequence_KJones'
p1978
asg1
(lp1979
I01
aI00
aS'@@add_to_existing'
p1980
asg1948
(lp1981
I0
aF0.01
aF0.10000000000000001
aI1
aS'@@rms_noise_Jy'
p1982
asg2
(lp1983
g3
ag41
aS'@@polrep'
p1984
asg1950
(lp1985
I01
aI00
aS'@@master_reqseq'
p1986
asg1952
(lp1987
NaS'@@LSM_simul'
p1988
asg25
(lp1989
(lp1990
I0
aI1
aI2
aI3
aI4
aa(lp1991
I0
aI1
aI2
aI3
aI4
aI5
aI6
aa(lp1992
I0
aI1
aI2
aI3
aI4
aI5
aI6
aI7
aI8
aI9
aI10
aI11
aI12
aI13
aa(lp1993
I0
aI1
aI2
aI3
aI4
aI5
aI6
aI7
aI8
aI9
aI10
aI11
aI12
aI13
aI14
aag47
aS'@@stations'
p1994
asg1968
(lp1995
S'd30jan2006'
p1996
aS'@@last_changed'
p1997
asg14
(lp1998
I01
aI00
aS'@@insert_solver'
p1999
asg1954
(lp2000
I01
aI00
aS'@@redun'
p2001
asg10
(lp2002
g11
aS'@@ms_name'
p2003
asg1958
(lp2004
I01
aS'@@chain_solvers'
p2005
asg1960
(lp2006
Na(lp2007
I5
aI2
aa(lp2008
I2
aI2
aa(lp2009
I3
aI3
aaS'@@num_cells'
p2010
asg12
(lp2011
Nag72
aS'@@parmtable'
p2012
asg724
(lp2013
NaS'@@LSM_solve'
p2014
asg28
(lp2015
NaS'@@@Jsequence_simul'
p2016
asg1963
(lp2017
I1
aI2
aI3
aI5
aI10
aI20
aI50
aI100
aS'@@tile_size'
p2018
asg26
(lp2019
I00
aS'@@uvplane_effect'
p2020
asg29
(lp2021
NaS'@@@Jsequence'
p2022
assg80
Nsg109
S'2006-03-31 16:56'
p2023
sS'HISTORY'
p2024
(dp2025
g93
S'2006-03-31 16:56: Derived from: MG_JEN_simul_DJones.inarg'
p2026
sg95
S'2006-03-31 16:56: Derived from: MG_JEN_simul.inarg'
p2027
ssg20
g9
sg89
S'Predefined inarg record for simulating with DJones corruption'
p2028
sS'save_file'
p2029
S'MG_JEN_simul_DJones_protected.inarg'
p2030
sS'file_filter'
p2031
S'MG_JEN_simul*.inarg'
p2032
sg36
S''
p2033
sg82
I01
sg83
g2023
sg91
(dp2034
S'24'
p2035
S".modify():   ** OK ** (['I0', 'Qpct', 'Vpct', 'SI', 'RM', 'Upct', 'punit'])"
p2036
sS'20'
p2037
S'  0: ./MG_JEN_simul. (qual=None): .modify(insert_solver):   True  ->  False'
p2038
sS'21'
p2039
S'  0: ./MG_JEN_simul. (qual=None): .modify(parmtable):   None  ->  simul_DJones'
p2040
sS'22'
p2041
S'  0: ./MG_JEN_simul. (qual=None): .modify(LSM_solve):   None  ->  lsm_current.lsm'
p2042
sS'23'
p2043
S".modify(severe=False):   ** NOT OK **   found = {'nr_sources': 0, 'LSM_simul': 1, 'Jsequence_solve_uvp': 1, 'insert_solver': 1, 'parmtable': 25, 'solvegroup': 1, 'LSM_solve': 1, 'num_iter': 1, 'Jsequence_simul_uvp': 1}"
p2044
sg93
S'  0: ./MG_JEN_simul. (qual=None): .modify(tile_size):   10  ->  1'
p2045
sg95
S'  0: ./MG_JEN_simul. (qual=None): .modify(uvplane_effect):   False  ->  True'
p2046
sg97
S'** JEN_inarg.separator(): : uv-data (MS) stream_control'
p2047
sg99
S".modify():   ** OK ** (['uvplane_effect', 'tile_size'])"
p2048
sg101
S'** JEN_inarg.attach(): attached: ./MG_JEN_Cohset.make_spigots()'
p2049
sg103
S'** JEN_inarg.attach(): attached: ./MG_JEN_exec.stream_control()'
p2050
sg105
S'** JEN_inarg.attach(): attached: [simul]./MG_JEN_Sixpack.newstar_source()'
p2051
sg107
S'** JEN_inarg.separator(): : uv-data simulation (LeafSet)'
p2052
sS'9'
p2053
S'** JEN_inarg.attach(): attached: [simul]./MG_JEN_Cohset.predict_cps()'
p2054
sS'8'
p2055
S'** JEN_inarg.attach(): attached: [simul_uvp]./MG_JEN_Cohset.Jones()'
p2056
sS'11'
p2057
S'** JEN_inarg.separator(): : solver-branch (ParmSet)'
p2058
sS'10'
p2059
S'** JEN_inarg.attach(): attached: [simul]./MG_JEN_Cohset.predict_lsm()'
p2060
sS'13'
p2061
S'** JEN_inarg.attach(): attached: [solve_uvp]./MG_JEN_Cohset.Jones()'
p2062
sS'12'
p2063
S'** JEN_inarg.attach(): attached: [solve]./MG_JEN_Sixpack.newstar_source()'
p2064
sS'15'
p2065
S'** JEN_inarg.attach(): attached: [solve]./MG_JEN_Cohset.predict_lsm()'
p2066
sS'14'
p2067
S'** JEN_inarg.attach(): attached: [solve]./MG_JEN_Cohset.predict_cps()'
p2068
sS'17'
p2069
S'** JEN_inarg.separator(): : finishing touches'
p2070
sS'16'
p2071
S'** JEN_inarg.attach(): attached: ./MG_JEN_Cohset.insert_solver()'
p2072
sS'19'
p2073
S'  0: ./MG_JEN_simul. (qual=None): .modify(LSM_simul):   None  ->  lsm_current.lsm'
p2074
sS'18'
p2075
S'** JEN_inarg.attach(): attached: ./MG_JEN_Cohset.make_sinks()'
p2076
ssg112
(lp2077
g18
ag8
ag1968
ag10
ag1963
ag25
ag2
ag29
ag28
ag27
ag12
ag26
ag1958
ag1950
ag1954
ag1960
ag1
ag1948
ag14
ag4
aS'./MG_JEN_exec.stream_control()'
p2078
aS'./MG_JEN_Cohset.make_spigots()'
p2079
aS'_JEN_inarg_separator_record:_2'
p2080
ag1952
aS'[simul]./MG_JEN_Sixpack.newstar_source()'
p2081
ag726
aS'[simul]./MG_JEN_Cohset.predict_cps()'
p2082
ag1343
aS'_JEN_inarg_separator_record:_3'
p2083
ag724
ag1202
ag15
ag1915
aS'[solve]./MG_JEN_Cohset.predict_lsm()'
p2084
aS'./MG_JEN_Cohset.insert_solver()'
p2085
aS'_JEN_inarg_separator_record:_4'
p2086
aS'./MG_JEN_Cohset.make_sinks()'
p2087
assg2087
(dp2088
S'fullDomainMux'
p2089
I01
sS'output_col'
p2090
S'PREDICT'
p2091
sS'visu'
p2092
I01
sS'flag'
p2093
I00
sg18
(dp2094
g20
S'MG_JEN_Cohset::make_sinks()'
p2095
sg22
g2087
sg109
S'2006-03-31 16:56'
p2096
sg89
S'** Specific description of inarg record for: MG_JEN_Cohset::make_sinks()  version=25dec2005  defined=2006-03-31 16:56'
p2097
sg30
S'MG_JEN_Cohsetmake_sinks'
p2098
sg32
g33
sg34
S'MG_JEN_Cohset::make_sinks()  version=25dec2005  defined=2006-03-31 16:56'
p2099
sg36
S'make_sinks'
p2100
sg38
(dp2101
g2093
(lp2102
I01
aI00
aS'@@flag'
p2103
asg2092
(lp2104
I01
aI00
aS'@@visu'
p2105
asg2089
(lp2106
I01
aI00
aS'@@fullDomainMux'
p2107
asg2090
(lp2108
g2091
aS'RESIDUALS'
p2109
aS'DATA'
p2110
aS'@@output_col'
p2111
asS'visu_array_config'
p2112
(lp2113
I01
aI00
aS'@@visu_array_config'
p2114
assg80
Nsg85
g86
sg83
g2096
sg87
S'MG_JEN_Cohset'
p2115
sg237
(dp2116
g2093
I00
sg2092
I00
sg2089
I00
sg2112
I00
ssg82
I00
sg112
(lp2117
g18
ag2090
ag2112
ag2092
ag2093
ag2089
asg121
(dp2118
g2093
S'if True, insert a flagger for the output uv-data'
p2119
sg2092
S'if True, visualise the output uv-data'
p2120
sg2089
S'if True, attach an extra VisDataMux'
p2121
sg2090
S'name of the logical (VisTile) output column'
p2122
sg2112
S'if True, visualise the array config (from MS)'
p2123
ssg129
S'Make sink nodes in the given Cohset object'
p2124
ssg2112
I01
ssg27
Nsg2079
(dp2125
g2093
I00
sg2092
I01
sg18
(dp2126
g20
S'MG_JEN_Cohset::make_spigots()'
p2127
sg22
g2079
sg109
S'2006-03-31 16:56'
p2128
sg23
(dp2129
S'input_col'
p2130
I01
ssg30
S'MG_JEN_Cohsetmake_spigots'
p2131
sg32
g33
sg34
S'MG_JEN_Cohset::make_spigots()  version=25dec2005  defined=2006-03-31 16:56'
p2132
sg36
S'make_spigots'
p2133
sg38
(dp2134
g2093
(lp2135
I01
aI00
aS'@@flag'
p2136
asS'MS_corr_index'
p2137
(lp2138
(lp2139
I0
aI1
aI2
aI3
aa(lp2140
I0
aI-1
aI-1
aI1
aa(lp2141
I0
aI-1
aI-1
aI3
aaS'@@MS_corr_index'
p2142
asg2130
(lp2143
g2110
ag2091
ag2109
aS'@@input_col'
p2144
asg2092
(lp2145
I01
aI00
aS'@@visu'
p2146
assg80
Nsg85
g86
sg83
g2128
sg87
S'MG_JEN_Cohset'
p2147
sg237
(dp2148
g2093
I00
sg2092
I00
ssg89
S'** Specific description of inarg record for: MG_JEN_Cohset::make_spigots()  version=25dec2005  defined=2006-03-31 16:56'
p2149
sg82
I00
sg112
(lp2150
g18
ag2130
ag2137
ag2092
ag2093
asg121
(dp2151
g2093
S'if True, insert a flagger for the input uv-data'
p2152
sg2137
S'correlations to be used: \n- [0,1,2,3]:   all corrs available, use all \n- [0,-1,-1,1]: only XX/YY (or RR/LL) available \n- [0,-1,-1,3]: all available, but use only XX/YY or RR/LL'
p2153
sg2130
S'name of the logical (VisTile) input column'
p2154
sg2092
S'if True, visualise the input uv-data'
p2155
ssg129
S'Make spigot nodes in the given Cohset object'
p2156
ssg2130
g2110
sg2137
(lp2157
I0
aI1
aI2
aI3
assg2084
(dp2158
S'[solve_imp]./MG_JEN_Cohset.Jones()'
p2159
(dp2160
S'[solve_imp]./MG_JEN_Joneset.FJones()'
p2161
(dp2162
g132
I00
sg2
S'@@polrep'
p2163
sg135
g136
sg137
I00
sg12
S'@@parmtable'
p2164
sg141
Nsg142
I10
sg143
g144
sg147
g148
sg149
g150
sg151
Nsg18
(dp2165
g20
S'MG_JEN_Joneset::FJones()'
p2166
sg22
g2161
sg23
(dp2167
g143
I01
sg2
I01
sg155
I01
sg147
I01
sg25
I01
sg135
I01
sg156
I01
sg149
I01
sg26
I01
sg151
I01
sg157
I01
sg12
I01
sg27
I01
sg28
I01
sg142
I01
sg141
I01
sg29
I01
ssg129
g386
sg32
g33
sg34
S'MG_JEN_Joneset::FJones()  version=16dec2005  defined=2006-03-31 16:56'
p2168
sg36
S'FJones'
p2169
sg38
(dp2170
g132
(lp2171
I01
aI00
aS'@@reset_funklet'
p2172
asg2
(lp2173
g3
ag41
ag2163
asg135
(lp2174
g136
aS'@@color'
p2175
asg137
(lp2176
I01
aI00
aS'@@save_all'
p2177
asg157
(lp2178
NaS'@@tfdeg'
p2179
asg141
(lp2180
NaS'@@unit'
p2181
asg142
(lp2182
I10
aS'@@size'
p2183
asg143
(lp2184
g144
aS'@@style'
p2185
asg147
(lp2186
g148
aS'@@descr'
p2187
asg149
(lp2188
g150
aS'@@condeq_corrs'
p2189
asg151
(lp2190
NaS'@@funklet_shape'
p2191
asg180
(lp2192
I01
aI00
aS'@@auto_save'
p2193
asg27
(lp2194
g56
aS'@@@Jsequence_KJones'
p2195
asg29
(lp2196
g56
aS'@@@Jsequence'
p2197
asg155
(lp2198
F1.0
aS'@@c00_default'
p2199
asg26
(lp2200
I00
aS'@@uvplane_effect'
p2201
asg25
(lp2202
(lp2203
I0
aI1
aI2
aI3
aI4
aa(lp2204
I0
aI1
aI2
aI3
aI4
aI5
aI6
aa(lp2205
I0
aI1
aI2
aI3
aI4
aI5
aI6
aI7
aI8
aI9
aI10
aI11
aI12
aI13
aa(lp2206
I0
aI1
aI2
aI3
aI4
aI5
aI6
aI7
aI8
aI9
aI10
aI11
aI12
aI13
aI14
aag47
aS'@@stations'
p2207
asg427
(lp2208
I0
aI1
aI2
aI3
aS'@@tdeg_RM'
p2209
asg223
(lp2210
I01
aI00
aS'@@use_previous'
p2211
asg432
(lp2212
I0
aI1
aI2
aI3
aS'@@fdeg_RM'
p2213
asg156
(lp2214
NaS'@@subtile_size'
p2215
asg12
(lp2216
Nag72
ag2164
asg438
(lp2217
NaI1
aI2
aI5
aI10
aI20
aI50
aI100
aI200
aI500
aS'@@subtile_size_RM'
p2218
asg28
(lp2219
g56
aS'@@@Jsequence_simul'
p2220
assg80
S'solve_imp'
p2221
sg82
I00
sg83
S'2006-03-31 16:56'
p2222
sg85
g369
sg87
S'MG_JEN_Joneset'
p2223
sg237
(dp2224
g132
I00
sg137
I00
sg180
I00
sg223
I00
ssg89
S'** Specific description of inarg record for: MG_JEN_Joneset::FJones()  version=16dec2005  defined=2006-03-31 16:56'
p2225
sg110
(dp2226
g26
I00
sg12
I00
sg2
I00
sg25
I00
ssg109
g2222
sg112
(lp2227
g18
ag25
ag2
ag29
ag28
ag27
ag12
ag26
ag427
ag432
ag438
ag223
ag180
ag137
ag132
ag147
ag141
ag135
ag143
ag142
ag155
ag157
ag151
ag156
ag149
asg121
(dp2228
g132
g243
sg2
g123
sg135
g245
sg137
g246
sg157
g260
sg141
g141
sg142
g250
sg143
g251
sg147
g252
sg149
g253
sg151
g254
sg180
g249
sg27
g128
sg29
g128
sg155
g256
sg26
g126
sg25
g124
sg427
g450
sg223
g258
sg432
g451
sg156
g259
sg12
g127
sg438
g452
sg28
g128
ssg30
S'MG_JEN_JonesetFJones'
p2229
ssg27
g56
sg29
g56
sg155
F1.0
sg26
g2201
sg25
g2207
sg427
I0
sg223
I01
sg432
I2
sg156
Nsg157
Nsg438
I1
sg28
g56
sg180
I01
ssg27
NsS'[solve_imp]./MG_JEN_Joneset.JJones()'
p2230
(dp2231
g132
I00
sg2
S'@@polrep'
p2232
sg134
I0
sg135
g136
sg137
I00
sg138
Nsg12
S'@@parmtable'
p2233
sg140
Nsg141
Nsg142
I10
sg143
g144
sg145
g146
sg147
g148
sg149
g150
sg151
Nsg18
(dp2234
g20
S'MG_JEN_Joneset::JJones()'
p2235
sg22
g2230
sg23
(dp2236
g143
I01
sg2
I01
sg155
I01
sg147
I01
sg25
I01
sg135
I01
sg156
I01
sg149
I01
sg26
I01
sg151
I01
sg157
I01
sg12
I01
sg27
I01
sg28
I01
sg142
I01
sg141
I01
sg29
I01
ssg129
g159
sg32
g33
sg34
S'MG_JEN_Joneset::JJones()  version=14feb2006  defined=2006-03-31 16:56'
p2237
sg36
S'JJones'
p2238
sg38
(dp2239
g132
(lp2240
I01
aI00
aS'@@reset_funklet'
p2241
asg2
(lp2242
g3
ag41
ag2232
asg134
(lp2243
I0
aI1
aI2
aI3
aS'@@tdeg_Jreal'
p2244
asg135
(lp2245
g136
aS'@@color'
p2246
asg137
(lp2247
I01
aI00
aS'@@save_all'
p2248
asg138
(lp2249
Na(lp2250
I14
aa(lp2251
I1
aag175
aS'@@all4_always'
p2252
asg12
(lp2253
Nag72
ag2233
asg140
(lp2254
NaI1
aI2
aI5
aI10
aI20
aI50
aI100
aI200
aI500
aS'@@subtile_size_Jreal'
p2255
asg141
(lp2256
NaS'@@unit'
p2257
asg142
(lp2258
I10
aS'@@size'
p2259
asg143
(lp2260
g144
aS'@@style'
p2261
asg145
(lp2262
I0
aI1
aI2
aI3
ag146
aS'@@tdeg_Jimag'
p2263
asg147
(lp2264
g148
aS'@@descr'
p2265
asg149
(lp2266
g150
aS'@@condeq_corrs'
p2267
asg151
(lp2268
NaS'@@funklet_shape'
p2269
asg180
(lp2270
I01
aI00
aS'@@auto_save'
p2271
asg27
(lp2272
g66
aS'@@@Jsequence_KJones'
p2273
asg199
(lp2274
I0
aI1
aI2
aI3
aS'@@fdeg_Jreal'
p2275
asg155
(lp2276
F1.0
aS'@@c00_default'
p2277
asg26
(lp2278
I00
aS'@@uvplane_effect'
p2279
asg206
(lp2280
I0
aI1
aI2
aI3
ag208
aS'@@fdeg_Jimag'
p2281
asg210
(lp2282
g212
aNaI1
aI2
aI5
aI10
aI20
aI50
aI100
aI200
aI500
aS'@@subtile_size_Jimag'
p2283
asg25
(lp2284
(lp2285
I0
aI1
aI2
aI3
aI4
aa(lp2286
I0
aI1
aI2
aI3
aI4
aI5
aI6
aa(lp2287
I0
aI1
aI2
aI3
aI4
aI5
aI6
aI7
aI8
aI9
aI10
aI11
aI12
aI13
aa(lp2288
I0
aI1
aI2
aI3
aI4
aI5
aI6
aI7
aI8
aI9
aI10
aI11
aI12
aI13
aI14
aag47
aS'@@stations'
p2289
asg220
(lp2290
I01
aI00
aS'@@diagonal_only'
p2291
asg223
(lp2292
I01
aI00
aS'@@use_previous'
p2293
asg156
(lp2294
NaS'@@subtile_size'
p2295
asg157
(lp2296
NaS'@@tfdeg'
p2297
asg28
(lp2298
g66
aS'@@@Jsequence_simul'
p2299
asg29
(lp2300
g66
aS'@@@Jsequence'
p2301
assg80
g2221
sg82
I00
sg83
S'2006-03-31 16:56'
p2302
sg85
g235
sg87
S'MG_JEN_Joneset'
p2303
sg237
(dp2304
g132
I00
sg220
I00
sg137
I00
sg180
I00
sg223
I00
ssg89
S'** Specific description of inarg record for: MG_JEN_Joneset::JJones()  version=14feb2006  defined=2006-03-31 16:56'
p2305
sg110
(dp2306
g26
I00
sg12
I00
sg2
I00
sg25
I00
ssg109
g2302
sg112
(lp2307
g18
ag25
ag2
ag29
ag28
ag27
ag220
ag138
ag12
ag26
ag134
ag145
ag199
ag206
ag140
ag210
ag223
ag180
ag137
ag132
ag147
ag141
ag135
ag143
ag142
ag155
ag157
ag151
ag156
ag149
asg121
(dp2308
g132
g243
sg2
g123
sg134
g244
sg135
g245
sg137
g246
sg138
g247
sg12
g127
sg140
g248
sg141
g141
sg142
g250
sg143
g251
sg145
g244
sg147
g252
sg149
g253
sg151
g254
sg180
g249
sg27
g128
sg199
g255
sg155
g256
sg26
g126
sg206
g255
sg210
g248
sg25
g124
sg220
g257
sg223
g258
sg156
g259
sg157
g260
sg28
g128
sg29
g128
ssg30
S'MG_JEN_JonesetJJones'
p2309
ssg27
g66
sg199
I0
sg155
F1.0
sg26
g2279
sg206
g208
sg210
g212
sg25
g2289
sg220
I00
sg223
I01
sg156
Nsg157
Nsg28
g66
sg29
g66
sg180
I01
ssg25
S'@@stations'
p2310
sS'[solve_imp]./MG_JEN_Joneset.BJones()'
p2311
(dp2312
g132
I00
sg2
S'@@polrep'
p2313
sg135
g136
sg294
g295
sg137
I00
sg296
Nsg141
Nsg142
I10
sg143
g144
sg147
g148
sg297
I5
sg149
g150
sg151
Nsg18
(dp2314
g20
S'MG_JEN_Joneset::BJones()'
p2315
sg22
g2311
sg23
(dp2316
g143
I01
sg2
I01
sg155
I01
sg147
I01
sg25
I01
sg135
I01
sg156
I01
sg149
I01
sg26
I01
sg151
I01
sg157
I01
sg12
I01
sg27
I01
sg28
I01
sg142
I01
sg141
I01
sg29
I01
ssg129
g302
sg32
g33
sg34
S'MG_JEN_Joneset::BJones()  version=16dec2005  defined=2006-03-31 16:56'
p2317
sg36
S'BJones'
p2318
sg38
(dp2319
g132
(lp2320
I01
aI00
aS'@@reset_funklet'
p2321
asg2
(lp2322
g3
ag41
ag2313
asg135
(lp2323
g136
aS'@@color'
p2324
asg294
(lp2325
g295
aNaI1
aI2
aI5
aI10
aI20
aI50
aI100
aI200
aI500
aS'@@subtile_size_Bimag'
p2326
asg137
(lp2327
I01
aI00
aS'@@save_all'
p2328
asg296
(lp2329
NaI1
aI2
aI5
aI10
aI20
aI50
aI100
aI200
aI500
aS'@@subtile_size_Breal'
p2330
asg141
(lp2331
NaS'@@unit'
p2332
asg142
(lp2333
I10
aS'@@size'
p2334
asg143
(lp2335
g144
aS'@@style'
p2336
asg147
(lp2337
g148
aS'@@descr'
p2338
asg297
(lp2339
I3
aI4
aI5
aI6
aS'@@fdeg_Breal'
p2340
asg149
(lp2341
g150
aS'@@condeq_corrs'
p2342
asg151
(lp2343
NaS'@@funklet_shape'
p2344
asg180
(lp2345
I01
aI00
aS'@@auto_save'
p2346
asg27
(lp2347
g54
aS'@@@Jsequence_KJones'
p2348
asg335
(lp2349
I0
aI1
aI2
aI3
ag337
aS'@@tdeg_Bimag'
p2350
asg29
(lp2351
g54
aS'@@@Jsequence'
p2352
asg155
(lp2353
F1.0
aS'@@c00_default'
p2354
asg343
(lp2355
I3
aI4
aI5
aI6
ag345
aS'@@fdeg_Bimag'
p2356
asg26
(lp2357
I00
aS'@@uvplane_effect'
p2358
asg25
(lp2359
(lp2360
I0
aI1
aI2
aI3
aI4
aa(lp2361
I0
aI1
aI2
aI3
aI4
aI5
aI6
aa(lp2362
I0
aI1
aI2
aI3
aI4
aI5
aI6
aI7
aI8
aI9
aI10
aI11
aI12
aI13
aa(lp2363
I0
aI1
aI2
aI3
aI4
aI5
aI6
aI7
aI8
aI9
aI10
aI11
aI12
aI13
aI14
aag47
aS'@@stations'
p2364
asg157
(lp2365
NaS'@@tfdeg'
p2366
asg357
(lp2367
I0
aI1
aI2
aI3
aS'@@tdeg_Breal'
p2368
asg223
(lp2369
I01
aI00
aS'@@use_previous'
p2370
asg156
(lp2371
NaS'@@subtile_size'
p2372
asg12
(lp2373
Nag72
aS'@@parmtable'
p2374
asg28
(lp2375
g54
aS'@@@Jsequence_simul'
p2376
assg80
g2221
sg82
I00
sg83
S'2006-03-31 16:56'
p2377
sg85
g369
sg87
S'MG_JEN_Joneset'
p2378
sg237
(dp2379
g132
I00
sg137
I00
sg180
I00
sg223
I00
ssg89
S'** Specific description of inarg record for: MG_JEN_Joneset::BJones()  version=16dec2005  defined=2006-03-31 16:56'
p2380
sg110
(dp2381
g26
I00
sg12
I00
sg2
I00
sg25
I00
ssg109
g2377
sg112
(lp2382
g18
ag25
ag2
ag29
ag28
ag27
ag12
ag26
ag357
ag335
ag297
ag343
ag296
ag294
ag223
ag180
ag137
ag132
ag147
ag141
ag135
ag143
ag142
ag155
ag157
ag151
ag156
ag149
asg121
(dp2383
g132
g243
sg2
g123
sg135
g245
sg294
g376
sg137
g246
sg296
g376
sg141
g141
sg142
g250
sg143
g251
sg147
g252
sg297
g377
sg149
g253
sg151
g254
sg180
g249
sg27
g128
sg335
g378
sg29
g128
sg155
g256
sg343
g377
sg26
g126
sg25
g124
sg157
g260
sg357
g378
sg223
g258
sg156
g259
sg12
g127
sg28
g128
ssg30
S'MG_JEN_JonesetBJones'
p2384
ssg27
g54
sg335
g337
sg29
g54
sg155
F1.0
sg343
g345
sg26
g2358
sg25
g2364
sg157
Nsg357
I0
sg223
I01
sg156
Nsg12
g2374
sg28
g54
sg180
I01
ssS'[solve_imp]./MG_JEN_Joneset.DJones_WSRT()'
p2385
(dp2386
g132
I00
sg2
S'@@polrep'
p2387
sg135
g136
sg546
g547
sg548
I01
sg137
I00
sg141
Nsg12
S'@@parmtable'
p2388
sg550
Nsg180
I01
sg142
I10
sg143
g144
sg147
g148
sg149
g150
sg151
Nsg18
(dp2389
g20
S'MG_JEN_Joneset::DJones_WSRT()'
p2390
sg22
g2385
sg23
(dp2391
g143
I01
sg2
I01
sg155
I01
sg147
I01
sg25
I01
sg135
I01
sg156
I01
sg149
I01
sg26
I01
sg151
I01
sg157
I01
sg12
I01
sg27
I01
sg28
I01
sg142
I01
sg141
I01
sg29
I01
ssg129
g555
sg32
g33
sg34
S'MG_JEN_Joneset::DJones_WSRT()  version=16dec2005  defined=2006-03-31 16:56'
p2392
sg36
S'DJones_WSRT'
p2393
sg38
(dp2394
g132
(lp2395
I01
aI00
aS'@@reset_funklet'
p2396
asg2
(lp2397
g3
ag41
ag2387
asg135
(lp2398
g136
aS'@@color'
p2399
asg546
(lp2400
I0
aI1
aI2
aI3
ag547
aS'@@fdeg_Dell'
p2401
asg548
(lp2402
I01
aI00
aS'@@coupled_XY_Dell'
p2403
asg137
(lp2404
I01
aI00
aS'@@save_all'
p2405
asg12
(lp2406
Nag72
ag2388
asg550
(lp2407
NaI1
aI2
aI5
aI10
aI20
aI50
aI100
aI200
aI500
aS'@@subtile_size_Dang'
p2408
asg141
(lp2409
NaS'@@unit'
p2410
asg142
(lp2411
I10
aS'@@size'
p2412
asg143
(lp2413
g144
aS'@@style'
p2414
asg147
(lp2415
g148
aS'@@descr'
p2416
asg149
(lp2417
g150
aS'@@condeq_corrs'
p2418
asg151
(lp2419
NaS'@@funklet_shape'
p2420
asg180
(lp2421
I01
aI00
aS'@@auto_save'
p2422
asg27
(lp2423
g60
aS'@@@Jsequence_KJones'
p2424
asg589
(lp2425
g591
aNaI1
aI2
aI5
aI10
aI20
aI50
aI100
aI200
aI500
aS'@@subtile_size_Dell'
p2426
asg29
(lp2427
g60
aS'@@@Jsequence'
p2428
asg595
(lp2429
I0
aI1
aI2
aI3
aS'@@fdeg_Dang'
p2430
asg155
(lp2431
F1.0
aS'@@c00_default'
p2432
asg26
(lp2433
I00
aS'@@uvplane_effect'
p2434
asg602
(lp2435
I0
aI1
aI2
aI3
ag604
aS'@@tdeg_Dell'
p2436
asg606
(lp2437
I01
aI00
aS'@@coupled_XY_Dang'
p2438
asg609
(lp2439
I0
aI1
aI2
aI3
aS'@@tdeg_Dang'
p2440
asg25
(lp2441
(lp2442
I0
aI1
aI2
aI3
aI4
aa(lp2443
I0
aI1
aI2
aI3
aI4
aI5
aI6
aa(lp2444
I0
aI1
aI2
aI3
aI4
aI5
aI6
aI7
aI8
aI9
aI10
aI11
aI12
aI13
aa(lp2445
I0
aI1
aI2
aI3
aI4
aI5
aI6
aI7
aI8
aI9
aI10
aI11
aI12
aI13
aI14
aag47
aS'@@stations'
p2446
asg223
(lp2447
I01
aI00
aS'@@use_previous'
p2448
asg156
(lp2449
NaS'@@subtile_size'
p2450
asg157
(lp2451
NaS'@@tfdeg'
p2452
asg28
(lp2453
g60
aS'@@@Jsequence_simul'
p2454
assg80
g2221
sg82
I00
sg83
S'2006-03-31 16:56'
p2455
sg85
g369
sg87
S'MG_JEN_Joneset'
p2456
sg237
(dp2457
g132
I00
sg548
I00
sg137
I00
sg606
I00
sg223
I00
sg180
I00
ssg89
S'** Specific description of inarg record for: MG_JEN_Joneset::DJones_WSRT()  version=16dec2005  defined=2006-03-31 16:56'
p2458
sg110
(dp2459
g26
I00
sg12
I00
sg2
I00
sg25
I00
ssg109
g2455
sg112
(lp2460
g18
ag25
ag2
ag29
ag28
ag27
ag606
ag548
ag12
ag26
ag609
ag602
ag595
ag546
ag550
ag589
ag223
ag180
ag137
ag132
ag147
ag141
ag135
ag143
ag142
ag155
ag157
ag151
ag156
ag149
asg121
(dp2461
g132
g243
sg2
g123
sg135
g245
sg546
g633
sg548
g634
sg137
g246
sg12
g127
sg550
g635
sg141
g141
sg142
g250
sg143
g251
sg147
g252
sg149
g253
sg151
g254
sg180
g249
sg27
g128
sg589
g635
sg29
g128
sg595
g633
sg155
g256
sg26
g126
sg602
g636
sg606
g637
sg609
g636
sg25
g124
sg223
g258
sg156
g259
sg157
g260
sg28
g128
ssg30
S'MG_JEN_JonesetDJones_WSRT'
p2462
ssg27
g60
sg589
g591
sg29
g60
sg595
I0
sg155
F1.0
sg26
g2434
sg602
g604
sg606
I01
sg609
I0
sg25
g2446
sg223
I01
sg156
Nsg157
Nsg28
g60
ssg26
S'@@uvplane_effect'
p2463
sg12
S'@@parmtable'
p2464
sg18
(dp2465
g20
g21
sg22
g2159
sg23
(dp2466
g2
I01
sg25
I01
sg26
I01
sg12
I01
sg27
I01
sg28
I01
sg29
I01
ssg30
S'MG_JEN_CohsetJones'
p2467
sg32
g33
sg129
g130
sg34
S'MG_JEN_Cohset::Jones()  version=25dec2005  defined=2006-03-31 16:56'
p2468
sg36
S'Jones'
p2469
sg38
(dp2470
g2
(lp2471
g3
ag41
aS'@@polrep'
p2472
asg25
(lp2473
(lp2474
I0
aI1
aI2
aI3
aI4
aa(lp2475
I0
aI1
aI2
aI3
aI4
aI5
aI6
aa(lp2476
I0
aI1
aI2
aI3
aI4
aI5
aI6
aI7
aI8
aI9
aI10
aI11
aI12
aI13
aa(lp2477
I0
aI1
aI2
aI3
aI4
aI5
aI6
aI7
aI8
aI9
aI10
aI11
aI12
aI13
aI14
aag47
ag2310
asg26
(lp2478
I00
ag2463
asg12
(lp2479
Nag72
ag2464
asg27
(lp2480
NaS'@@@Jsequence_KJones'
p2481
asg28
(lp2482
NaS'@@@Jsequence_simul'
p2483
asS'Jsequence_solve_imp'
p2484
(lp2485
(lp2486
g52
aa(lp2487
g54
aa(lp2488
g56
aa(lp2489
g58
aa(lp2490
g60
aa(lp2491
g52
ag60
aa(lp2492
g63
aa(lp2493
g52
ag63
aa(lp2494
g66
aa(lp2495
aS'@@Jsequence_solve_imp'
p2496
asg29
(lp2497
NaS'@@@Jsequence'
p2498
assg80
g2221
sg82
I00
sg83
S'2006-03-31 16:56'
p2499
sg85
g86
sg87
S'MG_JEN_Cohset'
p2500
sg89
S'** Specific description of inarg record for: MG_JEN_Cohset::Jones()  version=25dec2005  defined=2006-03-31 16:56'
p2501
sg91
(dp2502
g93
S'** JEN_inarg.attach(): attached: [solve_imp]./MG_JEN_Joneset.FJones()'
p2503
sg95
S'** JEN_inarg.attach(): attached: [solve_imp]./MG_JEN_Joneset.GJones()'
p2504
sg97
S'** JEN_inarg.attach(): attached: [solve_imp]./MG_JEN_Joneset.KJones()'
p2505
sg99
S'** JEN_inarg.attach(): attached: [solve_imp]./MG_JEN_Joneset.BJones()'
p2506
sg101
S'** JEN_inarg.attach(): attached: [solve_imp]./MG_JEN_Joneset.EJones_WSRT()'
p2507
sg103
S'** JEN_inarg.attach(): attached: [solve_imp]./MG_JEN_Joneset.DJones_WSRT()'
p2508
sg107
S'** JEN_inarg.attach(): attached: [solve_imp]./MG_JEN_Joneset.JJones()'
p2509
ssg109
g2499
sg110
(dp2510
g26
I00
sg12
I00
sg2
I00
sg25
I00
ssg112
(lp2511
g18
ag25
ag2
ag29
ag28
ag27
ag12
ag26
ag2484
aS'[solve_imp]./MG_JEN_Joneset.GJones()'
p2512
ag2161
ag2311
aS'[solve_imp]./MG_JEN_Joneset.KJones()'
p2513
ag2385
aS'[solve_imp]./MG_JEN_Joneset.EJones_WSRT()'
p2514
ag2230
asg121
(dp2515
g2
g123
sg25
g124
sg26
g126
sg12
g127
sg27
g128
sg28
g128
sg2484
g125
sg29
g128
sssg2512
(dp2516
g132
I00
sg2
S'@@polrep'
p2517
sg455
I0
sg135
g136
sg137
I00
sg12
S'@@parmtable'
p2518
sg141
Nsg142
I10
sg143
g144
sg147
g148
sg457
I1
sg149
g150
sg151
Nsg18
(dp2519
g20
S'MG_JEN_Joneset::GJones()'
p2520
sg22
g2512
sg23
(dp2521
g142
I01
sg143
I01
sg2
I01
sg155
I01
sg147
I01
sg25
I01
sg135
I01
sg156
I01
sg149
I01
sg26
I01
sg151
I01
sg157
I01
sg12
I01
sg27
I01
sg28
I01
sg461
I01
sg141
I01
sg29
I01
ssg129
g463
sg32
g33
sg34
S'MG_JEN_Joneset::GJones()  version=15dec2005  defined=2006-03-31 16:56'
p2522
sg36
S'GJones'
p2523
sg38
(dp2524
g132
(lp2525
I01
aI00
aS'@@reset_funklet'
p2526
asg2
(lp2527
g3
ag41
ag2517
asg455
(lp2528
I0
aI1
aI2
aI3
aS'@@fdeg_Ggain'
p2529
asg135
(lp2530
g136
aS'@@color'
p2531
asg137
(lp2532
I01
aI00
aS'@@save_all'
p2533
asg12
(lp2534
Nag72
ag2518
asg141
(lp2535
NaS'@@unit'
p2536
asg142
(lp2537
I10
aS'@@size'
p2538
asg143
(lp2539
g144
aS'@@style'
p2540
asg147
(lp2541
g148
aS'@@descr'
p2542
asg457
(lp2543
NaI1
aI2
aI5
aI10
aI20
aI50
aI100
aI200
aI500
aS'@@subtile_size_Ggain'
p2544
asg149
(lp2545
g150
aS'@@condeq_corrs'
p2546
asg151
(lp2547
NaS'@@funklet_shape'
p2548
asg180
(lp2549
I01
aI00
aS'@@auto_save'
p2550
asg27
(lp2551
g52
aS'@@@Jsequence_KJones'
p2552
asg29
(lp2553
g52
aS'@@@Jsequence'
p2554
asg155
(lp2555
F1.0
aS'@@c00_default'
p2556
asg499
(lp2557
I0
aI1
aI2
aI3
ag501
aS'@@tdeg_Gphase'
p2558
asg503
(lp2559
I0
aI1
aI2
aI3
aS'@@tdeg_Ggain'
p2560
asg506
(lp2561
I0
aI1
aI2
aI3
ag508
aS'@@fdeg_Gphase'
p2562
asg510
(lp2563
g512
aNaI1
aI2
aI5
aI10
aI20
aI50
aI100
aI200
aI500
aS'@@subtile_size_Gphase'
p2564
asg461
(lp2565
I01
aI00
aS'@@Gpolar'
p2566
asg26
(lp2567
I00
aS'@@uvplane_effect'
p2568
asg25
(lp2569
(lp2570
I0
aI1
aI2
aI3
aI4
aa(lp2571
I0
aI1
aI2
aI3
aI4
aI5
aI6
aa(lp2572
I0
aI1
aI2
aI3
aI4
aI5
aI6
aI7
aI8
aI9
aI10
aI11
aI12
aI13
aa(lp2573
I0
aI1
aI2
aI3
aI4
aI5
aI6
aI7
aI8
aI9
aI10
aI11
aI12
aI13
aI14
aag47
aS'@@stations'
p2574
asg223
(lp2575
I01
aI00
aS'@@use_previous'
p2576
asg156
(lp2577
NaS'@@subtile_size'
p2578
asg157
(lp2579
NaS'@@tfdeg'
p2580
asg28
(lp2581
g52
aS'@@@Jsequence_simul'
p2582
assg80
g2221
sg82
I00
sg83
S'2006-03-31 16:56'
p2583
sg85
g533
sg87
S'MG_JEN_Joneset'
p2584
sg237
(dp2585
g132
I00
sg461
I00
sg137
I00
sg180
I00
sg223
I00
ssg89
S'** Specific description of inarg record for: MG_JEN_Joneset::GJones()  version=15dec2005  defined=2006-03-31 16:56'
p2586
sg110
(dp2587
g26
I00
sg12
I00
sg2
I00
sg25
I00
ssg109
g2583
sg112
(lp2588
g18
ag25
ag2
ag29
ag28
ag27
ag461
ag12
ag26
ag503
ag499
ag455
ag506
ag457
ag510
ag223
ag180
ag137
ag132
ag147
ag141
ag135
ag143
ag142
ag155
ag157
ag151
ag156
ag149
asg121
(dp2589
g132
g243
sg2
g123
sg455
g540
sg135
g245
sg137
g246
sg12
g127
sg141
g141
sg142
g250
sg143
g251
sg147
g252
sg457
g541
sg149
g253
sg151
g254
sg180
g249
sg27
g128
sg29
g128
sg155
g256
sg499
g542
sg503
g542
sg506
g540
sg510
g541
sg461
g543
sg26
g126
sg25
g124
sg223
g258
sg156
g259
sg157
g260
sg28
g128
ssg30
S'MG_JEN_JonesetGJones'
p2590
ssg27
g52
sg29
g52
sg155
F1.0
sg499
g501
sg503
I0
sg506
g508
sg510
g512
sg461
I01
sg26
g2568
sg25
g2574
sg223
I01
sg156
Nsg157
Nsg28
g52
sg180
I01
ssg2
g2472
sg28
Nsg2513
(dp2591
g2
S'@@polrep'
p2592
sg25
S'@@stations'
p2593
sg18
(dp2594
g20
S'MG_JEN_Joneset::KJones()'
p2595
sg22
g2513
sg23
(dp2596
g27
I01
sg28
I01
sg29
I01
sg2
I01
sg25
I01
ssg129
g268
sg32
g33
sg34
S'MG_JEN_Joneset::KJones()  version=12dec2005  defined=2006-03-31 16:56'
p2597
sg36
S'KJones'
p2598
sg38
(dp2599
g27
(lp2600
g58
aS'@@@Jsequence_KJones'
p2601
asg28
(lp2602
g58
aS'@@@Jsequence_simul'
p2603
asg29
(lp2604
g58
aS'@@@Jsequence'
p2605
asg2
(lp2606
g3
ag41
ag2592
asg25
(lp2607
(lp2608
I0
aI1
aI2
aI3
aI4
aa(lp2609
I0
aI1
aI2
aI3
aI4
aI5
aI6
aa(lp2610
I0
aI1
aI2
aI3
aI4
aI5
aI6
aI7
aI8
aI9
aI10
aI11
aI12
aI13
aa(lp2611
I0
aI1
aI2
aI3
aI4
aI5
aI6
aI7
aI8
aI9
aI10
aI11
aI12
aI13
aI14
aag47
ag2593
assg80
g2221
sg82
I00
sg83
S'2006-03-31 16:56'
p2612
sg85
g285
sg87
S'MG_JEN_Joneset'
p2613
sg89
S'** Specific description of inarg record for: MG_JEN_Joneset::KJones()  version=12dec2005  defined=2006-03-31 16:56'
p2614
sg110
(dp2615
g2
I00
sg25
I00
ssg109
g2612
sg112
(lp2616
g18
ag25
ag2
ag29
ag28
ag27
asg121
(dp2617
g27
g128
sg28
g128
sg29
g128
sg2
g123
sg25
g124
ssg30
S'MG_JEN_JonesetKJones'
p2618
ssg27
g58
sg28
g58
sg29
g58
ssg2484
(lp2619
sg2514
(dp2620
g132
I00
sg2
S'@@polrep'
p2621
sg135
g136
sg137
I00
sg141
Nsg12
S'@@parmtable'
p2622
sg180
I01
sg142
I10
sg641
I0
sg642
g643
sg143
g144
sg147
g148
sg156
Nsg149
g150
sg151
Nsg18
(dp2623
g20
S'MG_JEN_Joneset::EJones_WSRT()'
p2624
sg22
g2514
sg23
(dp2625
g143
I01
sg2
I01
sg155
I01
sg147
I01
sg25
I01
sg135
I01
sg156
I01
sg149
I01
sg26
I01
sg151
I01
sg157
I01
sg12
I01
sg27
I01
sg28
I01
sg142
I01
sg141
I01
sg29
I01
ssg129
g651
sg32
g33
sg34
S'MG_JEN_Joneset::EJones_WSRT()  version=15dec2005  defined=2006-03-31 16:56'
p2626
sg36
S'EJones_WSRT'
p2627
sg38
(dp2628
g132
(lp2629
I01
aI00
aS'@@reset_funklet'
p2630
asg2
(lp2631
g3
ag41
ag2621
asg135
(lp2632
g136
aS'@@color'
p2633
asg137
(lp2634
I01
aI00
aS'@@save_all'
p2635
asg12
(lp2636
Nag72
ag2622
asg141
(lp2637
NaS'@@unit'
p2638
asg142
(lp2639
I10
aS'@@size'
p2640
asg641
(lp2641
I0
aI1
aI2
aI3
aS'@@tdeg_Edl'
p2642
asg642
(lp2643
I0
aI1
aI2
aI3
ag643
aS'@@tdeg_Edm'
p2644
asg143
(lp2645
g144
aS'@@style'
p2646
asg147
(lp2647
g148
aS'@@descr'
p2648
asg156
(lp2649
NaS'@@subtile_size'
p2650
asg149
(lp2651
g150
aS'@@condeq_corrs'
p2652
asg151
(lp2653
NaS'@@funklet_shape'
p2654
asg180
(lp2655
I01
aI00
aS'@@auto_save'
p2656
asg27
(lp2657
g63
aS'@@@Jsequence_KJones'
p2658
asg29
(lp2659
g63
aS'@@@Jsequence'
p2660
asg155
(lp2661
F1.0
aS'@@c00_default'
p2662
asg26
(lp2663
I00
aS'@@uvplane_effect'
p2664
asg25
(lp2665
(lp2666
I0
aI1
aI2
aI3
aI4
aa(lp2667
I0
aI1
aI2
aI3
aI4
aI5
aI6
aa(lp2668
I0
aI1
aI2
aI3
aI4
aI5
aI6
aI7
aI8
aI9
aI10
aI11
aI12
aI13
aa(lp2669
I0
aI1
aI2
aI3
aI4
aI5
aI6
aI7
aI8
aI9
aI10
aI11
aI12
aI13
aI14
aag47
aS'@@stations'
p2670
asg157
(lp2671
NaS'@@tfdeg'
p2672
asg223
(lp2673
I01
aI00
aS'@@use_previous'
p2674
asg644
(lp2675
NaI1
aI2
aI5
aI10
aI20
aI50
aI100
aI200
aI500
aS'@@subtile_size_Edl'
p2676
asg645
(lp2677
g646
aNaI1
aI2
aI5
aI10
aI20
aI50
aI100
aI200
aI500
aS'@@subtile_size_Edm'
p2678
asg28
(lp2679
g63
aS'@@@Jsequence_simul'
p2680
asg707
(lp2681
I0
aI1
aI2
aI3
aS'@@fdeg_Edl'
p2682
asg710
(lp2683
I0
aI1
aI2
aI3
ag712
aS'@@fdeg_Edm'
p2684
assg80
g2221
sg82
I00
sg83
S'2006-03-31 16:56'
p2685
sg85
g533
sg87
S'MG_JEN_Joneset'
p2686
sg237
(dp2687
g132
I00
sg137
I00
sg180
I00
sg223
I00
ssg89
S'** Specific description of inarg record for: MG_JEN_Joneset::EJones_WSRT()  version=15dec2005  defined=2006-03-31 16:56'
p2688
sg110
(dp2689
g26
I00
sg12
I00
sg2
I00
sg25
I00
ssg109
g2685
sg112
(lp2690
g18
ag25
ag2
ag29
ag28
ag27
ag12
ag26
ag641
ag642
ag707
ag710
ag644
ag645
ag223
ag180
ag137
ag132
ag147
ag141
ag135
ag143
ag142
ag155
ag157
ag151
ag156
ag149
asg121
(dp2691
g132
g243
sg2
g123
sg135
g245
sg137
g246
sg12
g127
sg141
g141
sg142
g250
sg641
g721
sg642
g721
sg143
g251
sg147
g252
sg156
g259
sg149
g253
sg151
g254
sg180
g249
sg27
g128
sg29
g128
sg155
g256
sg26
g126
sg25
g124
sg157
g260
sg223
g258
sg644
g722
sg645
g722
sg28
g128
sg707
g723
sg710
g723
ssg30
S'MG_JEN_JonesetEJones_WSRT'
p2692
ssg27
g63
sg29
g63
sg155
F1.0
sg26
g2664
sg25
g2670
sg157
Nsg223
I01
sg644
Nsg645
g646
sg28
g63
sg707
I0
sg710
g712
ssg29
Nssg2
S'@@polrep'
p2693
sg25
S'@@stations'
p2694
sg18
(dp2695
g20
g1348
sg22
g2084
sg23
(dp2696
g27
I01
sg28
I01
sg29
I01
sg2
I01
sg25
I01
ssg30
S'MG_JEN_Cohsetpredict_lsm'
p2697
sg32
g33
sg34
S'MG_JEN_Cohset::predict_lsm()  version=20mar2006  defined=2006-03-31 16:56'
p2698
sg36
S'predict_lsm'
p2699
sg38
(dp2700
g2
(lp2701
g3
ag41
ag2693
asg25
(lp2702
(lp2703
I0
aI1
aI2
aI3
aI4
aa(lp2704
I0
aI1
aI2
aI3
aI4
aI5
aI6
aa(lp2705
I0
aI1
aI2
aI3
aI4
aI5
aI6
aI7
aI8
aI9
aI10
aI11
aI12
aI13
aa(lp2706
I0
aI1
aI2
aI3
aI4
aI5
aI6
aI7
aI8
aI9
aI10
aI11
aI12
aI13
aI14
aag47
ag2694
asg1360
(lp2707
I1
aI2
aI3
aI5
aI10
aI20
aI100
aS'@@nr_lsm_sources'
p2708
asg27
(lp2709
NaS'@@@Jsequence_KJones'
p2710
asg28
(lp2711
NaS'@@@Jsequence_simul'
p2712
asg29
(lp2713
NaS'@@@Jsequence'
p2714
assg80
g1222
sg82
I00
sg83
S'2006-03-31 16:56'
p2715
sg85
g1371
sg87
S'MG_JEN_Cohset'
p2716
sg89
S'** Specific description of inarg record for: MG_JEN_Cohset::predict_lsm()  version=20mar2006  defined=2006-03-31 16:56'
p2717
sg91
(dp2718
g95
S'** JEN_inarg.attach(): attached: [solve_imp]./MG_JEN_Cohset.Jones()'
p2719
ssg109
g2715
sg110
(dp2720
g2
I00
sg25
I00
ssg112
(lp2721
g18
ag1360
ag25
ag2
ag29
ag28
ag27
ag2159
asg121
(dp2722
g2
g123
sg25
g124
sg1360
g1380
sg27
g128
sg28
g128
sg29
g128
ssg129
g1381
ssg1360
I1
sg27
Nsg28
Nsg29
Nssg29
Nsg1952
g725
sg1968
g1996
sg26
I01
sg1960
Nsg2082
(dp2723
g2
S'@@polrep'
p2724
sg25
S'@@stations'
p2725
sg18
(dp2726
g20
g1920
sg22
g2082
sg23
(dp2727
g27
I01
sg28
I01
sg29
I01
sg2
I01
sg25
I01
ssg30
S'MG_JEN_Cohsetpredict_cps'
p2728
sg32
g33
sg34
S'MG_JEN_Cohset::predict_cps()  version=20mar2006  defined=2006-03-31 16:56'
p2729
sg36
S'predict_cps'
p2730
sg38
(dp2731
g27
(lp2732
NaS'@@@Jsequence_KJones'
p2733
asg28
(lp2734
NaS'@@@Jsequence_simul'
p2735
asg29
(lp2736
NaS'@@@Jsequence'
p2737
asg2
(lp2738
g3
ag41
ag2724
asg25
(lp2739
(lp2740
I0
aI1
aI2
aI3
aI4
aa(lp2741
I0
aI1
aI2
aI3
aI4
aI5
aI6
aa(lp2742
I0
aI1
aI2
aI3
aI4
aI5
aI6
aI7
aI8
aI9
aI10
aI11
aI12
aI13
aa(lp2743
I0
aI1
aI2
aI3
aI4
aI5
aI6
aI7
aI8
aI9
aI10
aI11
aI12
aI13
aI14
aag47
ag2725
assg80
g1369
sg82
I00
sg83
S'2006-03-31 16:56'
p2744
sg85
g1371
sg87
S'MG_JEN_Cohset'
p2745
sg89
S'** Specific description of inarg record for: MG_JEN_Cohset::predict_cps()  version=20mar2006  defined=2006-03-31 16:56'
p2746
sg110
(dp2747
g2
I00
sg25
I00
ssg109
g2744
sg112
(lp2748
g18
ag25
ag2
ag29
ag28
ag27
asg121
(dp2749
g27
g128
sg28
g128
sg29
g128
sg2
g123
sg25
g124
ssg129
g1381
ssg27
Nsg28
Nsg29
Nssg1948
F0.0
sg1950
I00
sg1963
I1
sg25
g1990
sg2086
(dp2750
g6
S'finishing touches'
p2751
ssg2078
(dp2752
S'channel_start_index'
p2753
I0
sS'data_column_name'
p2754
S'CORRECTED_DATA'
p2755
sS'predict_column'
p2756
g2755
sg10
S'@@ms_name'
p2757
sg18
(dp2758
g22
g2078
sg121
(dp2759
g2753
S'(inputrec.sel) index of first selected freq channel'
p2760
sg2754
S'(inputrec) MS input column'
p2761
sg2756
S'MS output column to be associated with the VisTile predict-column'
p2762
sg10
g1957
sg1963
g1964
sS'channel_increment'
p2763
S'(inputrec.sel) take every nth channel (1=all)'
p2764
sS'channel_end_index'
p2765
S'(inputrec.sel) index of last selected freq channel'
p2766
sS'write_flags'
p2767
S'(outputrec) if True, write flags to MS'
p2768
ssg32
g33
sg87
S'MG_JEN_exec'
p2769
sg23
(dp2770
g10
I01
sg1963
I01
ssg1969
(dp2771
g10
g1971
ssg85
S'20jan2006'
p2772
sg110
(dp2773
g10
I00
sg1963
I00
ssg129
S'** Description of script: MG_JEN_exec::stream_control()  version=20jan2006  defined=2006-03-31 16:56'
p2774
sg237
(dp2775
g2767
I00
ssg34
S'MG_JEN_exec::stream_control()  version=20jan2006  defined=2006-03-31 16:56'
p2776
sg38
(dp2777
g2753
(lp2778
I0
aI5
aI10
aI20
aS'@@channel_start_index'
p2779
asg2754
(lp2780
g2110
ag2755
aS'@@data_column_name'
p2781
asg2756
(lp2782
g2110
ag2755
aS'MODEL_DATA'
p2783
aS'@@predict_column'
p2784
asg10
(lp2785
g11
ag2757
asg1963
(lp2786
I1
aI2
aI3
aI5
aI10
aI20
aI50
aI100
aS'@@tile_size'
p2787
asg2763
(lp2788
I1
aI2
aI3
aI5
aI10
aS'@@channel_increment'
p2789
asg2765
(lp2790
I-1
aI25
aI50
aI100
aS'@@channel_end_index'
p2791
asg2767
(lp2792
I01
aI00
aS'@@write_flags'
p2793
assg80
Nsg109
S'2006-03-31 16:56'
p2794
sg20
S'MG_JEN_exec::stream_control()'
p2795
sg89
S'** Specific description of inarg record for: MG_JEN_exec::stream_control()  version=20jan2006  defined=2006-03-31 16:56'
p2796
sg30
S'MG_JEN_execstream_control'
p2797
sg36
S'stream_control'
p2798
sg82
I00
sg83
g2794
sg91
(dp2799
g93
S'  1: .../MG_JEN_exec.stream_control() (qual=None): .modify(channel_start_index):   10  ->  0'
p2800
sg95
S'  1: .../MG_JEN_exec.stream_control() (qual=None): .modify(data_column_name):   DATA  ->  CORRECTED_DATA'
p2801
sg99
S'  1: .../MG_JEN_exec.stream_control() (qual=None): .modify(channel_end_index):   50  ->  -1'
p2802
ssg112
(lp2803
g18
ag10
ag1963
ag2754
ag2753
ag2765
ag2763
ag2767
ag2756
assg1963
g2787
sg2763
I1
sg2765
I-1
sg2767
I00
ssg1954
I00
sg2083
(dp2804
g6
S'solver-branch (ParmSet)'
p2805
ssg2080
(dp2806
g6
S'uv-data simulation (LeafSet)'
p2807
ssg1958
I01
sg28
Nsg2081
(dp2808
g1204
F1000000.0
sg132
I00
sg1205
F0.0
sg1206
I00
sg135
g136
sg137
I00
sg1207
g1208
sg12
g13
sg1209
I-10
sg141
Nsg142
I10
sg143
g144
sg147
g148
sg1210
F1.0
sg156
Nsg149
g150
sg1211
Nsg151
Nsg1212
F0.0
sg18
(dp2809
g20
g1214
sg22
g2081
sg109
S'2006-03-31 16:56'
p2810
sg23
(dp2811
g1204
I01
sg1205
I01
sg1206
I01
sg1217
I01
sg147
I01
sg151
I01
sg135
I01
sg155
I01
sg1207
I01
sg1218
I01
sg1219
I00
sg156
I01
sg1212
I01
sg149
I01
sg157
I01
sg141
I01
sg143
I01
sg1220
I01
sg142
I01
ssg30
S'MG_JEN_Sixpacknewstar_source'
p2812
sg80
g1369
sg32
g33
sg34
S'MG_JEN_Sixpack::newstar_source()  version=10feb2006  defined=2006-03-31 16:56'
p2813
sg36
S'newstar_source'
p2814
sg38
(dp2815
g1204
(lp2816
F1000000.0
aS'@@f0'
p2817
asg132
(lp2818
I01
aI00
aS'@@reset_funklet'
p2819
asg1205
(lp2820
F0.0
aF1.0
aF10.0
aF100.0
aS'@@major'
p2821
asg1206
(lp2822
I01
aI00
aS'@@unsolvable'
p2823
asg135
(lp2824
g136
aS'@@color'
p2825
asg137
(lp2826
I01
aI00
aS'@@save_all'
p2827
asg1207
(lp2828
g1208
ag1239
aS'@@shape'
p2829
asg12
(lp2830
NaS'@@parmtable'
p2831
asg1209
(lp2832
NaF-0.10000000000000001
aF0.050000000000000003
aF-0.01
aS'@@Upct'
p2833
asg141
(lp2834
NaS'@@unit'
p2835
asg142
(lp2836
I10
aS'@@size'
p2837
asg143
(lp2838
g144
aS'@@style'
p2839
asg147
(lp2840
g148
aS'@@descr'
p2841
asg1210
(lp2842
F1.0
aF10.0
aS'@@I0'
p2843
asg156
(lp2844
NaS'@@subtile_size'
p2845
asg149
(lp2846
g150
aS'@@condeq_corrs'
p2847
asg1211
(lp2848
NaF0.01
aF-0.0050000000000000001
aF0.001
aS'@@Vpct'
p2849
asg151
(lp2850
NaS'@@funklet_shape'
p2851
asg1212
(lp2852
F0.0
aF1.0
aF-0.5
aS'@@pa'
p2853
asg1265
(lp2854
F0.0
aF0.5
aF1.0
aF1.4950000000000001
aF4.3570000000000002
aS'@@RA'
p2855
asg1268
(lp2856
NaF1.0
aF3.0
aF10.0
aF-10.0
aF60.0
aS'@@RM'
p2857
asg1220
(lp2858
F0.0
aF0.5
aF5.0
aF50.0
aS'@@minor'
p2859
asg155
(lp2860
F1.0
aS'@@c00_default'
p2861
asg1275
(lp2862
NaF0.10000000000000001
aF-0.050000000000000003
aF0.01
aS'@@Qpct'
p2863
asg1219
(lp2864
g1279
ag1280
ag1281
ag1282
ag1283
ag1284
ag1285
ag1286
ag1287
ag1288
ag1289
ag1290
ag1291
ag1292
ag1293
aS'@@punit'
p2865
asg1295
(lp2866
F0.5
aF1.0
aF0.87
aF1.0920000000000001
aS'@@Dec'
p2867
asg1217
(lp2868
NaS'@@name'
p2869
asg1218
(lp2870
I01
aI00
aS'@@fsr_trace'
p2871
asg223
(lp2872
I01
aI00
aS'@@use_previous'
p2873
asg1304
(lp2874
NaF-0.69999999999999996
a(lp2875
F0.44700000000000001
aF-0.184
aaS'@@SI'
p2876
asg157
(lp2877
NaS'@@tfdeg'
p2878
asg180
(lp2879
I01
aI00
aS'@@auto_save'
p2880
assg1312
(dp2881
g1219
I01
ssg85
g1314
sg83
g2810
sg87
S'MG_JEN_Sixpack'
p2882
sg237
(dp2883
g132
I00
sg1206
I00
sg1218
I00
sg137
I00
sg223
I00
sg180
I00
ssg89
S'** Specific description of inarg record for: MG_JEN_Sixpack::newstar_source()  version=10feb2006  defined=2006-03-31 16:56'
p2884
sg91
(dp2885
g93
S'  1: ..[simul]./MG_JEN_Sixpack.newstar_source() (qual=None): .modify(Qpct):   None  ->  10'
p2886
sg95
S'  1: ..[simul]./MG_JEN_Sixpack.newstar_source() (qual=None): .modify(parmtable):   None  ->  simul_DJones'
p2887
sg97
S'  1: ..[simul]./MG_JEN_Sixpack.newstar_source() (qual=None): .modify(punit):   unpol  ->  QU'
p2888
sg99
S'  1: ..[simul]./MG_JEN_Sixpack.newstar_source() (qual=None): .modify(Upct):   None  ->  -10'
p2889
ssg82
I00
sg112
(lp2890
g18
ag1219
ag1217
ag12
ag1206
ag1210
ag1275
ag1209
ag1211
ag1268
ag1304
ag1204
ag1265
ag1295
ag1218
ag1207
ag1205
ag1220
ag1212
ag223
ag180
ag137
ag132
ag147
ag141
ag135
ag143
ag142
ag155
ag157
ag151
ag156
ag149
asg121
(dp2891
g1204
g1325
sg132
g243
sg1205
g1326
sg1206
g1327
sg135
g245
sg137
g246
sg1207
g1328
sg12
g1329
sg1209
g1330
sg141
g141
sg142
g250
sg143
g251
sg147
g252
sg1210
g1331
sg156
g259
sg149
g253
sg1211
g1332
sg151
g254
sg1212
g1333
sg1265
g1334
sg1268
g1335
sg1220
g1336
sg155
g256
sg1275
g1337
sg1219
S'name of calibrator source/patch \n- unpol:   unpolarised, I=1Jy \n- unpol2:  idem, I=2Jy \n- unpol10: idem, I=10Jy \n- RMtest:  Rotation Measure \n- SItest:  Spectral Index \n- QUV:     non-zero Q,U,V \n- QU:      non-zero Q,U \n- QU2:     stronger version of QU \n- Qonly:   non-zero Q \n- Uonly:   non-zero U \n- Vonly:   non-zero V \n- 3c286:   \n- 3c48:    \n- 3c295:   \n- 3c147:   \n- D1:      cps in D1.MS \n'
p2892
sg1295
g1339
sg1218
g1340
sg223
g258
sg1304
g1341
sg157
g260
sg180
g249
ssg129
g1342
ssg1268
Nsg1220
F0.0
sg1265
F1.4950000000000001
sg155
F1.0
sg1275
I10
sg1219
g1283
sg1295
F0.87
sg1217
Nsg1218
I01
sg223
I01
sg1304
Nsg157
Nsg180
I01
ssg2085
(dp2893
S'correct_after'
p2894
I01
sg1950
S'@@master_reqseq'
p2895
sS'condeq_unop'
p2896
Nsg2092
I01
sg1954
S'@@redun'
p2897
sS'solver_subtree'
p2898
NsS'subtract_after'
p2899
I00
sg1958
S'@@chain_solvers'
p2900
sg18
(dp2901
g20
S'MG_JEN_Cohset::insert_solver()'
p2902
sg22
g2085
sg23
(dp2903
g1950
I01
sg1954
I01
sg2898
I01
sg1958
I01
sS'flag_residuals'
p2904
I01
sg1960
I01
ssg30
S'MG_JEN_Cohsetinsert_solver'
p2905
sg32
g33
sg34
S'MG_JEN_Cohset::insert_solver()  version=25dec2005  defined=2006-03-31 16:56'
p2906
sg36
S'insert_solver'
p2907
sg38
(dp2908
g2894
(lp2909
I01
aI00
aS'@@correct_after'
p2910
asg1950
(lp2911
I01
aI00
ag2895
asg2896
(lp2912
NaS'Abs'
p2913
aS'Arg'
p2914
aS'@@condeq_unop'
p2915
asg2092
(lp2916
I01
aI00
aS'@@visu'
p2917
asg1954
(lp2918
I01
aI00
ag2897
asg2898
(lp2919
NaS'@@solver_subtree'
p2920
asg2899
(lp2921
I01
aI00
aS'@@subtract_after'
p2922
asg1958
(lp2923
I01
ag2900
asg2904
(lp2924
I01
aI00
aS'@@flag_residuals'
p2925
asg1960
(lp2926
Na(lp2927
I5
aI2
aa(lp2928
I2
aI2
aa(lp2929
I3
aI3
aaS'@@num_cells'
p2930
assg80
Nsg82
I00
sg83
S'2006-03-31 16:56'
p2931
sg85
g86
sg87
S'MG_JEN_Cohset'
p2932
sg237
(dp2933
g2894
I00
sg1950
I00
sg2092
I00
sg1954
I00
sg2899
I00
sg2904
I00
ssg89
S'** Specific description of inarg record for: MG_JEN_Cohset::insert_solver()  version=25dec2005  defined=2006-03-31 16:56'
p2934
sg91
(dp2935
g95
S'** JEN_inarg.attach(): attached: ./MG_JEN_Cohset.solver_subtree()'
p2936
ssg109
g2931
sg110
(dp2937
g1954
I00
sg1958
I00
sg1950
I00
sg1960
I00
ssg112
(lp2938
g18
ag2898
ag1954
ag1960
ag1958
ag1950
ag2896
ag2092
ag2899
ag2894
ag2904
aS'./MG_JEN_Cohset.solver_subtree()'
p2939
asg121
(dp2940
g2894
S'if True, correct measured with predicted.Joneset'
p2941
sg1950
g1951
sg2896
S'Optional unary operation on Condeq inputs'
p2942
sg2092
S'if True, include full visualisation'
p2943
sg1954
g1955
sg2898
S'solver subtree qualifier(s)'
p2944
sg2899
S'if True, subtract predicted from measured'
p2945
sg1958
g1959
sg2904
S'if True, flag the residuals'
p2946
sg1960
g1961
ssg129
S'insert one or more solver subtrees in the data stream'
p2947
ssg1960
g2930
sg2939
(dp2948
S'rmin'
p2949
NsS'setBalanced'
p2950
I00
sg2092
I01
sS'epsilon'
p2951
F0.0001
sS'rmax'
p2952
NsS'derivative_eps'
p2953
F1e-08
sS'usesvd'
p2954
I01
sS'debug_level'
p2955
I10
sS'solvegroup'
p2956
(lp2957
S'DJones'
p2958
asg18
(dp2959
g20
S'MG_JEN_Cohset::solver_subtree()'
p2960
sg22
g2939
sg91
(dp2961
g93
S'  2: ...../MG_JEN_Cohset.solver_subtree() (qual=None): .modify(num_iter):   5  ->  2'
p2962
sg95
S"  2: ...../MG_JEN_Cohset.solver_subtree() (qual=None): .modify(solvegroup):   []  ->  ['DJones']"
p2963
ssg23
(dp2964
g2955
I01
sg2953
I01
sg2950
I01
sS'epsval'
p2965
I01
sg1960
I00
ssg30
S'MG_JEN_Cohsetsolver_subtree'
p2966
sg32
g33
sg129
S'Make a solver-subtree for the given Condeq Cohset'
p2967
sg34
S'MG_JEN_Cohset::solver_subtree()  version=20dec2005  defined=2006-03-31 16:56'
p2968
sg36
S'solver_subtree'
p2969
sg38
(dp2970
g2949
(lp2971
NaI100
aI200
aI500
aS'@@rmin'
p2972
asg2092
(lp2973
I01
aI00
aS'@@visu'
p2974
asg2951
(lp2975
F0.001
aF0.0001
aF1.0000000000000001e-05
aS'@@epsilon'
p2976
asS'colin_factor'
p2977
(lp2978
F1e-08
aF0.0
aS'@@colin_factor'
p2979
asg2952
(lp2980
NaI500
aI1000
aI2000
aS'@@rmax'
p2981
asg2953
(lp2982
F1e-08
aF0.001
aF0.0001
aF1.0000000000000001e-05
aS'@@derivative_eps'
p2983
asg2954
(lp2984
I01
aI00
aS'@@usesvd'
p2985
asg2955
(lp2986
I10
aS'@@debug_level'
p2987
asg2956
(lp2988
(lp2989
a(lp2990
g52
aa(lp2991
S'Ggain'
p2992
aa(lp2993
S'Gphase'
p2994
aa(lp2995
S'Gpol1'
p2996
aa(lp2997
S'Gpol2'
p2998
aa(lp2999
g66
aa(lp3000
g66
aS'stokesU'
p3001
aa(lp3002
g66
aS'stokesQ'
p3003
aa(lp3004
g66
aS'stokesV'
p3005
aa(lp3006
S'stokesQU'
p3007
ag66
aa(lp3008
S'stokesQUV'
p3009
ag66
aa(lp3010
g52
aS'stokesI'
p3011
aa(lp3012
g3011
aa(lp3013
S'stokesIQU'
p3014
aa(lp3015
S'stokesIQUV'
p3016
aa(lp3017
S'stokesIV'
p3018
aa(lp3019
g3007
aa(lp3020
g3009
aa(lp3021
g52
ag2958
aa(lp3022
g2958
aa(lp3023
S'Dang'
p3024
aa(lp3025
S'Dell'
p3026
aa(lp3027
S'Dreal'
p3028
aa(lp3029
S'Dimag'
p3030
aa(lp3031
g52
ag2958
ag56
aa(lp3032
g56
aa(lp3033
g52
ag54
aa(lp3034
g54
aa(lp3035
S'Breal'
p3036
aa(lp3037
S'Bimag'
p3038
aa(lp3039
S'Bpol1'
p3040
aa(lp3041
S'Bpol2'
p3042
aaS'@@solvegroup'
p3043
asg2965
(lp3044
F1e-08
aF0.001
aF0.0001
aF1.0000000000000001e-05
aS'@@epsval'
p3045
asg1960
(lp3046
Na(lp3047
I5
aI2
aa(lp3048
I2
aI2
aa(lp3049
I3
aI3
aaS'@@num_cells'
p3050
asg2950
(lp3051
I01
aI00
aS'@@setBalanced'
p3052
asS'num_iter'
p3053
(lp3054
I1
aI3
aI5
aI10
aI20
aS'@@num_iter'
p3055
asS'condition'
p3056
(lp3057
NaS'Gphase_X_sum=0.0'
p3058
aS'Gphase_Y_sum=0.0'
p3059
a(lp3060
g3058
ag3059
aa(lp3061
S'Gphase_X_first=0.0'
p3062
aS'Gphase_Y_first=0.0'
p3063
aa(lp3064
S'Gphase_X_last=0.0'
p3065
aS'Gphase_Y_last=0.0'
p3066
aaS'Dang_sum=0.0'
p3067
a(lp3068
S'Bimag_X_sum=0.0'
p3069
aS'Bimag_Y_sum=0.0'
p3070
aa(lp3071
S'Breal_X_product=1.0'
p3072
aS'Breal_Y_product=1.0'
p3073
aaS'@@condition'
p3074
asS'history'
p3075
(lp3076
I01
aI00
aS'@@history'
p3077
assg80
Nsg85
S'20dec2005'
p3078
sg83
S'2006-03-31 16:56'
p3079
sg87
S'MG_JEN_Cohset'
p3080
sg237
(dp3081
g2954
I00
sg2950
I00
sg2092
I00
sg3075
I00
ssg89
S'** Specific description of inarg record for: MG_JEN_Cohset::solver_subtree()  version=20dec2005  defined=2006-03-31 16:56'
p3082
sg82
I00
sg109
g3079
sg112
(lp3083
g18
ag2956
ag3056
ag2949
ag2952
ag1960
ag3053
ag2951
ag2965
ag2953
ag2977
ag2954
ag2950
ag2955
ag2092
ag3075
asg121
(dp3084
g2949
S'if specified, only use baselines>=rmin'
p3085
sg2092
S'if True, include visualisation'
p3086
sg2951
S'iteration control criterion...'
p3087
sg2977
S'colinearity factor'
p3088
sg2952
S'if specified, only use baselines<=rmax'
p3089
sg2953
S'NEW: also iteration control...'
p3090
sg2954
S'if True, use Singular Value Decomposition (SVD)'
p3091
sg2955
S'solver debug_level'
p3092
sg2956
S'group (list) of parmgroups, to be solved for:\n- [GJones]:  all GJones MeqParms\n- [Ggain]:   GJones station gains (both pols)\n- [Gphase]:  GJones station phases (both pols)\n- [Gpol1]:   All GJones MeqParms for pol1 (X or R)\n- [Gpol2]:   All GJones MeqParms for pol2 (Y or L)\n- [JJones,stokesU]:     actually solves for U!\n- [JJones,stokesQ]:     -> zero Q(?), but better freq sol(?)\n- [JJones,stokesV]:     -> punit V(?)...\n- [stokesI]:    stokes I (incl SI(f), if relevant)\n- [stokesIQU]:  stokes I,Q,U (incl RM and SI(f))\n- [stokesIQUV]: stokes I,Q,U,V (incl RM and SI(f))'
p3093
sg2965
S'NEW: WNB version of epsilon....'
p3094
sg1960
g1961
sg2950
S'NEW: if True, add (..) to diagonal, otherwise multiply (1+lambda)'
p3095
sg3053
S'max number of iterations (now also in fitter)'
p3096
sg3056
S'(list of) extra condition equations:\n- [...phase_sum=0.0]:   sum of phases = zero\n- [...phase_first=0.0]: phase of first station = zero\n- [...phase_last=0.0]:  phase of last station = zero\n- [Dang_sum=0.0]:   sum of dipole pos.angle errors = zero\n- [...imag_sum=0.0]:   sum of imag.parts = zero\n- [...real_product=1.0]:   product of real.parts = unity'
p3097
sg3075
S'if True, include history collection of metrics'
p3098
sssg1960
Nsg2965
F1e-08
sg3075
I01
sg3053
I2
sg3056
Nsg2977
F0.0
ssg2904
I00
ss.