(dp0
S'add_to_existing'
p1
I00
sS'polrep'
p2
S'linear'
p3
sS'_JEN_inarg_separator_record:_1'
p4
(dp5
S'txt'
p6
S'uv-data (MS) stream_control'
p7
ssS'script_name'
p8
S'MG_JEN_simul'
p9
sS'ms_name'
p10
S'D1.MS'
p11
sS'parmtable'
p12
S'simul_GJones'
p13
sS'insert_solver'
p14
I00
sS'[solve_uvp]./MG_JEN_Cohset.Jones()'
p15
(dp16
S'[solve_uvp]./MG_JEN_Joneset.DJones_WSRT()'
p17
(dp18
S'reset_funklet'
p19
I00
sg2
S'@@polrep'
p20
sS'color'
p21
S'red'
p22
sS'fdeg_Dell'
p23
S'@fdeg_Dang'
p24
sS'coupled_XY_Dell'
p25
I01
sS'save_all'
p26
I00
sS'unit'
p27
Nsg12
S'@@parmtable'
p28
sS'subtile_size_Dang'
p29
NsS'auto_save'
p30
I01
sS'size'
p31
I10
sS'style'
p32
S'circle'
p33
sS'descr'
p34
S'<descr>'
p35
sS'condeq_corrs'
p36
S'*'
p37
sS'funklet_shape'
p38
NsS'_JEN_inarg_CTRL_record:'
p39
(dp40
S'target_definition'
p41
S'MG_JEN_Joneset::DJones_WSRT()'
p42
sS'localscope'
p43
g17
sS'hide'
p44
(dp45
g32
I01
sg2
I01
sS'c00_default'
p46
I01
sg34
I01
sS'stations'
p47
I01
sg21
I01
sg38
I01
sg36
I01
sS'uvplane_effect'
p48
I01
sS'subtile_size'
p49
I01
sS'tfdeg'
p50
I01
sg12
I01
sS'@Jsequence_KJones'
p51
I01
sS'@Jsequence_simul'
p52
I01
sS'@Jsequence'
p53
I01
sg27
I01
sg31
I01
ssS'barescope'
p54
S'MG_JEN_JonesetDJones_WSRT'
p55
sS'target_dir'
p56
S'.'
p57
sS'description'
p58
S'defines 2x2 DJones_WSRT (polarisation leakage) matrices'
p59
sS'oneliner'
p60
S'MG_JEN_Joneset::DJones_WSRT()  version=16dec2005  defined=2006-04-03 12:43'
p61
sS'target_function'
p62
S'DJones_WSRT'
p63
sS'choice'
p64
(dp65
g19
(lp66
I01
aI00
aS'@@reset_funklet'
p67
asg2
(lp68
g3
aS'circular'
p69
ag20
asg21
(lp70
g22
aS'@@color'
p71
asg23
(lp72
I0
aI1
aI2
aI3
ag24
aS'@@fdeg_Dell'
p73
asg25
(lp74
I01
aI00
aS'@@coupled_XY_Dell'
p75
asg26
(lp76
I01
aI00
aS'@@save_all'
p77
asg12
(lp78
NaS'test'
p79
ag28
asg29
(lp80
NaI1
aI2
aI5
aI10
aI20
aI50
aI100
aI200
aI500
aS'@@subtile_size_Dang'
p81
asg30
(lp82
I01
aI00
aS'@@auto_save'
p83
asg31
(lp84
I10
aS'@@size'
p85
asg32
(lp86
g33
aS'@@style'
p87
asg34
(lp88
g35
aS'@@descr'
p89
asg36
(lp90
g37
aS'@@condeq_corrs'
p91
asg38
(lp92
NaS'@@funklet_shape'
p93
asg27
(lp94
NaS'@@unit'
p95
asg51
(lp96
S'DJones_WSRT'
p97
aS'@@@Jsequence_KJones'
p98
asS'subtile_size_Dell'
p99
(lp100
S'@subtile_size_Dang'
p101
aNaI1
aI2
aI5
aI10
aI20
aI50
aI100
aI200
aI500
aS'@@subtile_size_Dell'
p102
asg53
(lp103
g97
aS'@@@Jsequence'
p104
asS'fdeg_Dang'
p105
(lp106
I0
aI1
aI2
aI3
aS'@@fdeg_Dang'
p107
asg46
(lp108
F1.0
aS'@@c00_default'
p109
asg48
(lp110
I00
aS'@@uvplane_effect'
p111
asS'tdeg_Dell'
p112
(lp113
I0
aI1
aI2
aI3
aS'@tdeg_Dang'
p114
aS'@@tdeg_Dell'
p115
asS'coupled_XY_Dang'
p116
(lp117
I01
aI00
aS'@@coupled_XY_Dang'
p118
asS'tdeg_Dang'
p119
(lp120
I0
aI1
aI2
aI3
aS'@@tdeg_Dang'
p121
asg47
(lp122
(lp123
I0
aI1
aI2
aI3
aI4
aa(lp124
I0
aI1
aI2
aI3
aI4
aI5
aI6
aa(lp125
I0
aI1
aI2
aI3
aI4
aI5
aI6
aI7
aI8
aI9
aI10
aI11
aI12
aI13
aa(lp126
I0
aI1
aI2
aI3
aI4
aI5
aI6
aI7
aI8
aI9
aI10
aI11
aI12
aI13
aI14
aaS'range(5)'
p127
aS'@@stations'
p128
asS'use_previous'
p129
(lp130
I01
aI00
aS'@@use_previous'
p131
asg49
(lp132
NaS'@@subtile_size'
p133
asg50
(lp134
NaS'@@tfdeg'
p135
asg52
(lp136
g97
aS'@@@Jsequence_simul'
p137
assS'qual'
p138
S'solve_uvp'
p139
sS'available_inargs'
p140
S'** Description of available inarg record(s) for: MG_JEN_Joneset::DJones_WSRT()  version=16dec2005  defined=2006-04-03 12:43'
p141
sS'protected'
p142
I00
sS'datetime_defined'
p143
S'2006-04-03 12:43'
p144
sS'version'
p145
S'16dec2005'
p146
sS'target_module'
p147
S'MG_JEN_Joneset'
p148
sS'editable'
p149
(dp150
g19
I00
sg25
I00
sg129
I00
sg116
I00
sg26
I00
sg30
I00
ssS'inarg_specific'
p151
S'** Specific description of inarg record for: MG_JEN_Joneset::DJones_WSRT()  version=16dec2005  defined=2006-04-03 12:43'
p152
sS'mutable'
p153
(dp154
g48
I00
sg12
I00
sg2
I00
sg47
I00
ssS'last_edited'
p155
g144
sS'order'
p156
(lp157
g39
ag47
ag2
ag53
ag52
ag51
ag116
ag25
ag12
ag48
ag119
ag112
ag105
ag23
ag29
ag99
ag129
ag30
ag26
ag19
ag34
ag27
ag21
ag32
ag31
ag46
ag50
ag38
ag49
ag36
asS'help'
p158
(dp159
g19
S'if True, do NOT use any MeqParm table values when solvable'
p160
sg2
S'polarisation representation'
p161
sg21
S'plot_color'
p162
sg23
S'degree of freq polynomial'
p163
sg25
S'if True, XDell = -YDell per station'
p164
sg26
S'if True, save the update result even if not converged'
p165
sg12
S'name of the MeqParm table to be used'
p166
sg29
S'sub-tile size (None=entire tile)'
p167
sg30
S'if True, save the result of every iteration (slow!)'
p168
sg31
S'size of plotted symbol'
p169
sg32
S'plot_style'
p170
sg34
S'brief description'
p171
sg36
S'correlations to be used for solving'
p172
sg38
S'shape [time,freq] of default funklet'
p173
sg27
g27
sg51
S'list membership indication (used in JEN_inargGui)'
p174
sg99
g167
sg53
g174
sg105
g163
sg46
S'default value of c[0,0] coefficient'
p175
sg48
S'if True, the Joneset reprsents uv-plane effects (q=uvp)'
p176
sg112
S'degree of time polynomial'
p177
sg116
S'if True, XDang = YDang per station'
p178
sg119
g177
sg47
S'the (subset of) stations to be used'
p179
sg129
S'if True, start with the previous solution'
p180
sg49
S'size (time-slots) of a domain sub-tile'
p181
sg50
S'(time,freq) polynomial degree'
p182
sg52
g174
sssg51
g97
sg99
g101
sg53
g97
sg105
I0
sg46
F1.0
sg48
g111
sg112
g114
sg116
I01
sg119
I0
sg47
g128
sg129
I01
sg49
Nsg50
Nsg52
g97
ssg2
S'@@polrep'
p183
sg39
(dp184
g41
S'MG_JEN_Cohset::Jones()'
p185
sg43
g15
sg44
(dp186
g2
I01
sg47
I01
sg48
I01
sg12
I01
sg51
I01
sg52
I01
sg53
I01
ssg54
S'MG_JEN_CohsetJones'
p187
sg56
g57
sg60
S'MG_JEN_Cohset::Jones()  version=25dec2005  defined=2006-04-03 12:43'
p188
sg62
S'Jones'
p189
sg64
(dp190
g2
(lp191
g3
ag69
ag183
asg47
(lp192
(lp193
I0
aI1
aI2
aI3
aI4
aa(lp194
I0
aI1
aI2
aI3
aI4
aI5
aI6
aa(lp195
I0
aI1
aI2
aI3
aI4
aI5
aI6
aI7
aI8
aI9
aI10
aI11
aI12
aI13
aa(lp196
I0
aI1
aI2
aI3
aI4
aI5
aI6
aI7
aI8
aI9
aI10
aI11
aI12
aI13
aI14
aag127
aS'@@stations'
p197
asg48
(lp198
I00
aS'@@uvplane_effect'
p199
asg12
(lp200
Nag79
aS'@@parmtable'
p201
asg51
(lp202
NaS'@@@Jsequence_KJones'
p203
asg52
(lp204
NaS'@@@Jsequence_simul'
p205
asS'Jsequence'
p206
(lp207
(lp208
S'GJones'
p209
aa(lp210
S'BJones'
p211
aa(lp212
S'FJones'
p213
aa(lp214
S'KJones'
p215
aa(lp216
g97
aa(lp217
g209
ag97
aa(lp218
S'EJones_WSRT'
p219
aa(lp220
g209
ag219
aa(lp221
S'JJones'
p222
aa(lp223
aS'@@Jsequence'
p224
asg53
(lp225
NaS'@@@Jsequence'
p226
assg138
g139
sg140
S'** Description of available inarg record(s) for: MG_JEN_Cohset::Jones()  version=25dec2005  defined=2006-04-03 12:43'
p227
sg142
I00
sg143
S'2006-04-03 12:43'
p228
sg145
S'25dec2005'
p229
sg147
S'MG_JEN_Cohset'
p230
sg151
S'** Specific description of inarg record for: MG_JEN_Cohset::Jones()  version=25dec2005  defined=2006-04-03 12:43'
p231
sS'MESSAGE'
p232
(dp233
S'1'
p234
S'** JEN_inarg.attach(): attached: [solve_uvp]./MG_JEN_Joneset.FJones()'
p235
sS'0'
p236
S'** JEN_inarg.attach(): attached: [solve_uvp]./MG_JEN_Joneset.GJones()'
p237
sS'3'
p238
S'** JEN_inarg.attach(): attached: [solve_uvp]./MG_JEN_Joneset.KJones()'
p239
sS'2'
p240
S'** JEN_inarg.attach(): attached: [solve_uvp]./MG_JEN_Joneset.BJones()'
p241
sS'5'
p242
S'** JEN_inarg.attach(): attached: [solve_uvp]./MG_JEN_Joneset.EJones_WSRT()'
p243
sS'4'
p244
S'** JEN_inarg.attach(): attached: [solve_uvp]./MG_JEN_Joneset.DJones_WSRT()'
p245
sS'7'
p246
S"  1: ..[solve_uvp]./MG_JEN_Cohset.Jones() (qual=solve_uvp): .modify(Jsequence):   []  ->  ['GJones']"
p247
sS'6'
p248
S'** JEN_inarg.attach(): attached: [solve_uvp]./MG_JEN_Joneset.JJones()'
p249
ssg155
g228
sg153
(dp250
g48
I00
sg12
I00
sg2
I00
sg47
I00
ssg156
(lp251
g39
ag47
ag2
ag53
ag52
ag51
ag12
ag48
ag206
aS'[solve_uvp]./MG_JEN_Joneset.GJones()'
p252
aS'[solve_uvp]./MG_JEN_Joneset.FJones()'
p253
aS'[solve_uvp]./MG_JEN_Joneset.BJones()'
p254
aS'[solve_uvp]./MG_JEN_Joneset.KJones()'
p255
ag17
aS'[solve_uvp]./MG_JEN_Joneset.EJones_WSRT()'
p256
aS'[solve_uvp]./MG_JEN_Joneset.JJones()'
p257
asg158
(dp258
g2
g161
sg47
g179
sg48
g176
sg12
g166
sg51
g174
sg52
g174
sg206
S'sequence of Jones matrices to be used'
p259
sg53
g174
ssg58
S'Make a Joneset by creating and multiplying a sequence of one ore more Jonesets'
p260
ssg47
g197
sg256
(dp261
g19
I00
sg2
S'@@polrep'
p262
sg21
g22
sg26
I00
sg27
Nsg12
S'@@parmtable'
p263
sg30
I01
sg31
I10
sS'tdeg_Edl'
p264
I0
sS'tdeg_Edm'
p265
S'@tdeg_Edl'
p266
sg32
g33
sg34
g35
sS'subtile_size_Edl'
p267
Nsg36
g37
sg38
NsS'subtile_size_Edm'
p268
S'@subtile_size_Edl'
p269
sg39
(dp270
g41
S'MG_JEN_Joneset::EJones_WSRT()'
p271
sg43
g256
sg44
(dp272
g32
I01
sg2
I01
sg46
I01
sg34
I01
sg47
I01
sg21
I01
sg38
I01
sg36
I01
sg48
I01
sg49
I01
sg50
I01
sg12
I01
sg51
I01
sg52
I01
sg53
I01
sg27
I01
sg31
I01
ssg54
S'MG_JEN_JonesetEJones_WSRT'
p273
sg56
g57
sg58
S'defines EJones (voltage beamshape) matrices for WSRT (l,m interpolatable)\n    Ejones(station,source) matrix elements:\n    - E_11 = Egain_X*exp(iEphase_X)\n    - E_12 = 0\n    - E_21 = 0\n    - E_22 = Egain_Y*exp(iEphase_Y)\n    For circular polarisation, R and L are used rather than X and Y\n    '
p274
sg60
S'MG_JEN_Joneset::EJones_WSRT()  version=15dec2005  defined=2006-04-03 12:43'
p275
sg62
S'EJones_WSRT'
p276
sg64
(dp277
g19
(lp278
I01
aI00
aS'@@reset_funklet'
p279
asg2
(lp280
g3
ag69
ag262
asg21
(lp281
g22
aS'@@color'
p282
asg26
(lp283
I01
aI00
aS'@@save_all'
p284
asg12
(lp285
Nag79
ag263
asg30
(lp286
I01
aI00
aS'@@auto_save'
p287
asg31
(lp288
I10
aS'@@size'
p289
asg264
(lp290
I0
aI1
aI2
aI3
aS'@@tdeg_Edl'
p291
asg265
(lp292
I0
aI1
aI2
aI3
ag266
aS'@@tdeg_Edm'
p293
asg32
(lp294
g33
aS'@@style'
p295
asg34
(lp296
g35
aS'@@descr'
p297
asg267
(lp298
NaI1
aI2
aI5
aI10
aI20
aI50
aI100
aI200
aI500
aS'@@subtile_size_Edl'
p299
asg36
(lp300
g37
aS'@@condeq_corrs'
p301
asg38
(lp302
NaS'@@funklet_shape'
p303
asg268
(lp304
g269
aNaI1
aI2
aI5
aI10
aI20
aI50
aI100
aI200
aI500
aS'@@subtile_size_Edm'
p305
asg27
(lp306
NaS'@@unit'
p307
asg51
(lp308
g219
aS'@@@Jsequence_KJones'
p309
asg53
(lp310
g219
aS'@@@Jsequence'
p311
asg46
(lp312
F1.0
aS'@@c00_default'
p313
asg48
(lp314
I00
aS'@@uvplane_effect'
p315
asg47
(lp316
(lp317
I0
aI1
aI2
aI3
aI4
aa(lp318
I0
aI1
aI2
aI3
aI4
aI5
aI6
aa(lp319
I0
aI1
aI2
aI3
aI4
aI5
aI6
aI7
aI8
aI9
aI10
aI11
aI12
aI13
aa(lp320
I0
aI1
aI2
aI3
aI4
aI5
aI6
aI7
aI8
aI9
aI10
aI11
aI12
aI13
aI14
aag127
aS'@@stations'
p321
asg129
(lp322
I01
aI00
aS'@@use_previous'
p323
asg49
(lp324
NaS'@@subtile_size'
p325
asg50
(lp326
NaS'@@tfdeg'
p327
asg52
(lp328
g219
aS'@@@Jsequence_simul'
p329
asS'fdeg_Edl'
p330
(lp331
I0
aI1
aI2
aI3
aS'@@fdeg_Edl'
p332
asS'fdeg_Edm'
p333
(lp334
I0
aI1
aI2
aI3
aS'@fdeg_Edl'
p335
aS'@@fdeg_Edm'
p336
assg138
g139
sg140
S'** Description of available inarg record(s) for: MG_JEN_Joneset::EJones_WSRT()  version=15dec2005  defined=2006-04-03 12:43'
p337
sg142
I00
sg143
S'2006-04-03 12:43'
p338
sg145
S'15dec2005'
p339
sg147
S'MG_JEN_Joneset'
p340
sg149
(dp341
g19
I00
sg129
I00
sg30
I00
sg26
I00
ssg151
S'** Specific description of inarg record for: MG_JEN_Joneset::EJones_WSRT()  version=15dec2005  defined=2006-04-03 12:43'
p342
sg153
(dp343
g48
I00
sg12
I00
sg2
I00
sg47
I00
ssg155
g338
sg156
(lp344
g39
ag47
ag2
ag53
ag52
ag51
ag12
ag48
ag264
ag265
ag330
ag333
ag267
ag268
ag129
ag30
ag26
ag19
ag34
ag27
ag21
ag32
ag31
ag46
ag50
ag38
ag49
ag36
asg158
(dp345
g19
g160
sg2
g161
sg21
g162
sg26
g165
sg12
g166
sg30
g168
sg31
g169
sg264
S'degree of time polynomial'
p346
sg265
g346
sg32
g170
sg34
g171
sg267
S'sub-tile size (None=entire tile)'
p347
sg36
g172
sg38
g173
sg268
g347
sg27
g27
sg51
g174
sg53
g174
sg46
g175
sg48
g176
sg47
g179
sg129
g180
sg49
g181
sg50
g182
sg52
g174
sg330
S'degree of freq polynomial'
p348
sg333
g348
sssg51
g219
sg53
g219
sg46
F1.0
sg48
g315
sg47
g321
sg129
I01
sg49
Nsg50
Nsg52
g219
sg330
I0
sg333
g335
ssg255
(dp349
g2
S'@@polrep'
p350
sg47
S'@@stations'
p351
sg39
(dp352
g41
S'MG_JEN_Joneset::KJones()'
p353
sg43
g255
sg44
(dp354
g51
I01
sg52
I01
sg47
I01
sg2
I01
sg53
I01
ssg54
S'MG_JEN_JonesetKJones'
p355
sg56
g57
sg58
S'defines diagonal KJones matrices for DFT Fourier kernel'
p356
sg60
S'MG_JEN_Joneset::KJones()  version=12dec2005  defined=2006-04-03 12:43'
p357
sg62
S'KJones'
p358
sg64
(dp359
g51
(lp360
g215
aS'@@@Jsequence_KJones'
p361
asg52
(lp362
g215
aS'@@@Jsequence_simul'
p363
asg47
(lp364
(lp365
I0
aI1
aI2
aI3
aI4
aa(lp366
I0
aI1
aI2
aI3
aI4
aI5
aI6
aa(lp367
I0
aI1
aI2
aI3
aI4
aI5
aI6
aI7
aI8
aI9
aI10
aI11
aI12
aI13
aa(lp368
I0
aI1
aI2
aI3
aI4
aI5
aI6
aI7
aI8
aI9
aI10
aI11
aI12
aI13
aI14
aag127
ag351
asg2
(lp369
g3
ag69
ag350
asg53
(lp370
g215
aS'@@@Jsequence'
p371
assg138
g139
sg140
S'** Description of available inarg record(s) for: MG_JEN_Joneset::KJones()  version=12dec2005  defined=2006-04-03 12:43'
p372
sg142
I00
sg143
S'2006-04-03 12:43'
p373
sg145
S'12dec2005'
p374
sg147
S'MG_JEN_Joneset'
p375
sg151
S'** Specific description of inarg record for: MG_JEN_Joneset::KJones()  version=12dec2005  defined=2006-04-03 12:43'
p376
sg153
(dp377
g2
I00
sg47
I00
ssg155
g373
sg156
(lp378
g39
ag47
ag2
ag53
ag52
ag51
asg158
(dp379
g51
g174
sg52
g174
sg47
g179
sg2
g161
sg53
g174
sssg51
g215
sg52
g215
sg53
g215
ssg48
g199
sg12
g201
sg254
(dp380
g19
I00
sg2
S'@@polrep'
p381
sg21
g22
sS'subtile_size_Bimag'
p382
S'@subtile_size_Breal'
p383
sg26
I00
sS'subtile_size_Breal'
p384
Nsg27
Nsg31
I10
sg32
g33
sg34
g35
sS'fdeg_Breal'
p385
I5
sg36
g37
sg38
Nsg39
(dp386
g41
S'MG_JEN_Joneset::BJones()'
p387
sg43
g254
sg44
(dp388
g32
I01
sg2
I01
sg46
I01
sg34
I01
sg47
I01
sg21
I01
sg38
I01
sg36
I01
sg48
I01
sg49
I01
sg50
I01
sg12
I01
sg51
I01
sg52
I01
sg53
I01
sg27
I01
sg31
I01
ssg54
S'MG_JEN_JonesetBJones'
p389
sg56
g57
sg58
S'Defines diagonal 2x2 Jones matrices that represent the IF bandpass:\n    Bjones(station,source) matrix elements:\n    - B_11 = (Breal_X,Bimag_X)\n    - B_12 = 0\n    - B_21 = 0\n    - B_22 = (Breal_Y,Bimag_Y)\n    For circular polarisation, R and L are used rather than X and Y\n    NB: The main differences with Gjones are:\n      - the higher-order (~5) freq-polynomial\n      - solving for real/imag rather than gain/phase \n    '
p390
sg60
S'MG_JEN_Joneset::BJones()  version=16dec2005  defined=2006-04-03 12:43'
p391
sg62
S'BJones'
p392
sg64
(dp393
g19
(lp394
I01
aI00
aS'@@reset_funklet'
p395
asg2
(lp396
g3
ag69
ag381
asg21
(lp397
g22
aS'@@color'
p398
asg382
(lp399
g383
aNaI1
aI2
aI5
aI10
aI20
aI50
aI100
aI200
aI500
aS'@@subtile_size_Bimag'
p400
asg26
(lp401
I01
aI00
aS'@@save_all'
p402
asg384
(lp403
NaI1
aI2
aI5
aI10
aI20
aI50
aI100
aI200
aI500
aS'@@subtile_size_Breal'
p404
asg30
(lp405
I01
aI00
aS'@@auto_save'
p406
asg31
(lp407
I10
aS'@@size'
p408
asg32
(lp409
g33
aS'@@style'
p410
asg34
(lp411
g35
aS'@@descr'
p412
asg385
(lp413
I3
aI4
aI5
aI6
aS'@@fdeg_Breal'
p414
asg36
(lp415
g37
aS'@@condeq_corrs'
p416
asg38
(lp417
NaS'@@funklet_shape'
p418
asg27
(lp419
NaS'@@unit'
p420
asg51
(lp421
g211
aS'@@@Jsequence_KJones'
p422
asS'tdeg_Bimag'
p423
(lp424
I0
aI1
aI2
aI3
aS'@tdeg_Breal'
p425
aS'@@tdeg_Bimag'
p426
asg53
(lp427
g211
aS'@@@Jsequence'
p428
asg46
(lp429
F1.0
aS'@@c00_default'
p430
asS'fdeg_Bimag'
p431
(lp432
I3
aI4
aI5
aI6
aS'@fdeg_Breal'
p433
aS'@@fdeg_Bimag'
p434
asg48
(lp435
I00
aS'@@uvplane_effect'
p436
asg12
(lp437
Nag79
aS'@@parmtable'
p438
asg47
(lp439
(lp440
I0
aI1
aI2
aI3
aI4
aa(lp441
I0
aI1
aI2
aI3
aI4
aI5
aI6
aa(lp442
I0
aI1
aI2
aI3
aI4
aI5
aI6
aI7
aI8
aI9
aI10
aI11
aI12
aI13
aa(lp443
I0
aI1
aI2
aI3
aI4
aI5
aI6
aI7
aI8
aI9
aI10
aI11
aI12
aI13
aI14
aag127
aS'@@stations'
p444
asS'tdeg_Breal'
p445
(lp446
I0
aI1
aI2
aI3
aS'@@tdeg_Breal'
p447
asg129
(lp448
I01
aI00
aS'@@use_previous'
p449
asg49
(lp450
NaS'@@subtile_size'
p451
asg50
(lp452
NaS'@@tfdeg'
p453
asg52
(lp454
g211
aS'@@@Jsequence_simul'
p455
assg138
g139
sg140
S'** Description of available inarg record(s) for: MG_JEN_Joneset::BJones()  version=16dec2005  defined=2006-04-03 12:43'
p456
sg142
I00
sg143
S'2006-04-03 12:43'
p457
sg145
g146
sg147
S'MG_JEN_Joneset'
p458
sg149
(dp459
g19
I00
sg129
I00
sg30
I00
sg26
I00
ssg151
S'** Specific description of inarg record for: MG_JEN_Joneset::BJones()  version=16dec2005  defined=2006-04-03 12:43'
p460
sg153
(dp461
g48
I00
sg12
I00
sg2
I00
sg47
I00
ssg155
g457
sg156
(lp462
g39
ag47
ag2
ag53
ag52
ag51
ag12
ag48
ag445
ag423
ag385
ag431
ag384
ag382
ag129
ag30
ag26
ag19
ag34
ag27
ag21
ag32
ag31
ag46
ag50
ag38
ag49
ag36
asg158
(dp463
g19
g160
sg2
g161
sg21
g162
sg382
S'sub-tile size (None=entire tile)'
p464
sg26
g165
sg384
g464
sg30
g168
sg31
g169
sg32
g170
sg34
g171
sg385
S'degree of freq polynomial'
p465
sg36
g172
sg38
g173
sg27
g27
sg51
g174
sg423
S'degree of time polynomial'
p466
sg53
g174
sg46
g175
sg431
g465
sg48
g176
sg12
g166
sg47
g179
sg445
g466
sg129
g180
sg49
g181
sg50
g182
sg52
g174
sssg51
g211
sg423
g425
sg53
g211
sg46
F1.0
sg431
g433
sg48
g436
sg12
g438
sg47
g444
sg445
I0
sg129
I01
sg49
Nsg50
Nsg52
g211
sg30
I01
ssg253
(dp467
g19
I00
sg2
S'@@polrep'
p468
sg21
g22
sg26
I00
sg12
S'@@parmtable'
p469
sg27
Nsg31
I10
sg32
g33
sg34
g35
sg36
g37
sg38
Nsg39
(dp470
g41
S'MG_JEN_Joneset::FJones()'
p471
sg43
g253
sg44
(dp472
g32
I01
sg2
I01
sg46
I01
sg34
I01
sg47
I01
sg21
I01
sg38
I01
sg36
I01
sg48
I01
sg49
I01
sg50
I01
sg12
I01
sg51
I01
sg52
I01
sg53
I01
sg27
I01
sg31
I01
ssg54
S'MG_JEN_JonesetFJones'
p473
sg56
g57
sg58
S'defines diagonal FJones Faraday rotation matrices'
p474
sg60
S'MG_JEN_Joneset::FJones()  version=16dec2005  defined=2006-04-03 12:43'
p475
sg62
S'FJones'
p476
sg64
(dp477
g19
(lp478
I01
aI00
aS'@@reset_funklet'
p479
asg2
(lp480
g3
ag69
ag468
asg21
(lp481
g22
aS'@@color'
p482
asg26
(lp483
I01
aI00
aS'@@save_all'
p484
asg50
(lp485
NaS'@@tfdeg'
p486
asg30
(lp487
I01
aI00
aS'@@auto_save'
p488
asg31
(lp489
I10
aS'@@size'
p490
asg32
(lp491
g33
aS'@@style'
p492
asg34
(lp493
g35
aS'@@descr'
p494
asg36
(lp495
g37
aS'@@condeq_corrs'
p496
asg38
(lp497
NaS'@@funklet_shape'
p498
asg27
(lp499
NaS'@@unit'
p500
asg51
(lp501
g213
aS'@@@Jsequence_KJones'
p502
asg53
(lp503
g213
aS'@@@Jsequence'
p504
asg46
(lp505
F1.0
aS'@@c00_default'
p506
asg48
(lp507
I00
aS'@@uvplane_effect'
p508
asg47
(lp509
(lp510
I0
aI1
aI2
aI3
aI4
aa(lp511
I0
aI1
aI2
aI3
aI4
aI5
aI6
aa(lp512
I0
aI1
aI2
aI3
aI4
aI5
aI6
aI7
aI8
aI9
aI10
aI11
aI12
aI13
aa(lp513
I0
aI1
aI2
aI3
aI4
aI5
aI6
aI7
aI8
aI9
aI10
aI11
aI12
aI13
aI14
aag127
aS'@@stations'
p514
asS'tdeg_RM'
p515
(lp516
I0
aI1
aI2
aI3
aS'@@tdeg_RM'
p517
asg129
(lp518
I01
aI00
aS'@@use_previous'
p519
asS'fdeg_RM'
p520
(lp521
I0
aI1
aI2
aI3
aS'@@fdeg_RM'
p522
asg49
(lp523
NaS'@@subtile_size'
p524
asg12
(lp525
Nag79
ag469
asS'subtile_size_RM'
p526
(lp527
NaI1
aI2
aI5
aI10
aI20
aI50
aI100
aI200
aI500
aS'@@subtile_size_RM'
p528
asg52
(lp529
g213
aS'@@@Jsequence_simul'
p530
assg138
g139
sg140
S'** Description of available inarg record(s) for: MG_JEN_Joneset::FJones()  version=16dec2005  defined=2006-04-03 12:43'
p531
sg142
I00
sg143
S'2006-04-03 12:43'
p532
sg145
g146
sg147
S'MG_JEN_Joneset'
p533
sg149
(dp534
g19
I00
sg129
I00
sg30
I00
sg26
I00
ssg151
S'** Specific description of inarg record for: MG_JEN_Joneset::FJones()  version=16dec2005  defined=2006-04-03 12:43'
p535
sg153
(dp536
g48
I00
sg12
I00
sg2
I00
sg47
I00
ssg155
g532
sg156
(lp537
g39
ag47
ag2
ag53
ag52
ag51
ag12
ag48
ag515
ag520
ag526
ag129
ag30
ag26
ag19
ag34
ag27
ag21
ag32
ag31
ag46
ag50
ag38
ag49
ag36
asg158
(dp538
g19
g160
sg2
g161
sg21
g162
sg26
g165
sg50
g182
sg30
g168
sg31
g169
sg32
g170
sg34
g171
sg36
g172
sg38
g173
sg27
g27
sg51
g174
sg53
g174
sg46
g175
sg48
g176
sg47
g179
sg515
S'degree of time polynomial'
p539
sg129
g180
sg520
S'degree of freq polynomial'
p540
sg49
g181
sg12
g166
sg526
S'sub-tile size (None=entire tile)'
p541
sg52
g174
sssg51
g213
sg53
g213
sg46
F1.0
sg48
g508
sg47
g514
sg515
I0
sg129
I01
sg520
I2
sg49
Nsg50
Nsg526
I1
sg52
g213
sg30
I01
ssg252
(dp542
g19
I00
sg2
S'@@polrep'
p543
sS'fdeg_Ggain'
p544
I0
sg21
g22
sg26
I00
sg12
S'@@parmtable'
p545
sg27
Nsg31
I10
sg32
g33
sg34
g35
sS'subtile_size_Ggain'
p546
I1
sg36
g37
sg38
Nsg39
(dp547
g41
S'MG_JEN_Joneset::GJones()'
p548
sg43
g252
sg44
(dp549
g32
I01
sg2
I01
sg46
I01
sg34
I01
sg47
I01
sg21
I01
sg53
I01
sg38
I01
sg36
I01
sg48
I01
sg49
I01
sg50
I01
sg12
I01
sg51
I01
sg52
I01
sS'Gpolar'
p550
I01
sg27
I01
sg31
I01
ssg54
S'MG_JEN_JonesetGJones'
p551
sg56
g57
sg58
S'Defines diagonal 2x2 Jones matrices that represent complex gain:\n    Gjones(station,source) matrix elements:\n    - G_11 = Ggain_X*exp(iGphase_X)\n    - G_12 = 0\n    - G_21 = 0\n    - G_22 = Ggain_Y*exp(iGphase_Y)\n    For circular polarisation, R and L are used rather than X and Y\n    '
p552
sg60
S'MG_JEN_Joneset::GJones()  version=15dec2005  defined=2006-04-03 12:43'
p553
sg62
S'GJones'
p554
sg64
(dp555
g19
(lp556
I01
aI00
aS'@@reset_funklet'
p557
asg2
(lp558
g3
ag69
ag543
asg544
(lp559
I0
aI1
aI2
aI3
aS'@@fdeg_Ggain'
p560
asg21
(lp561
g22
aS'@@color'
p562
asg26
(lp563
I01
aI00
aS'@@save_all'
p564
asg12
(lp565
Nag79
ag545
asg30
(lp566
I01
aI00
aS'@@auto_save'
p567
asg31
(lp568
I10
aS'@@size'
p569
asg32
(lp570
g33
aS'@@style'
p571
asg34
(lp572
g35
aS'@@descr'
p573
asg546
(lp574
NaI1
aI2
aI5
aI10
aI20
aI50
aI100
aI200
aI500
aS'@@subtile_size_Ggain'
p575
asg36
(lp576
g37
aS'@@condeq_corrs'
p577
asg38
(lp578
NaS'@@funklet_shape'
p579
asg27
(lp580
NaS'@@unit'
p581
asg51
(lp582
g209
aS'@@@Jsequence_KJones'
p583
asg53
(lp584
g209
aS'@@@Jsequence'
p585
asg46
(lp586
F1.0
aS'@@c00_default'
p587
asS'tdeg_Gphase'
p588
(lp589
I0
aI1
aI2
aI3
aS'@tdeg_Ggain'
p590
aS'@@tdeg_Gphase'
p591
asS'tdeg_Ggain'
p592
(lp593
I0
aI1
aI2
aI3
aS'@@tdeg_Ggain'
p594
asS'fdeg_Gphase'
p595
(lp596
I0
aI1
aI2
aI3
aS'@fdeg_Ggain'
p597
aS'@@fdeg_Gphase'
p598
asS'subtile_size_Gphase'
p599
(lp600
S'@subtile_size_Ggain'
p601
aNaI1
aI2
aI5
aI10
aI20
aI50
aI100
aI200
aI500
aS'@@subtile_size_Gphase'
p602
asg550
(lp603
I01
aI00
aS'@@Gpolar'
p604
asg48
(lp605
I00
aS'@@uvplane_effect'
p606
asg47
(lp607
(lp608
I0
aI1
aI2
aI3
aI4
aa(lp609
I0
aI1
aI2
aI3
aI4
aI5
aI6
aa(lp610
I0
aI1
aI2
aI3
aI4
aI5
aI6
aI7
aI8
aI9
aI10
aI11
aI12
aI13
aa(lp611
I0
aI1
aI2
aI3
aI4
aI5
aI6
aI7
aI8
aI9
aI10
aI11
aI12
aI13
aI14
aag127
aS'@@stations'
p612
asg129
(lp613
I01
aI00
aS'@@use_previous'
p614
asg49
(lp615
NaS'@@subtile_size'
p616
asg50
(lp617
NaS'@@tfdeg'
p618
asg52
(lp619
g209
aS'@@@Jsequence_simul'
p620
assg138
g139
sg140
S'** Description of available inarg record(s) for: MG_JEN_Joneset::GJones()  version=15dec2005  defined=2006-04-03 12:43'
p621
sg142
I00
sg143
S'2006-04-03 12:43'
p622
sg145
g339
sg147
S'MG_JEN_Joneset'
p623
sg149
(dp624
g19
I00
sg129
I00
sg550
I00
sg30
I00
sg26
I00
ssg151
S'** Specific description of inarg record for: MG_JEN_Joneset::GJones()  version=15dec2005  defined=2006-04-03 12:43'
p625
sg153
(dp626
g48
I00
sg12
I00
sg2
I00
sg47
I00
ssg155
g622
sg156
(lp627
g39
ag47
ag2
ag53
ag52
ag51
ag550
ag12
ag48
ag592
ag588
ag544
ag595
ag546
ag599
ag129
ag30
ag26
ag19
ag34
ag27
ag21
ag32
ag31
ag46
ag50
ag38
ag49
ag36
asg158
(dp628
g19
g160
sg2
g161
sg544
S'degree of freq polynomial'
p629
sg21
g162
sg26
g165
sg12
g166
sg30
g168
sg31
g169
sg32
g170
sg34
g171
sg546
S'sub-tile size (None=entire tile)'
p630
sg36
g172
sg38
g173
sg27
g27
sg51
g174
sg53
g174
sg46
g175
sg588
S'degree of time polynomial'
p631
sg592
g631
sg595
g629
sg599
g630
sg550
S'obsolete, kept only for upward compatibility'
p632
sg48
g176
sg47
g179
sg129
g180
sg49
g181
sg50
g182
sg52
g174
sssg51
g209
sg53
g209
sg46
F1.0
sg588
g590
sg592
I0
sg595
g597
sg599
g601
sg550
I01
sg48
g606
sg47
g612
sg129
I01
sg49
Nsg50
Nsg52
g209
sg30
I01
ssg257
(dp633
g19
I00
sg2
S'@@polrep'
p634
sS'tdeg_Jreal'
p635
I0
sg21
g22
sg26
I00
sS'all4_always'
p636
Nsg12
S'@@parmtable'
p637
sS'subtile_size_Jreal'
p638
Nsg27
Nsg31
I10
sg32
g33
sS'tdeg_Jimag'
p639
S'@tdeg_Jreal'
p640
sg34
g35
sg36
g37
sg38
Nsg39
(dp641
g41
S'MG_JEN_Joneset::JJones()'
p642
sg43
g257
sg44
(dp643
g32
I01
sg2
I01
sg46
I01
sg34
I01
sg47
I01
sg21
I01
sg38
I01
sg36
I01
sg48
I01
sg49
I01
sg50
I01
sg12
I01
sg51
I01
sg52
I01
sg53
I01
sg27
I01
sg31
I01
ssg54
S'MG_JEN_JonesetJJones'
p644
sg56
g57
sg58
S'Defines diagonal 2x2 Jones matrices for full polarisation:\n    Jjones(station,source) matrix elements:\n    - J_11 = (Jreal_11,Jimag_11)\n    - J_12 = (Jreal_12,Jimag_12)\n    - J_21 = (Jreal_21,Jimag_21)\n    - J_22 = (Jreal_22,Jimag_22)\n    For circular polarisation, R and L are used rather than X and Y\n    '
p645
sg60
S'MG_JEN_Joneset::JJones()  version=14feb2006  defined=2006-04-03 12:43'
p646
sg62
S'JJones'
p647
sg64
(dp648
g19
(lp649
I01
aI00
aS'@@reset_funklet'
p650
asg2
(lp651
g3
ag69
ag634
asg635
(lp652
I0
aI1
aI2
aI3
aS'@@tdeg_Jreal'
p653
asg21
(lp654
g22
aS'@@color'
p655
asg26
(lp656
I01
aI00
aS'@@save_all'
p657
asg636
(lp658
Na(lp659
I14
aa(lp660
I1
aaS'WSRT/WHAT'
p661
aS'@@all4_always'
p662
asg12
(lp663
Nag79
ag637
asg638
(lp664
NaI1
aI2
aI5
aI10
aI20
aI50
aI100
aI200
aI500
aS'@@subtile_size_Jreal'
p665
asg30
(lp666
I01
aI00
aS'@@auto_save'
p667
asg31
(lp668
I10
aS'@@size'
p669
asg32
(lp670
g33
aS'@@style'
p671
asg639
(lp672
I0
aI1
aI2
aI3
ag640
aS'@@tdeg_Jimag'
p673
asg34
(lp674
g35
aS'@@descr'
p675
asg36
(lp676
g37
aS'@@condeq_corrs'
p677
asg38
(lp678
NaS'@@funklet_shape'
p679
asg27
(lp680
NaS'@@unit'
p681
asg51
(lp682
g222
aS'@@@Jsequence_KJones'
p683
asS'fdeg_Jreal'
p684
(lp685
I0
aI1
aI2
aI3
aS'@@fdeg_Jreal'
p686
asg46
(lp687
F1.0
aS'@@c00_default'
p688
asg48
(lp689
I00
aS'@@uvplane_effect'
p690
asS'fdeg_Jimag'
p691
(lp692
I0
aI1
aI2
aI3
aS'@fdeg_Jreal'
p693
aS'@@fdeg_Jimag'
p694
asS'subtile_size_Jimag'
p695
(lp696
S'@subtile_size_Jreal'
p697
aNaI1
aI2
aI5
aI10
aI20
aI50
aI100
aI200
aI500
aS'@@subtile_size_Jimag'
p698
asg47
(lp699
(lp700
I0
aI1
aI2
aI3
aI4
aa(lp701
I0
aI1
aI2
aI3
aI4
aI5
aI6
aa(lp702
I0
aI1
aI2
aI3
aI4
aI5
aI6
aI7
aI8
aI9
aI10
aI11
aI12
aI13
aa(lp703
I0
aI1
aI2
aI3
aI4
aI5
aI6
aI7
aI8
aI9
aI10
aI11
aI12
aI13
aI14
aag127
aS'@@stations'
p704
asS'diagonal_only'
p705
(lp706
I01
aI00
aS'@@diagonal_only'
p707
asg129
(lp708
I01
aI00
aS'@@use_previous'
p709
asg49
(lp710
NaS'@@subtile_size'
p711
asg50
(lp712
NaS'@@tfdeg'
p713
asg52
(lp714
g222
aS'@@@Jsequence_simul'
p715
asg53
(lp716
g222
aS'@@@Jsequence'
p717
assg138
g139
sg140
S'** Description of available inarg record(s) for: MG_JEN_Joneset::JJones()  version=14feb2006  defined=2006-04-03 12:43'
p718
sg142
I00
sg143
S'2006-04-03 12:43'
p719
sg145
S'14feb2006'
p720
sg147
S'MG_JEN_Joneset'
p721
sg149
(dp722
g19
I00
sg129
I00
sg705
I00
sg30
I00
sg26
I00
ssg151
S'** Specific description of inarg record for: MG_JEN_Joneset::JJones()  version=14feb2006  defined=2006-04-03 12:43'
p723
sg153
(dp724
g48
I00
sg12
I00
sg2
I00
sg47
I00
ssg155
g719
sg156
(lp725
g39
ag47
ag2
ag53
ag52
ag51
ag705
ag636
ag12
ag48
ag635
ag639
ag684
ag691
ag638
ag695
ag129
ag30
ag26
ag19
ag34
ag27
ag21
ag32
ag31
ag46
ag50
ag38
ag49
ag36
asg158
(dp726
g19
g160
sg2
g161
sg635
S'degree of time polynomial'
p727
sg21
g162
sg26
g165
sg636
S'stations for which all 4 elements will always be solved for'
p728
sg12
g166
sg638
S'sub-tile size (None=entire tile)'
p729
sg30
g168
sg31
g169
sg32
g170
sg639
g727
sg34
g171
sg36
g172
sg38
g173
sg27
g27
sg51
g174
sg684
S'degree of freq polynomial'
p730
sg46
g175
sg48
g176
sg691
g730
sg695
g729
sg47
g179
sg705
S'if True, solve for diagonal (11,22) elements only'
p731
sg129
g180
sg49
g181
sg50
g182
sg52
g174
sg53
g174
sssg51
g222
sg684
I0
sg46
F1.0
sg48
g690
sg691
g693
sg695
g697
sg47
g704
sg705
I00
sg129
I01
sg49
Nsg50
Nsg52
g222
sg53
g222
sg30
I01
ssg51
Nsg52
Nsg206
(lp732
g209
asg53
NssS'[simul_imp]./MG_JEN_Cohset.Jones()'
p733
(dp734
S'[simul_imp]./MG_JEN_Joneset.DJones_WSRT()'
p735
(dp736
S'unop'
p737
S'Cos'
p738
sg2
S'@@polrep'
p739
sg21
S'yellow'
p740
sS'stddev_period'
p741
F0.10000000000000001
sg25
I01
sS'fdeg'
p742
I0
sg27
Nsg31
I5
sg32
S'triangle'
p743
sg34
S'<descr>'
p744
sS'mean_tampl'
p745
F0.002
sg39
(dp746
g41
S'MG_JEN_Joneset::DJones_WSRT()'
p747
sg43
g735
sg44
(dp748
g737
I00
sg32
I01
sg2
I01
sg34
I01
sg46
I01
sg47
I01
sg21
I01
sS'timescale_min'
p749
I01
sg742
I01
sg51
I01
sS'c00_scale'
p750
I01
sg52
I01
sg53
I01
sg27
I01
sg31
I01
ssg54
S'MG_JEN_JonesetDJones_WSRT'
p751
sg56
g57
sg58
g59
sg60
S'MG_JEN_Joneset::DJones_WSRT()  version=16dec2005  defined=2006-04-03 12:43'
p752
sg62
S'DJones_WSRT'
p753
sg64
(dp754
g737
(lp755
g738
aS'Sin'
p756
a(lp757
g738
ag756
aaNaS'@@unop'
p758
asg51
(lp759
g97
aS'@@@Jsequence_KJones'
p760
asg32
(lp761
g743
aS'@@style'
p762
asg25
(lp763
I01
aI00
aS'@@coupled_XY_Dell'
p764
asg2
(lp765
g3
ag69
ag739
asg46
(lp766
F1.0
aS'@@c00_default'
p767
asg34
(lp768
g744
aS'@@descr'
p769
asg47
(lp770
(lp771
I0
aI1
aI2
aI3
aI4
aa(lp772
I0
aI1
aI2
aI3
aI4
aI5
aI6
aa(lp773
I0
aI1
aI2
aI3
aI4
aI5
aI6
aI7
aI8
aI9
aI10
aI11
aI12
aI13
aa(lp774
I0
aI1
aI2
aI3
aI4
aI5
aI6
aI7
aI8
aI9
aI10
aI11
aI12
aI13
aI14
aag127
aS'@@stations'
p775
asg21
(lp776
g740
aS'@@color'
p777
asg741
(lp778
I0
aF0.01
aF0.10000000000000001
aF0.20000000000000001
aF0.5
aS'@@stddev_period'
p779
asg749
(lp780
I20
aS'@@timescale_min'
p781
asS'mean_period'
p782
(lp783
F0.29999999999999999
aF0.5
aI1
aI2
aI3
aS'@@mean_period'
p784
asS'stddev_c00'
p785
(lp786
I0
aF0.0001
aF0.001
aF0.01
aF0.10000000000000001
aI1
aS'@@stddev_c00'
p787
asg742
(lp788
I0
aS'@@fdeg'
p789
asS'mean_c00'
p790
(lp791
I0
aF0.10000000000000001
aF0.20000000000000001
aF0.5
aF-0.10000000000000001
aS'@@mean_c00'
p792
asg750
(lp793
F1.0
aS'@@c00_scale'
p794
asg52
(lp795
g97
aS'@@@Jsequence_simul'
p796
asg53
(lp797
g97
aS'@@@Jsequence'
p798
asg116
(lp799
I01
aI00
aS'@@coupled_XY_Dang'
p800
asg27
(lp801
NaS'@@unit'
p802
asg31
(lp803
I5
aS'@@size'
p804
assg138
S'simul_imp'
p805
sg140
S'** Description of available inarg record(s) for: MG_JEN_Joneset::DJones_WSRT()  version=16dec2005  defined=2006-04-03 12:43'
p806
sg142
I00
sg143
S'2006-04-03 12:43'
p807
sg145
g146
sg147
S'MG_JEN_Joneset'
p808
sg149
(dp809
g116
I00
sg25
I00
ssg151
S'** Specific description of inarg record for: MG_JEN_Joneset::DJones_WSRT()  version=16dec2005  defined=2006-04-03 12:43'
p810
sg153
(dp811
g2
I00
sg47
I00
ssg155
g807
sg156
(lp812
g39
ag47
ag2
ag53
ag52
ag51
ag116
ag25
ag790
ag785
ag782
ag741
ag737
ag749
ag742
ag21
ag32
ag31
ag46
ag750
ag34
ag27
asg158
(dp813
g737
S'time-variability function'
p814
sg51
g174
sg32
g170
sg25
g164
sg2
g161
sg46
S'default value of c00'
p815
sg34
S'brief description'
p816
sg47
g179
sg21
g162
sg741
S'scatter in period T (fraction of timescale_min)'
p817
sg749
S'group timescale in minutes'
p818
sg782
S'mean time-period T (fraction of timescale_min)'
p819
sg785
S'scatter in EXTRA c00 (fraction of c00_scale'
p820
sg742
S'degree of freq polynomial'
p821
sg790
S'mean of EXTRA c00 (fraction of c00_scale)'
p822
sg750
S'scale of c00'
p823
sg52
g174
sg53
g174
sg116
g178
sg27
g27
sg31
S'size of plotted symbol'
p824
sssg51
g97
sg53
g97
sS'stddev_period_s'
p825
I100
sg46
F1.0
sS'mean_period_s'
p826
I3000
sg790
F0.10000000000000001
sg116
I01
sg47
g775
sg749
I20
sg782
F1.0
sg785
F0.01
sg750
F1.0
sg52
g97
sS'stddev_tampl'
p827
F0.00020000000000000001
ssg2
S'@@polrep'
p828
sS'[simul_imp]./MG_JEN_Joneset.EJones_WSRT()'
p829
(dp830
g737
g738
sg51
g219
sg32
g743
sg2
S'@@polrep'
p831
sg34
g744
sg46
F1.0
sg47
S'@@stations'
p832
sg21
g740
sg741
F0.10000000000000001
sg749
I20
sg782
F1.0
sg785
F0.01
sg39
(dp833
g41
S'MG_JEN_Joneset::EJones_WSRT()'
p834
sg43
g829
sg44
(dp835
g737
I00
sg32
I01
sg2
I01
sg34
I01
sg46
I01
sg47
I01
sg21
I01
sg749
I01
sg742
I01
sg51
I01
sg750
I01
sg52
I01
sg53
I01
sg27
I01
sg31
I01
ssg54
S'MG_JEN_JonesetEJones_WSRT'
p836
sg56
g57
sg58
g274
sg60
S'MG_JEN_Joneset::EJones_WSRT()  version=15dec2005  defined=2006-04-03 12:43'
p837
sg62
S'EJones_WSRT'
p838
sg64
(dp839
g737
(lp840
g738
ag756
a(lp841
g738
ag756
aaNaS'@@unop'
p842
asg32
(lp843
g743
aS'@@style'
p844
asg2
(lp845
g3
ag69
ag831
asg34
(lp846
g744
aS'@@descr'
p847
asg46
(lp848
F1.0
aS'@@c00_default'
p849
asg47
(lp850
(lp851
I0
aI1
aI2
aI3
aI4
aa(lp852
I0
aI1
aI2
aI3
aI4
aI5
aI6
aa(lp853
I0
aI1
aI2
aI3
aI4
aI5
aI6
aI7
aI8
aI9
aI10
aI11
aI12
aI13
aa(lp854
I0
aI1
aI2
aI3
aI4
aI5
aI6
aI7
aI8
aI9
aI10
aI11
aI12
aI13
aI14
aag127
ag832
asg21
(lp855
g740
aS'@@color'
p856
asg741
(lp857
I0
aF0.01
aF0.10000000000000001
aF0.20000000000000001
aF0.5
aS'@@stddev_period'
p858
asg790
(lp859
I0
aF0.10000000000000001
aF0.20000000000000001
aF0.5
aF-0.10000000000000001
aS'@@mean_c00'
p860
asg749
(lp861
I20
aS'@@timescale_min'
p862
asg782
(lp863
F0.29999999999999999
aF0.5
aI1
aI2
aI3
aS'@@mean_period'
p864
asg785
(lp865
I0
aF0.0001
aF0.001
aF0.01
aF0.10000000000000001
aI1
aS'@@stddev_c00'
p866
asg742
(lp867
I0
aS'@@fdeg'
p868
asg51
(lp869
g219
aS'@@@Jsequence_KJones'
p870
asg750
(lp871
F1.0
aS'@@c00_scale'
p872
asg52
(lp873
g219
aS'@@@Jsequence_simul'
p874
asg53
(lp875
g219
aS'@@@Jsequence'
p876
asg27
(lp877
NaS'@@unit'
p878
asg31
(lp879
I5
aS'@@size'
p880
assg138
g805
sg140
S'** Description of available inarg record(s) for: MG_JEN_Joneset::EJones_WSRT()  version=15dec2005  defined=2006-04-03 12:43'
p881
sg142
I00
sg143
S'2006-04-03 12:43'
p882
sg145
g339
sg147
S'MG_JEN_Joneset'
p883
sg151
S'** Specific description of inarg record for: MG_JEN_Joneset::EJones_WSRT()  version=15dec2005  defined=2006-04-03 12:43'
p884
sg153
(dp885
g2
I00
sg47
I00
ssg155
g882
sg156
(lp886
g39
ag47
ag2
ag53
ag52
ag51
ag790
ag785
ag782
ag741
ag737
ag749
ag742
ag21
ag32
ag31
ag46
ag750
ag34
ag27
asg158
(dp887
g737
g814
sg32
g170
sg2
g161
sg34
g816
sg46
g815
sg47
g179
sg21
g162
sg741
g817
sg790
g822
sg749
g818
sg782
g819
sg785
g820
sg742
g821
sg51
g174
sg750
g823
sg52
g174
sg53
g174
sg27
g27
sg31
g824
sssg742
I0
sg750
F1.0
sg790
F0.10000000000000001
sg52
g219
sg53
g219
sg27
Nsg31
I5
ssg47
S'@@stations'
p888
sS'[simul_imp]./MG_JEN_Joneset.GJones()'
p889
(dp890
g737
g738
sg32
g743
sg2
S'@@polrep'
p891
sg46
F1.0
sg34
g744
sg47
S'@@stations'
p892
sg21
g740
sg741
F0.10000000000000001
sg749
I20
sg750
F1.0
sg53
g209
sg782
F1.0
sg785
F0.01
sg39
(dp893
g41
S'MG_JEN_Joneset::GJones()'
p894
sg43
g889
sg44
(dp895
g737
I00
sg32
I01
sg2
I01
sg34
I01
sg46
I01
sg47
I01
sg21
I01
sg749
I01
sg53
I01
sg742
I01
sg51
I01
sg750
I01
sg52
I01
sg550
I01
sg27
I01
sg31
I01
ssg54
S'MG_JEN_JonesetGJones'
p896
sg56
g57
sg58
g552
sg60
S'MG_JEN_Joneset::GJones()  version=15dec2005  defined=2006-04-03 12:43'
p897
sg62
S'GJones'
p898
sg64
(dp899
g737
(lp900
g738
ag756
a(lp901
g738
ag756
aaNaS'@@unop'
p902
asg51
(lp903
g209
aS'@@@Jsequence_KJones'
p904
asg32
(lp905
g743
aS'@@style'
p906
asg2
(lp907
g3
ag69
ag891
asg34
(lp908
g744
aS'@@descr'
p909
asg46
(lp910
F1.0
aS'@@c00_default'
p911
asg47
(lp912
(lp913
I0
aI1
aI2
aI3
aI4
aa(lp914
I0
aI1
aI2
aI3
aI4
aI5
aI6
aa(lp915
I0
aI1
aI2
aI3
aI4
aI5
aI6
aI7
aI8
aI9
aI10
aI11
aI12
aI13
aa(lp916
I0
aI1
aI2
aI3
aI4
aI5
aI6
aI7
aI8
aI9
aI10
aI11
aI12
aI13
aI14
aag127
ag892
asg21
(lp917
g740
aS'@@color'
p918
asg741
(lp919
I0
aF0.01
aF0.10000000000000001
aF0.20000000000000001
aF0.5
aS'@@stddev_period'
p920
asg749
(lp921
I20
aS'@@timescale_min'
p922
asg53
(lp923
g209
aS'@@@Jsequence'
p924
asg782
(lp925
F0.29999999999999999
aF0.5
aI1
aI2
aI3
aS'@@mean_period'
p926
asg785
(lp927
I0
aF0.0001
aF0.001
aF0.01
aF0.10000000000000001
aI1
aS'@@stddev_c00'
p928
asg742
(lp929
I0
aS'@@fdeg'
p930
asg790
(lp931
I0
aF0.10000000000000001
aF0.20000000000000001
aF0.5
aF-0.10000000000000001
aS'@@mean_c00'
p932
asg750
(lp933
F1.0
aS'@@c00_scale'
p934
asg52
(lp935
g209
aS'@@@Jsequence_simul'
p936
asg550
(lp937
I01
aI00
aS'@@Gpolar'
p938
asg27
(lp939
NaS'@@unit'
p940
asg31
(lp941
I5
aS'@@size'
p942
assg138
g805
sg140
S'** Description of available inarg record(s) for: MG_JEN_Joneset::GJones()  version=15dec2005  defined=2006-04-03 12:43'
p943
sg142
I00
sg143
S'2006-04-03 12:43'
p944
sg145
g339
sg147
S'MG_JEN_Joneset'
p945
sg149
(dp946
g550
I00
ssg151
S'** Specific description of inarg record for: MG_JEN_Joneset::GJones()  version=15dec2005  defined=2006-04-03 12:43'
p947
sg153
(dp948
g2
I00
sg47
I00
ssg155
g944
sg156
(lp949
g39
ag47
ag2
ag53
ag52
ag51
ag550
ag790
ag785
ag782
ag741
ag737
ag749
ag742
ag21
ag32
ag31
ag46
ag750
ag34
ag27
asg158
(dp950
g737
g814
sg51
g174
sg32
g170
sg2
g161
sg34
g816
sg46
g815
sg47
g179
sg21
g162
sg741
g817
sg749
g818
sg53
g174
sg782
g819
sg785
g820
sg742
g821
sg790
g822
sg750
g823
sg52
g174
sg550
g632
sg27
g27
sg31
g824
sssg742
I0
sg790
F0.10000000000000001
sg51
g209
sg52
g209
sg550
I01
sg27
Nsg31
I5
ssS'[simul_imp]./MG_JEN_Joneset.KJones()'
p951
(dp952
g2
S'@@polrep'
p953
sg47
S'@@stations'
p954
sg39
(dp955
g41
S'MG_JEN_Joneset::KJones()'
p956
sg43
g951
sg44
(dp957
g51
I01
sg52
I01
sg47
I01
sg2
I01
sg53
I01
ssg54
S'MG_JEN_JonesetKJones'
p958
sg56
g57
sg58
g356
sg60
S'MG_JEN_Joneset::KJones()  version=12dec2005  defined=2006-04-03 12:43'
p959
sg62
S'KJones'
p960
sg64
(dp961
g51
(lp962
g215
aS'@@@Jsequence_KJones'
p963
asg52
(lp964
g215
aS'@@@Jsequence_simul'
p965
asg47
(lp966
(lp967
I0
aI1
aI2
aI3
aI4
aa(lp968
I0
aI1
aI2
aI3
aI4
aI5
aI6
aa(lp969
I0
aI1
aI2
aI3
aI4
aI5
aI6
aI7
aI8
aI9
aI10
aI11
aI12
aI13
aa(lp970
I0
aI1
aI2
aI3
aI4
aI5
aI6
aI7
aI8
aI9
aI10
aI11
aI12
aI13
aI14
aag127
ag954
asg2
(lp971
g3
ag69
ag953
asg53
(lp972
g215
aS'@@@Jsequence'
p973
assg138
g805
sg140
S'** Description of available inarg record(s) for: MG_JEN_Joneset::KJones()  version=12dec2005  defined=2006-04-03 12:43'
p974
sg142
I00
sg143
S'2006-04-03 12:43'
p975
sg145
g374
sg147
S'MG_JEN_Joneset'
p976
sg151
S'** Specific description of inarg record for: MG_JEN_Joneset::KJones()  version=12dec2005  defined=2006-04-03 12:43'
p977
sg153
(dp978
g2
I00
sg47
I00
ssg155
g975
sg156
(lp979
g39
ag47
ag2
ag53
ag52
ag51
asg158
(dp980
g51
g174
sg52
g174
sg47
g179
sg2
g161
sg53
g174
sssg51
g215
sg52
g215
sg53
g215
ssS'[simul_imp]./MG_JEN_Joneset.BJones()'
p981
(dp982
g737
g738
sg2
S'@@polrep'
p983
sg21
g740
sg741
F0.10000000000000001
sg742
I0
sg27
Nsg31
I5
sg32
g743
sg34
g744
sg745
F0.20000000000000001
sg39
(dp984
g41
S'MG_JEN_Joneset::BJones()'
p985
sg43
g981
sg44
(dp986
g737
I00
sg32
I01
sg2
I01
sg34
I01
sg46
I01
sg47
I01
sg21
I01
sg749
I01
sg742
I01
sg51
I01
sg750
I01
sg52
I01
sg53
I01
sg27
I01
sg31
I01
ssg54
S'MG_JEN_JonesetBJones'
p987
sg56
g57
sg58
g390
sg60
S'MG_JEN_Joneset::BJones()  version=16dec2005  defined=2006-04-03 12:43'
p988
sg62
S'BJones'
p989
sg64
(dp990
g737
(lp991
g738
ag756
a(lp992
g738
ag756
aaNaS'@@unop'
p993
asg32
(lp994
g743
aS'@@style'
p995
asg2
(lp996
g3
ag69
ag983
asg34
(lp997
g744
aS'@@descr'
p998
asg46
(lp999
F1.0
aS'@@c00_default'
p1000
asg47
(lp1001
(lp1002
I0
aI1
aI2
aI3
aI4
aa(lp1003
I0
aI1
aI2
aI3
aI4
aI5
aI6
aa(lp1004
I0
aI1
aI2
aI3
aI4
aI5
aI6
aI7
aI8
aI9
aI10
aI11
aI12
aI13
aa(lp1005
I0
aI1
aI2
aI3
aI4
aI5
aI6
aI7
aI8
aI9
aI10
aI11
aI12
aI13
aI14
aag127
aS'@@stations'
p1006
asg21
(lp1007
g740
aS'@@color'
p1008
asg741
(lp1009
I0
aF0.01
aF0.10000000000000001
aF0.20000000000000001
aF0.5
aS'@@stddev_period'
p1010
asg790
(lp1011
I0
aF0.10000000000000001
aF0.20000000000000001
aF0.5
aF-0.10000000000000001
aS'@@mean_c00'
p1012
asg749
(lp1013
I20
aS'@@timescale_min'
p1014
asg782
(lp1015
F0.29999999999999999
aF0.5
aI1
aI2
aI3
aS'@@mean_period'
p1016
asg785
(lp1017
I0
aF0.0001
aF0.001
aF0.01
aF0.10000000000000001
aI1
aS'@@stddev_c00'
p1018
asg742
(lp1019
I0
aS'@@fdeg'
p1020
asg51
(lp1021
g211
aS'@@@Jsequence_KJones'
p1022
asg750
(lp1023
F1.0
aS'@@c00_scale'
p1024
asg52
(lp1025
g211
aS'@@@Jsequence_simul'
p1026
asg53
(lp1027
g211
aS'@@@Jsequence'
p1028
asg27
(lp1029
NaS'@@unit'
p1030
asg31
(lp1031
I5
aS'@@size'
p1032
assg138
g805
sg140
S'** Description of available inarg record(s) for: MG_JEN_Joneset::BJones()  version=16dec2005  defined=2006-04-03 12:43'
p1033
sg142
I00
sg143
S'2006-04-03 12:43'
p1034
sg145
g146
sg147
S'MG_JEN_Joneset'
p1035
sg151
S'** Specific description of inarg record for: MG_JEN_Joneset::BJones()  version=16dec2005  defined=2006-04-03 12:43'
p1036
sg153
(dp1037
g2
I00
sg47
I00
ssg155
g1034
sg156
(lp1038
g39
ag47
ag2
ag53
ag52
ag51
ag790
ag785
ag782
ag741
ag737
ag749
ag742
ag21
ag32
ag31
ag46
ag750
ag34
ag27
asg158
(dp1039
g737
g814
sg32
g170
sg2
g161
sg34
g816
sg46
g815
sg47
g179
sg21
g162
sg741
g817
sg790
g822
sg749
g818
sg782
g819
sg785
g820
sg742
g821
sg51
g174
sg750
g823
sg52
g174
sg53
g174
sg27
g27
sg31
g824
sssg51
g211
sg53
g211
sg825
I100
sg46
F1.0
sg826
I5000
sg790
F0.10000000000000001
sg47
g1006
sg749
I20
sg782
F1.0
sg785
F0.01
sg750
F1.0
sg52
g211
sg827
F0.02
ssg48
S'@@uvplane_effect'
p1040
sg12
S'@@parmtable'
p1041
sg39
(dp1042
g41
g185
sg43
g733
sg44
(dp1043
g2
I01
sg47
I01
sg48
I01
sg12
I01
sg51
I01
sg52
I01
sg53
I01
ssg54
S'MG_JEN_CohsetJones'
p1044
sg56
g57
sg60
S'MG_JEN_Cohset::Jones()  version=25dec2005  defined=2006-04-03 12:43'
p1045
sg62
S'Jones'
p1046
sg64
(dp1047
g2
(lp1048
g3
ag69
ag828
asg47
(lp1049
(lp1050
I0
aI1
aI2
aI3
aI4
aa(lp1051
I0
aI1
aI2
aI3
aI4
aI5
aI6
aa(lp1052
I0
aI1
aI2
aI3
aI4
aI5
aI6
aI7
aI8
aI9
aI10
aI11
aI12
aI13
aa(lp1053
I0
aI1
aI2
aI3
aI4
aI5
aI6
aI7
aI8
aI9
aI10
aI11
aI12
aI13
aI14
aag127
ag888
asg48
(lp1054
I00
ag1040
asg12
(lp1055
Nag79
ag1041
asg51
(lp1056
NaS'@@@Jsequence_KJones'
p1057
asg52
(lp1058
NaS'@@@Jsequence_simul'
p1059
asg206
(lp1060
(lp1061
g209
aa(lp1062
g211
aa(lp1063
g213
aa(lp1064
g215
aa(lp1065
g97
aa(lp1066
g209
ag97
aa(lp1067
g219
aa(lp1068
g209
ag219
aa(lp1069
g222
aa(lp1070
aS'@@Jsequence'
p1071
asg53
(lp1072
NaS'@@@Jsequence'
p1073
assg138
g805
sg140
S'** Description of available inarg record(s) for: MG_JEN_Cohset::Jones()  version=25dec2005  defined=2006-04-03 12:43'
p1074
sg142
I00
sg143
S'2006-04-03 12:43'
p1075
sg145
g229
sg147
S'MG_JEN_Cohset'
p1076
sg151
S'** Specific description of inarg record for: MG_JEN_Cohset::Jones()  version=25dec2005  defined=2006-04-03 12:43'
p1077
sg232
(dp1078
g234
S'** JEN_inarg.attach(): attached: [simul_imp]./MG_JEN_Joneset.FJones()'
p1079
sg236
S'** JEN_inarg.attach(): attached: [simul_imp]./MG_JEN_Joneset.GJones()'
p1080
sg238
S'** JEN_inarg.attach(): attached: [simul_imp]./MG_JEN_Joneset.KJones()'
p1081
sg240
S'** JEN_inarg.attach(): attached: [simul_imp]./MG_JEN_Joneset.BJones()'
p1082
sg242
S'** JEN_inarg.attach(): attached: [simul_imp]./MG_JEN_Joneset.EJones_WSRT()'
p1083
sg244
S'** JEN_inarg.attach(): attached: [simul_imp]./MG_JEN_Joneset.DJones_WSRT()'
p1084
sg248
S'** JEN_inarg.attach(): attached: [simul_imp]./MG_JEN_Joneset.JJones()'
p1085
ssg155
g1075
sg153
(dp1086
g48
I00
sg12
I00
sg2
I00
sg47
I00
ssg156
(lp1087
g39
ag47
ag2
ag53
ag52
ag51
ag12
ag48
ag206
ag889
aS'[simul_imp]./MG_JEN_Joneset.FJones()'
p1088
ag981
ag951
ag735
ag829
aS'[simul_imp]./MG_JEN_Joneset.JJones()'
p1089
asg158
(dp1090
g2
g161
sg47
g179
sg48
g176
sg12
g166
sg51
g174
sg52
g174
sg206
g259
sg53
g174
ssg58
g260
ssg1089
(dp1091
g737
g738
sg705
I00
sg2
S'@@polrep'
p1092
sg21
g740
sg741
F0.10000000000000001
sg636
Nsg742
I0
sg27
Nsg31
I5
sg32
g743
sg34
g744
sg745
F0.20000000000000001
sg39
(dp1093
g41
S'MG_JEN_Joneset::JJones()'
p1094
sg43
g1089
sg44
(dp1095
g737
I00
sg32
I01
sg2
I01
sg34
I01
sg46
I01
sg47
I01
sg21
I01
sg749
I01
sg742
I01
sg51
I01
sg750
I01
sg52
I01
sg53
I01
sg27
I01
sg31
I01
ssg54
S'MG_JEN_JonesetJJones'
p1096
sg56
g57
sg58
g645
sg60
S'MG_JEN_Joneset::JJones()  version=14feb2006  defined=2006-04-03 12:43'
p1097
sg62
S'JJones'
p1098
sg64
(dp1099
g737
(lp1100
g738
ag756
a(lp1101
g738
ag756
aaNaS'@@unop'
p1102
asg51
(lp1103
g222
aS'@@@Jsequence_KJones'
p1104
asg32
(lp1105
g743
aS'@@style'
p1106
asg705
(lp1107
I01
aI00
aS'@@diagonal_only'
p1108
asg2
(lp1109
g3
ag69
ag1092
asg46
(lp1110
F1.0
aS'@@c00_default'
p1111
asg34
(lp1112
g744
aS'@@descr'
p1113
asg47
(lp1114
(lp1115
I0
aI1
aI2
aI3
aI4
aa(lp1116
I0
aI1
aI2
aI3
aI4
aI5
aI6
aa(lp1117
I0
aI1
aI2
aI3
aI4
aI5
aI6
aI7
aI8
aI9
aI10
aI11
aI12
aI13
aa(lp1118
I0
aI1
aI2
aI3
aI4
aI5
aI6
aI7
aI8
aI9
aI10
aI11
aI12
aI13
aI14
aag127
aS'@@stations'
p1119
asg21
(lp1120
g740
aS'@@color'
p1121
asg741
(lp1122
I0
aF0.01
aF0.10000000000000001
aF0.20000000000000001
aF0.5
aS'@@stddev_period'
p1123
asg749
(lp1124
I20
aS'@@timescale_min'
p1125
asg636
(lp1126
Na(lp1127
I14
aa(lp1128
I1
aag661
aS'@@all4_always'
p1129
asg782
(lp1130
F0.29999999999999999
aF0.5
aI1
aI2
aI3
aS'@@mean_period'
p1131
asg785
(lp1132
I0
aF0.0001
aF0.001
aF0.01
aF0.10000000000000001
aI1
aS'@@stddev_c00'
p1133
asg742
(lp1134
I0
aS'@@fdeg'
p1135
asg790
(lp1136
I0
aF0.10000000000000001
aF0.20000000000000001
aF0.5
aF-0.10000000000000001
aS'@@mean_c00'
p1137
asg750
(lp1138
F1.0
aS'@@c00_scale'
p1139
asg52
(lp1140
g222
aS'@@@Jsequence_simul'
p1141
asg53
(lp1142
g222
aS'@@@Jsequence'
p1143
asg27
(lp1144
NaS'@@unit'
p1145
asg31
(lp1146
I5
aS'@@size'
p1147
assg138
g805
sg140
S'** Description of available inarg record(s) for: MG_JEN_Joneset::JJones()  version=14feb2006  defined=2006-04-03 12:43'
p1148
sg142
I00
sg143
S'2006-04-03 12:43'
p1149
sg145
g720
sg147
S'MG_JEN_Joneset'
p1150
sg149
(dp1151
g705
I00
ssg151
S'** Specific description of inarg record for: MG_JEN_Joneset::JJones()  version=14feb2006  defined=2006-04-03 12:43'
p1152
sg153
(dp1153
g2
I00
sg47
I00
ssg155
g1149
sg156
(lp1154
g39
ag47
ag2
ag53
ag52
ag51
ag705
ag636
ag790
ag785
ag782
ag741
ag737
ag749
ag742
ag21
ag32
ag31
ag46
ag750
ag34
ag27
asg158
(dp1155
g737
g814
sg51
g174
sg32
g170
sg705
g731
sg2
g161
sg46
g815
sg34
g816
sg47
g179
sg21
g162
sg741
g817
sg749
g818
sg636
g728
sg782
g819
sg785
g820
sg742
g821
sg790
g822
sg750
g823
sg52
g174
sg53
g174
sg27
g27
sg31
g824
sssg51
g222
sg53
g222
sg825
I50
sg46
F1.0
sg826
I500
sg790
F0.10000000000000001
sg47
g1119
sg749
I20
sg782
F1.0
sg785
F0.01
sg750
F1.0
sg52
g222
sg827
F0.02
ssg51
Nsg52
Nsg1088
(dp1156
g737
g738
sg2
S'@@polrep'
p1157
sg21
g740
sg741
F0.10000000000000001
sg742
I0
sg27
Nsg31
I5
sg32
g743
sg34
g744
sg745
F0.20000000000000001
sg39
(dp1158
g41
S'MG_JEN_Joneset::FJones()'
p1159
sg43
g1088
sg44
(dp1160
g737
I00
sg32
I01
sg2
I01
sg34
I01
sg46
I01
sg47
I01
sg21
I01
sg749
I01
sg742
I01
sg51
I01
sg750
I01
sg52
I01
sg53
I01
sg27
I01
sg31
I01
ssg54
S'MG_JEN_JonesetFJones'
p1161
sg56
g57
sg58
g474
sg60
S'MG_JEN_Joneset::FJones()  version=16dec2005  defined=2006-04-03 12:43'
p1162
sg62
S'FJones'
p1163
sg64
(dp1164
g737
(lp1165
g738
ag756
a(lp1166
g738
ag756
aaNaS'@@unop'
p1167
asg32
(lp1168
g743
aS'@@style'
p1169
asg2
(lp1170
g3
ag69
ag1157
asg34
(lp1171
g744
aS'@@descr'
p1172
asg46
(lp1173
F1.0
aS'@@c00_default'
p1174
asg47
(lp1175
(lp1176
I0
aI1
aI2
aI3
aI4
aa(lp1177
I0
aI1
aI2
aI3
aI4
aI5
aI6
aa(lp1178
I0
aI1
aI2
aI3
aI4
aI5
aI6
aI7
aI8
aI9
aI10
aI11
aI12
aI13
aa(lp1179
I0
aI1
aI2
aI3
aI4
aI5
aI6
aI7
aI8
aI9
aI10
aI11
aI12
aI13
aI14
aag127
aS'@@stations'
p1180
asg21
(lp1181
g740
aS'@@color'
p1182
asg741
(lp1183
I0
aF0.01
aF0.10000000000000001
aF0.20000000000000001
aF0.5
aS'@@stddev_period'
p1184
asg790
(lp1185
I0
aF0.10000000000000001
aF0.20000000000000001
aF0.5
aF-0.10000000000000001
aS'@@mean_c00'
p1186
asg749
(lp1187
I20
aS'@@timescale_min'
p1188
asg782
(lp1189
F0.29999999999999999
aF0.5
aI1
aI2
aI3
aS'@@mean_period'
p1190
asg785
(lp1191
I0
aF0.0001
aF0.001
aF0.01
aF0.10000000000000001
aI1
aS'@@stddev_c00'
p1192
asg742
(lp1193
I0
aS'@@fdeg'
p1194
asg51
(lp1195
g213
aS'@@@Jsequence_KJones'
p1196
asg750
(lp1197
F1.0
aS'@@c00_scale'
p1198
asg52
(lp1199
g213
aS'@@@Jsequence_simul'
p1200
asg53
(lp1201
g213
aS'@@@Jsequence'
p1202
asg27
(lp1203
NaS'@@unit'
p1204
asg31
(lp1205
I5
aS'@@size'
p1206
assg138
g805
sg140
S'** Description of available inarg record(s) for: MG_JEN_Joneset::FJones()  version=16dec2005  defined=2006-04-03 12:43'
p1207
sg142
I00
sg143
S'2006-04-03 12:43'
p1208
sg145
g146
sg147
S'MG_JEN_Joneset'
p1209
sg151
S'** Specific description of inarg record for: MG_JEN_Joneset::FJones()  version=16dec2005  defined=2006-04-03 12:43'
p1210
sg153
(dp1211
g2
I00
sg47
I00
ssg155
g1208
sg156
(lp1212
g39
ag47
ag2
ag53
ag52
ag51
ag790
ag785
ag782
ag741
ag737
ag749
ag742
ag21
ag32
ag31
ag46
ag750
ag34
ag27
asg158
(dp1213
g737
g814
sg32
g170
sg2
g161
sg34
g816
sg46
g815
sg47
g179
sg21
g162
sg741
g817
sg790
g822
sg749
g818
sg782
g819
sg785
g820
sg742
g821
sg51
g174
sg750
g823
sg52
g174
sg53
g174
sg27
g27
sg31
g824
sssg51
g213
sg53
g213
sg825
I50
sg46
F1.0
sg826
I500
sg790
F0.10000000000000001
sg47
g1180
sg749
I20
sg782
F1.0
sg785
F0.01
sg750
F1.0
sg52
g213
sg827
F0.02
ssg206
(lp1214
sg53
NssS'[simul_uvp]./MG_JEN_Cohset.Jones()'
p1215
(dp1216
S'[simul_uvp]./MG_JEN_Joneset.JJones()'
p1217
(dp1218
g737
g738
sg705
I00
sg2
S'@@polrep'
p1219
sg21
g740
sg741
F0.10000000000000001
sg636
Nsg742
I0
sg27
Nsg31
I5
sg32
g743
sg34
g744
sg745
F0.20000000000000001
sg39
(dp1220
g41
S'MG_JEN_Joneset::JJones()'
p1221
sg43
g1217
sg44
(dp1222
g737
I00
sg32
I01
sg2
I01
sg34
I01
sg46
I01
sg47
I01
sg21
I01
sg749
I01
sg742
I01
sg51
I01
sg750
I01
sg52
I01
sg53
I01
sg27
I01
sg31
I01
ssg54
S'MG_JEN_JonesetJJones'
p1223
sg56
g57
sg58
g645
sg60
S'MG_JEN_Joneset::JJones()  version=14feb2006  defined=2006-04-03 12:43'
p1224
sg62
S'JJones'
p1225
sg64
(dp1226
g737
(lp1227
g738
ag756
a(lp1228
g738
ag756
aaNaS'@@unop'
p1229
asg51
(lp1230
g222
aS'@@@Jsequence_KJones'
p1231
asg32
(lp1232
g743
aS'@@style'
p1233
asg705
(lp1234
I01
aI00
aS'@@diagonal_only'
p1235
asg2
(lp1236
g3
ag69
ag1219
asg46
(lp1237
F1.0
aS'@@c00_default'
p1238
asg34
(lp1239
g744
aS'@@descr'
p1240
asg47
(lp1241
(lp1242
I0
aI1
aI2
aI3
aI4
aa(lp1243
I0
aI1
aI2
aI3
aI4
aI5
aI6
aa(lp1244
I0
aI1
aI2
aI3
aI4
aI5
aI6
aI7
aI8
aI9
aI10
aI11
aI12
aI13
aa(lp1245
I0
aI1
aI2
aI3
aI4
aI5
aI6
aI7
aI8
aI9
aI10
aI11
aI12
aI13
aI14
aag127
aS'@@stations'
p1246
asg21
(lp1247
g740
aS'@@color'
p1248
asg741
(lp1249
I0
aF0.01
aF0.10000000000000001
aF0.20000000000000001
aF0.5
aS'@@stddev_period'
p1250
asg749
(lp1251
I20
aS'@@timescale_min'
p1252
asg636
(lp1253
Na(lp1254
I14
aa(lp1255
I1
aag661
aS'@@all4_always'
p1256
asg782
(lp1257
F0.29999999999999999
aF0.5
aI1
aI2
aI3
aS'@@mean_period'
p1258
asg785
(lp1259
I0
aF0.0001
aF0.001
aF0.01
aF0.10000000000000001
aI1
aS'@@stddev_c00'
p1260
asg742
(lp1261
I0
aS'@@fdeg'
p1262
asg790
(lp1263
I0
aF0.10000000000000001
aF0.20000000000000001
aF0.5
aF-0.10000000000000001
aS'@@mean_c00'
p1264
asg750
(lp1265
F1.0
aS'@@c00_scale'
p1266
asg52
(lp1267
g222
aS'@@@Jsequence_simul'
p1268
asg53
(lp1269
g222
aS'@@@Jsequence'
p1270
asg27
(lp1271
NaS'@@unit'
p1272
asg31
(lp1273
I5
aS'@@size'
p1274
assg138
S'simul_uvp'
p1275
sg140
S'** Description of available inarg record(s) for: MG_JEN_Joneset::JJones()  version=14feb2006  defined=2006-04-03 12:43'
p1276
sg142
I00
sg143
S'2006-04-03 12:43'
p1277
sg145
g720
sg147
S'MG_JEN_Joneset'
p1278
sg149
(dp1279
g705
I00
ssg151
S'** Specific description of inarg record for: MG_JEN_Joneset::JJones()  version=14feb2006  defined=2006-04-03 12:43'
p1280
sg153
(dp1281
g2
I00
sg47
I00
ssg155
g1277
sg156
(lp1282
g39
ag47
ag2
ag53
ag52
ag51
ag705
ag636
ag790
ag785
ag782
ag741
ag737
ag749
ag742
ag21
ag32
ag31
ag46
ag750
ag34
ag27
asg158
(dp1283
g737
g814
sg51
g174
sg32
g170
sg705
g731
sg2
g161
sg46
g815
sg34
g816
sg47
g179
sg21
g162
sg741
g817
sg749
g818
sg636
g728
sg782
g819
sg785
g820
sg742
g821
sg790
g822
sg750
g823
sg52
g174
sg53
g174
sg27
g27
sg31
g824
sssg51
g222
sg53
g222
sg825
I50
sg46
F1.0
sg826
I500
sg790
F0.10000000000000001
sg47
g1246
sg749
I20
sg782
F1.0
sg785
F0.01
sg750
F1.0
sg52
g222
sg827
F0.02
ssg2
S'@@polrep'
p1284
sS'[simul_uvp]./MG_JEN_Joneset.KJones()'
p1285
(dp1286
g2
S'@@polrep'
p1287
sg47
S'@@stations'
p1288
sg39
(dp1289
g41
S'MG_JEN_Joneset::KJones()'
p1290
sg43
g1285
sg44
(dp1291
g51
I01
sg52
I01
sg47
I01
sg2
I01
sg53
I01
ssg54
S'MG_JEN_JonesetKJones'
p1292
sg56
g57
sg58
g356
sg60
S'MG_JEN_Joneset::KJones()  version=12dec2005  defined=2006-04-03 12:43'
p1293
sg62
S'KJones'
p1294
sg64
(dp1295
g51
(lp1296
g215
aS'@@@Jsequence_KJones'
p1297
asg52
(lp1298
g215
aS'@@@Jsequence_simul'
p1299
asg47
(lp1300
(lp1301
I0
aI1
aI2
aI3
aI4
aa(lp1302
I0
aI1
aI2
aI3
aI4
aI5
aI6
aa(lp1303
I0
aI1
aI2
aI3
aI4
aI5
aI6
aI7
aI8
aI9
aI10
aI11
aI12
aI13
aa(lp1304
I0
aI1
aI2
aI3
aI4
aI5
aI6
aI7
aI8
aI9
aI10
aI11
aI12
aI13
aI14
aag127
ag1288
asg2
(lp1305
g3
ag69
ag1287
asg53
(lp1306
g215
aS'@@@Jsequence'
p1307
assg138
g1275
sg140
S'** Description of available inarg record(s) for: MG_JEN_Joneset::KJones()  version=12dec2005  defined=2006-04-03 12:43'
p1308
sg142
I00
sg143
S'2006-04-03 12:43'
p1309
sg145
g374
sg147
S'MG_JEN_Joneset'
p1310
sg151
S'** Specific description of inarg record for: MG_JEN_Joneset::KJones()  version=12dec2005  defined=2006-04-03 12:43'
p1311
sg153
(dp1312
g2
I00
sg47
I00
ssg155
g1309
sg156
(lp1313
g39
ag47
ag2
ag53
ag52
ag51
asg158
(dp1314
g51
g174
sg52
g174
sg47
g179
sg2
g161
sg53
g174
sssg51
g215
sg52
g215
sg53
g215
ssS'[simul_uvp]./MG_JEN_Joneset.BJones()'
p1315
(dp1316
g737
g738
sg2
S'@@polrep'
p1317
sg21
g740
sg741
F0.10000000000000001
sg742
I0
sg27
Nsg31
I5
sg32
g743
sg34
g744
sg745
F0.20000000000000001
sg39
(dp1318
g41
S'MG_JEN_Joneset::BJones()'
p1319
sg43
g1315
sg44
(dp1320
g737
I00
sg32
I01
sg2
I01
sg34
I01
sg46
I01
sg47
I01
sg21
I01
sg749
I01
sg742
I01
sg51
I01
sg750
I01
sg52
I01
sg53
I01
sg27
I01
sg31
I01
ssg54
S'MG_JEN_JonesetBJones'
p1321
sg56
g57
sg58
g390
sg60
S'MG_JEN_Joneset::BJones()  version=16dec2005  defined=2006-04-03 12:43'
p1322
sg62
S'BJones'
p1323
sg64
(dp1324
g737
(lp1325
g738
ag756
a(lp1326
g738
ag756
aaNaS'@@unop'
p1327
asg32
(lp1328
g743
aS'@@style'
p1329
asg2
(lp1330
g3
ag69
ag1317
asg34
(lp1331
g744
aS'@@descr'
p1332
asg46
(lp1333
F1.0
aS'@@c00_default'
p1334
asg47
(lp1335
(lp1336
I0
aI1
aI2
aI3
aI4
aa(lp1337
I0
aI1
aI2
aI3
aI4
aI5
aI6
aa(lp1338
I0
aI1
aI2
aI3
aI4
aI5
aI6
aI7
aI8
aI9
aI10
aI11
aI12
aI13
aa(lp1339
I0
aI1
aI2
aI3
aI4
aI5
aI6
aI7
aI8
aI9
aI10
aI11
aI12
aI13
aI14
aag127
aS'@@stations'
p1340
asg21
(lp1341
g740
aS'@@color'
p1342
asg741
(lp1343
I0
aF0.01
aF0.10000000000000001
aF0.20000000000000001
aF0.5
aS'@@stddev_period'
p1344
asg790
(lp1345
I0
aF0.10000000000000001
aF0.20000000000000001
aF0.5
aF-0.10000000000000001
aS'@@mean_c00'
p1346
asg749
(lp1347
I20
aS'@@timescale_min'
p1348
asg782
(lp1349
F0.29999999999999999
aF0.5
aI1
aI2
aI3
aS'@@mean_period'
p1350
asg785
(lp1351
I0
aF0.0001
aF0.001
aF0.01
aF0.10000000000000001
aI1
aS'@@stddev_c00'
p1352
asg742
(lp1353
I0
aS'@@fdeg'
p1354
asg51
(lp1355
g211
aS'@@@Jsequence_KJones'
p1356
asg750
(lp1357
F1.0
aS'@@c00_scale'
p1358
asg52
(lp1359
g211
aS'@@@Jsequence_simul'
p1360
asg53
(lp1361
g211
aS'@@@Jsequence'
p1362
asg27
(lp1363
NaS'@@unit'
p1364
asg31
(lp1365
I5
aS'@@size'
p1366
assg138
g1275
sg140
S'** Description of available inarg record(s) for: MG_JEN_Joneset::BJones()  version=16dec2005  defined=2006-04-03 12:43'
p1367
sg142
I00
sg143
S'2006-04-03 12:43'
p1368
sg145
g146
sg147
S'MG_JEN_Joneset'
p1369
sg151
S'** Specific description of inarg record for: MG_JEN_Joneset::BJones()  version=16dec2005  defined=2006-04-03 12:43'
p1370
sg153
(dp1371
g2
I00
sg47
I00
ssg155
g1368
sg156
(lp1372
g39
ag47
ag2
ag53
ag52
ag51
ag790
ag785
ag782
ag741
ag737
ag749
ag742
ag21
ag32
ag31
ag46
ag750
ag34
ag27
asg158
(dp1373
g737
g814
sg32
g170
sg2
g161
sg34
g816
sg46
g815
sg47
g179
sg21
g162
sg741
g817
sg790
g822
sg749
g818
sg782
g819
sg785
g820
sg742
g821
sg51
g174
sg750
g823
sg52
g174
sg53
g174
sg27
g27
sg31
g824
sssg51
g211
sg53
g211
sg825
I100
sg46
F1.0
sg826
I5000
sg790
F0.10000000000000001
sg47
g1340
sg749
I20
sg782
F1.0
sg785
F0.01
sg750
F1.0
sg52
g211
sg827
F0.02
ssg47
S'@@stations'
p1374
sg48
S'@@uvplane_effect'
p1375
sS'[simul_uvp]./MG_JEN_Joneset.EJones_WSRT()'
p1376
(dp1377
g737
g738
sg51
g219
sg32
g743
sg2
S'@@polrep'
p1378
sg34
g744
sg46
F1.0
sg47
S'@@stations'
p1379
sg21
g740
sg741
F0.10000000000000001
sg749
I20
sg782
F1.0
sg785
F0.01
sg39
(dp1380
g41
S'MG_JEN_Joneset::EJones_WSRT()'
p1381
sg43
g1376
sg44
(dp1382
g737
I00
sg32
I01
sg2
I01
sg34
I01
sg46
I01
sg47
I01
sg21
I01
sg749
I01
sg742
I01
sg51
I01
sg750
I01
sg52
I01
sg53
I01
sg27
I01
sg31
I01
ssg54
S'MG_JEN_JonesetEJones_WSRT'
p1383
sg56
g57
sg58
g274
sg60
S'MG_JEN_Joneset::EJones_WSRT()  version=15dec2005  defined=2006-04-03 12:43'
p1384
sg62
S'EJones_WSRT'
p1385
sg64
(dp1386
g737
(lp1387
g738
ag756
a(lp1388
g738
ag756
aaNaS'@@unop'
p1389
asg32
(lp1390
g743
aS'@@style'
p1391
asg2
(lp1392
g3
ag69
ag1378
asg34
(lp1393
g744
aS'@@descr'
p1394
asg46
(lp1395
F1.0
aS'@@c00_default'
p1396
asg47
(lp1397
(lp1398
I0
aI1
aI2
aI3
aI4
aa(lp1399
I0
aI1
aI2
aI3
aI4
aI5
aI6
aa(lp1400
I0
aI1
aI2
aI3
aI4
aI5
aI6
aI7
aI8
aI9
aI10
aI11
aI12
aI13
aa(lp1401
I0
aI1
aI2
aI3
aI4
aI5
aI6
aI7
aI8
aI9
aI10
aI11
aI12
aI13
aI14
aag127
ag1379
asg21
(lp1402
g740
aS'@@color'
p1403
asg741
(lp1404
I0
aF0.01
aF0.10000000000000001
aF0.20000000000000001
aF0.5
aS'@@stddev_period'
p1405
asg790
(lp1406
I0
aF0.10000000000000001
aF0.20000000000000001
aF0.5
aF-0.10000000000000001
aS'@@mean_c00'
p1407
asg749
(lp1408
I20
aS'@@timescale_min'
p1409
asg782
(lp1410
F0.29999999999999999
aF0.5
aI1
aI2
aI3
aS'@@mean_period'
p1411
asg785
(lp1412
I0
aF0.0001
aF0.001
aF0.01
aF0.10000000000000001
aI1
aS'@@stddev_c00'
p1413
asg742
(lp1414
I0
aS'@@fdeg'
p1415
asg51
(lp1416
g219
aS'@@@Jsequence_KJones'
p1417
asg750
(lp1418
F1.0
aS'@@c00_scale'
p1419
asg52
(lp1420
g219
aS'@@@Jsequence_simul'
p1421
asg53
(lp1422
g219
aS'@@@Jsequence'
p1423
asg27
(lp1424
NaS'@@unit'
p1425
asg31
(lp1426
I5
aS'@@size'
p1427
assg138
g1275
sg140
S'** Description of available inarg record(s) for: MG_JEN_Joneset::EJones_WSRT()  version=15dec2005  defined=2006-04-03 12:43'
p1428
sg142
I00
sg143
S'2006-04-03 12:43'
p1429
sg145
g339
sg147
S'MG_JEN_Joneset'
p1430
sg151
S'** Specific description of inarg record for: MG_JEN_Joneset::EJones_WSRT()  version=15dec2005  defined=2006-04-03 12:43'
p1431
sg153
(dp1432
g2
I00
sg47
I00
ssg155
g1429
sg156
(lp1433
g39
ag47
ag2
ag53
ag52
ag51
ag790
ag785
ag782
ag741
ag737
ag749
ag742
ag21
ag32
ag31
ag46
ag750
ag34
ag27
asg158
(dp1434
g737
g814
sg32
g170
sg2
g161
sg34
g816
sg46
g815
sg47
g179
sg21
g162
sg741
g817
sg790
g822
sg749
g818
sg782
g819
sg785
g820
sg742
g821
sg51
g174
sg750
g823
sg52
g174
sg53
g174
sg27
g27
sg31
g824
sssg742
I0
sg750
F1.0
sg790
F0.10000000000000001
sg52
g219
sg53
g219
sg27
Nsg31
I5
ssg12
S'@@parmtable'
p1435
sS'[simul_uvp]./MG_JEN_Joneset.DJones_WSRT()'
p1436
(dp1437
g737
g738
sg2
S'@@polrep'
p1438
sg21
g740
sg741
F0.10000000000000001
sg25
I01
sg742
I0
sg27
Nsg31
I5
sg32
g743
sg34
g744
sg745
F0.002
sg39
(dp1439
g41
S'MG_JEN_Joneset::DJones_WSRT()'
p1440
sg43
g1436
sg44
(dp1441
g737
I00
sg32
I01
sg2
I01
sg34
I01
sg46
I01
sg47
I01
sg21
I01
sg749
I01
sg742
I01
sg51
I01
sg750
I01
sg52
I01
sg53
I01
sg27
I01
sg31
I01
ssg54
S'MG_JEN_JonesetDJones_WSRT'
p1442
sg56
g57
sg58
g59
sg60
S'MG_JEN_Joneset::DJones_WSRT()  version=16dec2005  defined=2006-04-03 12:43'
p1443
sg62
S'DJones_WSRT'
p1444
sg64
(dp1445
g737
(lp1446
g738
ag756
a(lp1447
g738
ag756
aaNaS'@@unop'
p1448
asg51
(lp1449
g97
aS'@@@Jsequence_KJones'
p1450
asg32
(lp1451
g743
aS'@@style'
p1452
asg25
(lp1453
I01
aI00
aS'@@coupled_XY_Dell'
p1454
asg2
(lp1455
g3
ag69
ag1438
asg46
(lp1456
F1.0
aS'@@c00_default'
p1457
asg34
(lp1458
g744
aS'@@descr'
p1459
asg47
(lp1460
(lp1461
I0
aI1
aI2
aI3
aI4
aa(lp1462
I0
aI1
aI2
aI3
aI4
aI5
aI6
aa(lp1463
I0
aI1
aI2
aI3
aI4
aI5
aI6
aI7
aI8
aI9
aI10
aI11
aI12
aI13
aa(lp1464
I0
aI1
aI2
aI3
aI4
aI5
aI6
aI7
aI8
aI9
aI10
aI11
aI12
aI13
aI14
aag127
aS'@@stations'
p1465
asg21
(lp1466
g740
aS'@@color'
p1467
asg741
(lp1468
I0
aF0.01
aF0.10000000000000001
aF0.20000000000000001
aF0.5
aS'@@stddev_period'
p1469
asg749
(lp1470
I20
aS'@@timescale_min'
p1471
asg782
(lp1472
F0.29999999999999999
aF0.5
aI1
aI2
aI3
aS'@@mean_period'
p1473
asg785
(lp1474
I0
aF0.0001
aF0.001
aF0.01
aF0.10000000000000001
aI1
aS'@@stddev_c00'
p1475
asg742
(lp1476
I0
aS'@@fdeg'
p1477
asg790
(lp1478
I0
aF0.10000000000000001
aF0.20000000000000001
aF0.5
aF-0.10000000000000001
aS'@@mean_c00'
p1479
asg750
(lp1480
F1.0
aS'@@c00_scale'
p1481
asg52
(lp1482
g97
aS'@@@Jsequence_simul'
p1483
asg53
(lp1484
g97
aS'@@@Jsequence'
p1485
asg116
(lp1486
I01
aI00
aS'@@coupled_XY_Dang'
p1487
asg27
(lp1488
NaS'@@unit'
p1489
asg31
(lp1490
I5
aS'@@size'
p1491
assg138
g1275
sg140
S'** Description of available inarg record(s) for: MG_JEN_Joneset::DJones_WSRT()  version=16dec2005  defined=2006-04-03 12:43'
p1492
sg142
I00
sg143
S'2006-04-03 12:43'
p1493
sg145
g146
sg147
S'MG_JEN_Joneset'
p1494
sg149
(dp1495
g116
I00
sg25
I00
ssg151
S'** Specific description of inarg record for: MG_JEN_Joneset::DJones_WSRT()  version=16dec2005  defined=2006-04-03 12:43'
p1496
sg153
(dp1497
g2
I00
sg47
I00
ssg155
g1493
sg156
(lp1498
g39
ag47
ag2
ag53
ag52
ag51
ag116
ag25
ag790
ag785
ag782
ag741
ag737
ag749
ag742
ag21
ag32
ag31
ag46
ag750
ag34
ag27
asg158
(dp1499
g737
g814
sg51
g174
sg32
g170
sg25
g164
sg2
g161
sg46
g815
sg34
g816
sg47
g179
sg21
g162
sg741
g817
sg749
g818
sg782
g819
sg785
g820
sg742
g821
sg790
g822
sg750
g823
sg52
g174
sg53
g174
sg116
g178
sg27
g27
sg31
g824
sssg51
g97
sg53
g97
sg825
I100
sg46
F1.0
sg826
I3000
sg790
F0.10000000000000001
sg116
I01
sg47
g1465
sg749
I20
sg782
F1.0
sg785
F0.01
sg750
F1.0
sg52
g97
sg827
F0.00020000000000000001
ssg39
(dp1500
g41
g185
sg43
g1215
sg44
(dp1501
g2
I01
sg47
I01
sg48
I01
sg12
I01
sg51
I01
sg52
I01
sg53
I01
ssg54
S'MG_JEN_CohsetJones'
p1502
sg56
g57
sg60
S'MG_JEN_Cohset::Jones()  version=25dec2005  defined=2006-04-03 12:43'
p1503
sg62
S'Jones'
p1504
sg64
(dp1505
g2
(lp1506
g3
ag69
ag1284
asg47
(lp1507
(lp1508
I0
aI1
aI2
aI3
aI4
aa(lp1509
I0
aI1
aI2
aI3
aI4
aI5
aI6
aa(lp1510
I0
aI1
aI2
aI3
aI4
aI5
aI6
aI7
aI8
aI9
aI10
aI11
aI12
aI13
aa(lp1511
I0
aI1
aI2
aI3
aI4
aI5
aI6
aI7
aI8
aI9
aI10
aI11
aI12
aI13
aI14
aag127
ag1374
asg48
(lp1512
I00
ag1375
asg12
(lp1513
Nag79
ag1435
asg51
(lp1514
NaS'@@@Jsequence_KJones'
p1515
asg52
(lp1516
NaS'@@@Jsequence_simul'
p1517
asg206
(lp1518
(lp1519
g209
aa(lp1520
g211
aa(lp1521
g213
aa(lp1522
g215
aa(lp1523
g97
aa(lp1524
g209
ag97
aa(lp1525
g219
aa(lp1526
g209
ag219
aa(lp1527
g222
aa(lp1528
aS'@@Jsequence'
p1529
asg53
(lp1530
NaS'@@@Jsequence'
p1531
assg138
g1275
sg140
S'** Description of available inarg record(s) for: MG_JEN_Cohset::Jones()  version=25dec2005  defined=2006-04-03 12:43'
p1532
sg142
I00
sg143
S'2006-04-03 12:43'
p1533
sg145
g229
sg147
S'MG_JEN_Cohset'
p1534
sg151
S'** Specific description of inarg record for: MG_JEN_Cohset::Jones()  version=25dec2005  defined=2006-04-03 12:43'
p1535
sg232
(dp1536
g234
S'** JEN_inarg.attach(): attached: [simul_uvp]./MG_JEN_Joneset.FJones()'
p1537
sg236
S'** JEN_inarg.attach(): attached: [simul_uvp]./MG_JEN_Joneset.GJones()'
p1538
sg238
S'** JEN_inarg.attach(): attached: [simul_uvp]./MG_JEN_Joneset.KJones()'
p1539
sg240
S'** JEN_inarg.attach(): attached: [simul_uvp]./MG_JEN_Joneset.BJones()'
p1540
sg242
S'** JEN_inarg.attach(): attached: [simul_uvp]./MG_JEN_Joneset.EJones_WSRT()'
p1541
sg244
S'** JEN_inarg.attach(): attached: [simul_uvp]./MG_JEN_Joneset.DJones_WSRT()'
p1542
sg246
S"  1: ..[simul_uvp]./MG_JEN_Cohset.Jones() (qual=simul_uvp): .modify(Jsequence):   []  ->  ['GJones']"
p1543
sg248
S'** JEN_inarg.attach(): attached: [simul_uvp]./MG_JEN_Joneset.JJones()'
p1544
ssg155
g1533
sg153
(dp1545
g48
I00
sg12
I00
sg2
I00
sg47
I00
ssg156
(lp1546
g39
ag47
ag2
ag53
ag52
ag51
ag12
ag48
ag206
aS'[simul_uvp]./MG_JEN_Joneset.GJones()'
p1547
aS'[simul_uvp]./MG_JEN_Joneset.FJones()'
p1548
ag1315
ag1285
ag1436
ag1376
ag1217
asg158
(dp1549
g2
g161
sg47
g179
sg48
g176
sg12
g166
sg51
g174
sg52
g174
sg206
g259
sg53
g174
ssg58
g260
ssg51
Nsg52
Nsg206
(lp1550
g209
asg1547
(dp1551
g737
g738
sg32
g743
sg2
S'@@polrep'
p1552
sg46
F1.0
sg34
g744
sg47
S'@@stations'
p1553
sg21
g740
sg741
F0.10000000000000001
sg749
I20
sg750
F1.0
sg53
g209
sg782
F1.0
sg785
F0.01
sg39
(dp1554
g41
S'MG_JEN_Joneset::GJones()'
p1555
sg43
g1547
sg44
(dp1556
g737
I00
sg32
I01
sg2
I01
sg34
I01
sg46
I01
sg47
I01
sg21
I01
sg749
I01
sg53
I01
sg742
I01
sg51
I01
sg750
I01
sg52
I01
sg550
I01
sg27
I01
sg31
I01
ssg54
S'MG_JEN_JonesetGJones'
p1557
sg56
g57
sg58
g552
sg60
S'MG_JEN_Joneset::GJones()  version=15dec2005  defined=2006-04-03 12:43'
p1558
sg62
S'GJones'
p1559
sg64
(dp1560
g737
(lp1561
g738
ag756
a(lp1562
g738
ag756
aaNaS'@@unop'
p1563
asg51
(lp1564
g209
aS'@@@Jsequence_KJones'
p1565
asg32
(lp1566
g743
aS'@@style'
p1567
asg2
(lp1568
g3
ag69
ag1552
asg34
(lp1569
g744
aS'@@descr'
p1570
asg46
(lp1571
F1.0
aS'@@c00_default'
p1572
asg47
(lp1573
(lp1574
I0
aI1
aI2
aI3
aI4
aa(lp1575
I0
aI1
aI2
aI3
aI4
aI5
aI6
aa(lp1576
I0
aI1
aI2
aI3
aI4
aI5
aI6
aI7
aI8
aI9
aI10
aI11
aI12
aI13
aa(lp1577
I0
aI1
aI2
aI3
aI4
aI5
aI6
aI7
aI8
aI9
aI10
aI11
aI12
aI13
aI14
aag127
ag1553
asg21
(lp1578
g740
aS'@@color'
p1579
asg741
(lp1580
I0
aF0.01
aF0.10000000000000001
aF0.20000000000000001
aF0.5
aS'@@stddev_period'
p1581
asg749
(lp1582
I20
aS'@@timescale_min'
p1583
asg53
(lp1584
g209
aS'@@@Jsequence'
p1585
asg782
(lp1586
F0.29999999999999999
aF0.5
aI1
aI2
aI3
aS'@@mean_period'
p1587
asg785
(lp1588
I0
aF0.0001
aF0.001
aF0.01
aF0.10000000000000001
aI1
aS'@@stddev_c00'
p1589
asg742
(lp1590
I0
aS'@@fdeg'
p1591
asg790
(lp1592
I0
aF0.10000000000000001
aF0.20000000000000001
aF0.5
aF-0.10000000000000001
aS'@@mean_c00'
p1593
asg750
(lp1594
F1.0
aS'@@c00_scale'
p1595
asg52
(lp1596
g209
aS'@@@Jsequence_simul'
p1597
asg550
(lp1598
I01
aI00
aS'@@Gpolar'
p1599
asg27
(lp1600
NaS'@@unit'
p1601
asg31
(lp1602
I5
aS'@@size'
p1603
assg138
g1275
sg140
S'** Description of available inarg record(s) for: MG_JEN_Joneset::GJones()  version=15dec2005  defined=2006-04-03 12:43'
p1604
sg142
I00
sg143
S'2006-04-03 12:43'
p1605
sg145
g339
sg147
S'MG_JEN_Joneset'
p1606
sg149
(dp1607
g550
I00
ssg151
S'** Specific description of inarg record for: MG_JEN_Joneset::GJones()  version=15dec2005  defined=2006-04-03 12:43'
p1608
sg153
(dp1609
g2
I00
sg47
I00
ssg155
g1605
sg156
(lp1610
g39
ag47
ag2
ag53
ag52
ag51
ag550
ag790
ag785
ag782
ag741
ag737
ag749
ag742
ag21
ag32
ag31
ag46
ag750
ag34
ag27
asg158
(dp1611
g737
g814
sg51
g174
sg32
g170
sg2
g161
sg34
g816
sg46
g815
sg47
g179
sg21
g162
sg741
g817
sg749
g818
sg53
g174
sg782
g819
sg785
g820
sg742
g821
sg790
g822
sg750
g823
sg52
g174
sg550
g632
sg27
g27
sg31
g824
sssg742
I0
sg790
F0.10000000000000001
sg51
g209
sg52
g209
sg550
I01
sg27
Nsg31
I5
ssg1548
(dp1612
g737
g738
sg2
S'@@polrep'
p1613
sg21
g740
sg741
F0.10000000000000001
sg742
I0
sg27
Nsg31
I5
sg32
g743
sg34
g744
sg745
F0.20000000000000001
sg39
(dp1614
g41
S'MG_JEN_Joneset::FJones()'
p1615
sg43
g1548
sg44
(dp1616
g737
I00
sg32
I01
sg2
I01
sg34
I01
sg46
I01
sg47
I01
sg21
I01
sg749
I01
sg742
I01
sg51
I01
sg750
I01
sg52
I01
sg53
I01
sg27
I01
sg31
I01
ssg54
S'MG_JEN_JonesetFJones'
p1617
sg56
g57
sg58
g474
sg60
S'MG_JEN_Joneset::FJones()  version=16dec2005  defined=2006-04-03 12:43'
p1618
sg62
S'FJones'
p1619
sg64
(dp1620
g737
(lp1621
g738
ag756
a(lp1622
g738
ag756
aaNaS'@@unop'
p1623
asg32
(lp1624
g743
aS'@@style'
p1625
asg2
(lp1626
g3
ag69
ag1613
asg34
(lp1627
g744
aS'@@descr'
p1628
asg46
(lp1629
F1.0
aS'@@c00_default'
p1630
asg47
(lp1631
(lp1632
I0
aI1
aI2
aI3
aI4
aa(lp1633
I0
aI1
aI2
aI3
aI4
aI5
aI6
aa(lp1634
I0
aI1
aI2
aI3
aI4
aI5
aI6
aI7
aI8
aI9
aI10
aI11
aI12
aI13
aa(lp1635
I0
aI1
aI2
aI3
aI4
aI5
aI6
aI7
aI8
aI9
aI10
aI11
aI12
aI13
aI14
aag127
aS'@@stations'
p1636
asg21
(lp1637
g740
aS'@@color'
p1638
asg741
(lp1639
I0
aF0.01
aF0.10000000000000001
aF0.20000000000000001
aF0.5
aS'@@stddev_period'
p1640
asg790
(lp1641
I0
aF0.10000000000000001
aF0.20000000000000001
aF0.5
aF-0.10000000000000001
aS'@@mean_c00'
p1642
asg749
(lp1643
I20
aS'@@timescale_min'
p1644
asg782
(lp1645
F0.29999999999999999
aF0.5
aI1
aI2
aI3
aS'@@mean_period'
p1646
asg785
(lp1647
I0
aF0.0001
aF0.001
aF0.01
aF0.10000000000000001
aI1
aS'@@stddev_c00'
p1648
asg742
(lp1649
I0
aS'@@fdeg'
p1650
asg51
(lp1651
g213
aS'@@@Jsequence_KJones'
p1652
asg750
(lp1653
F1.0
aS'@@c00_scale'
p1654
asg52
(lp1655
g213
aS'@@@Jsequence_simul'
p1656
asg53
(lp1657
g213
aS'@@@Jsequence'
p1658
asg27
(lp1659
NaS'@@unit'
p1660
asg31
(lp1661
I5
aS'@@size'
p1662
assg138
g1275
sg140
S'** Description of available inarg record(s) for: MG_JEN_Joneset::FJones()  version=16dec2005  defined=2006-04-03 12:43'
p1663
sg142
I00
sg143
S'2006-04-03 12:43'
p1664
sg145
g146
sg147
S'MG_JEN_Joneset'
p1665
sg151
S'** Specific description of inarg record for: MG_JEN_Joneset::FJones()  version=16dec2005  defined=2006-04-03 12:43'
p1666
sg153
(dp1667
g2
I00
sg47
I00
ssg155
g1664
sg156
(lp1668
g39
ag47
ag2
ag53
ag52
ag51
ag790
ag785
ag782
ag741
ag737
ag749
ag742
ag21
ag32
ag31
ag46
ag750
ag34
ag27
asg158
(dp1669
g737
g814
sg32
g170
sg2
g161
sg34
g816
sg46
g815
sg47
g179
sg21
g162
sg741
g817
sg790
g822
sg749
g818
sg782
g819
sg785
g820
sg742
g821
sg51
g174
sg750
g823
sg52
g174
sg53
g174
sg27
g27
sg31
g824
sssg51
g213
sg53
g213
sg825
I50
sg46
F1.0
sg826
I500
sg790
F0.10000000000000001
sg47
g1636
sg749
I20
sg782
F1.0
sg785
F0.01
sg750
F1.0
sg52
g213
sg827
F0.02
ssg53
NssS'[simul]./MG_JEN_lsm.get_lsm()'
p1670
(dp1671
S'saveAs'
p1672
NsS'test_pattern'
p1673
S'single'
p1674
sS'./MG_JEN_lsm.add_grid()'
p1675
(dp1676
S'taper'
p1677
F1.0
sS'nRA2'
p1678
I1
sS'dDec'
p1679
I20
sS'relpos'
p1680
S'trq'
p1681
sg39
(dp1682
g41
S'MG_JEN_lsm::add_grid()'
p1683
sg43
g1675
sg151
S'** Specific description of inarg record for: MG_JEN_lsm::add_grid()  version=10feb2006  defined=2006-04-03 12:43'
p1684
sg54
S'MG_JEN_lsmadd_grid'
p1685
sg56
g57
sg58
S'Add a rectangular grid of identical test-sources to the given lsm'
p1686
sg60
S'MG_JEN_lsm::add_grid()  version=10feb2006  defined=2006-04-03 12:43'
p1687
sg62
S'add_grid'
p1688
sg64
(dp1689
g1677
(lp1690
F0.5
aI1
aI2
aI5
aI10
aI100
aNaS'@@taper'
p1691
asg1678
(lp1692
I0
aI1
aI2
aI3
aS'@@nRA2'
p1693
asg1679
(lp1694
I5
aI10
aI20
aS'@@dDec'
p1695
asg1680
(lp1696
S'center'
p1697
aS'top'
p1698
aS'bottom'
p1699
aS'left'
p1700
aS'right'
p1701
aS'tlq'
p1702
ag1681
aS'blq'
p1703
aS'brq'
p1704
aS'@@relpos'
p1705
asS'dRA'
p1706
(lp1707
I5
aI10
aI20
aS'@@dRA'
p1708
asS'nDec2'
p1709
(lp1710
I0
aI1
aI2
aI3
aS'@@nDec2'
p1711
assg138
Nsg140
S'** Description of available inarg record(s) for: MG_JEN_lsm::add_grid()  version=10feb2006  defined=2006-04-03 12:43'
p1712
sg142
I00
sg143
S'2006-04-03 12:43'
p1713
sg145
S'10feb2006'
p1714
sg147
S'MG_JEN_lsm'
p1715
sg232
(dp1716
g236
S'** JEN_inarg.attach(): attached: [grid]./MG_JEN_Sixpack.newstar_source()'
p1717
ssg155
g1713
sg156
(lp1718
g39
ag1678
ag1709
ag1706
ag1679
ag1677
ag1680
aS'[grid]./MG_JEN_Sixpack.newstar_source()'
p1719
asg158
(dp1720
g1677
S'Scale (degr) of gaussian FOV taper'
p1721
sg1678
S'(half) nr of sources in RA direction'
p1722
sg1679
S'Dec grid spacing (arcmin)'
p1723
sg1680
S'Relative position w.r.t. the nominal punit (RA,Dec)'
p1724
sg1706
S'RA grid spacing (arcmin)'
p1725
sg1709
S'(half) nr of sources in DEC direction'
p1726
sssg1706
I20
sg1709
I1
sg1719
(dp1727
S'f0'
p1728
F1000000.0
sg19
I00
sS'major'
p1729
F0.0
sS'unsolvable'
p1730
I00
sg21
g22
sg26
I00
sS'shape'
p1731
S'point'
p1732
sg12
g13
sS'Upct'
p1733
Nsg27
Nsg31
I10
sg32
g33
sg34
g35
sS'I0'
p1734
F1.0
sg49
Nsg36
g37
sS'Vpct'
p1735
Nsg38
NsS'pa'
p1736
F0.0
sg39
(dp1737
g43
g1719
sg158
(dp1738
g1728
S'reference freq (Hz): I=I0 @ f=f0'
p1739
sg19
g160
sg1729
S'major axis (arcsec)'
p1740
sg1730
S'if True, do NOT store solvegroup/parmgroup info'
p1741
sg21
g162
sg26
g165
sg1731
S'source shape'
p1742
sg12
S'name of the MeqParm table (AIPS++)'
p1743
sg1733
S'Stokes U (percentage of I)'
p1744
sg27
g27
sg31
g169
sg32
g170
sg34
g171
sg1734
S'Stokes I: Total intensity @ f=f0 (usually 1 MHz)'
p1745
sg49
g181
sg36
g172
sg1735
S'Stokes V (percentage of I)'
p1746
sg38
g173
sg1736
S'position angle (rad)'
p1747
sS'RA'
p1748
S'Right Ascension (rad, J2000)'
p1749
sS'RM'
p1750
S'Intrinsic Rotation Measure (rad/m2)'
p1751
sS'minor'
p1752
S'minor axis (arcsec)'
p1753
sg46
g175
sS'Qpct'
p1754
S'Stokes Q (percentage of I)'
p1755
sS'punit'
p1756
S'name of calibrator source/patch \n- unpol:   unpolarised, I=1Jy \n- unpol2:  idem, I=2Jy \n- unpol10: idem, I=10Jy \n- RMtest:  Rotation Measure \n- SItest:  Spectral Index \n- QUV:     non-zero Q,U,V \n- QU:      non-zero Q,U \n- QU2:     stronger version of QU \n- Qonly:   non-zero Q \n- Uonly:   non-zero U \n- Vonly:   non-zero V \n- 3c286:   \n- 3c48:    \n- 3c295:   \n- 3c147:   \n- D1:      cps in D1.MS \n'
p1757
sS'Dec'
p1758
S'Declination (rad, J2000)'
p1759
sS'fsr_trace'
p1760
S'If True, attach to forest state record'
p1761
sg129
g180
sS'SI'
p1762
S'Spectral Index (generalised)\n   A scalar represents the classical SI: I(f)=I0*(f/f0)^SI\n   A vector represents a freq-dependent SI (....)'
p1763
sg50
g182
sg30
g168
ssg56
g57
sg147
S'MG_JEN_Sixpack'
p1764
sg44
(dp1765
g1728
I01
sg1729
I01
sg1730
I01
sS'name'
p1766
I01
sg34
I01
sg38
I01
sg21
I01
sg1731
I01
sg1760
I01
sg1756
I00
sg49
I01
sg1736
I01
sg36
I01
sg50
I01
sg27
I01
sg46
I01
sg32
I01
sg1752
I01
sg31
I01
ssg145
g1714
sg58
S'Make a Sixpack (I,Q,U,V,Ra,Dec) for a source with NEWSTAR parametrisation'
p1767
sg149
(dp1768
g19
I00
sg1730
I00
sg1760
I00
sg26
I00
sg129
I00
sg30
I00
ssg60
S'MG_JEN_Sixpack::newstar_source()  version=10feb2006  defined=2006-04-03 12:43'
p1769
sg64
(dp1770
g1728
(lp1771
F1000000.0
aS'@@f0'
p1772
asg19
(lp1773
I01
aI00
aS'@@reset_funklet'
p1774
asg1729
(lp1775
F0.0
aF1.0
aF10.0
aF100.0
aS'@@major'
p1776
asg1730
(lp1777
I01
aI00
aS'@@unsolvable'
p1778
asg21
(lp1779
g22
aS'@@color'
p1780
asg26
(lp1781
I01
aI00
aS'@@save_all'
p1782
asg1731
(lp1783
g1732
aS'ell.gauss'
p1784
aS'@@shape'
p1785
asg12
(lp1786
NaS'@@parmtable'
p1787
asg1733
(lp1788
NaF-0.10000000000000001
aF0.050000000000000003
aF-0.01
aS'@@Upct'
p1789
asg27
(lp1790
NaS'@@unit'
p1791
asg31
(lp1792
I10
aS'@@size'
p1793
asg32
(lp1794
g33
aS'@@style'
p1795
asg34
(lp1796
g35
aS'@@descr'
p1797
asg1734
(lp1798
F1.0
aF10.0
aS'@@I0'
p1799
asg49
(lp1800
NaS'@@subtile_size'
p1801
asg36
(lp1802
g37
aS'@@condeq_corrs'
p1803
asg1735
(lp1804
NaF0.01
aF-0.0050000000000000001
aF0.001
aS'@@Vpct'
p1805
asg38
(lp1806
NaS'@@funklet_shape'
p1807
asg1736
(lp1808
F0.0
aF1.0
aF-0.5
aS'@@pa'
p1809
asg1748
(lp1810
F0.0
aF0.5
aF1.0
aF1.4950000000000001
aF4.3570000000000002
aS'@@RA'
p1811
asg1750
(lp1812
NaF1.0
aF3.0
aF10.0
aF-10.0
aF60.0
aS'@@RM'
p1813
asg1752
(lp1814
F0.0
aF0.5
aF5.0
aF50.0
aS'@@minor'
p1815
asg46
(lp1816
F1.0
aS'@@c00_default'
p1817
asg1754
(lp1818
NaF0.10000000000000001
aF-0.050000000000000003
aF0.01
aS'@@Qpct'
p1819
asg1756
(lp1820
S'unpol'
p1821
aS'unpol2'
p1822
aS'unpol10'
p1823
aS'QUV'
p1824
aS'QU'
p1825
aS'Qonly'
p1826
aS'Uonly'
p1827
aS'Vonly'
p1828
aS'3c147'
p1829
aS'3c286'
p1830
aS'3c48'
p1831
aS'3c295'
p1832
aS'D1'
p1833
aS'RMtest'
p1834
aS'SItest'
p1835
aS'@@punit'
p1836
asg1758
(lp1837
F0.5
aF1.0
aF0.87
aF1.0920000000000001
aS'@@Dec'
p1838
asg1766
(lp1839
NaS'@@name'
p1840
asg1760
(lp1841
I01
aI00
aS'@@fsr_trace'
p1842
asg129
(lp1843
I01
aI00
aS'@@use_previous'
p1844
asg1762
(lp1845
NaF-0.69999999999999996
a(lp1846
F0.44700000000000001
aF-0.184
aaS'@@SI'
p1847
asg50
(lp1848
NaS'@@tfdeg'
p1849
asg30
(lp1850
I01
aI00
aS'@@auto_save'
p1851
assg138
S'grid'
p1852
sg155
S'2006-04-03 12:43'
p1853
sg41
S'MG_JEN_Sixpack::newstar_source()'
p1854
sg151
S'** Specific description of inarg record for: MG_JEN_Sixpack::newstar_source()  version=10feb2006  defined=2006-04-03 12:43'
p1855
sg54
S'MG_JEN_Sixpacknewstar_source'
p1856
sg62
S'newstar_source'
p1857
sS'callback'
p1858
(dp1859
g1756
I01
ssg140
S'** Description of available inarg record(s) for: MG_JEN_Sixpack::newstar_source()  version=10feb2006  defined=2006-04-03 12:43'
p1860
sg142
I00
sg143
g1853
sg232
(dp1861
g236
S'  3: ......[grid]./MG_JEN_Sixpack.newstar_source() (qual=None): .modify(parmtable):   None  ->  simul_GJones'
p1862
ssg156
(lp1863
g39
ag1756
ag1766
ag12
ag1730
ag1734
ag1754
ag1733
ag1735
ag1750
ag1762
ag1728
ag1748
ag1758
ag1760
ag1731
ag1729
ag1752
ag1736
ag129
ag30
ag26
ag19
ag34
ag27
ag21
ag32
ag31
ag46
ag50
ag38
ag49
ag36
assg1750
Nsg1752
F0.0
sg1748
F1.4950000000000001
sg46
F1.0
sg1754
Nsg1756
g1821
sg1758
F0.87
sg1766
Nsg1760
I01
sg129
I01
sg1762
Nsg50
Nsg30
I01
sssS'./MG_JEN_lsm.add_double()'
p1864
(dp1865
g1679
I20
sg1706
I20
sS'[double_1]./MG_JEN_Sixpack.newstar_source()'
p1866
(dp1867
g1728
F1000000.0
sg19
I00
sg1729
F0.0
sg1730
I00
sg21
g22
sg26
I00
sg1731
g1732
sg12
g13
sg1733
Nsg27
Nsg31
I10
sg32
g33
sg34
g35
sg1734
F1.0
sg49
Nsg36
g37
sg1735
Nsg38
Nsg1736
F0.0
sg39
(dp1868
g43
g1866
sg158
(dp1869
g1728
g1739
sg19
g160
sg1729
g1740
sg1730
g1741
sg21
g162
sg26
g165
sg1731
g1742
sg12
g1743
sg1733
g1744
sg27
g27
sg31
g169
sg32
g170
sg34
g171
sg1734
g1745
sg49
g181
sg36
g172
sg1735
g1746
sg38
g173
sg1736
g1747
sg1748
g1749
sg1750
g1751
sg1752
g1753
sg46
g175
sg1754
g1755
sg1756
S'name of calibrator source/patch \n- unpol:   unpolarised, I=1Jy \n- unpol2:  idem, I=2Jy \n- unpol10: idem, I=10Jy \n- RMtest:  Rotation Measure \n- SItest:  Spectral Index \n- QUV:     non-zero Q,U,V \n- QU:      non-zero Q,U \n- QU2:     stronger version of QU \n- Qonly:   non-zero Q \n- Uonly:   non-zero U \n- Vonly:   non-zero V \n- 3c286:   \n- 3c48:    \n- 3c295:   \n- 3c147:   \n- D1:      cps in D1.MS \n'
p1870
sg1758
g1759
sg1760
g1761
sg129
g180
sg1762
g1763
sg50
g182
sg30
g168
ssg56
g57
sg147
S'MG_JEN_Sixpack'
p1871
sg44
(dp1872
g1728
I01
sg1729
I01
sg1730
I01
sg1766
I01
sg34
I01
sg38
I01
sg21
I01
sg1731
I01
sg1760
I01
sg1756
I00
sg49
I01
sg1736
I01
sg36
I01
sg50
I01
sg27
I01
sg46
I01
sg32
I01
sg1752
I01
sg31
I01
ssg145
g1714
sg58
g1767
sg149
(dp1873
g19
I00
sg1730
I00
sg1760
I00
sg26
I00
sg129
I00
sg30
I00
ssg60
S'MG_JEN_Sixpack::newstar_source()  version=10feb2006  defined=2006-04-03 12:43'
p1874
sg64
(dp1875
g1728
(lp1876
F1000000.0
aS'@@f0'
p1877
asg19
(lp1878
I01
aI00
aS'@@reset_funklet'
p1879
asg1729
(lp1880
F0.0
aF1.0
aF10.0
aF100.0
aS'@@major'
p1881
asg1730
(lp1882
I01
aI00
aS'@@unsolvable'
p1883
asg21
(lp1884
g22
aS'@@color'
p1885
asg26
(lp1886
I01
aI00
aS'@@save_all'
p1887
asg1731
(lp1888
g1732
ag1784
aS'@@shape'
p1889
asg12
(lp1890
NaS'@@parmtable'
p1891
asg1733
(lp1892
NaF-0.10000000000000001
aF0.050000000000000003
aF-0.01
aS'@@Upct'
p1893
asg27
(lp1894
NaS'@@unit'
p1895
asg31
(lp1896
I10
aS'@@size'
p1897
asg32
(lp1898
g33
aS'@@style'
p1899
asg34
(lp1900
g35
aS'@@descr'
p1901
asg1734
(lp1902
F1.0
aF10.0
aS'@@I0'
p1903
asg49
(lp1904
NaS'@@subtile_size'
p1905
asg36
(lp1906
g37
aS'@@condeq_corrs'
p1907
asg1735
(lp1908
NaF0.01
aF-0.0050000000000000001
aF0.001
aS'@@Vpct'
p1909
asg38
(lp1910
NaS'@@funklet_shape'
p1911
asg1736
(lp1912
F0.0
aF1.0
aF-0.5
aS'@@pa'
p1913
asg1748
(lp1914
F0.0
aF0.5
aF1.0
aF1.4950000000000001
aF4.3570000000000002
aS'@@RA'
p1915
asg1750
(lp1916
NaF1.0
aF3.0
aF10.0
aF-10.0
aF60.0
aS'@@RM'
p1917
asg1752
(lp1918
F0.0
aF0.5
aF5.0
aF50.0
aS'@@minor'
p1919
asg46
(lp1920
F1.0
aS'@@c00_default'
p1921
asg1754
(lp1922
NaF0.10000000000000001
aF-0.050000000000000003
aF0.01
aS'@@Qpct'
p1923
asg1756
(lp1924
g1821
ag1822
ag1823
ag1824
ag1825
ag1826
ag1827
ag1828
ag1829
ag1830
ag1831
ag1832
ag1833
ag1834
ag1835
aS'@@punit'
p1925
asg1758
(lp1926
F0.5
aF1.0
aF0.87
aF1.0920000000000001
aS'@@Dec'
p1927
asg1766
(lp1928
NaS'@@name'
p1929
asg1760
(lp1930
I01
aI00
aS'@@fsr_trace'
p1931
asg129
(lp1932
I01
aI00
aS'@@use_previous'
p1933
asg1762
(lp1934
NaF-0.69999999999999996
a(lp1935
F0.44700000000000001
aF-0.184
aaS'@@SI'
p1936
asg50
(lp1937
NaS'@@tfdeg'
p1938
asg30
(lp1939
I01
aI00
aS'@@auto_save'
p1940
assg138
S'double_1'
p1941
sg155
S'2006-04-03 12:43'
p1942
sg41
g1854
sg151
S'** Specific description of inarg record for: MG_JEN_Sixpack::newstar_source()  version=10feb2006  defined=2006-04-03 12:43'
p1943
sg54
S'MG_JEN_Sixpacknewstar_source'
p1944
sg62
S'newstar_source'
p1945
sg1858
(dp1946
g1756
I01
ssg140
S'** Description of available inarg record(s) for: MG_JEN_Sixpack::newstar_source()  version=10feb2006  defined=2006-04-03 12:43'
p1947
sg142
I00
sg143
g1942
sg232
(dp1948
g236
S'  3: ......[double_1]./MG_JEN_Sixpack.newstar_source() (qual=None): .modify(parmtable):   None  ->  simul_GJones'
p1949
ssg156
(lp1950
g39
ag1756
ag1766
ag12
ag1730
ag1734
ag1754
ag1733
ag1735
ag1750
ag1762
ag1728
ag1748
ag1758
ag1760
ag1731
ag1729
ag1752
ag1736
ag129
ag30
ag26
ag19
ag34
ag27
ag21
ag32
ag31
ag46
ag50
ag38
ag49
ag36
assg1750
Nsg1752
F0.0
sg1748
F1.4950000000000001
sg46
F1.0
sg1754
Nsg1756
g1821
sg1758
F0.87
sg1766
Nsg1760
I01
sg129
I01
sg1762
Nsg50
Nsg30
I01
ssS'[double_2]./MG_JEN_Sixpack.newstar_source()'
p1951
(dp1952
g1728
F1000000.0
sg19
I00
sg1729
F0.0
sg1730
I00
sg21
g22
sg26
I00
sg1731
g1732
sg12
g13
sg1733
Nsg27
Nsg31
I10
sg32
g33
sg34
g35
sg1734
F1.0
sg49
Nsg36
g37
sg1735
Nsg38
Nsg1736
F0.0
sg39
(dp1953
g43
g1951
sg158
(dp1954
g1728
g1739
sg19
g160
sg1729
g1740
sg1730
g1741
sg21
g162
sg26
g165
sg1731
g1742
sg12
g1743
sg1733
g1744
sg27
g27
sg31
g169
sg32
g170
sg34
g171
sg1734
g1745
sg49
g181
sg36
g172
sg1735
g1746
sg38
g173
sg1736
g1747
sg1748
g1749
sg1750
g1751
sg1752
g1753
sg46
g175
sg1754
g1755
sg1756
S'name of calibrator source/patch \n- unpol:   unpolarised, I=1Jy \n- unpol2:  idem, I=2Jy \n- unpol10: idem, I=10Jy \n- RMtest:  Rotation Measure \n- SItest:  Spectral Index \n- QUV:     non-zero Q,U,V \n- QU:      non-zero Q,U \n- QU2:     stronger version of QU \n- Qonly:   non-zero Q \n- Uonly:   non-zero U \n- Vonly:   non-zero V \n- 3c286:   \n- 3c48:    \n- 3c295:   \n- 3c147:   \n- D1:      cps in D1.MS \n'
p1955
sg1758
g1759
sg1760
g1761
sg129
g180
sg1762
g1763
sg50
g182
sg30
g168
ssg56
g57
sg147
S'MG_JEN_Sixpack'
p1956
sg44
(dp1957
g1728
I01
sg1729
I01
sg1730
I01
sg1766
I01
sg34
I01
sg38
I01
sg21
I01
sg1731
I01
sg1760
I01
sg1756
I00
sg49
I01
sg1736
I01
sg36
I01
sg50
I01
sg27
I01
sg46
I01
sg32
I01
sg1752
I01
sg31
I01
ssg145
g1714
sg58
g1767
sg149
(dp1958
g19
I00
sg1730
I00
sg1760
I00
sg26
I00
sg129
I00
sg30
I00
ssg60
S'MG_JEN_Sixpack::newstar_source()  version=10feb2006  defined=2006-04-03 12:43'
p1959
sg64
(dp1960
g1728
(lp1961
F1000000.0
aS'@@f0'
p1962
asg19
(lp1963
I01
aI00
aS'@@reset_funklet'
p1964
asg1729
(lp1965
F0.0
aF1.0
aF10.0
aF100.0
aS'@@major'
p1966
asg1730
(lp1967
I01
aI00
aS'@@unsolvable'
p1968
asg21
(lp1969
g22
aS'@@color'
p1970
asg26
(lp1971
I01
aI00
aS'@@save_all'
p1972
asg1731
(lp1973
g1732
ag1784
aS'@@shape'
p1974
asg12
(lp1975
NaS'@@parmtable'
p1976
asg1733
(lp1977
NaF-0.10000000000000001
aF0.050000000000000003
aF-0.01
aS'@@Upct'
p1978
asg27
(lp1979
NaS'@@unit'
p1980
asg31
(lp1981
I10
aS'@@size'
p1982
asg32
(lp1983
g33
aS'@@style'
p1984
asg34
(lp1985
g35
aS'@@descr'
p1986
asg1734
(lp1987
F1.0
aF10.0
aS'@@I0'
p1988
asg49
(lp1989
NaS'@@subtile_size'
p1990
asg36
(lp1991
g37
aS'@@condeq_corrs'
p1992
asg1735
(lp1993
NaF0.01
aF-0.0050000000000000001
aF0.001
aS'@@Vpct'
p1994
asg38
(lp1995
NaS'@@funklet_shape'
p1996
asg1736
(lp1997
F0.0
aF1.0
aF-0.5
aS'@@pa'
p1998
asg1748
(lp1999
F0.0
aF0.5
aF1.0
aF1.4950000000000001
aF4.3570000000000002
aS'@@RA'
p2000
asg1750
(lp2001
NaF1.0
aF3.0
aF10.0
aF-10.0
aF60.0
aS'@@RM'
p2002
asg1752
(lp2003
F0.0
aF0.5
aF5.0
aF50.0
aS'@@minor'
p2004
asg46
(lp2005
F1.0
aS'@@c00_default'
p2006
asg1754
(lp2007
NaF0.10000000000000001
aF-0.050000000000000003
aF0.01
aS'@@Qpct'
p2008
asg1756
(lp2009
g1821
ag1822
ag1823
ag1824
ag1825
ag1826
ag1827
ag1828
ag1829
ag1830
ag1831
ag1832
ag1833
ag1834
ag1835
aS'@@punit'
p2010
asg1758
(lp2011
F0.5
aF1.0
aF0.87
aF1.0920000000000001
aS'@@Dec'
p2012
asg1766
(lp2013
NaS'@@name'
p2014
asg1760
(lp2015
I01
aI00
aS'@@fsr_trace'
p2016
asg129
(lp2017
I01
aI00
aS'@@use_previous'
p2018
asg1762
(lp2019
NaF-0.69999999999999996
a(lp2020
F0.44700000000000001
aF-0.184
aaS'@@SI'
p2021
asg50
(lp2022
NaS'@@tfdeg'
p2023
asg30
(lp2024
I01
aI00
aS'@@auto_save'
p2025
assg138
S'double_2'
p2026
sg155
S'2006-04-03 12:43'
p2027
sg41
g1854
sg151
S'** Specific description of inarg record for: MG_JEN_Sixpack::newstar_source()  version=10feb2006  defined=2006-04-03 12:43'
p2028
sg54
S'MG_JEN_Sixpacknewstar_source'
p2029
sg62
S'newstar_source'
p2030
sg1858
(dp2031
g1756
I01
ssg140
S'** Description of available inarg record(s) for: MG_JEN_Sixpack::newstar_source()  version=10feb2006  defined=2006-04-03 12:43'
p2032
sg142
I00
sg143
g2027
sg232
(dp2033
g236
S'  3: ......[double_2]./MG_JEN_Sixpack.newstar_source() (qual=None): .modify(parmtable):   None  ->  simul_GJones'
p2034
ssg156
(lp2035
g39
ag1756
ag1766
ag12
ag1730
ag1734
ag1754
ag1733
ag1735
ag1750
ag1762
ag1728
ag1748
ag1758
ag1760
ag1731
ag1729
ag1752
ag1736
ag129
ag30
ag26
ag19
ag34
ag27
ag21
ag32
ag31
ag46
ag50
ag38
ag49
ag36
assg1750
Nsg1752
F0.0
sg1748
F1.4950000000000001
sg46
F1.0
sg1754
Nsg1756
g1821
sg1758
F0.87
sg1766
Nsg1760
I01
sg129
I01
sg1762
Nsg50
Nsg30
I01
ssg39
(dp2036
g41
S'MG_JEN_lsm::add_double()'
p2037
sg43
g1864
sg151
S'** Specific description of inarg record for: MG_JEN_lsm::add_double()  version=10feb2006  defined=2006-04-03 12:43'
p2038
sg54
S'MG_JEN_lsmadd_double'
p2039
sg56
g57
sg58
S'Add a double test-source (Sixpack) to the given lsm'
p2040
sg60
S'MG_JEN_lsm::add_double()  version=10feb2006  defined=2006-04-03 12:43'
p2041
sg62
S'add_double'
p2042
sg64
(dp2043
g1706
(lp2044
I20
aS'@@dRA'
p2045
asg1679
(lp2046
I20
aS'@@dDec'
p2047
assg138
Nsg140
S'** Description of available inarg record(s) for: MG_JEN_lsm::add_double()  version=10feb2006  defined=2006-04-03 12:43'
p2048
sg142
I00
sg143
S'2006-04-03 12:43'
p2049
sg145
g1714
sg147
S'MG_JEN_lsm'
p2050
sg232
(dp2051
g234
S'** JEN_inarg.attach(): attached: [double_2]./MG_JEN_Sixpack.newstar_source()'
p2052
sg236
S'** JEN_inarg.attach(): attached: [double_1]./MG_JEN_Sixpack.newstar_source()'
p2053
ssg155
g2049
sg156
(lp2054
g39
ag1866
ag1951
ag1706
ag1679
asg158
(dp2055
g1706
S'distance of 2nd source in RA (arcmin)'
p2056
sg1679
S'distance of 2nd source in Dec (arcmin)'
p2057
ssssg39
(dp2058
g41
S'MG_JEN_lsm::get_lsm()'
p2059
sg43
g1670
sg151
S'** Specific description of inarg record for: MG_JEN_lsm::get_lsm()  version=02apr2006  defined=2006-04-03 12:43'
p2060
sg54
S'MG_JEN_lsmget_lsm'
p2061
sS'browse'
p2062
(dp2063
S'input_LSM'
p2064
S'*.lsm'
p2065
sg1672
g2065
ssg56
g57
sg60
S'MG_JEN_lsm::get_lsm()  version=02apr2006  defined=2006-04-03 12:43'
p2066
sg62
S'get_lsm'
p2067
sg64
(dp2068
g2064
(lp2069
S'lsm_current.lsm'
p2070
aS'3c343_nvss.lsm'
p2071
aS'abel963.lsm'
p2072
aS'D1.lsm'
p2073
aNaS'@@input_LSM'
p2074
asg1672
(lp2075
S'<automatic>'
p2076
aNaS'@@saveAs'
p2077
asg1673
(lp2078
Nag1674
aS'double'
p2079
ag1852
aS'spiral'
p2080
aS'@@test_pattern'
p2081
asS'display'
p2082
(lp2083
I01
aI00
aS'@@display'
p2084
asS'save_as_current'
p2085
(lp2086
I01
aI00
aS'@@save_as_current'
p2087
assg138
S'simul'
p2088
sg140
S'** Description of available inarg record(s) for: MG_JEN_lsm::get_lsm()  version=02apr2006  defined=2006-04-03 12:43'
p2089
sg142
I00
sg143
S'2006-04-03 12:43'
p2090
sg145
S'02apr2006'
p2091
sg147
S'MG_JEN_lsm'
p2092
sg149
(dp2093
g2082
I00
sg2085
I00
ssg232
(dp2094
g234
S'** JEN_inarg.attach(): attached: ./MG_JEN_lsm.add_double()'
p2095
sg236
S'** JEN_inarg.attach(): attached: ./MG_JEN_lsm.add_single()'
p2096
sg238
S'** JEN_inarg.attach(): attached: ./MG_JEN_lsm.add_spiral()'
p2097
sg240
S'** JEN_inarg.attach(): attached: ./MG_JEN_lsm.add_grid()'
p2098
ssg155
g2090
sg156
(lp2099
g39
ag2064
ag2082
ag2085
ag1672
ag1673
aS'./MG_JEN_lsm.add_single()'
p2100
ag1864
ag1675
aS'./MG_JEN_lsm.add_spiral()'
p2101
asg158
(dp2102
g2064
S'(file)name of the Local Sky Model to be added to'
p2103
sg1672
S'Save the new/modified LSM afterwards as...'
p2104
sg1673
S'pattern of test-sources to be generated'
p2105
sg2082
S'Display the new/modified LSM'
p2106
sg2085
S'Save the new/modified LSM afterwards as lsm_current.lsm'
p2107
ssg58
S'Generate an existing/new/modified Local Sky Model'
p2108
ssg2085
I01
sg2064
Nsg2101
(dp2109
S'nr_of_sources'
p2110
I5
sg1677
F1.0
sS'astart'
p2111
I0
sS'rmult'
p2112
F1.1000000000000001
sS'rstart'
p2113
I20
sg39
(dp2114
g41
S'MG_JEN_lsm::add_spiral()'
p2115
sg43
g2101
sg151
S'** Specific description of inarg record for: MG_JEN_lsm::add_spiral()  version=10feb2006  defined=2006-04-03 12:43'
p2116
sg54
S'MG_JEN_lsmadd_spiral'
p2117
sg56
g57
sg58
S'Add a spiral pattern of identical test-sources to the given lsm'
p2118
sg60
S'MG_JEN_lsm::add_spiral()  version=10feb2006  defined=2006-04-03 12:43'
p2119
sg62
S'add_spiral'
p2120
sg64
(dp2121
g2110
(lp2122
I2
aI3
aI4
aI5
aI10
aS'@@nr_of_sources'
p2123
asg1677
(lp2124
F0.5
aI1
aI2
aI5
aI10
aI100
aNaS'@@taper'
p2125
asg2111
(lp2126
I0
aI30
aI45
aI90
aI180
aI270
aS'@@astart'
p2127
asg2112
(lp2128
F1.01
aF1.1000000000000001
aF1.2
aF1.5
aI2
aS'@@rmult'
p2129
asg2113
(lp2130
I1
aI2
aI5
aI10
aI20
aI50
aI100
aS'@@rstart'
p2131
asS'ainc'
p2132
(lp2133
I10
aI20
aI30
aI45
aI90
aI180
aI360
aI0
aS'@@ainc'
p2134
assg138
Nsg140
S'** Description of available inarg record(s) for: MG_JEN_lsm::add_spiral()  version=10feb2006  defined=2006-04-03 12:43'
p2135
sg142
I00
sg143
S'2006-04-03 12:43'
p2136
sg145
g1714
sg147
S'MG_JEN_lsm'
p2137
sg232
(dp2138
g236
S'** JEN_inarg.attach(): attached: [spiral]./MG_JEN_Sixpack.newstar_source()'
p2139
ssg155
g2136
sg156
(lp2140
g39
ag2110
ag2113
ag2111
ag2112
ag2132
ag1677
aS'[spiral]./MG_JEN_Sixpack.newstar_source()'
p2141
asg158
(dp2142
g2110
S'nr of sources'
p2143
sg1677
S'Scale (degr) of gaussian FOV taper'
p2144
sg2111
S'start position angle (deg)'
p2145
sg2112
S'radius multiplication factor'
p2146
sg2113
S'start position radius (arcmin)'
p2147
sg2132
S'position angle increment (deg)'
p2148
sssg2132
I10
sg2141
(dp2149
g1728
F1000000.0
sg19
I00
sg1729
F0.0
sg1730
I00
sg21
g22
sg26
I00
sg1731
g1732
sg12
g13
sg1733
Nsg27
Nsg31
I10
sg32
g33
sg34
g35
sg1734
F1.0
sg49
Nsg36
g37
sg1735
Nsg38
Nsg1736
F0.0
sg39
(dp2150
g43
g2141
sg158
(dp2151
g1728
g1739
sg19
g160
sg1729
g1740
sg1730
g1741
sg21
g162
sg26
g165
sg1731
g1742
sg12
g1743
sg1733
g1744
sg27
g27
sg31
g169
sg32
g170
sg34
g171
sg1734
g1745
sg49
g181
sg36
g172
sg1735
g1746
sg38
g173
sg1736
g1747
sg1748
g1749
sg1750
g1751
sg1752
g1753
sg46
g175
sg1754
g1755
sg1756
S'name of calibrator source/patch \n- unpol:   unpolarised, I=1Jy \n- unpol2:  idem, I=2Jy \n- unpol10: idem, I=10Jy \n- RMtest:  Rotation Measure \n- SItest:  Spectral Index \n- QUV:     non-zero Q,U,V \n- QU:      non-zero Q,U \n- QU2:     stronger version of QU \n- Qonly:   non-zero Q \n- Uonly:   non-zero U \n- Vonly:   non-zero V \n- 3c286:   \n- 3c48:    \n- 3c295:   \n- 3c147:   \n- D1:      cps in D1.MS \n'
p2152
sg1758
g1759
sg1760
g1761
sg129
g180
sg1762
g1763
sg50
g182
sg30
g168
ssg56
g57
sg147
S'MG_JEN_Sixpack'
p2153
sg44
(dp2154
g1728
I01
sg1729
I01
sg1730
I01
sg1766
I01
sg34
I01
sg38
I01
sg21
I01
sg1731
I01
sg1760
I01
sg1756
I00
sg49
I01
sg1736
I01
sg36
I01
sg50
I01
sg27
I01
sg46
I01
sg32
I01
sg1752
I01
sg31
I01
ssg145
g1714
sg58
g1767
sg149
(dp2155
g19
I00
sg1730
I00
sg1760
I00
sg26
I00
sg129
I00
sg30
I00
ssg60
S'MG_JEN_Sixpack::newstar_source()  version=10feb2006  defined=2006-04-03 12:43'
p2156
sg64
(dp2157
g1728
(lp2158
F1000000.0
aS'@@f0'
p2159
asg19
(lp2160
I01
aI00
aS'@@reset_funklet'
p2161
asg1729
(lp2162
F0.0
aF1.0
aF10.0
aF100.0
aS'@@major'
p2163
asg1730
(lp2164
I01
aI00
aS'@@unsolvable'
p2165
asg21
(lp2166
g22
aS'@@color'
p2167
asg26
(lp2168
I01
aI00
aS'@@save_all'
p2169
asg1731
(lp2170
g1732
ag1784
aS'@@shape'
p2171
asg12
(lp2172
NaS'@@parmtable'
p2173
asg1733
(lp2174
NaF-0.10000000000000001
aF0.050000000000000003
aF-0.01
aS'@@Upct'
p2175
asg27
(lp2176
NaS'@@unit'
p2177
asg31
(lp2178
I10
aS'@@size'
p2179
asg32
(lp2180
g33
aS'@@style'
p2181
asg34
(lp2182
g35
aS'@@descr'
p2183
asg1734
(lp2184
F1.0
aF10.0
aS'@@I0'
p2185
asg49
(lp2186
NaS'@@subtile_size'
p2187
asg36
(lp2188
g37
aS'@@condeq_corrs'
p2189
asg1735
(lp2190
NaF0.01
aF-0.0050000000000000001
aF0.001
aS'@@Vpct'
p2191
asg38
(lp2192
NaS'@@funklet_shape'
p2193
asg1736
(lp2194
F0.0
aF1.0
aF-0.5
aS'@@pa'
p2195
asg1748
(lp2196
F0.0
aF0.5
aF1.0
aF1.4950000000000001
aF4.3570000000000002
aS'@@RA'
p2197
asg1750
(lp2198
NaF1.0
aF3.0
aF10.0
aF-10.0
aF60.0
aS'@@RM'
p2199
asg1752
(lp2200
F0.0
aF0.5
aF5.0
aF50.0
aS'@@minor'
p2201
asg46
(lp2202
F1.0
aS'@@c00_default'
p2203
asg1754
(lp2204
NaF0.10000000000000001
aF-0.050000000000000003
aF0.01
aS'@@Qpct'
p2205
asg1756
(lp2206
g1821
ag1822
ag1823
ag1824
ag1825
ag1826
ag1827
ag1828
ag1829
ag1830
ag1831
ag1832
ag1833
ag1834
ag1835
aS'@@punit'
p2207
asg1758
(lp2208
F0.5
aF1.0
aF0.87
aF1.0920000000000001
aS'@@Dec'
p2209
asg1766
(lp2210
NaS'@@name'
p2211
asg1760
(lp2212
I01
aI00
aS'@@fsr_trace'
p2213
asg129
(lp2214
I01
aI00
aS'@@use_previous'
p2215
asg1762
(lp2216
NaF-0.69999999999999996
a(lp2217
F0.44700000000000001
aF-0.184
aaS'@@SI'
p2218
asg50
(lp2219
NaS'@@tfdeg'
p2220
asg30
(lp2221
I01
aI00
aS'@@auto_save'
p2222
assg138
g2080
sg155
S'2006-04-03 12:43'
p2223
sg41
g1854
sg151
S'** Specific description of inarg record for: MG_JEN_Sixpack::newstar_source()  version=10feb2006  defined=2006-04-03 12:43'
p2224
sg54
S'MG_JEN_Sixpacknewstar_source'
p2225
sg62
S'newstar_source'
p2226
sg1858
(dp2227
g1756
I01
ssg140
S'** Description of available inarg record(s) for: MG_JEN_Sixpack::newstar_source()  version=10feb2006  defined=2006-04-03 12:43'
p2228
sg142
I00
sg143
g2223
sg232
(dp2229
g236
S'  3: ......[spiral]./MG_JEN_Sixpack.newstar_source() (qual=None): .modify(parmtable):   None  ->  simul_GJones'
p2230
ssg156
(lp2231
g39
ag1756
ag1766
ag12
ag1730
ag1734
ag1754
ag1733
ag1735
ag1750
ag1762
ag1728
ag1748
ag1758
ag1760
ag1731
ag1729
ag1752
ag1736
ag129
ag30
ag26
ag19
ag34
ag27
ag21
ag32
ag31
ag46
ag50
ag38
ag49
ag36
assg1750
Nsg1752
F0.0
sg1748
F1.4950000000000001
sg46
F1.0
sg1754
Nsg1756
g1821
sg1758
F0.87
sg1766
Nsg1760
I01
sg129
I01
sg1762
Nsg50
Nsg30
I01
sssg2100
(dp2232
S'[single]./MG_JEN_Sixpack.newstar_source()'
p2233
(dp2234
g1728
F1000000.0
sg19
I00
sg1729
F0.0
sg1730
I00
sg21
g22
sg26
I00
sg1731
g1732
sg12
g13
sg1733
Nsg27
Nsg31
I10
sg32
g33
sg34
g35
sg1734
F1.0
sg49
Nsg36
g37
sg1735
Nsg38
Nsg1736
F0.0
sg39
(dp2235
g43
g2233
sg158
(dp2236
g1728
g1739
sg19
g160
sg1729
g1740
sg1730
g1741
sg21
g162
sg26
g165
sg1731
g1742
sg12
g1743
sg1733
g1744
sg27
g27
sg31
g169
sg32
g170
sg34
g171
sg1734
g1745
sg49
g181
sg36
g172
sg1735
g1746
sg38
g173
sg1736
g1747
sg1748
g1749
sg1750
g1751
sg1752
g1753
sg46
g175
sg1754
g1755
sg1756
S'name of calibrator source/patch \n- unpol:   unpolarised, I=1Jy \n- unpol2:  idem, I=2Jy \n- unpol10: idem, I=10Jy \n- RMtest:  Rotation Measure \n- SItest:  Spectral Index \n- QUV:     non-zero Q,U,V \n- QU:      non-zero Q,U \n- QU2:     stronger version of QU \n- Qonly:   non-zero Q \n- Uonly:   non-zero U \n- Vonly:   non-zero V \n- 3c286:   \n- 3c48:    \n- 3c295:   \n- 3c147:   \n- D1:      cps in D1.MS \n'
p2237
sg1758
g1759
sg1760
g1761
sg129
g180
sg1762
g1763
sg50
g182
sg30
g168
ssg56
g57
sg147
S'MG_JEN_Sixpack'
p2238
sg44
(dp2239
g1728
I01
sg1729
I01
sg1730
I01
sg1766
I01
sg34
I01
sg38
I01
sg21
I01
sg1731
I01
sg1760
I01
sg1756
I00
sg49
I01
sg1736
I01
sg36
I01
sg50
I01
sg27
I01
sg46
I01
sg32
I01
sg1752
I01
sg31
I01
ssg145
g1714
sg58
g1767
sg149
(dp2240
g19
I00
sg1730
I00
sg1760
I00
sg26
I00
sg129
I00
sg30
I00
ssg60
S'MG_JEN_Sixpack::newstar_source()  version=10feb2006  defined=2006-04-03 12:43'
p2241
sg64
(dp2242
g1728
(lp2243
F1000000.0
aS'@@f0'
p2244
asg19
(lp2245
I01
aI00
aS'@@reset_funklet'
p2246
asg1729
(lp2247
F0.0
aF1.0
aF10.0
aF100.0
aS'@@major'
p2248
asg1730
(lp2249
I01
aI00
aS'@@unsolvable'
p2250
asg21
(lp2251
g22
aS'@@color'
p2252
asg26
(lp2253
I01
aI00
aS'@@save_all'
p2254
asg1731
(lp2255
g1732
ag1784
aS'@@shape'
p2256
asg12
(lp2257
NaS'@@parmtable'
p2258
asg1733
(lp2259
NaF-0.10000000000000001
aF0.050000000000000003
aF-0.01
aS'@@Upct'
p2260
asg27
(lp2261
NaS'@@unit'
p2262
asg31
(lp2263
I10
aS'@@size'
p2264
asg32
(lp2265
g33
aS'@@style'
p2266
asg34
(lp2267
g35
aS'@@descr'
p2268
asg1734
(lp2269
F1.0
aF10.0
aS'@@I0'
p2270
asg49
(lp2271
NaS'@@subtile_size'
p2272
asg36
(lp2273
g37
aS'@@condeq_corrs'
p2274
asg1735
(lp2275
NaF0.01
aF-0.0050000000000000001
aF0.001
aS'@@Vpct'
p2276
asg38
(lp2277
NaS'@@funklet_shape'
p2278
asg1736
(lp2279
F0.0
aF1.0
aF-0.5
aS'@@pa'
p2280
asg1748
(lp2281
F0.0
aF0.5
aF1.0
aF1.4950000000000001
aF4.3570000000000002
aS'@@RA'
p2282
asg1750
(lp2283
NaF1.0
aF3.0
aF10.0
aF-10.0
aF60.0
aS'@@RM'
p2284
asg1752
(lp2285
F0.0
aF0.5
aF5.0
aF50.0
aS'@@minor'
p2286
asg46
(lp2287
F1.0
aS'@@c00_default'
p2288
asg1754
(lp2289
NaF0.10000000000000001
aF-0.050000000000000003
aF0.01
aS'@@Qpct'
p2290
asg1756
(lp2291
g1821
ag1822
ag1823
ag1824
ag1825
ag1826
ag1827
ag1828
ag1829
ag1830
ag1831
ag1832
ag1833
ag1834
ag1835
aS'@@punit'
p2292
asg1758
(lp2293
F0.5
aF1.0
aF0.87
aF1.0920000000000001
aS'@@Dec'
p2294
asg1766
(lp2295
NaS'@@name'
p2296
asg1760
(lp2297
I01
aI00
aS'@@fsr_trace'
p2298
asg129
(lp2299
I01
aI00
aS'@@use_previous'
p2300
asg1762
(lp2301
NaF-0.69999999999999996
a(lp2302
F0.44700000000000001
aF-0.184
aaS'@@SI'
p2303
asg50
(lp2304
NaS'@@tfdeg'
p2305
asg30
(lp2306
I01
aI00
aS'@@auto_save'
p2307
assg138
g1674
sg155
S'2006-04-03 12:43'
p2308
sg41
g1854
sg151
S'** Specific description of inarg record for: MG_JEN_Sixpack::newstar_source()  version=10feb2006  defined=2006-04-03 12:43'
p2309
sg54
S'MG_JEN_Sixpacknewstar_source'
p2310
sg62
S'newstar_source'
p2311
sg1858
(dp2312
g1756
I01
ssg140
S'** Description of available inarg record(s) for: MG_JEN_Sixpack::newstar_source()  version=10feb2006  defined=2006-04-03 12:43'
p2313
sg142
I00
sg143
g2308
sg232
(dp2314
g236
S'  3: ......[single]./MG_JEN_Sixpack.newstar_source() (qual=None): .modify(parmtable):   None  ->  simul_GJones'
p2315
ssg156
(lp2316
g39
ag1756
ag1766
ag12
ag1730
ag1734
ag1754
ag1733
ag1735
ag1750
ag1762
ag1728
ag1748
ag1758
ag1760
ag1731
ag1729
ag1752
ag1736
ag129
ag30
ag26
ag19
ag34
ag27
ag21
ag32
ag31
ag46
ag50
ag38
ag49
ag36
assg1750
Nsg1752
F0.0
sg1748
F1.4950000000000001
sg46
F1.0
sg1754
Nsg1756
g1821
sg1758
F0.87
sg1766
Nsg1760
I01
sg129
I01
sg1762
Nsg50
Nsg30
I01
ssg39
(dp2317
g41
S'MG_JEN_lsm::add_single()'
p2318
sg43
g2100
sg151
S'** Specific description of inarg record for: MG_JEN_lsm::add_single()  version=10feb2006  defined=2006-04-03 12:43'
p2319
sg58
S'Add a test-source (Sixpack) to the given lsm'
p2320
sg56
g57
sg60
S'MG_JEN_lsm::add_single()  version=10feb2006  defined=2006-04-03 12:43'
p2321
sg62
S'add_single'
p2322
sg138
Nsg140
S'** Description of available inarg record(s) for: MG_JEN_lsm::add_single()  version=10feb2006  defined=2006-04-03 12:43'
p2323
sg142
I00
sg143
S'2006-04-03 12:43'
p2324
sg145
g1714
sg147
S'MG_JEN_lsm'
p2325
sg232
(dp2326
g236
S'** JEN_inarg.attach(): attached: [single]./MG_JEN_Sixpack.newstar_source()'
p2327
ssg155
g2324
sg156
(lp2328
g39
ag2233
asg54
S'MG_JEN_lsmadd_single'
p2329
sssg2082
I01
ssS'[simul]./MG_JEN_Cohset.predict_lsm()'
p2330
(dp2331
g2
S'@@polrep'
p2332
sg47
S'@@stations'
p2333
sg39
(dp2334
g41
S'MG_JEN_Cohset::predict_lsm()'
p2335
sg43
g2330
sg44
(dp2336
g51
I01
sg52
I01
sg53
I01
sg2
I01
sg47
I01
ssg54
S'MG_JEN_Cohsetpredict_lsm'
p2337
sg56
g57
sg60
S'MG_JEN_Cohset::predict_lsm()  version=20mar2006  defined=2006-04-03 12:43'
p2338
sg62
S'predict_lsm'
p2339
sg64
(dp2340
g2
(lp2341
g3
ag69
ag2332
asg47
(lp2342
(lp2343
I0
aI1
aI2
aI3
aI4
aa(lp2344
I0
aI1
aI2
aI3
aI4
aI5
aI6
aa(lp2345
I0
aI1
aI2
aI3
aI4
aI5
aI6
aI7
aI8
aI9
aI10
aI11
aI12
aI13
aa(lp2346
I0
aI1
aI2
aI3
aI4
aI5
aI6
aI7
aI8
aI9
aI10
aI11
aI12
aI13
aI14
aag127
ag2333
asS'nr_lsm_sources'
p2347
(lp2348
I1
aI2
aI3
aI5
aI10
aI20
aI100
aI1000
aI10000
aS'@@nr_lsm_sources'
p2349
asg51
(lp2350
NaS'@@@Jsequence_KJones'
p2351
asg52
(lp2352
NaS'@@@Jsequence_simul'
p2353
asg53
(lp2354
NaS'@@@Jsequence'
p2355
assg138
g2088
sg140
S'** Description of available inarg record(s) for: MG_JEN_Cohset::predict_lsm()  version=20mar2006  defined=2006-04-03 12:43'
p2356
sg142
I00
sg143
S'2006-04-03 12:43'
p2357
sg145
S'20mar2006'
p2358
sg147
S'MG_JEN_Cohset'
p2359
sg151
S'** Specific description of inarg record for: MG_JEN_Cohset::predict_lsm()  version=20mar2006  defined=2006-04-03 12:43'
p2360
sg232
(dp2361
g236
S'** JEN_inarg.attach(): attached: [simul_imp]./MG_JEN_Cohset.Jones()'
p2362
ssg155
g2357
sg153
(dp2363
g2
I00
sg47
I00
ssg156
(lp2364
g39
ag2347
ag47
ag2
ag53
ag52
ag51
aS'[simul_imp]./MG_JEN_Cohset.Jones()'
p2365
asg158
(dp2366
g2
g161
sg47
g179
sg2347
S'nr of lsm sources to be included (in order of brightness)'
p2367
sg51
g174
sg52
g174
sg53
g174
ssg58
S'Obsolete (upward compatibility) version of .predict_cps()'
p2368
ssg2347
I10000
sg51
Nsg52
Nsg2365
(dp2369
S'[simul_imp]./MG_JEN_Joneset.BJones()'
p2370
(dp2371
g19
I00
sg2
S'@@polrep'
p2372
sg21
g22
sg382
g383
sg26
I00
sg384
Nsg27
Nsg31
I10
sg32
g33
sg34
g35
sg385
I5
sg36
g37
sg38
Nsg39
(dp2373
g41
S'MG_JEN_Joneset::BJones()'
p2374
sg43
g2370
sg44
(dp2375
g32
I01
sg2
I01
sg46
I01
sg34
I01
sg47
I01
sg21
I01
sg49
I01
sg36
I01
sg48
I01
sg38
I01
sg50
I01
sg12
I01
sg51
I01
sg52
I01
sg31
I01
sg27
I01
sg53
I01
ssg58
g390
sg56
g57
sg60
S'MG_JEN_Joneset::BJones()  version=16dec2005  defined=2006-04-03 12:43'
p2376
sg62
S'BJones'
p2377
sg64
(dp2378
g19
(lp2379
I01
aI00
aS'@@reset_funklet'
p2380
asg2
(lp2381
g3
ag69
ag2372
asg21
(lp2382
g22
aS'@@color'
p2383
asg382
(lp2384
g383
aNaI1
aI2
aI5
aI10
aI20
aI50
aI100
aI200
aI500
aS'@@subtile_size_Bimag'
p2385
asg26
(lp2386
I01
aI00
aS'@@save_all'
p2387
asg384
(lp2388
NaI1
aI2
aI5
aI10
aI20
aI50
aI100
aI200
aI500
aS'@@subtile_size_Breal'
p2389
asg27
(lp2390
NaS'@@unit'
p2391
asg31
(lp2392
I10
aS'@@size'
p2393
asg32
(lp2394
g33
aS'@@style'
p2395
asg34
(lp2396
g35
aS'@@descr'
p2397
asg385
(lp2398
I3
aI4
aI5
aI6
aS'@@fdeg_Breal'
p2399
asg36
(lp2400
g37
aS'@@condeq_corrs'
p2401
asg38
(lp2402
NaS'@@funklet_shape'
p2403
asg30
(lp2404
I01
aI00
aS'@@auto_save'
p2405
asg51
(lp2406
g211
aS'@@@Jsequence_KJones'
p2407
asg423
(lp2408
I0
aI1
aI2
aI3
ag425
aS'@@tdeg_Bimag'
p2409
asg53
(lp2410
g211
aS'@@@Jsequence'
p2411
asg46
(lp2412
F1.0
aS'@@c00_default'
p2413
asg431
(lp2414
I3
aI4
aI5
aI6
ag433
aS'@@fdeg_Bimag'
p2415
asg48
(lp2416
I00
aS'@@uvplane_effect'
p2417
asg47
(lp2418
(lp2419
I0
aI1
aI2
aI3
aI4
aa(lp2420
I0
aI1
aI2
aI3
aI4
aI5
aI6
aa(lp2421
I0
aI1
aI2
aI3
aI4
aI5
aI6
aI7
aI8
aI9
aI10
aI11
aI12
aI13
aa(lp2422
I0
aI1
aI2
aI3
aI4
aI5
aI6
aI7
aI8
aI9
aI10
aI11
aI12
aI13
aI14
aag127
aS'@@stations'
p2423
asg50
(lp2424
NaS'@@tfdeg'
p2425
asg445
(lp2426
I0
aI1
aI2
aI3
aS'@@tdeg_Breal'
p2427
asg129
(lp2428
I01
aI00
aS'@@use_previous'
p2429
asg49
(lp2430
NaS'@@subtile_size'
p2431
asg12
(lp2432
Nag79
aS'@@parmtable'
p2433
asg52
(lp2434
g211
aS'@@@Jsequence_simul'
p2435
assg138
S'simul_imp'
p2436
sg140
S'** Description of available inarg record(s) for: MG_JEN_Joneset::BJones()  version=16dec2005  defined=2006-04-03 12:43'
p2437
sg142
I00
sg143
S'2006-04-03 12:43'
p2438
sg145
g146
sg147
S'MG_JEN_Joneset'
p2439
sg149
(dp2440
g19
I00
sg26
I00
sg30
I00
sg129
I00
ssg151
S'** Specific description of inarg record for: MG_JEN_Joneset::BJones()  version=16dec2005  defined=2006-04-03 12:43'
p2441
sg153
(dp2442
g48
I00
sg12
I00
sg2
I00
sg47
I00
ssg155
g2438
sg156
(lp2443
g39
ag47
ag2
ag53
ag52
ag51
ag12
ag48
ag445
ag423
ag385
ag431
ag384
ag382
ag129
ag30
ag26
ag19
ag34
ag27
ag21
ag32
ag31
ag46
ag50
ag38
ag49
ag36
asg158
(dp2444
g19
g160
sg2
g161
sg21
g162
sg382
g464
sg26
g165
sg384
g464
sg27
g27
sg31
g169
sg32
g170
sg34
g171
sg385
g465
sg36
g172
sg38
g173
sg30
g168
sg51
g174
sg423
g466
sg53
g174
sg46
g175
sg431
g465
sg48
g176
sg47
g179
sg50
g182
sg445
g466
sg129
g180
sg49
g181
sg12
g166
sg52
g174
ssg54
S'MG_JEN_JonesetBJones'
p2445
ssg51
g211
sg423
g425
sg53
g211
sg46
F1.0
sg431
g433
sg48
g2417
sg47
g2423
sg50
Nsg445
I0
sg129
I01
sg49
Nsg12
g2433
sg52
g211
sg30
I01
ssg2
S'@@polrep'
p2446
sS'[simul_imp]./MG_JEN_Joneset.EJones_WSRT()'
p2447
(dp2448
g19
I00
sg2
S'@@polrep'
p2449
sg21
g22
sg26
I00
sg27
Nsg12
S'@@parmtable'
p2450
sg30
I01
sg31
I10
sg264
I0
sg265
g266
sg32
g33
sg34
g35
sg49
Nsg36
g37
sg38
Nsg39
(dp2451
g41
S'MG_JEN_Joneset::EJones_WSRT()'
p2452
sg43
g2447
sg44
(dp2453
g32
I01
sg2
I01
sg46
I01
sg34
I01
sg47
I01
sg21
I01
sg49
I01
sg36
I01
sg48
I01
sg38
I01
sg50
I01
sg12
I01
sg51
I01
sg52
I01
sg31
I01
sg27
I01
sg53
I01
ssg58
g274
sg56
g57
sg60
S'MG_JEN_Joneset::EJones_WSRT()  version=15dec2005  defined=2006-04-03 12:43'
p2454
sg62
S'EJones_WSRT'
p2455
sg64
(dp2456
g19
(lp2457
I01
aI00
aS'@@reset_funklet'
p2458
asg2
(lp2459
g3
ag69
ag2449
asg21
(lp2460
g22
aS'@@color'
p2461
asg26
(lp2462
I01
aI00
aS'@@save_all'
p2463
asg12
(lp2464
Nag79
ag2450
asg27
(lp2465
NaS'@@unit'
p2466
asg31
(lp2467
I10
aS'@@size'
p2468
asg264
(lp2469
I0
aI1
aI2
aI3
aS'@@tdeg_Edl'
p2470
asg265
(lp2471
I0
aI1
aI2
aI3
ag266
aS'@@tdeg_Edm'
p2472
asg32
(lp2473
g33
aS'@@style'
p2474
asg34
(lp2475
g35
aS'@@descr'
p2476
asg49
(lp2477
NaS'@@subtile_size'
p2478
asg36
(lp2479
g37
aS'@@condeq_corrs'
p2480
asg38
(lp2481
NaS'@@funklet_shape'
p2482
asg30
(lp2483
I01
aI00
aS'@@auto_save'
p2484
asg51
(lp2485
g219
aS'@@@Jsequence_KJones'
p2486
asg53
(lp2487
g219
aS'@@@Jsequence'
p2488
asg46
(lp2489
F1.0
aS'@@c00_default'
p2490
asg48
(lp2491
I00
aS'@@uvplane_effect'
p2492
asg47
(lp2493
(lp2494
I0
aI1
aI2
aI3
aI4
aa(lp2495
I0
aI1
aI2
aI3
aI4
aI5
aI6
aa(lp2496
I0
aI1
aI2
aI3
aI4
aI5
aI6
aI7
aI8
aI9
aI10
aI11
aI12
aI13
aa(lp2497
I0
aI1
aI2
aI3
aI4
aI5
aI6
aI7
aI8
aI9
aI10
aI11
aI12
aI13
aI14
aag127
aS'@@stations'
p2498
asg50
(lp2499
NaS'@@tfdeg'
p2500
asg129
(lp2501
I01
aI00
aS'@@use_previous'
p2502
asg267
(lp2503
NaI1
aI2
aI5
aI10
aI20
aI50
aI100
aI200
aI500
aS'@@subtile_size_Edl'
p2504
asg268
(lp2505
g269
aNaI1
aI2
aI5
aI10
aI20
aI50
aI100
aI200
aI500
aS'@@subtile_size_Edm'
p2506
asg52
(lp2507
g219
aS'@@@Jsequence_simul'
p2508
asg330
(lp2509
I0
aI1
aI2
aI3
aS'@@fdeg_Edl'
p2510
asg333
(lp2511
I0
aI1
aI2
aI3
ag335
aS'@@fdeg_Edm'
p2512
assg138
g2436
sg140
S'** Description of available inarg record(s) for: MG_JEN_Joneset::EJones_WSRT()  version=15dec2005  defined=2006-04-03 12:43'
p2513
sg142
I00
sg143
S'2006-04-03 12:43'
p2514
sg145
g339
sg147
S'MG_JEN_Joneset'
p2515
sg149
(dp2516
g19
I00
sg26
I00
sg30
I00
sg129
I00
ssg151
S'** Specific description of inarg record for: MG_JEN_Joneset::EJones_WSRT()  version=15dec2005  defined=2006-04-03 12:43'
p2517
sg153
(dp2518
g48
I00
sg12
I00
sg2
I00
sg47
I00
ssg155
g2514
sg156
(lp2519
g39
ag47
ag2
ag53
ag52
ag51
ag12
ag48
ag264
ag265
ag330
ag333
ag267
ag268
ag129
ag30
ag26
ag19
ag34
ag27
ag21
ag32
ag31
ag46
ag50
ag38
ag49
ag36
asg158
(dp2520
g19
g160
sg2
g161
sg21
g162
sg26
g165
sg12
g166
sg27
g27
sg31
g169
sg264
g346
sg265
g346
sg32
g170
sg34
g171
sg49
g181
sg36
g172
sg38
g173
sg30
g168
sg51
g174
sg53
g174
sg46
g175
sg48
g176
sg47
g179
sg50
g182
sg129
g180
sg267
g347
sg268
g347
sg52
g174
sg330
g348
sg333
g348
ssg54
S'MG_JEN_JonesetEJones_WSRT'
p2521
ssg51
g219
sg53
g219
sg46
F1.0
sg48
g2492
sg47
g2498
sg50
Nsg129
I01
sg267
Nsg268
g269
sg52
g219
sg330
I0
sg333
g335
ssg47
S'@@stations'
p2522
sS'[simul_imp]./MG_JEN_Joneset.GJones()'
p2523
(dp2524
g19
I00
sg2
S'@@polrep'
p2525
sg544
I0
sg21
g22
sg26
I00
sg12
S'@@parmtable'
p2526
sg27
Nsg31
I10
sg32
g33
sg34
g35
sg546
I1
sg36
g37
sg38
Nsg39
(dp2527
g41
S'MG_JEN_Joneset::GJones()'
p2528
sg43
g2523
sg44
(dp2529
g31
I01
sg32
I01
sg2
I01
sg46
I01
sg34
I01
sg47
I01
sg21
I01
sg49
I01
sg36
I01
sg48
I01
sg38
I01
sg50
I01
sg12
I01
sg51
I01
sg52
I01
sg550
I01
sg27
I01
sg53
I01
ssg58
g552
sg56
g57
sg60
S'MG_JEN_Joneset::GJones()  version=15dec2005  defined=2006-04-03 12:43'
p2530
sg62
S'GJones'
p2531
sg64
(dp2532
g19
(lp2533
I01
aI00
aS'@@reset_funklet'
p2534
asg2
(lp2535
g3
ag69
ag2525
asg544
(lp2536
I0
aI1
aI2
aI3
aS'@@fdeg_Ggain'
p2537
asg21
(lp2538
g22
aS'@@color'
p2539
asg26
(lp2540
I01
aI00
aS'@@save_all'
p2541
asg12
(lp2542
Nag79
ag2526
asg27
(lp2543
NaS'@@unit'
p2544
asg31
(lp2545
I10
aS'@@size'
p2546
asg32
(lp2547
g33
aS'@@style'
p2548
asg34
(lp2549
g35
aS'@@descr'
p2550
asg546
(lp2551
NaI1
aI2
aI5
aI10
aI20
aI50
aI100
aI200
aI500
aS'@@subtile_size_Ggain'
p2552
asg36
(lp2553
g37
aS'@@condeq_corrs'
p2554
asg38
(lp2555
NaS'@@funklet_shape'
p2556
asg30
(lp2557
I01
aI00
aS'@@auto_save'
p2558
asg51
(lp2559
g209
aS'@@@Jsequence_KJones'
p2560
asg53
(lp2561
g209
aS'@@@Jsequence'
p2562
asg46
(lp2563
F1.0
aS'@@c00_default'
p2564
asg588
(lp2565
I0
aI1
aI2
aI3
ag590
aS'@@tdeg_Gphase'
p2566
asg592
(lp2567
I0
aI1
aI2
aI3
aS'@@tdeg_Ggain'
p2568
asg595
(lp2569
I0
aI1
aI2
aI3
ag597
aS'@@fdeg_Gphase'
p2570
asg599
(lp2571
g601
aNaI1
aI2
aI5
aI10
aI20
aI50
aI100
aI200
aI500
aS'@@subtile_size_Gphase'
p2572
asg550
(lp2573
I01
aI00
aS'@@Gpolar'
p2574
asg48
(lp2575
I00
aS'@@uvplane_effect'
p2576
asg47
(lp2577
(lp2578
I0
aI1
aI2
aI3
aI4
aa(lp2579
I0
aI1
aI2
aI3
aI4
aI5
aI6
aa(lp2580
I0
aI1
aI2
aI3
aI4
aI5
aI6
aI7
aI8
aI9
aI10
aI11
aI12
aI13
aa(lp2581
I0
aI1
aI2
aI3
aI4
aI5
aI6
aI7
aI8
aI9
aI10
aI11
aI12
aI13
aI14
aag127
aS'@@stations'
p2582
asg129
(lp2583
I01
aI00
aS'@@use_previous'
p2584
asg49
(lp2585
NaS'@@subtile_size'
p2586
asg50
(lp2587
NaS'@@tfdeg'
p2588
asg52
(lp2589
g209
aS'@@@Jsequence_simul'
p2590
assg138
g2436
sg140
S'** Description of available inarg record(s) for: MG_JEN_Joneset::GJones()  version=15dec2005  defined=2006-04-03 12:43'
p2591
sg142
I00
sg143
S'2006-04-03 12:43'
p2592
sg145
g339
sg147
S'MG_JEN_Joneset'
p2593
sg149
(dp2594
g19
I00
sg550
I00
sg26
I00
sg30
I00
sg129
I00
ssg151
S'** Specific description of inarg record for: MG_JEN_Joneset::GJones()  version=15dec2005  defined=2006-04-03 12:43'
p2595
sg153
(dp2596
g48
I00
sg12
I00
sg2
I00
sg47
I00
ssg155
g2592
sg156
(lp2597
g39
ag47
ag2
ag53
ag52
ag51
ag550
ag12
ag48
ag592
ag588
ag544
ag595
ag546
ag599
ag129
ag30
ag26
ag19
ag34
ag27
ag21
ag32
ag31
ag46
ag50
ag38
ag49
ag36
asg158
(dp2598
g19
g160
sg2
g161
sg544
g629
sg21
g162
sg26
g165
sg12
g166
sg27
g27
sg31
g169
sg32
g170
sg34
g171
sg546
g630
sg36
g172
sg38
g173
sg30
g168
sg51
g174
sg53
g174
sg46
g175
sg588
g631
sg592
g631
sg595
g629
sg599
g630
sg550
g632
sg48
g176
sg47
g179
sg129
g180
sg49
g181
sg50
g182
sg52
g174
ssg54
S'MG_JEN_JonesetGJones'
p2599
ssg51
g209
sg53
g209
sg46
F1.0
sg588
g590
sg592
I0
sg595
g597
sg599
g601
sg550
I01
sg48
g2576
sg47
g2582
sg129
I01
sg49
Nsg50
Nsg52
g209
sg30
I01
ssg206
(lp2600
sS'[simul_imp]./MG_JEN_Joneset.DJones_WSRT()'
p2601
(dp2602
g19
I00
sg2
S'@@polrep'
p2603
sg21
g22
sg23
g24
sg25
I01
sg26
I00
sg27
Nsg12
S'@@parmtable'
p2604
sg29
Nsg30
I01
sg31
I10
sg32
g33
sg34
g35
sg36
g37
sg38
Nsg39
(dp2605
g41
S'MG_JEN_Joneset::DJones_WSRT()'
p2606
sg43
g2601
sg44
(dp2607
g32
I01
sg2
I01
sg46
I01
sg34
I01
sg47
I01
sg21
I01
sg49
I01
sg36
I01
sg48
I01
sg38
I01
sg50
I01
sg12
I01
sg51
I01
sg52
I01
sg31
I01
sg27
I01
sg53
I01
ssg58
g59
sg56
g57
sg60
S'MG_JEN_Joneset::DJones_WSRT()  version=16dec2005  defined=2006-04-03 12:43'
p2608
sg62
S'DJones_WSRT'
p2609
sg64
(dp2610
g19
(lp2611
I01
aI00
aS'@@reset_funklet'
p2612
asg2
(lp2613
g3
ag69
ag2603
asg21
(lp2614
g22
aS'@@color'
p2615
asg23
(lp2616
I0
aI1
aI2
aI3
ag24
aS'@@fdeg_Dell'
p2617
asg25
(lp2618
I01
aI00
aS'@@coupled_XY_Dell'
p2619
asg26
(lp2620
I01
aI00
aS'@@save_all'
p2621
asg12
(lp2622
Nag79
ag2604
asg29
(lp2623
NaI1
aI2
aI5
aI10
aI20
aI50
aI100
aI200
aI500
aS'@@subtile_size_Dang'
p2624
asg27
(lp2625
NaS'@@unit'
p2626
asg31
(lp2627
I10
aS'@@size'
p2628
asg32
(lp2629
g33
aS'@@style'
p2630
asg34
(lp2631
g35
aS'@@descr'
p2632
asg36
(lp2633
g37
aS'@@condeq_corrs'
p2634
asg38
(lp2635
NaS'@@funklet_shape'
p2636
asg30
(lp2637
I01
aI00
aS'@@auto_save'
p2638
asg51
(lp2639
g97
aS'@@@Jsequence_KJones'
p2640
asg99
(lp2641
g101
aNaI1
aI2
aI5
aI10
aI20
aI50
aI100
aI200
aI500
aS'@@subtile_size_Dell'
p2642
asg53
(lp2643
g97
aS'@@@Jsequence'
p2644
asg105
(lp2645
I0
aI1
aI2
aI3
aS'@@fdeg_Dang'
p2646
asg46
(lp2647
F1.0
aS'@@c00_default'
p2648
asg48
(lp2649
I00
aS'@@uvplane_effect'
p2650
asg112
(lp2651
I0
aI1
aI2
aI3
ag114
aS'@@tdeg_Dell'
p2652
asg116
(lp2653
I01
aI00
aS'@@coupled_XY_Dang'
p2654
asg119
(lp2655
I0
aI1
aI2
aI3
aS'@@tdeg_Dang'
p2656
asg47
(lp2657
(lp2658
I0
aI1
aI2
aI3
aI4
aa(lp2659
I0
aI1
aI2
aI3
aI4
aI5
aI6
aa(lp2660
I0
aI1
aI2
aI3
aI4
aI5
aI6
aI7
aI8
aI9
aI10
aI11
aI12
aI13
aa(lp2661
I0
aI1
aI2
aI3
aI4
aI5
aI6
aI7
aI8
aI9
aI10
aI11
aI12
aI13
aI14
aag127
aS'@@stations'
p2662
asg129
(lp2663
I01
aI00
aS'@@use_previous'
p2664
asg49
(lp2665
NaS'@@subtile_size'
p2666
asg50
(lp2667
NaS'@@tfdeg'
p2668
asg52
(lp2669
g97
aS'@@@Jsequence_simul'
p2670
assg138
g2436
sg140
S'** Description of available inarg record(s) for: MG_JEN_Joneset::DJones_WSRT()  version=16dec2005  defined=2006-04-03 12:43'
p2671
sg142
I00
sg143
S'2006-04-03 12:43'
p2672
sg145
g146
sg147
S'MG_JEN_Joneset'
p2673
sg149
(dp2674
g19
I00
sg25
I00
sg26
I00
sg116
I00
sg129
I00
sg30
I00
ssg151
S'** Specific description of inarg record for: MG_JEN_Joneset::DJones_WSRT()  version=16dec2005  defined=2006-04-03 12:43'
p2675
sg153
(dp2676
g48
I00
sg12
I00
sg2
I00
sg47
I00
ssg155
g2672
sg156
(lp2677
g39
ag47
ag2
ag53
ag52
ag51
ag116
ag25
ag12
ag48
ag119
ag112
ag105
ag23
ag29
ag99
ag129
ag30
ag26
ag19
ag34
ag27
ag21
ag32
ag31
ag46
ag50
ag38
ag49
ag36
asg158
(dp2678
g19
g160
sg2
g161
sg21
g162
sg23
g163
sg25
g164
sg26
g165
sg12
g166
sg29
g167
sg27
g27
sg31
g169
sg32
g170
sg34
g171
sg36
g172
sg38
g173
sg30
g168
sg51
g174
sg99
g167
sg53
g174
sg105
g163
sg46
g175
sg48
g176
sg112
g177
sg116
g178
sg119
g177
sg47
g179
sg129
g180
sg49
g181
sg50
g182
sg52
g174
ssg54
S'MG_JEN_JonesetDJones_WSRT'
p2679
ssg51
g97
sg99
g101
sg53
g97
sg105
I0
sg46
F1.0
sg48
g2650
sg112
g114
sg116
I01
sg119
I0
sg47
g2662
sg129
I01
sg49
Nsg50
Nsg52
g97
ssg48
S'@@uvplane_effect'
p2680
sg12
S'@@parmtable'
p2681
sg39
(dp2682
g41
g185
sg43
g2365
sg44
(dp2683
g2
I01
sg47
I01
sg48
I01
sg12
I01
sg51
I01
sg52
I01
sg53
I01
ssg54
S'MG_JEN_CohsetJones'
p2684
sg56
g57
sg58
g260
sg60
S'MG_JEN_Cohset::Jones()  version=25dec2005  defined=2006-04-03 12:43'
p2685
sg62
S'Jones'
p2686
sg64
(dp2687
g2
(lp2688
g3
ag69
ag2446
asg47
(lp2689
(lp2690
I0
aI1
aI2
aI3
aI4
aa(lp2691
I0
aI1
aI2
aI3
aI4
aI5
aI6
aa(lp2692
I0
aI1
aI2
aI3
aI4
aI5
aI6
aI7
aI8
aI9
aI10
aI11
aI12
aI13
aa(lp2693
I0
aI1
aI2
aI3
aI4
aI5
aI6
aI7
aI8
aI9
aI10
aI11
aI12
aI13
aI14
aag127
ag2522
asg48
(lp2694
I00
ag2680
asg12
(lp2695
Nag79
ag2681
asg51
(lp2696
NaS'@@@Jsequence_KJones'
p2697
asg52
(lp2698
NaS'@@@Jsequence_simul'
p2699
asg206
(lp2700
(lp2701
g209
aa(lp2702
g211
aa(lp2703
g213
aa(lp2704
g215
aa(lp2705
g97
aa(lp2706
g209
ag97
aa(lp2707
g219
aa(lp2708
g209
ag219
aa(lp2709
g222
aa(lp2710
aS'@@Jsequence'
p2711
asg53
(lp2712
NaS'@@@Jsequence'
p2713
assg138
g2436
sg140
S'** Description of available inarg record(s) for: MG_JEN_Cohset::Jones()  version=25dec2005  defined=2006-04-03 12:43'
p2714
sg142
I00
sg143
S'2006-04-03 12:43'
p2715
sg145
g229
sg147
S'MG_JEN_Cohset'
p2716
sg151
S'** Specific description of inarg record for: MG_JEN_Cohset::Jones()  version=25dec2005  defined=2006-04-03 12:43'
p2717
sg232
(dp2718
g234
S'** JEN_inarg.attach(): attached: [simul_imp]./MG_JEN_Joneset.FJones()'
p2719
sg236
S'** JEN_inarg.attach(): attached: [simul_imp]./MG_JEN_Joneset.GJones()'
p2720
sg238
S'** JEN_inarg.attach(): attached: [simul_imp]./MG_JEN_Joneset.KJones()'
p2721
sg240
S'** JEN_inarg.attach(): attached: [simul_imp]./MG_JEN_Joneset.BJones()'
p2722
sg242
S'** JEN_inarg.attach(): attached: [simul_imp]./MG_JEN_Joneset.EJones_WSRT()'
p2723
sg244
S'** JEN_inarg.attach(): attached: [simul_imp]./MG_JEN_Joneset.DJones_WSRT()'
p2724
sg248
S'** JEN_inarg.attach(): attached: [simul_imp]./MG_JEN_Joneset.JJones()'
p2725
ssg155
g2715
sg153
(dp2726
g48
I00
sg12
I00
sg2
I00
sg47
I00
ssg156
(lp2727
g39
ag47
ag2
ag53
ag52
ag51
ag12
ag48
ag206
ag2523
aS'[simul_imp]./MG_JEN_Joneset.FJones()'
p2728
ag2370
aS'[simul_imp]./MG_JEN_Joneset.KJones()'
p2729
ag2601
ag2447
aS'[simul_imp]./MG_JEN_Joneset.JJones()'
p2730
asg158
(dp2731
g2
g161
sg47
g179
sg48
g176
sg12
g166
sg51
g174
sg52
g174
sg206
g259
sg53
g174
sssg2730
(dp2732
g19
I00
sg2
S'@@polrep'
p2733
sg635
I0
sg21
g22
sg26
I00
sg636
Nsg12
S'@@parmtable'
p2734
sg638
Nsg27
Nsg31
I10
sg32
g33
sg639
g640
sg34
g35
sg36
g37
sg38
Nsg39
(dp2735
g41
S'MG_JEN_Joneset::JJones()'
p2736
sg43
g2730
sg44
(dp2737
g32
I01
sg2
I01
sg46
I01
sg34
I01
sg47
I01
sg21
I01
sg49
I01
sg36
I01
sg48
I01
sg38
I01
sg50
I01
sg12
I01
sg51
I01
sg52
I01
sg31
I01
sg27
I01
sg53
I01
ssg58
g645
sg56
g57
sg60
S'MG_JEN_Joneset::JJones()  version=14feb2006  defined=2006-04-03 12:43'
p2738
sg62
S'JJones'
p2739
sg64
(dp2740
g19
(lp2741
I01
aI00
aS'@@reset_funklet'
p2742
asg2
(lp2743
g3
ag69
ag2733
asg635
(lp2744
I0
aI1
aI2
aI3
aS'@@tdeg_Jreal'
p2745
asg21
(lp2746
g22
aS'@@color'
p2747
asg26
(lp2748
I01
aI00
aS'@@save_all'
p2749
asg636
(lp2750
Na(lp2751
I14
aa(lp2752
I1
aag661
aS'@@all4_always'
p2753
asg12
(lp2754
Nag79
ag2734
asg638
(lp2755
NaI1
aI2
aI5
aI10
aI20
aI50
aI100
aI200
aI500
aS'@@subtile_size_Jreal'
p2756
asg27
(lp2757
NaS'@@unit'
p2758
asg31
(lp2759
I10
aS'@@size'
p2760
asg32
(lp2761
g33
aS'@@style'
p2762
asg639
(lp2763
I0
aI1
aI2
aI3
ag640
aS'@@tdeg_Jimag'
p2764
asg34
(lp2765
g35
aS'@@descr'
p2766
asg36
(lp2767
g37
aS'@@condeq_corrs'
p2768
asg38
(lp2769
NaS'@@funklet_shape'
p2770
asg30
(lp2771
I01
aI00
aS'@@auto_save'
p2772
asg51
(lp2773
g222
aS'@@@Jsequence_KJones'
p2774
asg684
(lp2775
I0
aI1
aI2
aI3
aS'@@fdeg_Jreal'
p2776
asg46
(lp2777
F1.0
aS'@@c00_default'
p2778
asg48
(lp2779
I00
aS'@@uvplane_effect'
p2780
asg691
(lp2781
I0
aI1
aI2
aI3
ag693
aS'@@fdeg_Jimag'
p2782
asg695
(lp2783
g697
aNaI1
aI2
aI5
aI10
aI20
aI50
aI100
aI200
aI500
aS'@@subtile_size_Jimag'
p2784
asg47
(lp2785
(lp2786
I0
aI1
aI2
aI3
aI4
aa(lp2787
I0
aI1
aI2
aI3
aI4
aI5
aI6
aa(lp2788
I0
aI1
aI2
aI3
aI4
aI5
aI6
aI7
aI8
aI9
aI10
aI11
aI12
aI13
aa(lp2789
I0
aI1
aI2
aI3
aI4
aI5
aI6
aI7
aI8
aI9
aI10
aI11
aI12
aI13
aI14
aag127
aS'@@stations'
p2790
asg705
(lp2791
I01
aI00
aS'@@diagonal_only'
p2792
asg129
(lp2793
I01
aI00
aS'@@use_previous'
p2794
asg49
(lp2795
NaS'@@subtile_size'
p2796
asg50
(lp2797
NaS'@@tfdeg'
p2798
asg52
(lp2799
g222
aS'@@@Jsequence_simul'
p2800
asg53
(lp2801
g222
aS'@@@Jsequence'
p2802
assg138
g2436
sg140
S'** Description of available inarg record(s) for: MG_JEN_Joneset::JJones()  version=14feb2006  defined=2006-04-03 12:43'
p2803
sg142
I00
sg143
S'2006-04-03 12:43'
p2804
sg145
g720
sg147
S'MG_JEN_Joneset'
p2805
sg149
(dp2806
g19
I00
sg705
I00
sg26
I00
sg30
I00
sg129
I00
ssg151
S'** Specific description of inarg record for: MG_JEN_Joneset::JJones()  version=14feb2006  defined=2006-04-03 12:43'
p2807
sg153
(dp2808
g48
I00
sg12
I00
sg2
I00
sg47
I00
ssg155
g2804
sg156
(lp2809
g39
ag47
ag2
ag53
ag52
ag51
ag705
ag636
ag12
ag48
ag635
ag639
ag684
ag691
ag638
ag695
ag129
ag30
ag26
ag19
ag34
ag27
ag21
ag32
ag31
ag46
ag50
ag38
ag49
ag36
asg158
(dp2810
g19
g160
sg2
g161
sg635
g727
sg21
g162
sg26
g165
sg636
g728
sg12
g166
sg638
g729
sg27
g27
sg31
g169
sg32
g170
sg639
g727
sg34
g171
sg36
g172
sg38
g173
sg30
g168
sg51
g174
sg684
g730
sg46
g175
sg48
g176
sg691
g730
sg695
g729
sg47
g179
sg705
g731
sg129
g180
sg49
g181
sg50
g182
sg52
g174
sg53
g174
ssg54
S'MG_JEN_JonesetJJones'
p2811
ssg51
g222
sg684
I0
sg46
F1.0
sg48
g2780
sg691
g693
sg695
g697
sg47
g2790
sg705
I00
sg129
I01
sg49
Nsg50
Nsg52
g222
sg53
g222
sg30
I01
ssg51
Nsg52
Nsg53
Nsg2729
(dp2812
g2
S'@@polrep'
p2813
sg47
S'@@stations'
p2814
sg39
(dp2815
g41
S'MG_JEN_Joneset::KJones()'
p2816
sg43
g2729
sg44
(dp2817
g51
I01
sg52
I01
sg53
I01
sg2
I01
sg47
I01
ssg58
g356
sg56
g57
sg60
S'MG_JEN_Joneset::KJones()  version=12dec2005  defined=2006-04-03 12:43'
p2818
sg62
S'KJones'
p2819
sg64
(dp2820
g51
(lp2821
g215
aS'@@@Jsequence_KJones'
p2822
asg52
(lp2823
g215
aS'@@@Jsequence_simul'
p2824
asg53
(lp2825
g215
aS'@@@Jsequence'
p2826
asg2
(lp2827
g3
ag69
ag2813
asg47
(lp2828
(lp2829
I0
aI1
aI2
aI3
aI4
aa(lp2830
I0
aI1
aI2
aI3
aI4
aI5
aI6
aa(lp2831
I0
aI1
aI2
aI3
aI4
aI5
aI6
aI7
aI8
aI9
aI10
aI11
aI12
aI13
aa(lp2832
I0
aI1
aI2
aI3
aI4
aI5
aI6
aI7
aI8
aI9
aI10
aI11
aI12
aI13
aI14
aag127
ag2814
assg138
g2436
sg140
S'** Description of available inarg record(s) for: MG_JEN_Joneset::KJones()  version=12dec2005  defined=2006-04-03 12:43'
p2833
sg142
I00
sg143
S'2006-04-03 12:43'
p2834
sg145
g374
sg147
S'MG_JEN_Joneset'
p2835
sg151
S'** Specific description of inarg record for: MG_JEN_Joneset::KJones()  version=12dec2005  defined=2006-04-03 12:43'
p2836
sg153
(dp2837
g2
I00
sg47
I00
ssg155
g2834
sg156
(lp2838
g39
ag47
ag2
ag53
ag52
ag51
asg158
(dp2839
g51
g174
sg52
g174
sg53
g174
sg2
g161
sg47
g179
ssg54
S'MG_JEN_JonesetKJones'
p2840
ssg51
g215
sg52
g215
sg53
g215
ssg2728
(dp2841
g19
I00
sg2
S'@@polrep'
p2842
sg21
g22
sg26
I00
sg12
S'@@parmtable'
p2843
sg27
Nsg31
I10
sg32
g33
sg34
g35
sg36
g37
sg38
Nsg39
(dp2844
g41
S'MG_JEN_Joneset::FJones()'
p2845
sg43
g2728
sg44
(dp2846
g32
I01
sg2
I01
sg46
I01
sg34
I01
sg47
I01
sg21
I01
sg49
I01
sg36
I01
sg48
I01
sg38
I01
sg50
I01
sg12
I01
sg51
I01
sg52
I01
sg31
I01
sg27
I01
sg53
I01
ssg58
g474
sg56
g57
sg60
S'MG_JEN_Joneset::FJones()  version=16dec2005  defined=2006-04-03 12:43'
p2847
sg62
S'FJones'
p2848
sg64
(dp2849
g19
(lp2850
I01
aI00
aS'@@reset_funklet'
p2851
asg2
(lp2852
g3
ag69
ag2842
asg21
(lp2853
g22
aS'@@color'
p2854
asg26
(lp2855
I01
aI00
aS'@@save_all'
p2856
asg50
(lp2857
NaS'@@tfdeg'
p2858
asg27
(lp2859
NaS'@@unit'
p2860
asg31
(lp2861
I10
aS'@@size'
p2862
asg32
(lp2863
g33
aS'@@style'
p2864
asg34
(lp2865
g35
aS'@@descr'
p2866
asg36
(lp2867
g37
aS'@@condeq_corrs'
p2868
asg38
(lp2869
NaS'@@funklet_shape'
p2870
asg30
(lp2871
I01
aI00
aS'@@auto_save'
p2872
asg51
(lp2873
g213
aS'@@@Jsequence_KJones'
p2874
asg53
(lp2875
g213
aS'@@@Jsequence'
p2876
asg46
(lp2877
F1.0
aS'@@c00_default'
p2878
asg48
(lp2879
I00
aS'@@uvplane_effect'
p2880
asg47
(lp2881
(lp2882
I0
aI1
aI2
aI3
aI4
aa(lp2883
I0
aI1
aI2
aI3
aI4
aI5
aI6
aa(lp2884
I0
aI1
aI2
aI3
aI4
aI5
aI6
aI7
aI8
aI9
aI10
aI11
aI12
aI13
aa(lp2885
I0
aI1
aI2
aI3
aI4
aI5
aI6
aI7
aI8
aI9
aI10
aI11
aI12
aI13
aI14
aag127
aS'@@stations'
p2886
asg515
(lp2887
I0
aI1
aI2
aI3
aS'@@tdeg_RM'
p2888
asg129
(lp2889
I01
aI00
aS'@@use_previous'
p2890
asg520
(lp2891
I0
aI1
aI2
aI3
aS'@@fdeg_RM'
p2892
asg49
(lp2893
NaS'@@subtile_size'
p2894
asg12
(lp2895
Nag79
ag2843
asg526
(lp2896
NaI1
aI2
aI5
aI10
aI20
aI50
aI100
aI200
aI500
aS'@@subtile_size_RM'
p2897
asg52
(lp2898
g213
aS'@@@Jsequence_simul'
p2899
assg138
g2436
sg140
S'** Description of available inarg record(s) for: MG_JEN_Joneset::FJones()  version=16dec2005  defined=2006-04-03 12:43'
p2900
sg142
I00
sg143
S'2006-04-03 12:43'
p2901
sg145
g146
sg147
S'MG_JEN_Joneset'
p2902
sg149
(dp2903
g19
I00
sg26
I00
sg30
I00
sg129
I00
ssg151
S'** Specific description of inarg record for: MG_JEN_Joneset::FJones()  version=16dec2005  defined=2006-04-03 12:43'
p2904
sg153
(dp2905
g48
I00
sg12
I00
sg2
I00
sg47
I00
ssg155
g2901
sg156
(lp2906
g39
ag47
ag2
ag53
ag52
ag51
ag12
ag48
ag515
ag520
ag526
ag129
ag30
ag26
ag19
ag34
ag27
ag21
ag32
ag31
ag46
ag50
ag38
ag49
ag36
asg158
(dp2907
g19
g160
sg2
g161
sg21
g162
sg26
g165
sg50
g182
sg27
g27
sg31
g169
sg32
g170
sg34
g171
sg36
g172
sg38
g173
sg30
g168
sg51
g174
sg53
g174
sg46
g175
sg48
g176
sg47
g179
sg515
g539
sg129
g180
sg520
g540
sg49
g181
sg12
g166
sg526
g541
sg52
g174
ssg54
S'MG_JEN_JonesetFJones'
p2908
ssg51
g213
sg53
g213
sg46
F1.0
sg48
g2880
sg47
g2886
sg515
I0
sg129
I01
sg520
I2
sg49
Nsg50
Nsg526
I1
sg52
g213
sg30
I01
sssg53
Nssg39
(dp2909
g43
S'./MG_JEN_simul.'
p2910
sg158
(dp2911
g1
S'if True, add to existing uv-data (from MS column)'
p2912
sS'rms_noise_Jy'
p2913
S'rms noise, to be added'
p2914
sg2
g161
sS'master_reqseq'
p2915
S'if True, use a master reqseq for solver(s)'
p2916
sg47
g179
sS'redun'
p2917
S'if True, redundant spacing calibration'
p2918
sg14
S'if True, insert a solver'
p2919
sg10
S'name of the (AIPS++) Measurement Set'
p2920
sS'chain_solvers'
p2921
S'if True, chain the solvers (recommended)'
p2922
sS'num_cells'
p2923
S'if defined, ModRes argument [ntime,nfreq]'
p2924
sg12
g166
sg51
g174
sg52
g174
sS'tile_size'
p2925
S'(inputrec) size (in time-slots) of the input data-tile'
p2926
sg48
g176
sg53
g174
ssS'reference'
p2927
I00
sg56
g57
sg147
S'MG_JEN_simul'
p2928
sg44
(dp2929
g2
I00
sg2915
I01
sg47
I00
sS'last_changed'
p2930
I01
sg2917
I00
sg48
I00
sg2921
I01
sg2923
I00
sg51
I01
sg52
I01
sg53
I01
ssg2062
(dp2931
g10
S'*.MS'
p2932
ssg145
g339
sg58
S"\n    -------------------------------------------------------------\n    General description of the MeqTree TDL script MG_JEN_simul.py\n    -------------------------------------------------------------\n\n    The MG_JEN_simul.py script is used to put simulated visibilities into the\n    CORRECTED_DATA column of an existing Measurement Set (MS). The original DATA\n    in the MS are untouched. The advantage of this approach is that it is not\n    necessary to specify pointing centre, uv-coverage, spectral-window etc.\n\n    * The input source model is either an existing Local Sky Model (LSM),\n    or a 'punit' point source in the centre of the field.\n\n    * The nominal source visibilities may be corrupted by:\n      - various (uv-plane) Jones matrices\n      - image-plane effects from EJones and IJones (MIM)\n      - ifr-based errors (additive, multiplicative)\n      - noise\n\n    * Optionally, the simulated visibilities may be added to the existing uv-data,\n    either from the DATA column or the CORRECTED_DATA column of the MS\n\n    * Optionally, a parallel solver branch may be inserted, which uses the simulated\n    uv-data to solve for instrumental parameters. The latter may be compared with\n    the simulated instrumental parameters.\n\n    Different types of simulations may be specified by loading (and editing) socalled\n    'inarg' records from files (like this one). These contain input arguments\n    for generating a suitable MeqTree forest for the desired operation.\n    "
p2933
sg149
(dp2934
g1
I00
sg2915
I00
sg2917
I00
sg14
I00
sg2930
I00
ssg60
S'** Top-level CTRL-record of: MG_JEN_simul.inarg'
p2935
sg64
(dp2936
g1
(lp2937
I01
aI00
aS'@@add_to_existing'
p2938
asg2913
(lp2939
I0
aF0.01
aF0.10000000000000001
aI1
aS'@@rms_noise_Jy'
p2940
asg2
(lp2941
g3
ag69
aS'@@polrep'
p2942
asg2915
(lp2943
I01
aI00
aS'@@master_reqseq'
p2944
asg47
(lp2945
(lp2946
I0
aI1
aI2
aI3
aI4
aa(lp2947
I0
aI1
aI2
aI3
aI4
aI5
aI6
aa(lp2948
I0
aI1
aI2
aI3
aI4
aI5
aI6
aI7
aI8
aI9
aI10
aI11
aI12
aI13
aa(lp2949
I0
aI1
aI2
aI3
aI4
aI5
aI6
aI7
aI8
aI9
aI10
aI11
aI12
aI13
aI14
aag127
aS'@@stations'
p2950
asg2930
(lp2951
S'd30jan2006'
p2952
aS'@@last_changed'
p2953
asg14
(lp2954
I01
aI00
aS'@@insert_solver'
p2955
asg2917
(lp2956
I01
aI00
aS'@@redun'
p2957
asg10
(lp2958
g11
aS'@@ms_name'
p2959
asg2921
(lp2960
I01
aS'@@chain_solvers'
p2961
asg2923
(lp2962
Na(lp2963
I5
aI2
aa(lp2964
I2
aI2
aa(lp2965
I3
aI3
aaS'@@num_cells'
p2966
asg12
(lp2967
Nag79
aS'@@parmtable'
p2968
asg51
(lp2969
NaS'@@@Jsequence_KJones'
p2970
asg52
(lp2971
NaS'@@@Jsequence_simul'
p2972
asg2925
(lp2973
I1
aI2
aI3
aI5
aI10
aI20
aI50
aI100
aS'@@tile_size'
p2974
asg48
(lp2975
I00
aS'@@uvplane_effect'
p2976
asg53
(lp2977
NaS'@@@Jsequence'
p2978
assg138
Nsg155
S'2006-04-03 12:43'
p2979
sS'HISTORY'
p2980
(dp2981
g234
S'2006-04-03 12:43: Derived from: MG_JEN_simul_GJones.inarg'
p2982
sg236
S'2006-04-03 12:43: Derived from: MG_JEN_simul.inarg'
p2983
ssg41
g9
sg151
S'Predefined inarg record for simulating with GJones corruption'
p2984
sS'save_file'
p2985
S'MG_JEN_simul_GJones_protected.inarg'
p2986
sS'file_filter'
p2987
S'MG_JEN_simul*.inarg'
p2988
sg62
S''
p2989
sg140
S'\n====================================================\n** Description of available predefined inarg records (files)\n   for the TDL script: MG_JEN_simul:\n\n====================================================\n\n\n** Description of predefined inarg record (file): MG_JEN_simul_GJones.inarg:\nPredefined inarg record for simulating with GJones corruption\n\n\n** Description of predefined inarg record (file): MG_JEN_simul_DJones.inarg:\nPredefined inarg record for simulating with DJones corruption\n\n\n** Description of predefined inarg record (file): MG_JEN_simul_EJones.inarg:\nPredefined inarg record for simulating with EJones corruption\n====================================================\n'
p2990
sg142
I01
sg143
g2979
sg232
(dp2991
S'20'
p2992
S'  0: ./MG_JEN_simul. (qual=None): .modify(parmtable):   None  ->  simul_GJones'
p2993
sS'21'
p2994
S'  0: ./MG_JEN_simul. (qual=None): .modify(insert_solver):   True  ->  False'
p2995
sS'22'
p2996
S".modify():   ** OK ** (['parmtable', 'solvegroup', 'num_iter', 'insert_solver'])"
p2997
sg234
S'  0: ./MG_JEN_simul. (qual=None): .modify(tile_size):   10  ->  1'
p2998
sg236
S'  0: ./MG_JEN_simul. (qual=None): .modify(uvplane_effect):   False  ->  True'
p2999
sg238
S'** JEN_inarg.separator(): : uv-data (MS) stream_control'
p3000
sg240
S".modify():   ** OK ** (['uvplane_effect', 'tile_size'])"
p3001
sg242
S'** JEN_inarg.attach(): attached: ./MG_JEN_Cohset.make_spigots()'
p3002
sg244
S'** JEN_inarg.attach(): attached: ./MG_JEN_exec.stream_control()'
p3003
sg246
S'** JEN_inarg.attach(): attached: [simul]./MG_JEN_lsm.get_lsm()'
p3004
sg248
S'** JEN_inarg.separator(): : uv-data simulation (LeafSet)'
p3005
sS'9'
p3006
S'** JEN_inarg.attach(): attached: [simul_imp]./MG_JEN_Cohset.Jones()'
p3007
sS'8'
p3008
S'** JEN_inarg.attach(): attached: [simul_uvp]./MG_JEN_Cohset.Jones()'
p3009
sS'11'
p3010
S'** JEN_inarg.separator(): : solver-branch (ParmSet)'
p3011
sS'10'
p3012
S'** JEN_inarg.attach(): attached: [simul]./MG_JEN_Cohset.predict_lsm()'
p3013
sS'13'
p3014
S'** JEN_inarg.attach(): attached: [solve_imp]./MG_JEN_Cohset.Jones()'
p3015
sS'12'
p3016
S'** JEN_inarg.attach(): attached: [solve_uvp]./MG_JEN_Cohset.Jones()'
p3017
sS'15'
p3018
S'** JEN_inarg.attach(): attached: ./MG_JEN_Cohset.insert_solver()'
p3019
sS'14'
p3020
S'** JEN_inarg.attach(): attached: [solve]./MG_JEN_Cohset.predict_lsm()'
p3021
sS'17'
p3022
S'** JEN_inarg.attach(): attached: ./MG_JEN_Cohset.make_sinks()'
p3023
sS'16'
p3024
S'** JEN_inarg.separator(): : finishing touches'
p3025
sS'19'
p3026
S".modify():   ** OK ** (['Jsequence'])"
p3027
sS'18'
p3028
S".modify():   ** OK ** (['Jsequence'])"
p3029
ssg156
(lp3030
g39
ag8
ag2930
ag10
ag2925
ag47
ag2
ag53
ag52
ag51
ag12
ag48
ag2921
ag2915
ag2917
ag2923
ag1
ag2913
ag14
ag4
aS'./MG_JEN_exec.stream_control()'
p3031
aS'./MG_JEN_Cohset.make_spigots()'
p3032
aS'_JEN_inarg_separator_record:_2'
p3033
ag1670
ag1215
ag733
ag2330
aS'_JEN_inarg_separator_record:_3'
p3034
ag15
aS'[solve_imp]./MG_JEN_Cohset.Jones()'
p3035
aS'[solve]./MG_JEN_Cohset.predict_lsm()'
p3036
aS'./MG_JEN_Cohset.insert_solver()'
p3037
aS'_JEN_inarg_separator_record:_4'
p3038
aS'./MG_JEN_Cohset.make_sinks()'
p3039
assg3039
(dp3040
S'fullDomainMux'
p3041
I01
sS'output_col'
p3042
S'PREDICT'
p3043
sS'visu'
p3044
I01
sS'flag'
p3045
I00
sg39
(dp3046
g41
S'MG_JEN_Cohset::make_sinks()'
p3047
sg43
g3039
sg155
S'2006-04-03 12:43'
p3048
sg151
S'** Specific description of inarg record for: MG_JEN_Cohset::make_sinks()  version=25dec2005  defined=2006-04-03 12:43'
p3049
sg54
S'MG_JEN_Cohsetmake_sinks'
p3050
sg56
g57
sg60
S'MG_JEN_Cohset::make_sinks()  version=25dec2005  defined=2006-04-03 12:43'
p3051
sg62
S'make_sinks'
p3052
sg64
(dp3053
g3045
(lp3054
I01
aI00
aS'@@flag'
p3055
asg3044
(lp3056
I01
aI00
aS'@@visu'
p3057
asg3041
(lp3058
I01
aI00
aS'@@fullDomainMux'
p3059
asg3042
(lp3060
g3043
aS'RESIDUALS'
p3061
aS'DATA'
p3062
aS'@@output_col'
p3063
asS'visu_array_config'
p3064
(lp3065
I01
aI00
aS'@@visu_array_config'
p3066
assg138
Nsg140
S'** Description of available inarg record(s) for: MG_JEN_Cohset::make_sinks()  version=25dec2005  defined=2006-04-03 12:43'
p3067
sg145
g229
sg143
g3048
sg147
S'MG_JEN_Cohset'
p3068
sg149
(dp3069
g3045
I00
sg3044
I00
sg3041
I00
sg3064
I00
ssg142
I00
sg156
(lp3070
g39
ag3042
ag3064
ag3044
ag3045
ag3041
asg158
(dp3071
g3045
S'if True, insert a flagger for the output uv-data'
p3072
sg3044
S'if True, visualise the output uv-data'
p3073
sg3041
S'if True, attach an extra VisDataMux'
p3074
sg3042
S'name of the logical (VisTile) output column'
p3075
sg3064
S'if True, visualise the array config (from MS)'
p3076
ssg58
S'Make sink nodes in the given Cohset object'
p3077
ssg3064
I01
ssg51
Nsg3032
(dp3078
g3045
I00
sg3044
I01
sg39
(dp3079
g41
S'MG_JEN_Cohset::make_spigots()'
p3080
sg43
g3032
sg155
S'2006-04-03 12:43'
p3081
sg44
(dp3082
S'input_col'
p3083
I01
ssg54
S'MG_JEN_Cohsetmake_spigots'
p3084
sg56
g57
sg60
S'MG_JEN_Cohset::make_spigots()  version=25dec2005  defined=2006-04-03 12:43'
p3085
sg62
S'make_spigots'
p3086
sg64
(dp3087
g3045
(lp3088
I01
aI00
aS'@@flag'
p3089
asS'MS_corr_index'
p3090
(lp3091
(lp3092
I0
aI1
aI2
aI3
aa(lp3093
I0
aI-1
aI-1
aI1
aa(lp3094
I0
aI-1
aI-1
aI3
aaS'@@MS_corr_index'
p3095
asg3083
(lp3096
g3062
ag3043
ag3061
aS'@@input_col'
p3097
asg3044
(lp3098
I01
aI00
aS'@@visu'
p3099
assg138
Nsg140
S'** Description of available inarg record(s) for: MG_JEN_Cohset::make_spigots()  version=25dec2005  defined=2006-04-03 12:43'
p3100
sg145
g229
sg143
g3081
sg147
S'MG_JEN_Cohset'
p3101
sg149
(dp3102
g3045
I00
sg3044
I00
ssg151
S'** Specific description of inarg record for: MG_JEN_Cohset::make_spigots()  version=25dec2005  defined=2006-04-03 12:43'
p3103
sg142
I00
sg156
(lp3104
g39
ag3083
ag3090
ag3044
ag3045
asg158
(dp3105
g3045
S'if True, insert a flagger for the input uv-data'
p3106
sg3090
S'correlations to be used: \n- [0,1,2,3]:   all corrs available, use all \n- [0,-1,-1,1]: only XX/YY (or RR/LL) available \n- [0,-1,-1,3]: all available, but use only XX/YY or RR/LL'
p3107
sg3083
S'name of the logical (VisTile) input column'
p3108
sg3044
S'if True, visualise the input uv-data'
p3109
ssg58
S'Make spigot nodes in the given Cohset object'
p3110
ssg3083
g3062
sg3090
(lp3111
I0
aI1
aI2
aI3
assg3036
(dp3112
S'[solve_imp]./MG_JEN_Cohset.Jones()'
p3113
(dp3114
S'[solve_imp]./MG_JEN_Joneset.FJones()'
p3115
(dp3116
g19
I00
sg2
S'@@polrep'
p3117
sg21
g22
sg26
I00
sg12
S'@@parmtable'
p3118
sg27
Nsg31
I10
sg32
g33
sg34
g35
sg36
g37
sg38
Nsg39
(dp3119
g41
S'MG_JEN_Joneset::FJones()'
p3120
sg43
g3115
sg44
(dp3121
g32
I01
sg2
I01
sg46
I01
sg34
I01
sg47
I01
sg21
I01
sg49
I01
sg36
I01
sg48
I01
sg38
I01
sg50
I01
sg12
I01
sg51
I01
sg52
I01
sg31
I01
sg27
I01
sg53
I01
ssg58
g474
sg56
g57
sg60
S'MG_JEN_Joneset::FJones()  version=16dec2005  defined=2006-04-03 12:43'
p3122
sg62
S'FJones'
p3123
sg64
(dp3124
g19
(lp3125
I01
aI00
aS'@@reset_funklet'
p3126
asg2
(lp3127
g3
ag69
ag3117
asg21
(lp3128
g22
aS'@@color'
p3129
asg26
(lp3130
I01
aI00
aS'@@save_all'
p3131
asg50
(lp3132
NaS'@@tfdeg'
p3133
asg27
(lp3134
NaS'@@unit'
p3135
asg31
(lp3136
I10
aS'@@size'
p3137
asg32
(lp3138
g33
aS'@@style'
p3139
asg34
(lp3140
g35
aS'@@descr'
p3141
asg36
(lp3142
g37
aS'@@condeq_corrs'
p3143
asg38
(lp3144
NaS'@@funklet_shape'
p3145
asg30
(lp3146
I01
aI00
aS'@@auto_save'
p3147
asg51
(lp3148
g213
aS'@@@Jsequence_KJones'
p3149
asg53
(lp3150
g213
aS'@@@Jsequence'
p3151
asg46
(lp3152
F1.0
aS'@@c00_default'
p3153
asg48
(lp3154
I00
aS'@@uvplane_effect'
p3155
asg47
(lp3156
(lp3157
I0
aI1
aI2
aI3
aI4
aa(lp3158
I0
aI1
aI2
aI3
aI4
aI5
aI6
aa(lp3159
I0
aI1
aI2
aI3
aI4
aI5
aI6
aI7
aI8
aI9
aI10
aI11
aI12
aI13
aa(lp3160
I0
aI1
aI2
aI3
aI4
aI5
aI6
aI7
aI8
aI9
aI10
aI11
aI12
aI13
aI14
aag127
aS'@@stations'
p3161
asg515
(lp3162
I0
aI1
aI2
aI3
aS'@@tdeg_RM'
p3163
asg129
(lp3164
I01
aI00
aS'@@use_previous'
p3165
asg520
(lp3166
I0
aI1
aI2
aI3
aS'@@fdeg_RM'
p3167
asg49
(lp3168
NaS'@@subtile_size'
p3169
asg12
(lp3170
Nag79
ag3118
asg526
(lp3171
NaI1
aI2
aI5
aI10
aI20
aI50
aI100
aI200
aI500
aS'@@subtile_size_RM'
p3172
asg52
(lp3173
g213
aS'@@@Jsequence_simul'
p3174
assg138
S'solve_imp'
p3175
sg140
S'** Description of available inarg record(s) for: MG_JEN_Joneset::FJones()  version=16dec2005  defined=2006-04-03 12:43'
p3176
sg142
I00
sg143
S'2006-04-03 12:43'
p3177
sg145
g146
sg147
S'MG_JEN_Joneset'
p3178
sg149
(dp3179
g19
I00
sg26
I00
sg30
I00
sg129
I00
ssg151
S'** Specific description of inarg record for: MG_JEN_Joneset::FJones()  version=16dec2005  defined=2006-04-03 12:43'
p3180
sg153
(dp3181
g48
I00
sg12
I00
sg2
I00
sg47
I00
ssg155
g3177
sg156
(lp3182
g39
ag47
ag2
ag53
ag52
ag51
ag12
ag48
ag515
ag520
ag526
ag129
ag30
ag26
ag19
ag34
ag27
ag21
ag32
ag31
ag46
ag50
ag38
ag49
ag36
asg158
(dp3183
g19
g160
sg2
g161
sg21
g162
sg26
g165
sg50
g182
sg27
g27
sg31
g169
sg32
g170
sg34
g171
sg36
g172
sg38
g173
sg30
g168
sg51
g174
sg53
g174
sg46
g175
sg48
g176
sg47
g179
sg515
g539
sg129
g180
sg520
g540
sg49
g181
sg12
g166
sg526
g541
sg52
g174
ssg54
S'MG_JEN_JonesetFJones'
p3184
ssg51
g213
sg53
g213
sg46
F1.0
sg48
g3155
sg47
g3161
sg515
I0
sg129
I01
sg520
I2
sg49
Nsg50
Nsg526
I1
sg52
g213
sg30
I01
ssg51
NsS'[solve_imp]./MG_JEN_Joneset.JJones()'
p3185
(dp3186
g19
I00
sg2
S'@@polrep'
p3187
sg635
I0
sg21
g22
sg26
I00
sg636
Nsg12
S'@@parmtable'
p3188
sg638
Nsg27
Nsg31
I10
sg32
g33
sg639
g640
sg34
g35
sg36
g37
sg38
Nsg39
(dp3189
g41
S'MG_JEN_Joneset::JJones()'
p3190
sg43
g3185
sg44
(dp3191
g32
I01
sg2
I01
sg46
I01
sg34
I01
sg47
I01
sg21
I01
sg49
I01
sg36
I01
sg48
I01
sg38
I01
sg50
I01
sg12
I01
sg51
I01
sg52
I01
sg31
I01
sg27
I01
sg53
I01
ssg58
g645
sg56
g57
sg60
S'MG_JEN_Joneset::JJones()  version=14feb2006  defined=2006-04-03 12:43'
p3192
sg62
S'JJones'
p3193
sg64
(dp3194
g19
(lp3195
I01
aI00
aS'@@reset_funklet'
p3196
asg2
(lp3197
g3
ag69
ag3187
asg635
(lp3198
I0
aI1
aI2
aI3
aS'@@tdeg_Jreal'
p3199
asg21
(lp3200
g22
aS'@@color'
p3201
asg26
(lp3202
I01
aI00
aS'@@save_all'
p3203
asg636
(lp3204
Na(lp3205
I14
aa(lp3206
I1
aag661
aS'@@all4_always'
p3207
asg12
(lp3208
Nag79
ag3188
asg638
(lp3209
NaI1
aI2
aI5
aI10
aI20
aI50
aI100
aI200
aI500
aS'@@subtile_size_Jreal'
p3210
asg27
(lp3211
NaS'@@unit'
p3212
asg31
(lp3213
I10
aS'@@size'
p3214
asg32
(lp3215
g33
aS'@@style'
p3216
asg639
(lp3217
I0
aI1
aI2
aI3
ag640
aS'@@tdeg_Jimag'
p3218
asg34
(lp3219
g35
aS'@@descr'
p3220
asg36
(lp3221
g37
aS'@@condeq_corrs'
p3222
asg38
(lp3223
NaS'@@funklet_shape'
p3224
asg30
(lp3225
I01
aI00
aS'@@auto_save'
p3226
asg51
(lp3227
g222
aS'@@@Jsequence_KJones'
p3228
asg684
(lp3229
I0
aI1
aI2
aI3
aS'@@fdeg_Jreal'
p3230
asg46
(lp3231
F1.0
aS'@@c00_default'
p3232
asg48
(lp3233
I00
aS'@@uvplane_effect'
p3234
asg691
(lp3235
I0
aI1
aI2
aI3
ag693
aS'@@fdeg_Jimag'
p3236
asg695
(lp3237
g697
aNaI1
aI2
aI5
aI10
aI20
aI50
aI100
aI200
aI500
aS'@@subtile_size_Jimag'
p3238
asg47
(lp3239
(lp3240
I0
aI1
aI2
aI3
aI4
aa(lp3241
I0
aI1
aI2
aI3
aI4
aI5
aI6
aa(lp3242
I0
aI1
aI2
aI3
aI4
aI5
aI6
aI7
aI8
aI9
aI10
aI11
aI12
aI13
aa(lp3243
I0
aI1
aI2
aI3
aI4
aI5
aI6
aI7
aI8
aI9
aI10
aI11
aI12
aI13
aI14
aag127
aS'@@stations'
p3244
asg705
(lp3245
I01
aI00
aS'@@diagonal_only'
p3246
asg129
(lp3247
I01
aI00
aS'@@use_previous'
p3248
asg49
(lp3249
NaS'@@subtile_size'
p3250
asg50
(lp3251
NaS'@@tfdeg'
p3252
asg52
(lp3253
g222
aS'@@@Jsequence_simul'
p3254
asg53
(lp3255
g222
aS'@@@Jsequence'
p3256
assg138
g3175
sg140
S'** Description of available inarg record(s) for: MG_JEN_Joneset::JJones()  version=14feb2006  defined=2006-04-03 12:43'
p3257
sg142
I00
sg143
S'2006-04-03 12:43'
p3258
sg145
g720
sg147
S'MG_JEN_Joneset'
p3259
sg149
(dp3260
g19
I00
sg705
I00
sg26
I00
sg30
I00
sg129
I00
ssg151
S'** Specific description of inarg record for: MG_JEN_Joneset::JJones()  version=14feb2006  defined=2006-04-03 12:43'
p3261
sg153
(dp3262
g48
I00
sg12
I00
sg2
I00
sg47
I00
ssg155
g3258
sg156
(lp3263
g39
ag47
ag2
ag53
ag52
ag51
ag705
ag636
ag12
ag48
ag635
ag639
ag684
ag691
ag638
ag695
ag129
ag30
ag26
ag19
ag34
ag27
ag21
ag32
ag31
ag46
ag50
ag38
ag49
ag36
asg158
(dp3264
g19
g160
sg2
g161
sg635
g727
sg21
g162
sg26
g165
sg636
g728
sg12
g166
sg638
g729
sg27
g27
sg31
g169
sg32
g170
sg639
g727
sg34
g171
sg36
g172
sg38
g173
sg30
g168
sg51
g174
sg684
g730
sg46
g175
sg48
g176
sg691
g730
sg695
g729
sg47
g179
sg705
g731
sg129
g180
sg49
g181
sg50
g182
sg52
g174
sg53
g174
ssg54
S'MG_JEN_JonesetJJones'
p3265
ssg51
g222
sg684
I0
sg46
F1.0
sg48
g3234
sg691
g693
sg695
g697
sg47
g3244
sg705
I00
sg129
I01
sg49
Nsg50
Nsg52
g222
sg53
g222
sg30
I01
ssg47
S'@@stations'
p3266
sS'[solve_imp]./MG_JEN_Joneset.BJones()'
p3267
(dp3268
g19
I00
sg2
S'@@polrep'
p3269
sg21
g22
sg382
g383
sg26
I00
sg384
Nsg27
Nsg31
I10
sg32
g33
sg34
g35
sg385
I5
sg36
g37
sg38
Nsg39
(dp3270
g41
S'MG_JEN_Joneset::BJones()'
p3271
sg43
g3267
sg44
(dp3272
g32
I01
sg2
I01
sg46
I01
sg34
I01
sg47
I01
sg21
I01
sg49
I01
sg36
I01
sg48
I01
sg38
I01
sg50
I01
sg12
I01
sg51
I01
sg52
I01
sg31
I01
sg27
I01
sg53
I01
ssg58
g390
sg56
g57
sg60
S'MG_JEN_Joneset::BJones()  version=16dec2005  defined=2006-04-03 12:43'
p3273
sg62
S'BJones'
p3274
sg64
(dp3275
g19
(lp3276
I01
aI00
aS'@@reset_funklet'
p3277
asg2
(lp3278
g3
ag69
ag3269
asg21
(lp3279
g22
aS'@@color'
p3280
asg382
(lp3281
g383
aNaI1
aI2
aI5
aI10
aI20
aI50
aI100
aI200
aI500
aS'@@subtile_size_Bimag'
p3282
asg26
(lp3283
I01
aI00
aS'@@save_all'
p3284
asg384
(lp3285
NaI1
aI2
aI5
aI10
aI20
aI50
aI100
aI200
aI500
aS'@@subtile_size_Breal'
p3286
asg27
(lp3287
NaS'@@unit'
p3288
asg31
(lp3289
I10
aS'@@size'
p3290
asg32
(lp3291
g33
aS'@@style'
p3292
asg34
(lp3293
g35
aS'@@descr'
p3294
asg385
(lp3295
I3
aI4
aI5
aI6
aS'@@fdeg_Breal'
p3296
asg36
(lp3297
g37
aS'@@condeq_corrs'
p3298
asg38
(lp3299
NaS'@@funklet_shape'
p3300
asg30
(lp3301
I01
aI00
aS'@@auto_save'
p3302
asg51
(lp3303
g211
aS'@@@Jsequence_KJones'
p3304
asg423
(lp3305
I0
aI1
aI2
aI3
ag425
aS'@@tdeg_Bimag'
p3306
asg53
(lp3307
g211
aS'@@@Jsequence'
p3308
asg46
(lp3309
F1.0
aS'@@c00_default'
p3310
asg431
(lp3311
I3
aI4
aI5
aI6
ag433
aS'@@fdeg_Bimag'
p3312
asg48
(lp3313
I00
aS'@@uvplane_effect'
p3314
asg47
(lp3315
(lp3316
I0
aI1
aI2
aI3
aI4
aa(lp3317
I0
aI1
aI2
aI3
aI4
aI5
aI6
aa(lp3318
I0
aI1
aI2
aI3
aI4
aI5
aI6
aI7
aI8
aI9
aI10
aI11
aI12
aI13
aa(lp3319
I0
aI1
aI2
aI3
aI4
aI5
aI6
aI7
aI8
aI9
aI10
aI11
aI12
aI13
aI14
aag127
aS'@@stations'
p3320
asg50
(lp3321
NaS'@@tfdeg'
p3322
asg445
(lp3323
I0
aI1
aI2
aI3
aS'@@tdeg_Breal'
p3324
asg129
(lp3325
I01
aI00
aS'@@use_previous'
p3326
asg49
(lp3327
NaS'@@subtile_size'
p3328
asg12
(lp3329
Nag79
aS'@@parmtable'
p3330
asg52
(lp3331
g211
aS'@@@Jsequence_simul'
p3332
assg138
g3175
sg140
S'** Description of available inarg record(s) for: MG_JEN_Joneset::BJones()  version=16dec2005  defined=2006-04-03 12:43'
p3333
sg142
I00
sg143
S'2006-04-03 12:43'
p3334
sg145
g146
sg147
S'MG_JEN_Joneset'
p3335
sg149
(dp3336
g19
I00
sg26
I00
sg30
I00
sg129
I00
ssg151
S'** Specific description of inarg record for: MG_JEN_Joneset::BJones()  version=16dec2005  defined=2006-04-03 12:43'
p3337
sg153
(dp3338
g48
I00
sg12
I00
sg2
I00
sg47
I00
ssg155
g3334
sg156
(lp3339
g39
ag47
ag2
ag53
ag52
ag51
ag12
ag48
ag445
ag423
ag385
ag431
ag384
ag382
ag129
ag30
ag26
ag19
ag34
ag27
ag21
ag32
ag31
ag46
ag50
ag38
ag49
ag36
asg158
(dp3340
g19
g160
sg2
g161
sg21
g162
sg382
g464
sg26
g165
sg384
g464
sg27
g27
sg31
g169
sg32
g170
sg34
g171
sg385
g465
sg36
g172
sg38
g173
sg30
g168
sg51
g174
sg423
g466
sg53
g174
sg46
g175
sg431
g465
sg48
g176
sg47
g179
sg50
g182
sg445
g466
sg129
g180
sg49
g181
sg12
g166
sg52
g174
ssg54
S'MG_JEN_JonesetBJones'
p3341
ssg51
g211
sg423
g425
sg53
g211
sg46
F1.0
sg431
g433
sg48
g3314
sg47
g3320
sg50
Nsg445
I0
sg129
I01
sg49
Nsg12
g3330
sg52
g211
sg30
I01
ssS'[solve_imp]./MG_JEN_Joneset.DJones_WSRT()'
p3342
(dp3343
g19
I00
sg2
S'@@polrep'
p3344
sg21
g22
sg23
g24
sg25
I01
sg26
I00
sg27
Nsg12
S'@@parmtable'
p3345
sg29
Nsg30
I01
sg31
I10
sg32
g33
sg34
g35
sg36
g37
sg38
Nsg39
(dp3346
g41
S'MG_JEN_Joneset::DJones_WSRT()'
p3347
sg43
g3342
sg44
(dp3348
g32
I01
sg2
I01
sg46
I01
sg34
I01
sg47
I01
sg21
I01
sg49
I01
sg36
I01
sg48
I01
sg38
I01
sg50
I01
sg12
I01
sg51
I01
sg52
I01
sg31
I01
sg27
I01
sg53
I01
ssg58
g59
sg56
g57
sg60
S'MG_JEN_Joneset::DJones_WSRT()  version=16dec2005  defined=2006-04-03 12:43'
p3349
sg62
S'DJones_WSRT'
p3350
sg64
(dp3351
g19
(lp3352
I01
aI00
aS'@@reset_funklet'
p3353
asg2
(lp3354
g3
ag69
ag3344
asg21
(lp3355
g22
aS'@@color'
p3356
asg23
(lp3357
I0
aI1
aI2
aI3
ag24
aS'@@fdeg_Dell'
p3358
asg25
(lp3359
I01
aI00
aS'@@coupled_XY_Dell'
p3360
asg26
(lp3361
I01
aI00
aS'@@save_all'
p3362
asg12
(lp3363
Nag79
ag3345
asg29
(lp3364
NaI1
aI2
aI5
aI10
aI20
aI50
aI100
aI200
aI500
aS'@@subtile_size_Dang'
p3365
asg27
(lp3366
NaS'@@unit'
p3367
asg31
(lp3368
I10
aS'@@size'
p3369
asg32
(lp3370
g33
aS'@@style'
p3371
asg34
(lp3372
g35
aS'@@descr'
p3373
asg36
(lp3374
g37
aS'@@condeq_corrs'
p3375
asg38
(lp3376
NaS'@@funklet_shape'
p3377
asg30
(lp3378
I01
aI00
aS'@@auto_save'
p3379
asg51
(lp3380
g97
aS'@@@Jsequence_KJones'
p3381
asg99
(lp3382
g101
aNaI1
aI2
aI5
aI10
aI20
aI50
aI100
aI200
aI500
aS'@@subtile_size_Dell'
p3383
asg53
(lp3384
g97
aS'@@@Jsequence'
p3385
asg105
(lp3386
I0
aI1
aI2
aI3
aS'@@fdeg_Dang'
p3387
asg46
(lp3388
F1.0
aS'@@c00_default'
p3389
asg48
(lp3390
I00
aS'@@uvplane_effect'
p3391
asg112
(lp3392
I0
aI1
aI2
aI3
ag114
aS'@@tdeg_Dell'
p3393
asg116
(lp3394
I01
aI00
aS'@@coupled_XY_Dang'
p3395
asg119
(lp3396
I0
aI1
aI2
aI3
aS'@@tdeg_Dang'
p3397
asg47
(lp3398
(lp3399
I0
aI1
aI2
aI3
aI4
aa(lp3400
I0
aI1
aI2
aI3
aI4
aI5
aI6
aa(lp3401
I0
aI1
aI2
aI3
aI4
aI5
aI6
aI7
aI8
aI9
aI10
aI11
aI12
aI13
aa(lp3402
I0
aI1
aI2
aI3
aI4
aI5
aI6
aI7
aI8
aI9
aI10
aI11
aI12
aI13
aI14
aag127
aS'@@stations'
p3403
asg129
(lp3404
I01
aI00
aS'@@use_previous'
p3405
asg49
(lp3406
NaS'@@subtile_size'
p3407
asg50
(lp3408
NaS'@@tfdeg'
p3409
asg52
(lp3410
g97
aS'@@@Jsequence_simul'
p3411
assg138
g3175
sg140
S'** Description of available inarg record(s) for: MG_JEN_Joneset::DJones_WSRT()  version=16dec2005  defined=2006-04-03 12:43'
p3412
sg142
I00
sg143
S'2006-04-03 12:43'
p3413
sg145
g146
sg147
S'MG_JEN_Joneset'
p3414
sg149
(dp3415
g19
I00
sg25
I00
sg26
I00
sg116
I00
sg129
I00
sg30
I00
ssg151
S'** Specific description of inarg record for: MG_JEN_Joneset::DJones_WSRT()  version=16dec2005  defined=2006-04-03 12:43'
p3416
sg153
(dp3417
g48
I00
sg12
I00
sg2
I00
sg47
I00
ssg155
g3413
sg156
(lp3418
g39
ag47
ag2
ag53
ag52
ag51
ag116
ag25
ag12
ag48
ag119
ag112
ag105
ag23
ag29
ag99
ag129
ag30
ag26
ag19
ag34
ag27
ag21
ag32
ag31
ag46
ag50
ag38
ag49
ag36
asg158
(dp3419
g19
g160
sg2
g161
sg21
g162
sg23
g163
sg25
g164
sg26
g165
sg12
g166
sg29
g167
sg27
g27
sg31
g169
sg32
g170
sg34
g171
sg36
g172
sg38
g173
sg30
g168
sg51
g174
sg99
g167
sg53
g174
sg105
g163
sg46
g175
sg48
g176
sg112
g177
sg116
g178
sg119
g177
sg47
g179
sg129
g180
sg49
g181
sg50
g182
sg52
g174
ssg54
S'MG_JEN_JonesetDJones_WSRT'
p3420
ssg51
g97
sg99
g101
sg53
g97
sg105
I0
sg46
F1.0
sg48
g3391
sg112
g114
sg116
I01
sg119
I0
sg47
g3403
sg129
I01
sg49
Nsg50
Nsg52
g97
ssg48
S'@@uvplane_effect'
p3421
sg12
S'@@parmtable'
p3422
sg39
(dp3423
g41
g185
sg43
g3113
sg44
(dp3424
g2
I01
sg47
I01
sg48
I01
sg12
I01
sg51
I01
sg52
I01
sg53
I01
ssg54
S'MG_JEN_CohsetJones'
p3425
sg56
g57
sg58
g260
sg60
S'MG_JEN_Cohset::Jones()  version=25dec2005  defined=2006-04-03 12:43'
p3426
sg62
S'Jones'
p3427
sg64
(dp3428
g2
(lp3429
g3
ag69
aS'@@polrep'
p3430
asg47
(lp3431
(lp3432
I0
aI1
aI2
aI3
aI4
aa(lp3433
I0
aI1
aI2
aI3
aI4
aI5
aI6
aa(lp3434
I0
aI1
aI2
aI3
aI4
aI5
aI6
aI7
aI8
aI9
aI10
aI11
aI12
aI13
aa(lp3435
I0
aI1
aI2
aI3
aI4
aI5
aI6
aI7
aI8
aI9
aI10
aI11
aI12
aI13
aI14
aag127
ag3266
asg48
(lp3436
I00
ag3421
asg12
(lp3437
Nag79
ag3422
asg51
(lp3438
NaS'@@@Jsequence_KJones'
p3439
asg52
(lp3440
NaS'@@@Jsequence_simul'
p3441
asg206
(lp3442
(lp3443
g209
aa(lp3444
g211
aa(lp3445
g213
aa(lp3446
g215
aa(lp3447
g97
aa(lp3448
g209
ag97
aa(lp3449
g219
aa(lp3450
g209
ag219
aa(lp3451
g222
aa(lp3452
aS'@@Jsequence'
p3453
asg53
(lp3454
NaS'@@@Jsequence'
p3455
assg138
g3175
sg140
S'** Description of available inarg record(s) for: MG_JEN_Cohset::Jones()  version=25dec2005  defined=2006-04-03 12:43'
p3456
sg142
I00
sg143
S'2006-04-03 12:43'
p3457
sg145
g229
sg147
S'MG_JEN_Cohset'
p3458
sg151
S'** Specific description of inarg record for: MG_JEN_Cohset::Jones()  version=25dec2005  defined=2006-04-03 12:43'
p3459
sg232
(dp3460
g234
S'** JEN_inarg.attach(): attached: [solve_imp]./MG_JEN_Joneset.FJones()'
p3461
sg236
S'** JEN_inarg.attach(): attached: [solve_imp]./MG_JEN_Joneset.GJones()'
p3462
sg238
S'** JEN_inarg.attach(): attached: [solve_imp]./MG_JEN_Joneset.KJones()'
p3463
sg240
S'** JEN_inarg.attach(): attached: [solve_imp]./MG_JEN_Joneset.BJones()'
p3464
sg242
S'** JEN_inarg.attach(): attached: [solve_imp]./MG_JEN_Joneset.EJones_WSRT()'
p3465
sg244
S'** JEN_inarg.attach(): attached: [solve_imp]./MG_JEN_Joneset.DJones_WSRT()'
p3466
sg248
S'** JEN_inarg.attach(): attached: [solve_imp]./MG_JEN_Joneset.JJones()'
p3467
ssg155
g3457
sg153
(dp3468
g48
I00
sg12
I00
sg2
I00
sg47
I00
ssg156
(lp3469
g39
ag47
ag2
ag53
ag52
ag51
ag12
ag48
ag206
aS'[solve_imp]./MG_JEN_Joneset.GJones()'
p3470
ag3115
ag3267
aS'[solve_imp]./MG_JEN_Joneset.KJones()'
p3471
ag3342
aS'[solve_imp]./MG_JEN_Joneset.EJones_WSRT()'
p3472
ag3185
asg158
(dp3473
g2
g161
sg47
g179
sg48
g176
sg12
g166
sg51
g174
sg52
g174
sg206
g259
sg53
g174
sssg3470
(dp3474
g19
I00
sg2
S'@@polrep'
p3475
sg544
I0
sg21
g22
sg26
I00
sg12
S'@@parmtable'
p3476
sg27
Nsg31
I10
sg32
g33
sg34
g35
sg546
I1
sg36
g37
sg38
Nsg39
(dp3477
g41
S'MG_JEN_Joneset::GJones()'
p3478
sg43
g3470
sg44
(dp3479
g31
I01
sg32
I01
sg2
I01
sg46
I01
sg34
I01
sg47
I01
sg21
I01
sg49
I01
sg36
I01
sg48
I01
sg38
I01
sg50
I01
sg12
I01
sg51
I01
sg52
I01
sg550
I01
sg27
I01
sg53
I01
ssg58
g552
sg56
g57
sg60
S'MG_JEN_Joneset::GJones()  version=15dec2005  defined=2006-04-03 12:43'
p3480
sg62
S'GJones'
p3481
sg64
(dp3482
g19
(lp3483
I01
aI00
aS'@@reset_funklet'
p3484
asg2
(lp3485
g3
ag69
ag3475
asg544
(lp3486
I0
aI1
aI2
aI3
aS'@@fdeg_Ggain'
p3487
asg21
(lp3488
g22
aS'@@color'
p3489
asg26
(lp3490
I01
aI00
aS'@@save_all'
p3491
asg12
(lp3492
Nag79
ag3476
asg27
(lp3493
NaS'@@unit'
p3494
asg31
(lp3495
I10
aS'@@size'
p3496
asg32
(lp3497
g33
aS'@@style'
p3498
asg34
(lp3499
g35
aS'@@descr'
p3500
asg546
(lp3501
NaI1
aI2
aI5
aI10
aI20
aI50
aI100
aI200
aI500
aS'@@subtile_size_Ggain'
p3502
asg36
(lp3503
g37
aS'@@condeq_corrs'
p3504
asg38
(lp3505
NaS'@@funklet_shape'
p3506
asg30
(lp3507
I01
aI00
aS'@@auto_save'
p3508
asg51
(lp3509
g209
aS'@@@Jsequence_KJones'
p3510
asg53
(lp3511
g209
aS'@@@Jsequence'
p3512
asg46
(lp3513
F1.0
aS'@@c00_default'
p3514
asg588
(lp3515
I0
aI1
aI2
aI3
ag590
aS'@@tdeg_Gphase'
p3516
asg592
(lp3517
I0
aI1
aI2
aI3
aS'@@tdeg_Ggain'
p3518
asg595
(lp3519
I0
aI1
aI2
aI3
ag597
aS'@@fdeg_Gphase'
p3520
asg599
(lp3521
g601
aNaI1
aI2
aI5
aI10
aI20
aI50
aI100
aI200
aI500
aS'@@subtile_size_Gphase'
p3522
asg550
(lp3523
I01
aI00
aS'@@Gpolar'
p3524
asg48
(lp3525
I00
aS'@@uvplane_effect'
p3526
asg47
(lp3527
(lp3528
I0
aI1
aI2
aI3
aI4
aa(lp3529
I0
aI1
aI2
aI3
aI4
aI5
aI6
aa(lp3530
I0
aI1
aI2
aI3
aI4
aI5
aI6
aI7
aI8
aI9
aI10
aI11
aI12
aI13
aa(lp3531
I0
aI1
aI2
aI3
aI4
aI5
aI6
aI7
aI8
aI9
aI10
aI11
aI12
aI13
aI14
aag127
aS'@@stations'
p3532
asg129
(lp3533
I01
aI00
aS'@@use_previous'
p3534
asg49
(lp3535
NaS'@@subtile_size'
p3536
asg50
(lp3537
NaS'@@tfdeg'
p3538
asg52
(lp3539
g209
aS'@@@Jsequence_simul'
p3540
assg138
g3175
sg140
S'** Description of available inarg record(s) for: MG_JEN_Joneset::GJones()  version=15dec2005  defined=2006-04-03 12:43'
p3541
sg142
I00
sg143
S'2006-04-03 12:43'
p3542
sg145
g339
sg147
S'MG_JEN_Joneset'
p3543
sg149
(dp3544
g19
I00
sg550
I00
sg26
I00
sg30
I00
sg129
I00
ssg151
S'** Specific description of inarg record for: MG_JEN_Joneset::GJones()  version=15dec2005  defined=2006-04-03 12:43'
p3545
sg153
(dp3546
g48
I00
sg12
I00
sg2
I00
sg47
I00
ssg155
g3542
sg156
(lp3547
g39
ag47
ag2
ag53
ag52
ag51
ag550
ag12
ag48
ag592
ag588
ag544
ag595
ag546
ag599
ag129
ag30
ag26
ag19
ag34
ag27
ag21
ag32
ag31
ag46
ag50
ag38
ag49
ag36
asg158
(dp3548
g19
g160
sg2
g161
sg544
g629
sg21
g162
sg26
g165
sg12
g166
sg27
g27
sg31
g169
sg32
g170
sg34
g171
sg546
g630
sg36
g172
sg38
g173
sg30
g168
sg51
g174
sg53
g174
sg46
g175
sg588
g631
sg592
g631
sg595
g629
sg599
g630
sg550
g632
sg48
g176
sg47
g179
sg129
g180
sg49
g181
sg50
g182
sg52
g174
ssg54
S'MG_JEN_JonesetGJones'
p3549
ssg51
g209
sg53
g209
sg46
F1.0
sg588
g590
sg592
I0
sg595
g597
sg599
g601
sg550
I01
sg48
g3526
sg47
g3532
sg129
I01
sg49
Nsg50
Nsg52
g209
sg30
I01
ssg2
g3430
sg52
Nsg3471
(dp3550
g2
S'@@polrep'
p3551
sg47
S'@@stations'
p3552
sg39
(dp3553
g41
S'MG_JEN_Joneset::KJones()'
p3554
sg43
g3471
sg44
(dp3555
g51
I01
sg52
I01
sg53
I01
sg2
I01
sg47
I01
ssg58
g356
sg56
g57
sg60
S'MG_JEN_Joneset::KJones()  version=12dec2005  defined=2006-04-03 12:43'
p3556
sg62
S'KJones'
p3557
sg64
(dp3558
g51
(lp3559
g215
aS'@@@Jsequence_KJones'
p3560
asg52
(lp3561
g215
aS'@@@Jsequence_simul'
p3562
asg53
(lp3563
g215
aS'@@@Jsequence'
p3564
asg2
(lp3565
g3
ag69
ag3551
asg47
(lp3566
(lp3567
I0
aI1
aI2
aI3
aI4
aa(lp3568
I0
aI1
aI2
aI3
aI4
aI5
aI6
aa(lp3569
I0
aI1
aI2
aI3
aI4
aI5
aI6
aI7
aI8
aI9
aI10
aI11
aI12
aI13
aa(lp3570
I0
aI1
aI2
aI3
aI4
aI5
aI6
aI7
aI8
aI9
aI10
aI11
aI12
aI13
aI14
aag127
ag3552
assg138
g3175
sg140
S'** Description of available inarg record(s) for: MG_JEN_Joneset::KJones()  version=12dec2005  defined=2006-04-03 12:43'
p3571
sg142
I00
sg143
S'2006-04-03 12:43'
p3572
sg145
g374
sg147
S'MG_JEN_Joneset'
p3573
sg151
S'** Specific description of inarg record for: MG_JEN_Joneset::KJones()  version=12dec2005  defined=2006-04-03 12:43'
p3574
sg153
(dp3575
g2
I00
sg47
I00
ssg155
g3572
sg156
(lp3576
g39
ag47
ag2
ag53
ag52
ag51
asg158
(dp3577
g51
g174
sg52
g174
sg53
g174
sg2
g161
sg47
g179
ssg54
S'MG_JEN_JonesetKJones'
p3578
ssg51
g215
sg52
g215
sg53
g215
ssg206
(lp3579
sg3472
(dp3580
g19
I00
sg2
S'@@polrep'
p3581
sg21
g22
sg26
I00
sg27
Nsg12
S'@@parmtable'
p3582
sg30
I01
sg31
I10
sg264
I0
sg265
g266
sg32
g33
sg34
g35
sg49
Nsg36
g37
sg38
Nsg39
(dp3583
g41
S'MG_JEN_Joneset::EJones_WSRT()'
p3584
sg43
g3472
sg44
(dp3585
g32
I01
sg2
I01
sg46
I01
sg34
I01
sg47
I01
sg21
I01
sg49
I01
sg36
I01
sg48
I01
sg38
I01
sg50
I01
sg12
I01
sg51
I01
sg52
I01
sg31
I01
sg27
I01
sg53
I01
ssg58
g274
sg56
g57
sg60
S'MG_JEN_Joneset::EJones_WSRT()  version=15dec2005  defined=2006-04-03 12:43'
p3586
sg62
S'EJones_WSRT'
p3587
sg64
(dp3588
g19
(lp3589
I01
aI00
aS'@@reset_funklet'
p3590
asg2
(lp3591
g3
ag69
ag3581
asg21
(lp3592
g22
aS'@@color'
p3593
asg26
(lp3594
I01
aI00
aS'@@save_all'
p3595
asg12
(lp3596
Nag79
ag3582
asg27
(lp3597
NaS'@@unit'
p3598
asg31
(lp3599
I10
aS'@@size'
p3600
asg264
(lp3601
I0
aI1
aI2
aI3
aS'@@tdeg_Edl'
p3602
asg265
(lp3603
I0
aI1
aI2
aI3
ag266
aS'@@tdeg_Edm'
p3604
asg32
(lp3605
g33
aS'@@style'
p3606
asg34
(lp3607
g35
aS'@@descr'
p3608
asg49
(lp3609
NaS'@@subtile_size'
p3610
asg36
(lp3611
g37
aS'@@condeq_corrs'
p3612
asg38
(lp3613
NaS'@@funklet_shape'
p3614
asg30
(lp3615
I01
aI00
aS'@@auto_save'
p3616
asg51
(lp3617
g219
aS'@@@Jsequence_KJones'
p3618
asg53
(lp3619
g219
aS'@@@Jsequence'
p3620
asg46
(lp3621
F1.0
aS'@@c00_default'
p3622
asg48
(lp3623
I00
aS'@@uvplane_effect'
p3624
asg47
(lp3625
(lp3626
I0
aI1
aI2
aI3
aI4
aa(lp3627
I0
aI1
aI2
aI3
aI4
aI5
aI6
aa(lp3628
I0
aI1
aI2
aI3
aI4
aI5
aI6
aI7
aI8
aI9
aI10
aI11
aI12
aI13
aa(lp3629
I0
aI1
aI2
aI3
aI4
aI5
aI6
aI7
aI8
aI9
aI10
aI11
aI12
aI13
aI14
aag127
aS'@@stations'
p3630
asg50
(lp3631
NaS'@@tfdeg'
p3632
asg129
(lp3633
I01
aI00
aS'@@use_previous'
p3634
asg267
(lp3635
NaI1
aI2
aI5
aI10
aI20
aI50
aI100
aI200
aI500
aS'@@subtile_size_Edl'
p3636
asg268
(lp3637
g269
aNaI1
aI2
aI5
aI10
aI20
aI50
aI100
aI200
aI500
aS'@@subtile_size_Edm'
p3638
asg52
(lp3639
g219
aS'@@@Jsequence_simul'
p3640
asg330
(lp3641
I0
aI1
aI2
aI3
aS'@@fdeg_Edl'
p3642
asg333
(lp3643
I0
aI1
aI2
aI3
ag335
aS'@@fdeg_Edm'
p3644
assg138
g3175
sg140
S'** Description of available inarg record(s) for: MG_JEN_Joneset::EJones_WSRT()  version=15dec2005  defined=2006-04-03 12:43'
p3645
sg142
I00
sg143
S'2006-04-03 12:43'
p3646
sg145
g339
sg147
S'MG_JEN_Joneset'
p3647
sg149
(dp3648
g19
I00
sg26
I00
sg30
I00
sg129
I00
ssg151
S'** Specific description of inarg record for: MG_JEN_Joneset::EJones_WSRT()  version=15dec2005  defined=2006-04-03 12:43'
p3649
sg153
(dp3650
g48
I00
sg12
I00
sg2
I00
sg47
I00
ssg155
g3646
sg156
(lp3651
g39
ag47
ag2
ag53
ag52
ag51
ag12
ag48
ag264
ag265
ag330
ag333
ag267
ag268
ag129
ag30
ag26
ag19
ag34
ag27
ag21
ag32
ag31
ag46
ag50
ag38
ag49
ag36
asg158
(dp3652
g19
g160
sg2
g161
sg21
g162
sg26
g165
sg12
g166
sg27
g27
sg31
g169
sg264
g346
sg265
g346
sg32
g170
sg34
g171
sg49
g181
sg36
g172
sg38
g173
sg30
g168
sg51
g174
sg53
g174
sg46
g175
sg48
g176
sg47
g179
sg50
g182
sg129
g180
sg267
g347
sg268
g347
sg52
g174
sg330
g348
sg333
g348
ssg54
S'MG_JEN_JonesetEJones_WSRT'
p3653
ssg51
g219
sg53
g219
sg46
F1.0
sg48
g3624
sg47
g3630
sg50
Nsg129
I01
sg267
Nsg268
g269
sg52
g219
sg330
I0
sg333
g335
ssg53
Nssg2
S'@@polrep'
p3654
sg47
S'@@stations'
p3655
sg39
(dp3656
g41
g2335
sg43
g3036
sg44
(dp3657
g51
I01
sg52
I01
sg53
I01
sg2
I01
sg47
I01
ssg54
S'MG_JEN_Cohsetpredict_lsm'
p3658
sg56
g57
sg60
S'MG_JEN_Cohset::predict_lsm()  version=20mar2006  defined=2006-04-03 12:43'
p3659
sg62
S'predict_lsm'
p3660
sg64
(dp3661
g2
(lp3662
g3
ag69
ag3654
asg47
(lp3663
(lp3664
I0
aI1
aI2
aI3
aI4
aa(lp3665
I0
aI1
aI2
aI3
aI4
aI5
aI6
aa(lp3666
I0
aI1
aI2
aI3
aI4
aI5
aI6
aI7
aI8
aI9
aI10
aI11
aI12
aI13
aa(lp3667
I0
aI1
aI2
aI3
aI4
aI5
aI6
aI7
aI8
aI9
aI10
aI11
aI12
aI13
aI14
aag127
ag3655
asg2347
(lp3668
I1
aI2
aI3
aI5
aI10
aI20
aI100
aI1000
aI10000
aS'@@nr_lsm_sources'
p3669
asg51
(lp3670
NaS'@@@Jsequence_KJones'
p3671
asg52
(lp3672
NaS'@@@Jsequence_simul'
p3673
asg53
(lp3674
NaS'@@@Jsequence'
p3675
assg138
S'solve'
p3676
sg140
S'** Description of available inarg record(s) for: MG_JEN_Cohset::predict_lsm()  version=20mar2006  defined=2006-04-03 12:43'
p3677
sg142
I00
sg143
S'2006-04-03 12:43'
p3678
sg145
g2358
sg147
S'MG_JEN_Cohset'
p3679
sg151
S'** Specific description of inarg record for: MG_JEN_Cohset::predict_lsm()  version=20mar2006  defined=2006-04-03 12:43'
p3680
sg232
(dp3681
g236
S'** JEN_inarg.attach(): attached: [solve_imp]./MG_JEN_Cohset.Jones()'
p3682
ssg155
g3678
sg153
(dp3683
g2
I00
sg47
I00
ssg156
(lp3684
g39
ag2347
ag47
ag2
ag53
ag52
ag51
ag3113
asg158
(dp3685
g2
g161
sg47
g179
sg2347
g2367
sg51
g174
sg52
g174
sg53
g174
ssg58
g2368
ssg2347
I10000
sg51
Nsg52
Nsg53
Nssg53
Nsg3035
(dp3686
S'[solve_imp]./MG_JEN_Joneset.FJones()'
p3687
(dp3688
g19
I00
sg2
S'@@polrep'
p3689
sg21
g22
sg26
I00
sg12
S'@@parmtable'
p3690
sg27
Nsg31
I10
sg32
g33
sg34
g35
sg36
g37
sg38
Nsg39
(dp3691
g41
S'MG_JEN_Joneset::FJones()'
p3692
sg43
g3687
sg44
(dp3693
g32
I01
sg2
I01
sg46
I01
sg34
I01
sg47
I01
sg21
I01
sg38
I01
sg36
I01
sg48
I01
sg49
I01
sg50
I01
sg12
I01
sg51
I01
sg52
I01
sg53
I01
sg27
I01
sg31
I01
ssg54
S'MG_JEN_JonesetFJones'
p3694
sg56
g57
sg58
g474
sg60
S'MG_JEN_Joneset::FJones()  version=16dec2005  defined=2006-04-03 12:43'
p3695
sg62
S'FJones'
p3696
sg64
(dp3697
g19
(lp3698
I01
aI00
aS'@@reset_funklet'
p3699
asg2
(lp3700
g3
ag69
ag3689
asg21
(lp3701
g22
aS'@@color'
p3702
asg26
(lp3703
I01
aI00
aS'@@save_all'
p3704
asg50
(lp3705
NaS'@@tfdeg'
p3706
asg30
(lp3707
I01
aI00
aS'@@auto_save'
p3708
asg31
(lp3709
I10
aS'@@size'
p3710
asg32
(lp3711
g33
aS'@@style'
p3712
asg34
(lp3713
g35
aS'@@descr'
p3714
asg36
(lp3715
g37
aS'@@condeq_corrs'
p3716
asg38
(lp3717
NaS'@@funklet_shape'
p3718
asg27
(lp3719
NaS'@@unit'
p3720
asg51
(lp3721
g213
aS'@@@Jsequence_KJones'
p3722
asg53
(lp3723
g213
aS'@@@Jsequence'
p3724
asg46
(lp3725
F1.0
aS'@@c00_default'
p3726
asg48
(lp3727
I00
aS'@@uvplane_effect'
p3728
asg47
(lp3729
(lp3730
I0
aI1
aI2
aI3
aI4
aa(lp3731
I0
aI1
aI2
aI3
aI4
aI5
aI6
aa(lp3732
I0
aI1
aI2
aI3
aI4
aI5
aI6
aI7
aI8
aI9
aI10
aI11
aI12
aI13
aa(lp3733
I0
aI1
aI2
aI3
aI4
aI5
aI6
aI7
aI8
aI9
aI10
aI11
aI12
aI13
aI14
aag127
aS'@@stations'
p3734
asg515
(lp3735
I0
aI1
aI2
aI3
aS'@@tdeg_RM'
p3736
asg129
(lp3737
I01
aI00
aS'@@use_previous'
p3738
asg520
(lp3739
I0
aI1
aI2
aI3
aS'@@fdeg_RM'
p3740
asg49
(lp3741
NaS'@@subtile_size'
p3742
asg12
(lp3743
Nag79
ag3690
asg526
(lp3744
NaI1
aI2
aI5
aI10
aI20
aI50
aI100
aI200
aI500
aS'@@subtile_size_RM'
p3745
asg52
(lp3746
g213
aS'@@@Jsequence_simul'
p3747
assg138
S'solve_imp'
p3748
sg140
S'** Description of available inarg record(s) for: MG_JEN_Joneset::FJones()  version=16dec2005  defined=2006-04-03 12:43'
p3749
sg142
I00
sg143
S'2006-04-03 12:43'
p3750
sg145
g146
sg147
S'MG_JEN_Joneset'
p3751
sg149
(dp3752
g19
I00
sg129
I00
sg30
I00
sg26
I00
ssg151
S'** Specific description of inarg record for: MG_JEN_Joneset::FJones()  version=16dec2005  defined=2006-04-03 12:43'
p3753
sg153
(dp3754
g48
I00
sg12
I00
sg2
I00
sg47
I00
ssg155
g3750
sg156
(lp3755
g39
ag47
ag2
ag53
ag52
ag51
ag12
ag48
ag515
ag520
ag526
ag129
ag30
ag26
ag19
ag34
ag27
ag21
ag32
ag31
ag46
ag50
ag38
ag49
ag36
asg158
(dp3756
g19
g160
sg2
g161
sg21
g162
sg26
g165
sg50
g182
sg30
g168
sg31
g169
sg32
g170
sg34
g171
sg36
g172
sg38
g173
sg27
g27
sg51
g174
sg53
g174
sg46
g175
sg48
g176
sg47
g179
sg515
g539
sg129
g180
sg520
g540
sg49
g181
sg12
g166
sg526
g541
sg52
g174
sssg51
g213
sg53
g213
sg46
F1.0
sg48
g3728
sg47
g3734
sg515
I0
sg129
I01
sg520
I2
sg49
Nsg50
Nsg526
I1
sg52
g213
sg30
I01
ssg2
S'@@polrep'
p3757
sS'[solve_imp]./MG_JEN_Joneset.JJones()'
p3758
(dp3759
g19
I00
sg2
S'@@polrep'
p3760
sg635
I0
sg21
g22
sg26
I00
sg636
Nsg12
S'@@parmtable'
p3761
sg638
Nsg27
Nsg31
I10
sg32
g33
sg639
g640
sg34
g35
sg36
g37
sg38
Nsg39
(dp3762
g41
S'MG_JEN_Joneset::JJones()'
p3763
sg43
g3758
sg44
(dp3764
g32
I01
sg2
I01
sg46
I01
sg34
I01
sg47
I01
sg21
I01
sg38
I01
sg36
I01
sg48
I01
sg49
I01
sg50
I01
sg12
I01
sg51
I01
sg52
I01
sg53
I01
sg27
I01
sg31
I01
ssg54
S'MG_JEN_JonesetJJones'
p3765
sg56
g57
sg58
g645
sg60
S'MG_JEN_Joneset::JJones()  version=14feb2006  defined=2006-04-03 12:43'
p3766
sg62
S'JJones'
p3767
sg64
(dp3768
g19
(lp3769
I01
aI00
aS'@@reset_funklet'
p3770
asg2
(lp3771
g3
ag69
ag3760
asg635
(lp3772
I0
aI1
aI2
aI3
aS'@@tdeg_Jreal'
p3773
asg21
(lp3774
g22
aS'@@color'
p3775
asg26
(lp3776
I01
aI00
aS'@@save_all'
p3777
asg636
(lp3778
Na(lp3779
I14
aa(lp3780
I1
aag661
aS'@@all4_always'
p3781
asg12
(lp3782
Nag79
ag3761
asg638
(lp3783
NaI1
aI2
aI5
aI10
aI20
aI50
aI100
aI200
aI500
aS'@@subtile_size_Jreal'
p3784
asg30
(lp3785
I01
aI00
aS'@@auto_save'
p3786
asg31
(lp3787
I10
aS'@@size'
p3788
asg32
(lp3789
g33
aS'@@style'
p3790
asg639
(lp3791
I0
aI1
aI2
aI3
ag640
aS'@@tdeg_Jimag'
p3792
asg34
(lp3793
g35
aS'@@descr'
p3794
asg36
(lp3795
g37
aS'@@condeq_corrs'
p3796
asg38
(lp3797
NaS'@@funklet_shape'
p3798
asg27
(lp3799
NaS'@@unit'
p3800
asg51
(lp3801
g222
aS'@@@Jsequence_KJones'
p3802
asg684
(lp3803
I0
aI1
aI2
aI3
aS'@@fdeg_Jreal'
p3804
asg46
(lp3805
F1.0
aS'@@c00_default'
p3806
asg48
(lp3807
I00
aS'@@uvplane_effect'
p3808
asg691
(lp3809
I0
aI1
aI2
aI3
ag693
aS'@@fdeg_Jimag'
p3810
asg695
(lp3811
g697
aNaI1
aI2
aI5
aI10
aI20
aI50
aI100
aI200
aI500
aS'@@subtile_size_Jimag'
p3812
asg47
(lp3813
(lp3814
I0
aI1
aI2
aI3
aI4
aa(lp3815
I0
aI1
aI2
aI3
aI4
aI5
aI6
aa(lp3816
I0
aI1
aI2
aI3
aI4
aI5
aI6
aI7
aI8
aI9
aI10
aI11
aI12
aI13
aa(lp3817
I0
aI1
aI2
aI3
aI4
aI5
aI6
aI7
aI8
aI9
aI10
aI11
aI12
aI13
aI14
aag127
aS'@@stations'
p3818
asg705
(lp3819
I01
aI00
aS'@@diagonal_only'
p3820
asg129
(lp3821
I01
aI00
aS'@@use_previous'
p3822
asg49
(lp3823
NaS'@@subtile_size'
p3824
asg50
(lp3825
NaS'@@tfdeg'
p3826
asg52
(lp3827
g222
aS'@@@Jsequence_simul'
p3828
asg53
(lp3829
g222
aS'@@@Jsequence'
p3830
assg138
g3748
sg140
S'** Description of available inarg record(s) for: MG_JEN_Joneset::JJones()  version=14feb2006  defined=2006-04-03 12:43'
p3831
sg142
I00
sg143
S'2006-04-03 12:43'
p3832
sg145
g720
sg147
S'MG_JEN_Joneset'
p3833
sg149
(dp3834
g19
I00
sg129
I00
sg705
I00
sg30
I00
sg26
I00
ssg151
S'** Specific description of inarg record for: MG_JEN_Joneset::JJones()  version=14feb2006  defined=2006-04-03 12:43'
p3835
sg153
(dp3836
g48
I00
sg12
I00
sg2
I00
sg47
I00
ssg155
g3832
sg156
(lp3837
g39
ag47
ag2
ag53
ag52
ag51
ag705
ag636
ag12
ag48
ag635
ag639
ag684
ag691
ag638
ag695
ag129
ag30
ag26
ag19
ag34
ag27
ag21
ag32
ag31
ag46
ag50
ag38
ag49
ag36
asg158
(dp3838
g19
g160
sg2
g161
sg635
g727
sg21
g162
sg26
g165
sg636
g728
sg12
g166
sg638
g729
sg30
g168
sg31
g169
sg32
g170
sg639
g727
sg34
g171
sg36
g172
sg38
g173
sg27
g27
sg51
g174
sg684
g730
sg46
g175
sg48
g176
sg691
g730
sg695
g729
sg47
g179
sg705
g731
sg129
g180
sg49
g181
sg50
g182
sg52
g174
sg53
g174
sssg51
g222
sg684
I0
sg46
F1.0
sg48
g3808
sg691
g693
sg695
g697
sg47
g3818
sg705
I00
sg129
I01
sg49
Nsg50
Nsg52
g222
sg53
g222
sg30
I01
ssg47
S'@@stations'
p3839
sS'[solve_imp]./MG_JEN_Joneset.BJones()'
p3840
(dp3841
g19
I00
sg2
S'@@polrep'
p3842
sg21
g22
sg382
g383
sg26
I00
sg384
Nsg27
Nsg31
I10
sg32
g33
sg34
g35
sg385
I5
sg36
g37
sg38
Nsg39
(dp3843
g41
S'MG_JEN_Joneset::BJones()'
p3844
sg43
g3840
sg44
(dp3845
g32
I01
sg2
I01
sg46
I01
sg34
I01
sg47
I01
sg21
I01
sg38
I01
sg36
I01
sg48
I01
sg49
I01
sg50
I01
sg12
I01
sg51
I01
sg52
I01
sg53
I01
sg27
I01
sg31
I01
ssg54
S'MG_JEN_JonesetBJones'
p3846
sg56
g57
sg58
g390
sg60
S'MG_JEN_Joneset::BJones()  version=16dec2005  defined=2006-04-03 12:43'
p3847
sg62
S'BJones'
p3848
sg64
(dp3849
g19
(lp3850
I01
aI00
aS'@@reset_funklet'
p3851
asg2
(lp3852
g3
ag69
ag3842
asg21
(lp3853
g22
aS'@@color'
p3854
asg382
(lp3855
g383
aNaI1
aI2
aI5
aI10
aI20
aI50
aI100
aI200
aI500
aS'@@subtile_size_Bimag'
p3856
asg26
(lp3857
I01
aI00
aS'@@save_all'
p3858
asg384
(lp3859
NaI1
aI2
aI5
aI10
aI20
aI50
aI100
aI200
aI500
aS'@@subtile_size_Breal'
p3860
asg30
(lp3861
I01
aI00
aS'@@auto_save'
p3862
asg31
(lp3863
I10
aS'@@size'
p3864
asg32
(lp3865
g33
aS'@@style'
p3866
asg34
(lp3867
g35
aS'@@descr'
p3868
asg385
(lp3869
I3
aI4
aI5
aI6
aS'@@fdeg_Breal'
p3870
asg36
(lp3871
g37
aS'@@condeq_corrs'
p3872
asg38
(lp3873
NaS'@@funklet_shape'
p3874
asg27
(lp3875
NaS'@@unit'
p3876
asg51
(lp3877
g211
aS'@@@Jsequence_KJones'
p3878
asg423
(lp3879
I0
aI1
aI2
aI3
ag425
aS'@@tdeg_Bimag'
p3880
asg53
(lp3881
g211
aS'@@@Jsequence'
p3882
asg46
(lp3883
F1.0
aS'@@c00_default'
p3884
asg431
(lp3885
I3
aI4
aI5
aI6
ag433
aS'@@fdeg_Bimag'
p3886
asg48
(lp3887
I00
aS'@@uvplane_effect'
p3888
asg12
(lp3889
Nag79
aS'@@parmtable'
p3890
asg47
(lp3891
(lp3892
I0
aI1
aI2
aI3
aI4
aa(lp3893
I0
aI1
aI2
aI3
aI4
aI5
aI6
aa(lp3894
I0
aI1
aI2
aI3
aI4
aI5
aI6
aI7
aI8
aI9
aI10
aI11
aI12
aI13
aa(lp3895
I0
aI1
aI2
aI3
aI4
aI5
aI6
aI7
aI8
aI9
aI10
aI11
aI12
aI13
aI14
aag127
aS'@@stations'
p3896
asg445
(lp3897
I0
aI1
aI2
aI3
aS'@@tdeg_Breal'
p3898
asg129
(lp3899
I01
aI00
aS'@@use_previous'
p3900
asg49
(lp3901
NaS'@@subtile_size'
p3902
asg50
(lp3903
NaS'@@tfdeg'
p3904
asg52
(lp3905
g211
aS'@@@Jsequence_simul'
p3906
assg138
g3748
sg140
S'** Description of available inarg record(s) for: MG_JEN_Joneset::BJones()  version=16dec2005  defined=2006-04-03 12:43'
p3907
sg142
I00
sg143
S'2006-04-03 12:43'
p3908
sg145
g146
sg147
S'MG_JEN_Joneset'
p3909
sg149
(dp3910
g19
I00
sg129
I00
sg30
I00
sg26
I00
ssg151
S'** Specific description of inarg record for: MG_JEN_Joneset::BJones()  version=16dec2005  defined=2006-04-03 12:43'
p3911
sg153
(dp3912
g48
I00
sg12
I00
sg2
I00
sg47
I00
ssg155
g3908
sg156
(lp3913
g39
ag47
ag2
ag53
ag52
ag51
ag12
ag48
ag445
ag423
ag385
ag431
ag384
ag382
ag129
ag30
ag26
ag19
ag34
ag27
ag21
ag32
ag31
ag46
ag50
ag38
ag49
ag36
asg158
(dp3914
g19
g160
sg2
g161
sg21
g162
sg382
g464
sg26
g165
sg384
g464
sg30
g168
sg31
g169
sg32
g170
sg34
g171
sg385
g465
sg36
g172
sg38
g173
sg27
g27
sg51
g174
sg423
g466
sg53
g174
sg46
g175
sg431
g465
sg48
g176
sg12
g166
sg47
g179
sg445
g466
sg129
g180
sg49
g181
sg50
g182
sg52
g174
sssg51
g211
sg423
g425
sg53
g211
sg46
F1.0
sg431
g433
sg48
g3888
sg12
g3890
sg47
g3896
sg445
I0
sg129
I01
sg49
Nsg50
Nsg52
g211
sg30
I01
ssS'[solve_imp]./MG_JEN_Joneset.DJones_WSRT()'
p3915
(dp3916
g19
I00
sg2
S'@@polrep'
p3917
sg21
g22
sg23
g24
sg25
I01
sg26
I00
sg27
Nsg12
S'@@parmtable'
p3918
sg29
Nsg30
I01
sg31
I10
sg32
g33
sg34
g35
sg36
g37
sg38
Nsg39
(dp3919
g41
S'MG_JEN_Joneset::DJones_WSRT()'
p3920
sg43
g3915
sg44
(dp3921
g32
I01
sg2
I01
sg46
I01
sg34
I01
sg47
I01
sg21
I01
sg38
I01
sg36
I01
sg48
I01
sg49
I01
sg50
I01
sg12
I01
sg51
I01
sg52
I01
sg53
I01
sg27
I01
sg31
I01
ssg54
S'MG_JEN_JonesetDJones_WSRT'
p3922
sg56
g57
sg58
g59
sg60
S'MG_JEN_Joneset::DJones_WSRT()  version=16dec2005  defined=2006-04-03 12:43'
p3923
sg62
S'DJones_WSRT'
p3924
sg64
(dp3925
g19
(lp3926
I01
aI00
aS'@@reset_funklet'
p3927
asg2
(lp3928
g3
ag69
ag3917
asg21
(lp3929
g22
aS'@@color'
p3930
asg23
(lp3931
I0
aI1
aI2
aI3
ag24
aS'@@fdeg_Dell'
p3932
asg25
(lp3933
I01
aI00
aS'@@coupled_XY_Dell'
p3934
asg26
(lp3935
I01
aI00
aS'@@save_all'
p3936
asg12
(lp3937
Nag79
ag3918
asg29
(lp3938
NaI1
aI2
aI5
aI10
aI20
aI50
aI100
aI200
aI500
aS'@@subtile_size_Dang'
p3939
asg30
(lp3940
I01
aI00
aS'@@auto_save'
p3941
asg31
(lp3942
I10
aS'@@size'
p3943
asg32
(lp3944
g33
aS'@@style'
p3945
asg34
(lp3946
g35
aS'@@descr'
p3947
asg36
(lp3948
g37
aS'@@condeq_corrs'
p3949
asg38
(lp3950
NaS'@@funklet_shape'
p3951
asg27
(lp3952
NaS'@@unit'
p3953
asg51
(lp3954
g97
aS'@@@Jsequence_KJones'
p3955
asg99
(lp3956
g101
aNaI1
aI2
aI5
aI10
aI20
aI50
aI100
aI200
aI500
aS'@@subtile_size_Dell'
p3957
asg53
(lp3958
g97
aS'@@@Jsequence'
p3959
asg105
(lp3960
I0
aI1
aI2
aI3
aS'@@fdeg_Dang'
p3961
asg46
(lp3962
F1.0
aS'@@c00_default'
p3963
asg48
(lp3964
I00
aS'@@uvplane_effect'
p3965
asg112
(lp3966
I0
aI1
aI2
aI3
ag114
aS'@@tdeg_Dell'
p3967
asg116
(lp3968
I01
aI00
aS'@@coupled_XY_Dang'
p3969
asg119
(lp3970
I0
aI1
aI2
aI3
aS'@@tdeg_Dang'
p3971
asg47
(lp3972
(lp3973
I0
aI1
aI2
aI3
aI4
aa(lp3974
I0
aI1
aI2
aI3
aI4
aI5
aI6
aa(lp3975
I0
aI1
aI2
aI3
aI4
aI5
aI6
aI7
aI8
aI9
aI10
aI11
aI12
aI13
aa(lp3976
I0
aI1
aI2
aI3
aI4
aI5
aI6
aI7
aI8
aI9
aI10
aI11
aI12
aI13
aI14
aag127
aS'@@stations'
p3977
asg129
(lp3978
I01
aI00
aS'@@use_previous'
p3979
asg49
(lp3980
NaS'@@subtile_size'
p3981
asg50
(lp3982
NaS'@@tfdeg'
p3983
asg52
(lp3984
g97
aS'@@@Jsequence_simul'
p3985
assg138
g3748
sg140
S'** Description of available inarg record(s) for: MG_JEN_Joneset::DJones_WSRT()  version=16dec2005  defined=2006-04-03 12:43'
p3986
sg142
I00
sg143
S'2006-04-03 12:43'
p3987
sg145
g146
sg147
S'MG_JEN_Joneset'
p3988
sg149
(dp3989
g19
I00
sg25
I00
sg129
I00
sg116
I00
sg26
I00
sg30
I00
ssg151
S'** Specific description of inarg record for: MG_JEN_Joneset::DJones_WSRT()  version=16dec2005  defined=2006-04-03 12:43'
p3990
sg153
(dp3991
g48
I00
sg12
I00
sg2
I00
sg47
I00
ssg155
g3987
sg156
(lp3992
g39
ag47
ag2
ag53
ag52
ag51
ag116
ag25
ag12
ag48
ag119
ag112
ag105
ag23
ag29
ag99
ag129
ag30
ag26
ag19
ag34
ag27
ag21
ag32
ag31
ag46
ag50
ag38
ag49
ag36
asg158
(dp3993
g19
g160
sg2
g161
sg21
g162
sg23
g163
sg25
g164
sg26
g165
sg12
g166
sg29
g167
sg30
g168
sg31
g169
sg32
g170
sg34
g171
sg36
g172
sg38
g173
sg27
g27
sg51
g174
sg99
g167
sg53
g174
sg105
g163
sg46
g175
sg48
g176
sg112
g177
sg116
g178
sg119
g177
sg47
g179
sg129
g180
sg49
g181
sg50
g182
sg52
g174
sssg51
g97
sg99
g101
sg53
g97
sg105
I0
sg46
F1.0
sg48
g3965
sg112
g114
sg116
I01
sg119
I0
sg47
g3977
sg129
I01
sg49
Nsg50
Nsg52
g97
ssg48
S'@@uvplane_effect'
p3994
sg12
S'@@parmtable'
p3995
sg39
(dp3996
g41
g185
sg43
g3035
sg44
(dp3997
g2
I01
sg47
I01
sg48
I01
sg12
I01
sg51
I01
sg52
I01
sg53
I01
ssg54
S'MG_JEN_CohsetJones'
p3998
sg56
g57
sg60
S'MG_JEN_Cohset::Jones()  version=25dec2005  defined=2006-04-03 12:43'
p3999
sg62
S'Jones'
p4000
sg64
(dp4001
g2
(lp4002
g3
ag69
ag3757
asg47
(lp4003
(lp4004
I0
aI1
aI2
aI3
aI4
aa(lp4005
I0
aI1
aI2
aI3
aI4
aI5
aI6
aa(lp4006
I0
aI1
aI2
aI3
aI4
aI5
aI6
aI7
aI8
aI9
aI10
aI11
aI12
aI13
aa(lp4007
I0
aI1
aI2
aI3
aI4
aI5
aI6
aI7
aI8
aI9
aI10
aI11
aI12
aI13
aI14
aag127
ag3839
asg48
(lp4008
I00
ag3994
asg12
(lp4009
Nag79
ag3995
asg51
(lp4010
NaS'@@@Jsequence_KJones'
p4011
asg52
(lp4012
NaS'@@@Jsequence_simul'
p4013
asg206
(lp4014
(lp4015
g209
aa(lp4016
g211
aa(lp4017
g213
aa(lp4018
g215
aa(lp4019
g97
aa(lp4020
g209
ag97
aa(lp4021
g219
aa(lp4022
g209
ag219
aa(lp4023
g222
aa(lp4024
aS'@@Jsequence'
p4025
asg53
(lp4026
NaS'@@@Jsequence'
p4027
assg138
g3748
sg140
S'** Description of available inarg record(s) for: MG_JEN_Cohset::Jones()  version=25dec2005  defined=2006-04-03 12:43'
p4028
sg142
I00
sg143
S'2006-04-03 12:43'
p4029
sg145
g229
sg147
S'MG_JEN_Cohset'
p4030
sg151
S'** Specific description of inarg record for: MG_JEN_Cohset::Jones()  version=25dec2005  defined=2006-04-03 12:43'
p4031
sg232
(dp4032
g234
S'** JEN_inarg.attach(): attached: [solve_imp]./MG_JEN_Joneset.FJones()'
p4033
sg236
S'** JEN_inarg.attach(): attached: [solve_imp]./MG_JEN_Joneset.GJones()'
p4034
sg238
S'** JEN_inarg.attach(): attached: [solve_imp]./MG_JEN_Joneset.KJones()'
p4035
sg240
S'** JEN_inarg.attach(): attached: [solve_imp]./MG_JEN_Joneset.BJones()'
p4036
sg242
S'** JEN_inarg.attach(): attached: [solve_imp]./MG_JEN_Joneset.EJones_WSRT()'
p4037
sg244
S'** JEN_inarg.attach(): attached: [solve_imp]./MG_JEN_Joneset.DJones_WSRT()'
p4038
sg248
S'** JEN_inarg.attach(): attached: [solve_imp]./MG_JEN_Joneset.JJones()'
p4039
ssg155
g4029
sg153
(dp4040
g48
I00
sg12
I00
sg2
I00
sg47
I00
ssg156
(lp4041
g39
ag47
ag2
ag53
ag52
ag51
ag12
ag48
ag206
aS'[solve_imp]./MG_JEN_Joneset.GJones()'
p4042
ag3687
ag3840
aS'[solve_imp]./MG_JEN_Joneset.KJones()'
p4043
ag3915
aS'[solve_imp]./MG_JEN_Joneset.EJones_WSRT()'
p4044
ag3758
asg158
(dp4045
g2
g161
sg47
g179
sg48
g176
sg12
g166
sg51
g174
sg52
g174
sg206
g259
sg53
g174
ssg58
g260
ssg4042
(dp4046
g19
I00
sg2
S'@@polrep'
p4047
sg544
I0
sg21
g22
sg26
I00
sg12
S'@@parmtable'
p4048
sg27
Nsg31
I10
sg32
g33
sg34
g35
sg546
I1
sg36
g37
sg38
Nsg39
(dp4049
g41
S'MG_JEN_Joneset::GJones()'
p4050
sg43
g4042
sg44
(dp4051
g32
I01
sg2
I01
sg46
I01
sg34
I01
sg47
I01
sg21
I01
sg53
I01
sg38
I01
sg36
I01
sg48
I01
sg49
I01
sg50
I01
sg12
I01
sg51
I01
sg52
I01
sg550
I01
sg27
I01
sg31
I01
ssg54
S'MG_JEN_JonesetGJones'
p4052
sg56
g57
sg58
g552
sg60
S'MG_JEN_Joneset::GJones()  version=15dec2005  defined=2006-04-03 12:43'
p4053
sg62
S'GJones'
p4054
sg64
(dp4055
g19
(lp4056
I01
aI00
aS'@@reset_funklet'
p4057
asg2
(lp4058
g3
ag69
ag4047
asg544
(lp4059
I0
aI1
aI2
aI3
aS'@@fdeg_Ggain'
p4060
asg21
(lp4061
g22
aS'@@color'
p4062
asg26
(lp4063
I01
aI00
aS'@@save_all'
p4064
asg12
(lp4065
Nag79
ag4048
asg30
(lp4066
I01
aI00
aS'@@auto_save'
p4067
asg31
(lp4068
I10
aS'@@size'
p4069
asg32
(lp4070
g33
aS'@@style'
p4071
asg34
(lp4072
g35
aS'@@descr'
p4073
asg546
(lp4074
NaI1
aI2
aI5
aI10
aI20
aI50
aI100
aI200
aI500
aS'@@subtile_size_Ggain'
p4075
asg36
(lp4076
g37
aS'@@condeq_corrs'
p4077
asg38
(lp4078
NaS'@@funklet_shape'
p4079
asg27
(lp4080
NaS'@@unit'
p4081
asg51
(lp4082
g209
aS'@@@Jsequence_KJones'
p4083
asg53
(lp4084
g209
aS'@@@Jsequence'
p4085
asg46
(lp4086
F1.0
aS'@@c00_default'
p4087
asg588
(lp4088
I0
aI1
aI2
aI3
ag590
aS'@@tdeg_Gphase'
p4089
asg592
(lp4090
I0
aI1
aI2
aI3
aS'@@tdeg_Ggain'
p4091
asg595
(lp4092
I0
aI1
aI2
aI3
ag597
aS'@@fdeg_Gphase'
p4093
asg599
(lp4094
g601
aNaI1
aI2
aI5
aI10
aI20
aI50
aI100
aI200
aI500
aS'@@subtile_size_Gphase'
p4095
asg550
(lp4096
I01
aI00
aS'@@Gpolar'
p4097
asg48
(lp4098
I00
aS'@@uvplane_effect'
p4099
asg47
(lp4100
(lp4101
I0
aI1
aI2
aI3
aI4
aa(lp4102
I0
aI1
aI2
aI3
aI4
aI5
aI6
aa(lp4103
I0
aI1
aI2
aI3
aI4
aI5
aI6
aI7
aI8
aI9
aI10
aI11
aI12
aI13
aa(lp4104
I0
aI1
aI2
aI3
aI4
aI5
aI6
aI7
aI8
aI9
aI10
aI11
aI12
aI13
aI14
aag127
aS'@@stations'
p4105
asg129
(lp4106
I01
aI00
aS'@@use_previous'
p4107
asg49
(lp4108
NaS'@@subtile_size'
p4109
asg50
(lp4110
NaS'@@tfdeg'
p4111
asg52
(lp4112
g209
aS'@@@Jsequence_simul'
p4113
assg138
g3748
sg140
S'** Description of available inarg record(s) for: MG_JEN_Joneset::GJones()  version=15dec2005  defined=2006-04-03 12:43'
p4114
sg142
I00
sg143
S'2006-04-03 12:43'
p4115
sg145
g339
sg147
S'MG_JEN_Joneset'
p4116
sg149
(dp4117
g19
I00
sg129
I00
sg550
I00
sg30
I00
sg26
I00
ssg151
S'** Specific description of inarg record for: MG_JEN_Joneset::GJones()  version=15dec2005  defined=2006-04-03 12:43'
p4118
sg153
(dp4119
g48
I00
sg12
I00
sg2
I00
sg47
I00
ssg155
g4115
sg156
(lp4120
g39
ag47
ag2
ag53
ag52
ag51
ag550
ag12
ag48
ag592
ag588
ag544
ag595
ag546
ag599
ag129
ag30
ag26
ag19
ag34
ag27
ag21
ag32
ag31
ag46
ag50
ag38
ag49
ag36
asg158
(dp4121
g19
g160
sg2
g161
sg544
g629
sg21
g162
sg26
g165
sg12
g166
sg30
g168
sg31
g169
sg32
g170
sg34
g171
sg546
g630
sg36
g172
sg38
g173
sg27
g27
sg51
g174
sg53
g174
sg46
g175
sg588
g631
sg592
g631
sg595
g629
sg599
g630
sg550
g632
sg48
g176
sg47
g179
sg129
g180
sg49
g181
sg50
g182
sg52
g174
sssg51
g209
sg53
g209
sg46
F1.0
sg588
g590
sg592
I0
sg595
g597
sg599
g601
sg550
I01
sg48
g4099
sg47
g4105
sg129
I01
sg49
Nsg50
Nsg52
g209
sg30
I01
ssg51
Nsg52
Nsg4043
(dp4122
g2
S'@@polrep'
p4123
sg47
S'@@stations'
p4124
sg39
(dp4125
g41
S'MG_JEN_Joneset::KJones()'
p4126
sg43
g4043
sg44
(dp4127
g51
I01
sg52
I01
sg47
I01
sg2
I01
sg53
I01
ssg54
S'MG_JEN_JonesetKJones'
p4128
sg56
g57
sg58
g356
sg60
S'MG_JEN_Joneset::KJones()  version=12dec2005  defined=2006-04-03 12:43'
p4129
sg62
S'KJones'
p4130
sg64
(dp4131
g51
(lp4132
g215
aS'@@@Jsequence_KJones'
p4133
asg52
(lp4134
g215
aS'@@@Jsequence_simul'
p4135
asg47
(lp4136
(lp4137
I0
aI1
aI2
aI3
aI4
aa(lp4138
I0
aI1
aI2
aI3
aI4
aI5
aI6
aa(lp4139
I0
aI1
aI2
aI3
aI4
aI5
aI6
aI7
aI8
aI9
aI10
aI11
aI12
aI13
aa(lp4140
I0
aI1
aI2
aI3
aI4
aI5
aI6
aI7
aI8
aI9
aI10
aI11
aI12
aI13
aI14
aag127
ag4124
asg2
(lp4141
g3
ag69
ag4123
asg53
(lp4142
g215
aS'@@@Jsequence'
p4143
assg138
g3748
sg140
S'** Description of available inarg record(s) for: MG_JEN_Joneset::KJones()  version=12dec2005  defined=2006-04-03 12:43'
p4144
sg142
I00
sg143
S'2006-04-03 12:43'
p4145
sg145
g374
sg147
S'MG_JEN_Joneset'
p4146
sg151
S'** Specific description of inarg record for: MG_JEN_Joneset::KJones()  version=12dec2005  defined=2006-04-03 12:43'
p4147
sg153
(dp4148
g2
I00
sg47
I00
ssg155
g4145
sg156
(lp4149
g39
ag47
ag2
ag53
ag52
ag51
asg158
(dp4150
g51
g174
sg52
g174
sg47
g179
sg2
g161
sg53
g174
sssg51
g215
sg52
g215
sg53
g215
ssg206
(lp4151
sg4044
(dp4152
g19
I00
sg2
S'@@polrep'
p4153
sg21
g22
sg26
I00
sg27
Nsg12
S'@@parmtable'
p4154
sg30
I01
sg31
I10
sg264
I0
sg265
g266
sg32
g33
sg34
g35
sg267
Nsg36
g37
sg38
Nsg268
g269
sg39
(dp4155
g41
S'MG_JEN_Joneset::EJones_WSRT()'
p4156
sg43
g4044
sg44
(dp4157
g32
I01
sg2
I01
sg46
I01
sg34
I01
sg47
I01
sg21
I01
sg38
I01
sg36
I01
sg48
I01
sg49
I01
sg50
I01
sg12
I01
sg51
I01
sg52
I01
sg53
I01
sg27
I01
sg31
I01
ssg54
S'MG_JEN_JonesetEJones_WSRT'
p4158
sg56
g57
sg58
g274
sg60
S'MG_JEN_Joneset::EJones_WSRT()  version=15dec2005  defined=2006-04-03 12:43'
p4159
sg62
S'EJones_WSRT'
p4160
sg64
(dp4161
g19
(lp4162
I01
aI00
aS'@@reset_funklet'
p4163
asg2
(lp4164
g3
ag69
ag4153
asg21
(lp4165
g22
aS'@@color'
p4166
asg26
(lp4167
I01
aI00
aS'@@save_all'
p4168
asg12
(lp4169
Nag79
ag4154
asg30
(lp4170
I01
aI00
aS'@@auto_save'
p4171
asg31
(lp4172
I10
aS'@@size'
p4173
asg264
(lp4174
I0
aI1
aI2
aI3
aS'@@tdeg_Edl'
p4175
asg265
(lp4176
I0
aI1
aI2
aI3
ag266
aS'@@tdeg_Edm'
p4177
asg32
(lp4178
g33
aS'@@style'
p4179
asg34
(lp4180
g35
aS'@@descr'
p4181
asg267
(lp4182
NaI1
aI2
aI5
aI10
aI20
aI50
aI100
aI200
aI500
aS'@@subtile_size_Edl'
p4183
asg36
(lp4184
g37
aS'@@condeq_corrs'
p4185
asg38
(lp4186
NaS'@@funklet_shape'
p4187
asg268
(lp4188
g269
aNaI1
aI2
aI5
aI10
aI20
aI50
aI100
aI200
aI500
aS'@@subtile_size_Edm'
p4189
asg27
(lp4190
NaS'@@unit'
p4191
asg51
(lp4192
g219
aS'@@@Jsequence_KJones'
p4193
asg53
(lp4194
g219
aS'@@@Jsequence'
p4195
asg46
(lp4196
F1.0
aS'@@c00_default'
p4197
asg48
(lp4198
I00
aS'@@uvplane_effect'
p4199
asg47
(lp4200
(lp4201
I0
aI1
aI2
aI3
aI4
aa(lp4202
I0
aI1
aI2
aI3
aI4
aI5
aI6
aa(lp4203
I0
aI1
aI2
aI3
aI4
aI5
aI6
aI7
aI8
aI9
aI10
aI11
aI12
aI13
aa(lp4204
I0
aI1
aI2
aI3
aI4
aI5
aI6
aI7
aI8
aI9
aI10
aI11
aI12
aI13
aI14
aag127
aS'@@stations'
p4205
asg129
(lp4206
I01
aI00
aS'@@use_previous'
p4207
asg49
(lp4208
NaS'@@subtile_size'
p4209
asg50
(lp4210
NaS'@@tfdeg'
p4211
asg52
(lp4212
g219
aS'@@@Jsequence_simul'
p4213
asg330
(lp4214
I0
aI1
aI2
aI3
aS'@@fdeg_Edl'
p4215
asg333
(lp4216
I0
aI1
aI2
aI3
ag335
aS'@@fdeg_Edm'
p4217
assg138
g3748
sg140
S'** Description of available inarg record(s) for: MG_JEN_Joneset::EJones_WSRT()  version=15dec2005  defined=2006-04-03 12:43'
p4218
sg142
I00
sg143
S'2006-04-03 12:43'
p4219
sg145
g339
sg147
S'MG_JEN_Joneset'
p4220
sg149
(dp4221
g19
I00
sg129
I00
sg30
I00
sg26
I00
ssg151
S'** Specific description of inarg record for: MG_JEN_Joneset::EJones_WSRT()  version=15dec2005  defined=2006-04-03 12:43'
p4222
sg153
(dp4223
g48
I00
sg12
I00
sg2
I00
sg47
I00
ssg155
g4219
sg156
(lp4224
g39
ag47
ag2
ag53
ag52
ag51
ag12
ag48
ag264
ag265
ag330
ag333
ag267
ag268
ag129
ag30
ag26
ag19
ag34
ag27
ag21
ag32
ag31
ag46
ag50
ag38
ag49
ag36
asg158
(dp4225
g19
g160
sg2
g161
sg21
g162
sg26
g165
sg12
g166
sg30
g168
sg31
g169
sg264
g346
sg265
g346
sg32
g170
sg34
g171
sg267
g347
sg36
g172
sg38
g173
sg268
g347
sg27
g27
sg51
g174
sg53
g174
sg46
g175
sg48
g176
sg47
g179
sg129
g180
sg49
g181
sg50
g182
sg52
g174
sg330
g348
sg333
g348
sssg51
g219
sg53
g219
sg46
F1.0
sg48
g4199
sg47
g4205
sg129
I01
sg49
Nsg50
Nsg52
g219
sg330
I0
sg333
g335
ssg53
Nssg2930
g2952
sg48
I01
sg2923
Nsg2913
F0.0
sg2915
I00
sg2925
I1
sg47
g2946
sg3038
(dp4226
g6
S'finishing touches'
p4227
ssg3031
(dp4228
S'channel_start_index'
p4229
I0
sS'data_column_name'
p4230
S'CORRECTED_DATA'
p4231
sS'predict_column'
p4232
g4231
sg10
S'@@ms_name'
p4233
sg39
(dp4234
g43
g3031
sg158
(dp4235
g4229
S'(inputrec.sel) index of first selected freq channel'
p4236
sg4230
S'(inputrec) MS input column'
p4237
sg4232
S'MS output column to be associated with the VisTile predict-column'
p4238
sg10
g2920
sg2925
g2926
sS'channel_increment'
p4239
S'(inputrec.sel) take every nth channel (1=all)'
p4240
sS'channel_end_index'
p4241
S'(inputrec.sel) index of last selected freq channel'
p4242
sS'write_flags'
p4243
S'(outputrec) if True, write flags to MS'
p4244
ssg56
g57
sg147
S'MG_JEN_exec'
p4245
sg44
(dp4246
g10
I01
sg2925
I01
ssg2062
(dp4247
g10
g2932
ssg145
S'20jan2006'
p4248
sg153
(dp4249
g10
I00
sg2925
I00
ssg58
S'** Description of script: MG_JEN_exec::stream_control()  version=20jan2006  defined=2006-04-03 12:43'
p4250
sg149
(dp4251
g4243
I00
ssg60
S'MG_JEN_exec::stream_control()  version=20jan2006  defined=2006-04-03 12:43'
p4252
sg64
(dp4253
g4229
(lp4254
I0
aI5
aI10
aI20
aS'@@channel_start_index'
p4255
asg4230
(lp4256
g3062
ag4231
aS'@@data_column_name'
p4257
asg4232
(lp4258
g3062
ag4231
aS'MODEL_DATA'
p4259
aS'@@predict_column'
p4260
asg10
(lp4261
g11
ag4233
asg2925
(lp4262
I1
aI2
aI3
aI5
aI10
aI20
aI50
aI100
aS'@@tile_size'
p4263
asg4239
(lp4264
I1
aI2
aI3
aI5
aI10
aS'@@channel_increment'
p4265
asg4241
(lp4266
I-1
aI25
aI50
aI100
aS'@@channel_end_index'
p4267
asg4243
(lp4268
I01
aI00
aS'@@write_flags'
p4269
assg138
Nsg155
S'2006-04-03 12:43'
p4270
sg41
S'MG_JEN_exec::stream_control()'
p4271
sg151
S'** Specific description of inarg record for: MG_JEN_exec::stream_control()  version=20jan2006  defined=2006-04-03 12:43'
p4272
sg54
S'MG_JEN_execstream_control'
p4273
sg62
S'stream_control'
p4274
sg140
S'** Description of available inarg record(s) for: MG_JEN_exec::stream_control()  version=20jan2006  defined=2006-04-03 12:43'
p4275
sg142
I00
sg143
g4270
sg232
(dp4276
g234
S'  1: .../MG_JEN_exec.stream_control() (qual=None): .modify(channel_start_index):   10  ->  0'
p4277
sg236
S'  1: .../MG_JEN_exec.stream_control() (qual=None): .modify(data_column_name):   DATA  ->  CORRECTED_DATA'
p4278
sg240
S'  1: .../MG_JEN_exec.stream_control() (qual=None): .modify(channel_end_index):   50  ->  -1'
p4279
ssg156
(lp4280
g39
ag10
ag2925
ag4230
ag4229
ag4241
ag4239
ag4243
ag4232
assg2925
g4263
sg4239
I1
sg4241
I-1
sg4243
I00
ssg2917
I00
sg3034
(dp4281
g6
S'solver-branch (ParmSet)'
p4282
ssg3033
(dp4283
g6
S'uv-data simulation (LeafSet)'
p4284
ssg2921
I01
sg52
Nsg3037
(dp4285
S'correct_after'
p4286
I01
sg2915
S'@@master_reqseq'
p4287
sS'condeq_unop'
p4288
Nsg3044
I01
sg2917
S'@@redun'
p4289
sS'solver_subtree'
p4290
NsS'subtract_after'
p4291
I00
sg2921
S'@@chain_solvers'
p4292
sg39
(dp4293
g43
g3037
sg158
(dp4294
g4286
S'if True, correct measured with predicted.Joneset'
p4295
sg2915
g2916
sg4288
S'Optional unary operation on Condeq inputs'
p4296
sg3044
S'if True, include full visualisation'
p4297
sg2917
g2918
sg4290
S'solver subtree qualifier(s)'
p4298
sg4291
S'if True, subtract predicted from measured'
p4299
sg2921
g2922
sS'flag_residuals'
p4300
S'if True, flag the residuals'
p4301
sg2923
g2924
ssg56
g57
sg147
S'MG_JEN_Cohset'
p4302
sg44
(dp4303
g2915
I01
sg2917
I01
sg4290
I01
sg2921
I01
sg4300
I01
sg2923
I01
ssg145
g229
sg153
(dp4304
g2917
I00
sg2921
I00
sg2915
I00
sg2923
I00
ssg58
S'insert one or more solver subtrees in the data stream'
p4305
sg149
(dp4306
g4286
I00
sg2915
I00
sg3044
I00
sg2917
I00
sg4291
I00
sg4300
I00
ssg60
S'MG_JEN_Cohset::insert_solver()  version=25dec2005  defined=2006-04-03 12:43'
p4307
sg64
(dp4308
g4286
(lp4309
I01
aI00
aS'@@correct_after'
p4310
asg2915
(lp4311
I01
aI00
ag4287
asg4288
(lp4312
NaS'Abs'
p4313
aS'Arg'
p4314
aS'@@condeq_unop'
p4315
asg3044
(lp4316
I01
aI00
aS'@@visu'
p4317
asg2917
(lp4318
I01
aI00
ag4289
asg4290
(lp4319
NaS'@@solver_subtree'
p4320
asg4291
(lp4321
I01
aI00
aS'@@subtract_after'
p4322
asg2921
(lp4323
I01
ag4292
asg4300
(lp4324
I01
aI00
aS'@@flag_residuals'
p4325
asg2923
(lp4326
Na(lp4327
I5
aI2
aa(lp4328
I2
aI2
aa(lp4329
I3
aI3
aaS'@@num_cells'
p4330
assg138
Nsg155
S'2006-04-03 12:43'
p4331
sg41
S'MG_JEN_Cohset::insert_solver()'
p4332
sg151
S'** Specific description of inarg record for: MG_JEN_Cohset::insert_solver()  version=25dec2005  defined=2006-04-03 12:43'
p4333
sg54
S'MG_JEN_Cohsetinsert_solver'
p4334
sg62
S'insert_solver'
p4335
sg140
S'** Description of available inarg record(s) for: MG_JEN_Cohset::insert_solver()  version=25dec2005  defined=2006-04-03 12:43'
p4336
sg142
I00
sg143
g4331
sg232
(dp4337
g236
S'** JEN_inarg.attach(): attached: ./MG_JEN_Cohset.solver_subtree()'
p4338
ssg156
(lp4339
g39
ag4290
ag2917
ag2923
ag2921
ag2915
ag4288
ag3044
ag4291
ag4286
ag4300
aS'./MG_JEN_Cohset.solver_subtree()'
p4340
assg2923
g4330
sg4340
(dp4341
S'rmin'
p4342
NsS'setBalanced'
p4343
I00
sg3044
I01
sS'epsilon'
p4344
F0.0001
sS'rmax'
p4345
NsS'derivative_eps'
p4346
F1e-08
sS'usesvd'
p4347
I01
sS'debug_level'
p4348
I10
sS'solvegroup'
p4349
(lp4350
g209
asg39
(dp4351
g41
S'MG_JEN_Cohset::solver_subtree()'
p4352
sg43
g4340
sg232
(dp4353
g234
S'  2: ...../MG_JEN_Cohset.solver_subtree() (qual=None): .modify(num_iter):   5  ->  2'
p4354
sg236
S"  2: ...../MG_JEN_Cohset.solver_subtree() (qual=None): .modify(solvegroup):   []  ->  ['GJones']"
p4355
ssg44
(dp4356
g4348
I01
sg4346
I01
sg4343
I01
sS'epsval'
p4357
I01
sg2923
I00
ssg54
S'MG_JEN_Cohsetsolver_subtree'
p4358
sg56
g57
sg58
S'Make a solver-subtree for the given Condeq Cohset'
p4359
sg60
S'MG_JEN_Cohset::solver_subtree()  version=20dec2005  defined=2006-04-03 12:43'
p4360
sg62
S'solver_subtree'
p4361
sg64
(dp4362
g4342
(lp4363
NaI100
aI200
aI500
aS'@@rmin'
p4364
asg3044
(lp4365
I01
aI00
aS'@@visu'
p4366
asg4344
(lp4367
F0.001
aF0.0001
aF1.0000000000000001e-05
aS'@@epsilon'
p4368
asS'colin_factor'
p4369
(lp4370
F1e-08
aF0.0
aS'@@colin_factor'
p4371
asg4345
(lp4372
NaI500
aI1000
aI2000
aS'@@rmax'
p4373
asg4346
(lp4374
F1e-08
aF0.001
aF0.0001
aF1.0000000000000001e-05
aS'@@derivative_eps'
p4375
asg4347
(lp4376
I01
aI00
aS'@@usesvd'
p4377
asg4348
(lp4378
I10
aS'@@debug_level'
p4379
asg4349
(lp4380
(lp4381
a(lp4382
g209
aa(lp4383
S'Ggain'
p4384
aa(lp4385
S'Gphase'
p4386
aa(lp4387
S'Gpol1'
p4388
aa(lp4389
S'Gpol2'
p4390
aa(lp4391
g222
aa(lp4392
g222
aS'stokesU'
p4393
aa(lp4394
g222
aS'stokesQ'
p4395
aa(lp4396
g222
aS'stokesV'
p4397
aa(lp4398
S'stokesQU'
p4399
ag222
aa(lp4400
S'stokesQUV'
p4401
ag222
aa(lp4402
g209
aS'stokesI'
p4403
aa(lp4404
g4403
aa(lp4405
S'stokesIQU'
p4406
aa(lp4407
S'stokesIQUV'
p4408
aa(lp4409
S'stokesIV'
p4410
aa(lp4411
g4399
aa(lp4412
g4401
aa(lp4413
g209
aS'DJones'
p4414
aa(lp4415
g4414
aa(lp4416
S'Dang'
p4417
aa(lp4418
S'Dell'
p4419
aa(lp4420
S'Dreal'
p4421
aa(lp4422
S'Dimag'
p4423
aa(lp4424
g209
ag4414
ag213
aa(lp4425
g213
aa(lp4426
S'EJones'
p4427
aa(lp4428
S'Epointing'
p4429
aa(lp4430
g209
ag211
aa(lp4431
g211
aa(lp4432
S'Breal'
p4433
aa(lp4434
S'Bimag'
p4435
aa(lp4436
S'Bpol1'
p4437
aa(lp4438
S'Bpol2'
p4439
aaS'@@solvegroup'
p4440
asg4357
(lp4441
F1e-08
aF0.001
aF0.0001
aF1.0000000000000001e-05
aS'@@epsval'
p4442
asg2923
(lp4443
Na(lp4444
I5
aI2
aa(lp4445
I2
aI2
aa(lp4446
I3
aI3
aaS'@@num_cells'
p4447
asg4343
(lp4448
I01
aI00
aS'@@setBalanced'
p4449
asS'num_iter'
p4450
(lp4451
I1
aI3
aI5
aI10
aI20
aS'@@num_iter'
p4452
asS'condition'
p4453
(lp4454
NaS'Gphase_X_sum=0.0'
p4455
aS'Gphase_Y_sum=0.0'
p4456
a(lp4457
g4455
ag4456
aa(lp4458
S'Gphase_X_first=0.0'
p4459
aS'Gphase_Y_first=0.0'
p4460
aa(lp4461
S'Gphase_X_last=0.0'
p4462
aS'Gphase_Y_last=0.0'
p4463
aaS'Dang_sum=0.0'
p4464
a(lp4465
S'Bimag_X_sum=0.0'
p4466
aS'Bimag_Y_sum=0.0'
p4467
aa(lp4468
S'Breal_X_product=1.0'
p4469
aS'Breal_Y_product=1.0'
p4470
aaS'@@condition'
p4471
asS'history'
p4472
(lp4473
I01
aI00
aS'@@history'
p4474
assg138
Nsg140
S'** Description of available inarg record(s) for: MG_JEN_Cohset::solver_subtree()  version=20dec2005  defined=2006-04-03 12:43'
p4475
sg145
S'20dec2005'
p4476
sg143
S'2006-04-03 12:43'
p4477
sg147
S'MG_JEN_Cohset'
p4478
sg149
(dp4479
g4347
I00
sg4343
I00
sg3044
I00
sg4472
I00
ssg151
S'** Specific description of inarg record for: MG_JEN_Cohset::solver_subtree()  version=20dec2005  defined=2006-04-03 12:43'
p4480
sg142
I00
sg155
g4477
sg156
(lp4481
g39
ag4349
ag4453
ag4342
ag4345
ag2923
ag4450
ag4344
ag4357
ag4346
ag4369
ag4347
ag4343
ag4348
ag3044
ag4472
asg158
(dp4482
g4342
S'if specified, only use baselines>=rmin'
p4483
sg3044
S'if True, include visualisation'
p4484
sg4344
S'iteration control criterion...'
p4485
sg4369
S'colinearity factor'
p4486
sg4345
S'if specified, only use baselines<=rmax'
p4487
sg4346
S'NEW: also iteration control...'
p4488
sg4347
S'if True, use Singular Value Decomposition (SVD)'
p4489
sg4348
S'solver debug_level'
p4490
sg4349
S'solvegroup: list of parmgroups, to be solved for:\n- [GJones]:  all GJones MeqParms\n- [Ggain]:   GJones station gains (both pols)\n- [Gphase]:  GJones station phases (both pols)\n- [Gpol1]:   All GJones MeqParms for pol1 (X or R)\n- [Gpol2]:   All GJones MeqParms for pol2 (Y or L)\n- [JJones,stokesU]:     actually solves for U!\n- [JJones,stokesQ]:     -> zero Q(?), but better freq sol(?)\n- [JJones,stokesV]:     -> punit V(?)...\n- [stokesI]:    stokes I (incl SI(f), if relevant)\n- [stokesIQU]:  stokes I,Q,U (incl RM and SI(f))\n- [stokesIQUV]: stokes I,Q,U,V (incl RM and SI(f))'
p4491
sg4357
S'NEW: WNB version of epsilon....'
p4492
sg2923
g2924
sg4343
S'NEW: if True, add (..) to diagonal, otherwise multiply (1+lambda)'
p4493
sg4450
S'max number of iterations (now also in fitter)'
p4494
sg4453
S'(list of) extra condition equations:\n- [...phase_sum=0.0]:   sum of phases = zero\n- [...phase_first=0.0]: phase of first station = zero\n- [...phase_last=0.0]:  phase of last station = zero\n- [Dang_sum=0.0]:   sum of dipole pos.angle errors = zero\n- [...imag_sum=0.0]:   sum of imag.parts = zero\n- [...real_product=1.0]:   product of real.parts = unity'
p4495
sg4472
S'if True, include history collection of metrics'
p4496
sssg2923
Nsg4357
F1e-08
sg4472
I01
sg4450
I2
sg4453
Nsg4369
F0.0
ssg4300
I00
ss.