(dp0
S'add_to_existing'
p1
I00
sS'polrep'
p2
S'linear'
p3
sS'_JEN_inarg_separator_record:_1'
p4
(dp5
S'txt'
p6
S'uv-data (MS) stream_control'
p7
ssS'script_name'
p8
S'MG_JEN_simul'
p9
sS'ms_name'
p10
S'D1.MS'
p11
sS'parmtable'
p12
S'simul_GJones'
p13
sS'insert_solver'
p14
I00
sS'[solve_uvp]./MG_JEN_Cohset.Jones()'
p15
(dp16
g2
S'@@polrep'
p17
sS'_JEN_inarg_CTRL_record:'
p18
(dp19
S'target_definition'
p20
S'MG_JEN_Cohset::Jones()'
p21
sS'localscope'
p22
g15
sS'hide'
p23
(dp24
g2
I01
sS'stations'
p25
I01
sS'uvplane_effect'
p26
I01
sg12
I01
sS'@Jsequence_KJones'
p27
I01
sS'@Jsequence_simul'
p28
I01
sS'@Jsequence'
p29
I01
ssS'barescope'
p30
S'MG_JEN_CohsetJones'
p31
sS'target_dir'
p32
S'.'
p33
sS'oneliner'
p34
S'MG_JEN_Cohset::Jones()  version=25dec2005  defined=2006-03-31 16:56'
p35
sS'target_function'
p36
S'Jones'
p37
sS'choice'
p38
(dp39
g2
(lp40
g3
aS'circular'
p41
ag17
asg25
(lp42
(lp43
I0
aI1
aI2
aI3
aI4
aa(lp44
I0
aI1
aI2
aI3
aI4
aI5
aI6
aa(lp45
I0
aI1
aI2
aI3
aI4
aI5
aI6
aI7
aI8
aI9
aI10
aI11
aI12
aI13
aa(lp46
I0
aI1
aI2
aI3
aI4
aI5
aI6
aI7
aI8
aI9
aI10
aI11
aI12
aI13
aI14
aaS'range(5)'
p47
aS'@@stations'
p48
asS'Jsequence_solve_uvp'
p49
(lp50
(lp51
S'GJones'
p52
aa(lp53
S'BJones'
p54
aa(lp55
S'FJones'
p56
aa(lp57
S'KJones'
p58
aa(lp59
S'DJones_WSRT'
p60
aa(lp61
g52
ag60
aa(lp62
S'EJones_WSRT'
p63
aa(lp64
g52
ag63
aa(lp65
S'JJones'
p66
aa(lp67
aS'@@Jsequence_solve_uvp'
p68
asg26
(lp69
I00
aS'@@uvplane_effect'
p70
asg12
(lp71
NaS'test'
p72
aS'@@parmtable'
p73
asg27
(lp74
NaS'@@@Jsequence_KJones'
p75
asg28
(lp76
NaS'@@@Jsequence_simul'
p77
asg29
(lp78
NaS'@@@Jsequence'
p79
assS'qual'
p80
S'solve_uvp'
p81
sS'protected'
p82
I00
sS'datetime_defined'
p83
S'2006-03-31 16:56'
p84
sS'version'
p85
S'25dec2005'
p86
sS'target_module'
p87
S'MG_JEN_Cohset'
p88
sS'inarg_specific'
p89
S'** Specific description of inarg record for: MG_JEN_Cohset::Jones()  version=25dec2005  defined=2006-03-31 16:56'
p90
sS'MESSAGE'
p91
(dp92
S'1'
p93
S'** JEN_inarg.attach(): attached: [solve_uvp]./MG_JEN_Joneset.FJones()'
p94
sS'0'
p95
S'** JEN_inarg.attach(): attached: [solve_uvp]./MG_JEN_Joneset.GJones()'
p96
sS'3'
p97
S'** JEN_inarg.attach(): attached: [solve_uvp]./MG_JEN_Joneset.KJones()'
p98
sS'2'
p99
S'** JEN_inarg.attach(): attached: [solve_uvp]./MG_JEN_Joneset.BJones()'
p100
sS'5'
p101
S'** JEN_inarg.attach(): attached: [solve_uvp]./MG_JEN_Joneset.EJones_WSRT()'
p102
sS'4'
p103
S'** JEN_inarg.attach(): attached: [solve_uvp]./MG_JEN_Joneset.DJones_WSRT()'
p104
sS'7'
p105
S"  1: ..[solve_uvp]./MG_JEN_Cohset.Jones() (qual=None): .modify(Jsequence_solve_uvp):   []  ->  ['GJones']"
p106
sS'6'
p107
S'** JEN_inarg.attach(): attached: [solve_uvp]./MG_JEN_Joneset.JJones()'
p108
ssS'last_edited'
p109
g84
sS'mutable'
p110
(dp111
g26
I00
sg12
I00
sg2
I00
sg25
I00
ssS'order'
p112
(lp113
g18
ag25
ag2
ag29
ag28
ag27
ag12
ag26
ag49
aS'[solve_uvp]./MG_JEN_Joneset.GJones()'
p114
aS'[solve_uvp]./MG_JEN_Joneset.FJones()'
p115
aS'[solve_uvp]./MG_JEN_Joneset.BJones()'
p116
aS'[solve_uvp]./MG_JEN_Joneset.KJones()'
p117
aS'[solve_uvp]./MG_JEN_Joneset.DJones_WSRT()'
p118
aS'[solve_uvp]./MG_JEN_Joneset.EJones_WSRT()'
p119
aS'[solve_uvp]./MG_JEN_Joneset.JJones()'
p120
asS'help'
p121
(dp122
g2
S'polarisation representation'
p123
sg25
S'the (subset of) stations to be used'
p124
sg49
S'sequence of Jones matrices to be used'
p125
sg26
S'if True, the Joneset reprsents uv-plane effects (q=uvp)'
p126
sg12
S'name of the MeqParm table to be used'
p127
sg27
S'list membership indication (used in JEN_inargGui)'
p128
sg28
g128
sg29
g128
ssS'description'
p129
S'Make a Joneset by creating and multiplying a sequence of one ore more Jonesets'
p130
ssg25
g48
sg120
(dp131
S'reset_funklet'
p132
I00
sg2
S'@@polrep'
p133
sS'tdeg_Jreal'
p134
I0
sS'color'
p135
S'red'
p136
sS'save_all'
p137
I00
sS'all4_always'
p138
Nsg12
S'@@parmtable'
p139
sS'subtile_size_Jreal'
p140
NsS'unit'
p141
NsS'size'
p142
I10
sS'style'
p143
S'circle'
p144
sS'tdeg_Jimag'
p145
S'@tdeg_Jreal'
p146
sS'descr'
p147
S'<descr>'
p148
sS'condeq_corrs'
p149
S'*'
p150
sS'funklet_shape'
p151
Nsg18
(dp152
g20
S'MG_JEN_Joneset::JJones()'
p153
sg22
g120
sg23
(dp154
g143
I01
sg2
I01
sS'c00_default'
p155
I01
sg147
I01
sg25
I01
sg135
I01
sg151
I01
sg149
I01
sg26
I01
sS'subtile_size'
p156
I01
sS'tfdeg'
p157
I01
sg12
I01
sg27
I01
sg28
I01
sg29
I01
sg141
I01
sg142
I01
ssg30
S'MG_JEN_JonesetJJones'
p158
sg32
g33
sg129
S'Defines diagonal 2x2 Jones matrices for full polarisation:\n    Jjones(station,source) matrix elements:\n    - J_11 = (Jreal_11,Jimag_11)\n    - J_12 = (Jreal_12,Jimag_12)\n    - J_21 = (Jreal_21,Jimag_21)\n    - J_22 = (Jreal_22,Jimag_22)\n    For circular polarisation, R and L are used rather than X and Y\n    '
p159
sg34
S'MG_JEN_Joneset::JJones()  version=14feb2006  defined=2006-03-31 16:56'
p160
sg36
S'JJones'
p161
sg38
(dp162
g132
(lp163
I01
aI00
aS'@@reset_funklet'
p164
asg2
(lp165
g3
ag41
ag133
asg134
(lp166
I0
aI1
aI2
aI3
aS'@@tdeg_Jreal'
p167
asg135
(lp168
g136
aS'@@color'
p169
asg137
(lp170
I01
aI00
aS'@@save_all'
p171
asg138
(lp172
Na(lp173
I14
aa(lp174
I1
aaS'WSRT/WHAT'
p175
aS'@@all4_always'
p176
asg12
(lp177
Nag72
ag139
asg140
(lp178
NaI1
aI2
aI5
aI10
aI20
aI50
aI100
aI200
aI500
aS'@@subtile_size_Jreal'
p179
asS'auto_save'
p180
(lp181
I01
aI00
aS'@@auto_save'
p182
asg142
(lp183
I10
aS'@@size'
p184
asg143
(lp185
g144
aS'@@style'
p186
asg145
(lp187
I0
aI1
aI2
aI3
ag146
aS'@@tdeg_Jimag'
p188
asg147
(lp189
g148
aS'@@descr'
p190
asg149
(lp191
g150
aS'@@condeq_corrs'
p192
asg151
(lp193
NaS'@@funklet_shape'
p194
asg141
(lp195
NaS'@@unit'
p196
asg27
(lp197
g66
aS'@@@Jsequence_KJones'
p198
asS'fdeg_Jreal'
p199
(lp200
I0
aI1
aI2
aI3
aS'@@fdeg_Jreal'
p201
asg155
(lp202
F1.0
aS'@@c00_default'
p203
asg26
(lp204
I00
aS'@@uvplane_effect'
p205
asS'fdeg_Jimag'
p206
(lp207
I0
aI1
aI2
aI3
aS'@fdeg_Jreal'
p208
aS'@@fdeg_Jimag'
p209
asS'subtile_size_Jimag'
p210
(lp211
S'@subtile_size_Jreal'
p212
aNaI1
aI2
aI5
aI10
aI20
aI50
aI100
aI200
aI500
aS'@@subtile_size_Jimag'
p213
asg25
(lp214
(lp215
I0
aI1
aI2
aI3
aI4
aa(lp216
I0
aI1
aI2
aI3
aI4
aI5
aI6
aa(lp217
I0
aI1
aI2
aI3
aI4
aI5
aI6
aI7
aI8
aI9
aI10
aI11
aI12
aI13
aa(lp218
I0
aI1
aI2
aI3
aI4
aI5
aI6
aI7
aI8
aI9
aI10
aI11
aI12
aI13
aI14
aag47
aS'@@stations'
p219
asS'diagonal_only'
p220
(lp221
I01
aI00
aS'@@diagonal_only'
p222
asS'use_previous'
p223
(lp224
I01
aI00
aS'@@use_previous'
p225
asg156
(lp226
NaS'@@subtile_size'
p227
asg157
(lp228
NaS'@@tfdeg'
p229
asg28
(lp230
g66
aS'@@@Jsequence_simul'
p231
asg29
(lp232
g66
aS'@@@Jsequence'
p233
assg80
g81
sg82
I00
sg83
S'2006-03-31 16:56'
p234
sg85
S'14feb2006'
p235
sg87
S'MG_JEN_Joneset'
p236
sS'editable'
p237
(dp238
g132
I00
sg223
I00
sg220
I00
sg180
I00
sg137
I00
ssg89
S'** Specific description of inarg record for: MG_JEN_Joneset::JJones()  version=14feb2006  defined=2006-03-31 16:56'
p239
sg110
(dp240
g26
I00
sg12
I00
sg2
I00
sg25
I00
ssg109
g234
sg112
(lp241
g18
ag25
ag2
ag29
ag28
ag27
ag220
ag138
ag12
ag26
ag134
ag145
ag199
ag206
ag140
ag210
ag223
ag180
ag137
ag132
ag147
ag141
ag135
ag143
ag142
ag155
ag157
ag151
ag156
ag149
asg121
(dp242
g132
S'if True, do NOT use any MeqParm table values when solvable'
p243
sg2
g123
sg134
S'degree of time polynomial'
p244
sg135
S'plot_color'
p245
sg137
S'if True, save the update result even if not converged'
p246
sg138
S'stations for which all 4 elements will always be solved for'
p247
sg12
g127
sg140
S'sub-tile size (None=entire tile)'
p248
sg180
S'if True, save the result of every iteration (slow!)'
p249
sg142
S'size of plotted symbol'
p250
sg143
S'plot_style'
p251
sg145
g244
sg147
S'brief description'
p252
sg149
S'correlations to be used for solving'
p253
sg151
S'shape [time,freq] of default funklet'
p254
sg141
g141
sg27
g128
sg199
S'degree of freq polynomial'
p255
sg155
S'default value of c[0,0] coefficient'
p256
sg26
g126
sg206
g255
sg210
g248
sg25
g124
sg220
S'if True, solve for diagonal (11,22) elements only'
p257
sg223
S'if True, start with the previous solution'
p258
sg156
S'size (time-slots) of a domain sub-tile'
p259
sg157
S'(time,freq) polynomial degree'
p260
sg28
g128
sg29
g128
sssg27
g66
sg199
I0
sg155
F1.0
sg26
g205
sg206
g208
sg210
g212
sg25
g219
sg220
I00
sg223
I01
sg156
Nsg157
Nsg28
g66
sg29
g66
sg180
I01
ssg117
(dp261
g2
S'@@polrep'
p262
sg25
S'@@stations'
p263
sg18
(dp264
g20
S'MG_JEN_Joneset::KJones()'
p265
sg22
g117
sg23
(dp266
g27
I01
sg28
I01
sg25
I01
sg2
I01
sg29
I01
ssg30
S'MG_JEN_JonesetKJones'
p267
sg32
g33
sg129
S'defines diagonal KJones matrices for DFT Fourier kernel'
p268
sg34
S'MG_JEN_Joneset::KJones()  version=12dec2005  defined=2006-03-31 16:56'
p269
sg36
S'KJones'
p270
sg38
(dp271
g27
(lp272
g58
aS'@@@Jsequence_KJones'
p273
asg28
(lp274
g58
aS'@@@Jsequence_simul'
p275
asg25
(lp276
(lp277
I0
aI1
aI2
aI3
aI4
aa(lp278
I0
aI1
aI2
aI3
aI4
aI5
aI6
aa(lp279
I0
aI1
aI2
aI3
aI4
aI5
aI6
aI7
aI8
aI9
aI10
aI11
aI12
aI13
aa(lp280
I0
aI1
aI2
aI3
aI4
aI5
aI6
aI7
aI8
aI9
aI10
aI11
aI12
aI13
aI14
aag47
ag263
asg2
(lp281
g3
ag41
ag262
asg29
(lp282
g58
aS'@@@Jsequence'
p283
assg80
g81
sg82
I00
sg83
S'2006-03-31 16:56'
p284
sg85
S'12dec2005'
p285
sg87
S'MG_JEN_Joneset'
p286
sg89
S'** Specific description of inarg record for: MG_JEN_Joneset::KJones()  version=12dec2005  defined=2006-03-31 16:56'
p287
sg110
(dp288
g2
I00
sg25
I00
ssg109
g284
sg112
(lp289
g18
ag25
ag2
ag29
ag28
ag27
asg121
(dp290
g27
g128
sg28
g128
sg25
g124
sg2
g123
sg29
g128
sssg27
g58
sg28
g58
sg29
g58
ssg49
(lp291
g52
asg26
g70
sg12
g73
sg116
(dp292
g132
I00
sg2
S'@@polrep'
p293
sg135
g136
sS'subtile_size_Bimag'
p294
S'@subtile_size_Breal'
p295
sg137
I00
sS'subtile_size_Breal'
p296
Nsg141
Nsg142
I10
sg143
g144
sg147
g148
sS'fdeg_Breal'
p297
I5
sg149
g150
sg151
Nsg18
(dp298
g20
S'MG_JEN_Joneset::BJones()'
p299
sg22
g116
sg23
(dp300
g143
I01
sg2
I01
sg155
I01
sg147
I01
sg25
I01
sg135
I01
sg151
I01
sg149
I01
sg26
I01
sg156
I01
sg157
I01
sg12
I01
sg27
I01
sg28
I01
sg29
I01
sg141
I01
sg142
I01
ssg30
S'MG_JEN_JonesetBJones'
p301
sg32
g33
sg129
S'Defines diagonal 2x2 Jones matrices that represent the IF bandpass:\n    Bjones(station,source) matrix elements:\n    - B_11 = (Breal_X,Bimag_X)\n    - B_12 = 0\n    - B_21 = 0\n    - B_22 = (Breal_Y,Bimag_Y)\n    For circular polarisation, R and L are used rather than X and Y\n    NB: The main differences with Gjones are:\n      - the higher-order (~5) freq-polynomial\n      - solving for real/imag rather than gain/phase \n    '
p302
sg34
S'MG_JEN_Joneset::BJones()  version=16dec2005  defined=2006-03-31 16:56'
p303
sg36
S'BJones'
p304
sg38
(dp305
g132
(lp306
I01
aI00
aS'@@reset_funklet'
p307
asg2
(lp308
g3
ag41
ag293
asg135
(lp309
g136
aS'@@color'
p310
asg294
(lp311
g295
aNaI1
aI2
aI5
aI10
aI20
aI50
aI100
aI200
aI500
aS'@@subtile_size_Bimag'
p312
asg137
(lp313
I01
aI00
aS'@@save_all'
p314
asg296
(lp315
NaI1
aI2
aI5
aI10
aI20
aI50
aI100
aI200
aI500
aS'@@subtile_size_Breal'
p316
asg180
(lp317
I01
aI00
aS'@@auto_save'
p318
asg142
(lp319
I10
aS'@@size'
p320
asg143
(lp321
g144
aS'@@style'
p322
asg147
(lp323
g148
aS'@@descr'
p324
asg297
(lp325
I3
aI4
aI5
aI6
aS'@@fdeg_Breal'
p326
asg149
(lp327
g150
aS'@@condeq_corrs'
p328
asg151
(lp329
NaS'@@funklet_shape'
p330
asg141
(lp331
NaS'@@unit'
p332
asg27
(lp333
g54
aS'@@@Jsequence_KJones'
p334
asS'tdeg_Bimag'
p335
(lp336
I0
aI1
aI2
aI3
aS'@tdeg_Breal'
p337
aS'@@tdeg_Bimag'
p338
asg29
(lp339
g54
aS'@@@Jsequence'
p340
asg155
(lp341
F1.0
aS'@@c00_default'
p342
asS'fdeg_Bimag'
p343
(lp344
I3
aI4
aI5
aI6
aS'@fdeg_Breal'
p345
aS'@@fdeg_Bimag'
p346
asg26
(lp347
I00
aS'@@uvplane_effect'
p348
asg12
(lp349
Nag72
aS'@@parmtable'
p350
asg25
(lp351
(lp352
I0
aI1
aI2
aI3
aI4
aa(lp353
I0
aI1
aI2
aI3
aI4
aI5
aI6
aa(lp354
I0
aI1
aI2
aI3
aI4
aI5
aI6
aI7
aI8
aI9
aI10
aI11
aI12
aI13
aa(lp355
I0
aI1
aI2
aI3
aI4
aI5
aI6
aI7
aI8
aI9
aI10
aI11
aI12
aI13
aI14
aag47
aS'@@stations'
p356
asS'tdeg_Breal'
p357
(lp358
I0
aI1
aI2
aI3
aS'@@tdeg_Breal'
p359
asg223
(lp360
I01
aI00
aS'@@use_previous'
p361
asg156
(lp362
NaS'@@subtile_size'
p363
asg157
(lp364
NaS'@@tfdeg'
p365
asg28
(lp366
g54
aS'@@@Jsequence_simul'
p367
assg80
g81
sg82
I00
sg83
S'2006-03-31 16:56'
p368
sg85
S'16dec2005'
p369
sg87
S'MG_JEN_Joneset'
p370
sg237
(dp371
g132
I00
sg223
I00
sg180
I00
sg137
I00
ssg89
S'** Specific description of inarg record for: MG_JEN_Joneset::BJones()  version=16dec2005  defined=2006-03-31 16:56'
p372
sg110
(dp373
g26
I00
sg12
I00
sg2
I00
sg25
I00
ssg109
g368
sg112
(lp374
g18
ag25
ag2
ag29
ag28
ag27
ag12
ag26
ag357
ag335
ag297
ag343
ag296
ag294
ag223
ag180
ag137
ag132
ag147
ag141
ag135
ag143
ag142
ag155
ag157
ag151
ag156
ag149
asg121
(dp375
g132
g243
sg2
g123
sg135
g245
sg294
S'sub-tile size (None=entire tile)'
p376
sg137
g246
sg296
g376
sg180
g249
sg142
g250
sg143
g251
sg147
g252
sg297
S'degree of freq polynomial'
p377
sg149
g253
sg151
g254
sg141
g141
sg27
g128
sg335
S'degree of time polynomial'
p378
sg29
g128
sg155
g256
sg343
g377
sg26
g126
sg12
g127
sg25
g124
sg357
g378
sg223
g258
sg156
g259
sg157
g260
sg28
g128
sssg27
g54
sg335
g337
sg29
g54
sg155
F1.0
sg343
g345
sg26
g348
sg12
g350
sg25
g356
sg357
I0
sg223
I01
sg156
Nsg157
Nsg28
g54
sg180
I01
ssg115
(dp379
g132
I00
sg2
S'@@polrep'
p380
sg135
g136
sg137
I00
sg12
S'@@parmtable'
p381
sg141
Nsg142
I10
sg143
g144
sg147
g148
sg149
g150
sg151
Nsg18
(dp382
g20
S'MG_JEN_Joneset::FJones()'
p383
sg22
g115
sg23
(dp384
g143
I01
sg2
I01
sg155
I01
sg147
I01
sg25
I01
sg135
I01
sg151
I01
sg149
I01
sg26
I01
sg156
I01
sg157
I01
sg12
I01
sg27
I01
sg28
I01
sg29
I01
sg141
I01
sg142
I01
ssg30
S'MG_JEN_JonesetFJones'
p385
sg32
g33
sg129
S'defines diagonal FJones Faraday rotation matrices'
p386
sg34
S'MG_JEN_Joneset::FJones()  version=16dec2005  defined=2006-03-31 16:56'
p387
sg36
S'FJones'
p388
sg38
(dp389
g132
(lp390
I01
aI00
aS'@@reset_funklet'
p391
asg2
(lp392
g3
ag41
ag380
asg135
(lp393
g136
aS'@@color'
p394
asg137
(lp395
I01
aI00
aS'@@save_all'
p396
asg157
(lp397
NaS'@@tfdeg'
p398
asg180
(lp399
I01
aI00
aS'@@auto_save'
p400
asg142
(lp401
I10
aS'@@size'
p402
asg143
(lp403
g144
aS'@@style'
p404
asg147
(lp405
g148
aS'@@descr'
p406
asg149
(lp407
g150
aS'@@condeq_corrs'
p408
asg151
(lp409
NaS'@@funklet_shape'
p410
asg141
(lp411
NaS'@@unit'
p412
asg27
(lp413
g56
aS'@@@Jsequence_KJones'
p414
asg29
(lp415
g56
aS'@@@Jsequence'
p416
asg155
(lp417
F1.0
aS'@@c00_default'
p418
asg26
(lp419
I00
aS'@@uvplane_effect'
p420
asg25
(lp421
(lp422
I0
aI1
aI2
aI3
aI4
aa(lp423
I0
aI1
aI2
aI3
aI4
aI5
aI6
aa(lp424
I0
aI1
aI2
aI3
aI4
aI5
aI6
aI7
aI8
aI9
aI10
aI11
aI12
aI13
aa(lp425
I0
aI1
aI2
aI3
aI4
aI5
aI6
aI7
aI8
aI9
aI10
aI11
aI12
aI13
aI14
aag47
aS'@@stations'
p426
asS'tdeg_RM'
p427
(lp428
I0
aI1
aI2
aI3
aS'@@tdeg_RM'
p429
asg223
(lp430
I01
aI00
aS'@@use_previous'
p431
asS'fdeg_RM'
p432
(lp433
I0
aI1
aI2
aI3
aS'@@fdeg_RM'
p434
asg156
(lp435
NaS'@@subtile_size'
p436
asg12
(lp437
Nag72
ag381
asS'subtile_size_RM'
p438
(lp439
NaI1
aI2
aI5
aI10
aI20
aI50
aI100
aI200
aI500
aS'@@subtile_size_RM'
p440
asg28
(lp441
g56
aS'@@@Jsequence_simul'
p442
assg80
g81
sg82
I00
sg83
S'2006-03-31 16:56'
p443
sg85
g369
sg87
S'MG_JEN_Joneset'
p444
sg237
(dp445
g132
I00
sg223
I00
sg180
I00
sg137
I00
ssg89
S'** Specific description of inarg record for: MG_JEN_Joneset::FJones()  version=16dec2005  defined=2006-03-31 16:56'
p446
sg110
(dp447
g26
I00
sg12
I00
sg2
I00
sg25
I00
ssg109
g443
sg112
(lp448
g18
ag25
ag2
ag29
ag28
ag27
ag12
ag26
ag427
ag432
ag438
ag223
ag180
ag137
ag132
ag147
ag141
ag135
ag143
ag142
ag155
ag157
ag151
ag156
ag149
asg121
(dp449
g132
g243
sg2
g123
sg135
g245
sg137
g246
sg157
g260
sg180
g249
sg142
g250
sg143
g251
sg147
g252
sg149
g253
sg151
g254
sg141
g141
sg27
g128
sg29
g128
sg155
g256
sg26
g126
sg25
g124
sg427
S'degree of time polynomial'
p450
sg223
g258
sg432
S'degree of freq polynomial'
p451
sg156
g259
sg12
g127
sg438
S'sub-tile size (None=entire tile)'
p452
sg28
g128
sssg27
g56
sg29
g56
sg155
F1.0
sg26
g420
sg25
g426
sg427
I0
sg223
I01
sg432
I2
sg156
Nsg157
Nsg438
I1
sg28
g56
sg180
I01
ssg114
(dp453
g132
I00
sg2
S'@@polrep'
p454
sS'fdeg_Ggain'
p455
I0
sg135
g136
sg137
I00
sg12
S'@@parmtable'
p456
sg141
Nsg142
I10
sg143
g144
sg147
g148
sS'subtile_size_Ggain'
p457
I1
sg149
g150
sg151
Nsg18
(dp458
g20
S'MG_JEN_Joneset::GJones()'
p459
sg22
g114
sg23
(dp460
g143
I01
sg2
I01
sg155
I01
sg147
I01
sg25
I01
sg135
I01
sg29
I01
sg151
I01
sg149
I01
sg26
I01
sg156
I01
sg157
I01
sg12
I01
sg27
I01
sg28
I01
sS'Gpolar'
p461
I01
sg141
I01
sg142
I01
ssg30
S'MG_JEN_JonesetGJones'
p462
sg32
g33
sg129
S'Defines diagonal 2x2 Jones matrices that represent complex gain:\n    Gjones(station,source) matrix elements:\n    - G_11 = Ggain_X*exp(iGphase_X)\n    - G_12 = 0\n    - G_21 = 0\n    - G_22 = Ggain_Y*exp(iGphase_Y)\n    For circular polarisation, R and L are used rather than X and Y\n    '
p463
sg34
S'MG_JEN_Joneset::GJones()  version=15dec2005  defined=2006-03-31 16:56'
p464
sg36
S'GJones'
p465
sg38
(dp466
g132
(lp467
I01
aI00
aS'@@reset_funklet'
p468
asg2
(lp469
g3
ag41
ag454
asg455
(lp470
I0
aI1
aI2
aI3
aS'@@fdeg_Ggain'
p471
asg135
(lp472
g136
aS'@@color'
p473
asg137
(lp474
I01
aI00
aS'@@save_all'
p475
asg12
(lp476
Nag72
ag456
asg180
(lp477
I01
aI00
aS'@@auto_save'
p478
asg142
(lp479
I10
aS'@@size'
p480
asg143
(lp481
g144
aS'@@style'
p482
asg147
(lp483
g148
aS'@@descr'
p484
asg457
(lp485
NaI1
aI2
aI5
aI10
aI20
aI50
aI100
aI200
aI500
aS'@@subtile_size_Ggain'
p486
asg149
(lp487
g150
aS'@@condeq_corrs'
p488
asg151
(lp489
NaS'@@funklet_shape'
p490
asg141
(lp491
NaS'@@unit'
p492
asg27
(lp493
g52
aS'@@@Jsequence_KJones'
p494
asg29
(lp495
g52
aS'@@@Jsequence'
p496
asg155
(lp497
F1.0
aS'@@c00_default'
p498
asS'tdeg_Gphase'
p499
(lp500
I0
aI1
aI2
aI3
aS'@tdeg_Ggain'
p501
aS'@@tdeg_Gphase'
p502
asS'tdeg_Ggain'
p503
(lp504
I0
aI1
aI2
aI3
aS'@@tdeg_Ggain'
p505
asS'fdeg_Gphase'
p506
(lp507
I0
aI1
aI2
aI3
aS'@fdeg_Ggain'
p508
aS'@@fdeg_Gphase'
p509
asS'subtile_size_Gphase'
p510
(lp511
S'@subtile_size_Ggain'
p512
aNaI1
aI2
aI5
aI10
aI20
aI50
aI100
aI200
aI500
aS'@@subtile_size_Gphase'
p513
asg461
(lp514
I01
aI00
aS'@@Gpolar'
p515
asg26
(lp516
I00
aS'@@uvplane_effect'
p517
asg25
(lp518
(lp519
I0
aI1
aI2
aI3
aI4
aa(lp520
I0
aI1
aI2
aI3
aI4
aI5
aI6
aa(lp521
I0
aI1
aI2
aI3
aI4
aI5
aI6
aI7
aI8
aI9
aI10
aI11
aI12
aI13
aa(lp522
I0
aI1
aI2
aI3
aI4
aI5
aI6
aI7
aI8
aI9
aI10
aI11
aI12
aI13
aI14
aag47
aS'@@stations'
p523
asg223
(lp524
I01
aI00
aS'@@use_previous'
p525
asg156
(lp526
NaS'@@subtile_size'
p527
asg157
(lp528
NaS'@@tfdeg'
p529
asg28
(lp530
g52
aS'@@@Jsequence_simul'
p531
assg80
g81
sg82
I00
sg83
S'2006-03-31 16:56'
p532
sg85
S'15dec2005'
p533
sg87
S'MG_JEN_Joneset'
p534
sg237
(dp535
g132
I00
sg223
I00
sg461
I00
sg180
I00
sg137
I00
ssg89
S'** Specific description of inarg record for: MG_JEN_Joneset::GJones()  version=15dec2005  defined=2006-03-31 16:56'
p536
sg110
(dp537
g26
I00
sg12
I00
sg2
I00
sg25
I00
ssg109
g532
sg112
(lp538
g18
ag25
ag2
ag29
ag28
ag27
ag461
ag12
ag26
ag503
ag499
ag455
ag506
ag457
ag510
ag223
ag180
ag137
ag132
ag147
ag141
ag135
ag143
ag142
ag155
ag157
ag151
ag156
ag149
asg121
(dp539
g132
g243
sg2
g123
sg455
S'degree of freq polynomial'
p540
sg135
g245
sg137
g246
sg12
g127
sg180
g249
sg142
g250
sg143
g251
sg147
g252
sg457
S'sub-tile size (None=entire tile)'
p541
sg149
g253
sg151
g254
sg141
g141
sg27
g128
sg29
g128
sg155
g256
sg499
S'degree of time polynomial'
p542
sg503
g542
sg506
g540
sg510
g541
sg461
S'obsolete, kept only for upward compatibility'
p543
sg26
g126
sg25
g124
sg223
g258
sg156
g259
sg157
g260
sg28
g128
sssg27
g52
sg29
g52
sg155
F1.0
sg499
g501
sg503
I0
sg506
g508
sg510
g512
sg461
I01
sg26
g517
sg25
g523
sg223
I01
sg156
Nsg157
Nsg28
g52
sg180
I01
ssg118
(dp544
g132
I00
sg2
S'@@polrep'
p545
sg135
g136
sS'fdeg_Dell'
p546
S'@fdeg_Dang'
p547
sS'coupled_XY_Dell'
p548
I01
sg137
I00
sg141
Nsg12
S'@@parmtable'
p549
sS'subtile_size_Dang'
p550
Nsg180
I01
sg142
I10
sg143
g144
sg147
g148
sg149
g150
sg151
Nsg18
(dp551
g20
S'MG_JEN_Joneset::DJones_WSRT()'
p552
sg22
g118
sg23
(dp553
g143
I01
sg2
I01
sg155
I01
sg147
I01
sg25
I01
sg135
I01
sg151
I01
sg149
I01
sg26
I01
sg156
I01
sg157
I01
sg12
I01
sg27
I01
sg28
I01
sg29
I01
sg141
I01
sg142
I01
ssg30
S'MG_JEN_JonesetDJones_WSRT'
p554
sg32
g33
sg129
S'defines 2x2 DJones_WSRT (polarisation leakage) matrices'
p555
sg34
S'MG_JEN_Joneset::DJones_WSRT()  version=16dec2005  defined=2006-03-31 16:56'
p556
sg36
S'DJones_WSRT'
p557
sg38
(dp558
g132
(lp559
I01
aI00
aS'@@reset_funklet'
p560
asg2
(lp561
g3
ag41
ag545
asg135
(lp562
g136
aS'@@color'
p563
asg546
(lp564
I0
aI1
aI2
aI3
ag547
aS'@@fdeg_Dell'
p565
asg548
(lp566
I01
aI00
aS'@@coupled_XY_Dell'
p567
asg137
(lp568
I01
aI00
aS'@@save_all'
p569
asg12
(lp570
Nag72
ag549
asg550
(lp571
NaI1
aI2
aI5
aI10
aI20
aI50
aI100
aI200
aI500
aS'@@subtile_size_Dang'
p572
asg180
(lp573
I01
aI00
aS'@@auto_save'
p574
asg142
(lp575
I10
aS'@@size'
p576
asg143
(lp577
g144
aS'@@style'
p578
asg147
(lp579
g148
aS'@@descr'
p580
asg149
(lp581
g150
aS'@@condeq_corrs'
p582
asg151
(lp583
NaS'@@funklet_shape'
p584
asg141
(lp585
NaS'@@unit'
p586
asg27
(lp587
g60
aS'@@@Jsequence_KJones'
p588
asS'subtile_size_Dell'
p589
(lp590
S'@subtile_size_Dang'
p591
aNaI1
aI2
aI5
aI10
aI20
aI50
aI100
aI200
aI500
aS'@@subtile_size_Dell'
p592
asg29
(lp593
g60
aS'@@@Jsequence'
p594
asS'fdeg_Dang'
p595
(lp596
I0
aI1
aI2
aI3
aS'@@fdeg_Dang'
p597
asg155
(lp598
F1.0
aS'@@c00_default'
p599
asg26
(lp600
I00
aS'@@uvplane_effect'
p601
asS'tdeg_Dell'
p602
(lp603
I0
aI1
aI2
aI3
aS'@tdeg_Dang'
p604
aS'@@tdeg_Dell'
p605
asS'coupled_XY_Dang'
p606
(lp607
I01
aI00
aS'@@coupled_XY_Dang'
p608
asS'tdeg_Dang'
p609
(lp610
I0
aI1
aI2
aI3
aS'@@tdeg_Dang'
p611
asg25
(lp612
(lp613
I0
aI1
aI2
aI3
aI4
aa(lp614
I0
aI1
aI2
aI3
aI4
aI5
aI6
aa(lp615
I0
aI1
aI2
aI3
aI4
aI5
aI6
aI7
aI8
aI9
aI10
aI11
aI12
aI13
aa(lp616
I0
aI1
aI2
aI3
aI4
aI5
aI6
aI7
aI8
aI9
aI10
aI11
aI12
aI13
aI14
aag47
aS'@@stations'
p617
asg223
(lp618
I01
aI00
aS'@@use_previous'
p619
asg156
(lp620
NaS'@@subtile_size'
p621
asg157
(lp622
NaS'@@tfdeg'
p623
asg28
(lp624
g60
aS'@@@Jsequence_simul'
p625
assg80
g81
sg82
I00
sg83
S'2006-03-31 16:56'
p626
sg85
g369
sg87
S'MG_JEN_Joneset'
p627
sg237
(dp628
g132
I00
sg548
I00
sg223
I00
sg606
I00
sg137
I00
sg180
I00
ssg89
S'** Specific description of inarg record for: MG_JEN_Joneset::DJones_WSRT()  version=16dec2005  defined=2006-03-31 16:56'
p629
sg110
(dp630
g26
I00
sg12
I00
sg2
I00
sg25
I00
ssg109
g626
sg112
(lp631
g18
ag25
ag2
ag29
ag28
ag27
ag606
ag548
ag12
ag26
ag609
ag602
ag595
ag546
ag550
ag589
ag223
ag180
ag137
ag132
ag147
ag141
ag135
ag143
ag142
ag155
ag157
ag151
ag156
ag149
asg121
(dp632
g132
g243
sg2
g123
sg135
g245
sg546
S'degree of freq polynomial'
p633
sg548
S'if True, XDell = -YDell per station'
p634
sg137
g246
sg12
g127
sg550
S'sub-tile size (None=entire tile)'
p635
sg180
g249
sg142
g250
sg143
g251
sg147
g252
sg149
g253
sg151
g254
sg141
g141
sg27
g128
sg589
g635
sg29
g128
sg595
g633
sg155
g256
sg26
g126
sg602
S'degree of time polynomial'
p636
sg606
S'if True, XDang = YDang per station'
p637
sg609
g636
sg25
g124
sg223
g258
sg156
g259
sg157
g260
sg28
g128
sssg27
g60
sg589
g591
sg29
g60
sg595
I0
sg155
F1.0
sg26
g601
sg602
g604
sg606
I01
sg609
I0
sg25
g617
sg223
I01
sg156
Nsg157
Nsg28
g60
ssg27
Nsg28
Nsg119
(dp638
g132
I00
sg2
S'@@polrep'
p639
sg135
g136
sg137
I00
sg141
Nsg12
S'@@parmtable'
p640
sg180
I01
sg142
I10
sS'tdeg_Edl'
p641
I0
sS'tdeg_Edm'
p642
S'@tdeg_Edl'
p643
sg143
g144
sg147
g148
sS'subtile_size_Edl'
p644
Nsg149
g150
sg151
NsS'subtile_size_Edm'
p645
S'@subtile_size_Edl'
p646
sg18
(dp647
g20
S'MG_JEN_Joneset::EJones_WSRT()'
p648
sg22
g119
sg23
(dp649
g143
I01
sg2
I01
sg155
I01
sg147
I01
sg25
I01
sg135
I01
sg151
I01
sg149
I01
sg26
I01
sg156
I01
sg157
I01
sg12
I01
sg27
I01
sg28
I01
sg29
I01
sg141
I01
sg142
I01
ssg30
S'MG_JEN_JonesetEJones_WSRT'
p650
sg32
g33
sg129
S'defines EJones (voltage beamshape) matrices for WSRT (l,m interpolatable)\n    Ejones(station,source) matrix elements:\n    - E_11 = Egain_X*exp(iEphase_X)\n    - E_12 = 0\n    - E_21 = 0\n    - E_22 = Egain_Y*exp(iEphase_Y)\n    For circular polarisation, R and L are used rather than X and Y\n    '
p651
sg34
S'MG_JEN_Joneset::EJones_WSRT()  version=15dec2005  defined=2006-03-31 16:56'
p652
sg36
S'EJones_WSRT'
p653
sg38
(dp654
g132
(lp655
I01
aI00
aS'@@reset_funklet'
p656
asg2
(lp657
g3
ag41
ag639
asg135
(lp658
g136
aS'@@color'
p659
asg137
(lp660
I01
aI00
aS'@@save_all'
p661
asg12
(lp662
Nag72
ag640
asg180
(lp663
I01
aI00
aS'@@auto_save'
p664
asg142
(lp665
I10
aS'@@size'
p666
asg641
(lp667
I0
aI1
aI2
aI3
aS'@@tdeg_Edl'
p668
asg642
(lp669
I0
aI1
aI2
aI3
ag643
aS'@@tdeg_Edm'
p670
asg143
(lp671
g144
aS'@@style'
p672
asg147
(lp673
g148
aS'@@descr'
p674
asg644
(lp675
NaI1
aI2
aI5
aI10
aI20
aI50
aI100
aI200
aI500
aS'@@subtile_size_Edl'
p676
asg149
(lp677
g150
aS'@@condeq_corrs'
p678
asg151
(lp679
NaS'@@funklet_shape'
p680
asg645
(lp681
g646
aNaI1
aI2
aI5
aI10
aI20
aI50
aI100
aI200
aI500
aS'@@subtile_size_Edm'
p682
asg141
(lp683
NaS'@@unit'
p684
asg27
(lp685
g63
aS'@@@Jsequence_KJones'
p686
asg29
(lp687
g63
aS'@@@Jsequence'
p688
asg155
(lp689
F1.0
aS'@@c00_default'
p690
asg26
(lp691
I00
aS'@@uvplane_effect'
p692
asg25
(lp693
(lp694
I0
aI1
aI2
aI3
aI4
aa(lp695
I0
aI1
aI2
aI3
aI4
aI5
aI6
aa(lp696
I0
aI1
aI2
aI3
aI4
aI5
aI6
aI7
aI8
aI9
aI10
aI11
aI12
aI13
aa(lp697
I0
aI1
aI2
aI3
aI4
aI5
aI6
aI7
aI8
aI9
aI10
aI11
aI12
aI13
aI14
aag47
aS'@@stations'
p698
asg223
(lp699
I01
aI00
aS'@@use_previous'
p700
asg156
(lp701
NaS'@@subtile_size'
p702
asg157
(lp703
NaS'@@tfdeg'
p704
asg28
(lp705
g63
aS'@@@Jsequence_simul'
p706
asS'fdeg_Edl'
p707
(lp708
I0
aI1
aI2
aI3
aS'@@fdeg_Edl'
p709
asS'fdeg_Edm'
p710
(lp711
I0
aI1
aI2
aI3
aS'@fdeg_Edl'
p712
aS'@@fdeg_Edm'
p713
assg80
g81
sg82
I00
sg83
S'2006-03-31 16:56'
p714
sg85
g533
sg87
S'MG_JEN_Joneset'
p715
sg237
(dp716
g132
I00
sg223
I00
sg180
I00
sg137
I00
ssg89
S'** Specific description of inarg record for: MG_JEN_Joneset::EJones_WSRT()  version=15dec2005  defined=2006-03-31 16:56'
p717
sg110
(dp718
g26
I00
sg12
I00
sg2
I00
sg25
I00
ssg109
g714
sg112
(lp719
g18
ag25
ag2
ag29
ag28
ag27
ag12
ag26
ag641
ag642
ag707
ag710
ag644
ag645
ag223
ag180
ag137
ag132
ag147
ag141
ag135
ag143
ag142
ag155
ag157
ag151
ag156
ag149
asg121
(dp720
g132
g243
sg2
g123
sg135
g245
sg137
g246
sg12
g127
sg180
g249
sg142
g250
sg641
S'degree of time polynomial'
p721
sg642
g721
sg143
g251
sg147
g252
sg644
S'sub-tile size (None=entire tile)'
p722
sg149
g253
sg151
g254
sg645
g722
sg141
g141
sg27
g128
sg29
g128
sg155
g256
sg26
g126
sg25
g124
sg223
g258
sg156
g259
sg157
g260
sg28
g128
sg707
S'degree of freq polynomial'
p723
sg710
g723
sssg27
g63
sg29
g63
sg155
F1.0
sg26
g692
sg25
g698
sg223
I01
sg156
Nsg157
Nsg28
g63
sg707
I0
sg710
g712
ssg29
NssS'LSM_solve'
p724
S'lsm_current.lsm'
p725
sS'[simul_uvp]./MG_JEN_Cohset.Jones()'
p726
(dp727
S'[simul_uvp]./MG_JEN_Joneset.JJones()'
p728
(dp729
S'unop'
p730
S'Cos'
p731
sg220
I00
sg2
S'@@polrep'
p732
sg135
S'yellow'
p733
sS'stddev_period'
p734
F0.10000000000000001
sg138
NsS'fdeg'
p735
I0
sg141
Nsg142
I5
sg143
S'triangle'
p736
sg147
S'<descr>'
p737
sS'mean_tampl'
p738
F0.20000000000000001
sg18
(dp739
g20
S'MG_JEN_Joneset::JJones()'
p740
sg22
g728
sg23
(dp741
g730
I00
sg143
I01
sg2
I01
sg147
I01
sg155
I01
sg25
I01
sg135
I01
sS'timescale_min'
p742
I01
sg735
I01
sg27
I01
sS'c00_scale'
p743
I01
sg28
I01
sg29
I01
sg141
I01
sg142
I01
ssg30
S'MG_JEN_JonesetJJones'
p744
sg32
g33
sg129
g159
sg34
S'MG_JEN_Joneset::JJones()  version=14feb2006  defined=2006-03-31 16:56'
p745
sg36
S'JJones'
p746
sg38
(dp747
g730
(lp748
g731
aS'Sin'
p749
a(lp750
g731
ag749
aaNaS'@@unop'
p751
asg27
(lp752
g66
aS'@@@Jsequence_KJones'
p753
asg143
(lp754
g736
aS'@@style'
p755
asg220
(lp756
I01
aI00
aS'@@diagonal_only'
p757
asg2
(lp758
g3
ag41
ag732
asg155
(lp759
F1.0
aS'@@c00_default'
p760
asg147
(lp761
g737
aS'@@descr'
p762
asg25
(lp763
(lp764
I0
aI1
aI2
aI3
aI4
aa(lp765
I0
aI1
aI2
aI3
aI4
aI5
aI6
aa(lp766
I0
aI1
aI2
aI3
aI4
aI5
aI6
aI7
aI8
aI9
aI10
aI11
aI12
aI13
aa(lp767
I0
aI1
aI2
aI3
aI4
aI5
aI6
aI7
aI8
aI9
aI10
aI11
aI12
aI13
aI14
aag47
aS'@@stations'
p768
asg135
(lp769
g733
aS'@@color'
p770
asg734
(lp771
I0
aF0.01
aF0.10000000000000001
aF0.20000000000000001
aF0.5
aS'@@stddev_period'
p772
asg742
(lp773
I20
aS'@@timescale_min'
p774
asg138
(lp775
Na(lp776
I14
aa(lp777
I1
aag175
aS'@@all4_always'
p778
asS'mean_period'
p779
(lp780
F0.29999999999999999
aF0.5
aI1
aI2
aI3
aS'@@mean_period'
p781
asS'stddev_c00'
p782
(lp783
I0
aF0.0001
aF0.001
aF0.01
aF0.10000000000000001
aI1
aS'@@stddev_c00'
p784
asg735
(lp785
I0
aS'@@fdeg'
p786
asS'mean_c00'
p787
(lp788
I0
aF0.10000000000000001
aF0.20000000000000001
aF0.5
aF-0.10000000000000001
aS'@@mean_c00'
p789
asg743
(lp790
F1.0
aS'@@c00_scale'
p791
asg28
(lp792
g66
aS'@@@Jsequence_simul'
p793
asg29
(lp794
g66
aS'@@@Jsequence'
p795
asg141
(lp796
NaS'@@unit'
p797
asg142
(lp798
I5
aS'@@size'
p799
assg80
S'simul_uvp'
p800
sg82
I00
sg83
S'2006-03-31 16:56'
p801
sg85
g235
sg87
S'MG_JEN_Joneset'
p802
sg237
(dp803
g220
I00
ssg89
S'** Specific description of inarg record for: MG_JEN_Joneset::JJones()  version=14feb2006  defined=2006-03-31 16:56'
p804
sg110
(dp805
g2
I00
sg25
I00
ssg109
g801
sg112
(lp806
g18
ag25
ag2
ag29
ag28
ag27
ag220
ag138
ag787
ag782
ag779
ag734
ag730
ag742
ag735
ag135
ag143
ag142
ag155
ag743
ag147
ag141
asg121
(dp807
g730
S'time-variability function'
p808
sg27
g128
sg143
g251
sg220
g257
sg2
g123
sg155
S'default value of c00'
p809
sg147
S'brief description'
p810
sg25
g124
sg135
g245
sg734
S'scatter in period T (fraction of timescale_min)'
p811
sg742
S'group timescale in minutes'
p812
sg138
g247
sg779
S'mean time-period T (fraction of timescale_min)'
p813
sg782
S'scatter in EXTRA c00 (fraction of c00_scale'
p814
sg735
S'degree of freq polynomial'
p815
sg787
S'mean of EXTRA c00 (fraction of c00_scale)'
p816
sg743
S'scale of c00'
p817
sg28
g128
sg29
g128
sg141
g141
sg142
S'size of plotted symbol'
p818
sssg27
g66
sg29
g66
sS'stddev_period_s'
p819
I50
sg155
F1.0
sS'mean_period_s'
p820
I500
sg787
F0.10000000000000001
sg25
g768
sg742
I20
sg779
F1.0
sg782
F0.01
sg743
F1.0
sg28
g66
sS'stddev_tampl'
p821
F0.02
ssg2
S'@@polrep'
p822
sS'[simul_uvp]./MG_JEN_Joneset.KJones()'
p823
(dp824
g2
S'@@polrep'
p825
sg25
S'@@stations'
p826
sg18
(dp827
g20
S'MG_JEN_Joneset::KJones()'
p828
sg22
g823
sg23
(dp829
g27
I01
sg28
I01
sg25
I01
sg2
I01
sg29
I01
ssg30
S'MG_JEN_JonesetKJones'
p830
sg32
g33
sg129
g268
sg34
S'MG_JEN_Joneset::KJones()  version=12dec2005  defined=2006-03-31 16:56'
p831
sg36
S'KJones'
p832
sg38
(dp833
g27
(lp834
g58
aS'@@@Jsequence_KJones'
p835
asg28
(lp836
g58
aS'@@@Jsequence_simul'
p837
asg25
(lp838
(lp839
I0
aI1
aI2
aI3
aI4
aa(lp840
I0
aI1
aI2
aI3
aI4
aI5
aI6
aa(lp841
I0
aI1
aI2
aI3
aI4
aI5
aI6
aI7
aI8
aI9
aI10
aI11
aI12
aI13
aa(lp842
I0
aI1
aI2
aI3
aI4
aI5
aI6
aI7
aI8
aI9
aI10
aI11
aI12
aI13
aI14
aag47
ag826
asg2
(lp843
g3
ag41
ag825
asg29
(lp844
g58
aS'@@@Jsequence'
p845
assg80
g800
sg82
I00
sg83
S'2006-03-31 16:56'
p846
sg85
g285
sg87
S'MG_JEN_Joneset'
p847
sg89
S'** Specific description of inarg record for: MG_JEN_Joneset::KJones()  version=12dec2005  defined=2006-03-31 16:56'
p848
sg110
(dp849
g2
I00
sg25
I00
ssg109
g846
sg112
(lp850
g18
ag25
ag2
ag29
ag28
ag27
asg121
(dp851
g27
g128
sg28
g128
sg25
g124
sg2
g123
sg29
g128
sssg27
g58
sg28
g58
sg29
g58
ssS'[simul_uvp]./MG_JEN_Joneset.BJones()'
p852
(dp853
g730
g731
sg2
S'@@polrep'
p854
sg135
g733
sg734
F0.10000000000000001
sg735
I0
sg141
Nsg142
I5
sg143
g736
sg147
g737
sg738
F0.20000000000000001
sg18
(dp855
g20
S'MG_JEN_Joneset::BJones()'
p856
sg22
g852
sg23
(dp857
g730
I00
sg143
I01
sg2
I01
sg147
I01
sg155
I01
sg25
I01
sg135
I01
sg742
I01
sg735
I01
sg27
I01
sg743
I01
sg28
I01
sg29
I01
sg141
I01
sg142
I01
ssg30
S'MG_JEN_JonesetBJones'
p858
sg32
g33
sg129
g302
sg34
S'MG_JEN_Joneset::BJones()  version=16dec2005  defined=2006-03-31 16:56'
p859
sg36
S'BJones'
p860
sg38
(dp861
g730
(lp862
g731
ag749
a(lp863
g731
ag749
aaNaS'@@unop'
p864
asg143
(lp865
g736
aS'@@style'
p866
asg2
(lp867
g3
ag41
ag854
asg147
(lp868
g737
aS'@@descr'
p869
asg155
(lp870
F1.0
aS'@@c00_default'
p871
asg25
(lp872
(lp873
I0
aI1
aI2
aI3
aI4
aa(lp874
I0
aI1
aI2
aI3
aI4
aI5
aI6
aa(lp875
I0
aI1
aI2
aI3
aI4
aI5
aI6
aI7
aI8
aI9
aI10
aI11
aI12
aI13
aa(lp876
I0
aI1
aI2
aI3
aI4
aI5
aI6
aI7
aI8
aI9
aI10
aI11
aI12
aI13
aI14
aag47
aS'@@stations'
p877
asg135
(lp878
g733
aS'@@color'
p879
asg734
(lp880
I0
aF0.01
aF0.10000000000000001
aF0.20000000000000001
aF0.5
aS'@@stddev_period'
p881
asg787
(lp882
I0
aF0.10000000000000001
aF0.20000000000000001
aF0.5
aF-0.10000000000000001
aS'@@mean_c00'
p883
asg742
(lp884
I20
aS'@@timescale_min'
p885
asg779
(lp886
F0.29999999999999999
aF0.5
aI1
aI2
aI3
aS'@@mean_period'
p887
asg782
(lp888
I0
aF0.0001
aF0.001
aF0.01
aF0.10000000000000001
aI1
aS'@@stddev_c00'
p889
asg735
(lp890
I0
aS'@@fdeg'
p891
asg27
(lp892
g54
aS'@@@Jsequence_KJones'
p893
asg743
(lp894
F1.0
aS'@@c00_scale'
p895
asg28
(lp896
g54
aS'@@@Jsequence_simul'
p897
asg29
(lp898
g54
aS'@@@Jsequence'
p899
asg141
(lp900
NaS'@@unit'
p901
asg142
(lp902
I5
aS'@@size'
p903
assg80
g800
sg82
I00
sg83
S'2006-03-31 16:56'
p904
sg85
g369
sg87
S'MG_JEN_Joneset'
p905
sg89
S'** Specific description of inarg record for: MG_JEN_Joneset::BJones()  version=16dec2005  defined=2006-03-31 16:56'
p906
sg110
(dp907
g2
I00
sg25
I00
ssg109
g904
sg112
(lp908
g18
ag25
ag2
ag29
ag28
ag27
ag787
ag782
ag779
ag734
ag730
ag742
ag735
ag135
ag143
ag142
ag155
ag743
ag147
ag141
asg121
(dp909
g730
g808
sg143
g251
sg2
g123
sg147
g810
sg155
g809
sg25
g124
sg135
g245
sg734
g811
sg787
g816
sg742
g812
sg779
g813
sg782
g814
sg735
g815
sg27
g128
sg743
g817
sg28
g128
sg29
g128
sg141
g141
sg142
g818
sssg27
g54
sg29
g54
sg819
I100
sg155
F1.0
sg820
I5000
sg787
F0.10000000000000001
sg25
g877
sg742
I20
sg779
F1.0
sg782
F0.01
sg743
F1.0
sg28
g54
sg821
F0.02
ssg25
S'@@stations'
p910
sS'[simul_uvp]./MG_JEN_Joneset.EJones_WSRT()'
p911
(dp912
g730
g731
sg27
g63
sg143
g736
sg2
S'@@polrep'
p913
sg147
g737
sg155
F1.0
sg25
S'@@stations'
p914
sg135
g733
sg734
F0.10000000000000001
sg742
I20
sg779
F1.0
sg782
F0.01
sg18
(dp915
g20
S'MG_JEN_Joneset::EJones_WSRT()'
p916
sg22
g911
sg23
(dp917
g730
I00
sg143
I01
sg2
I01
sg147
I01
sg155
I01
sg25
I01
sg135
I01
sg742
I01
sg735
I01
sg27
I01
sg743
I01
sg28
I01
sg29
I01
sg141
I01
sg142
I01
ssg30
S'MG_JEN_JonesetEJones_WSRT'
p918
sg32
g33
sg129
g651
sg34
S'MG_JEN_Joneset::EJones_WSRT()  version=15dec2005  defined=2006-03-31 16:56'
p919
sg36
S'EJones_WSRT'
p920
sg38
(dp921
g730
(lp922
g731
ag749
a(lp923
g731
ag749
aaNaS'@@unop'
p924
asg143
(lp925
g736
aS'@@style'
p926
asg2
(lp927
g3
ag41
ag913
asg147
(lp928
g737
aS'@@descr'
p929
asg155
(lp930
F1.0
aS'@@c00_default'
p931
asg25
(lp932
(lp933
I0
aI1
aI2
aI3
aI4
aa(lp934
I0
aI1
aI2
aI3
aI4
aI5
aI6
aa(lp935
I0
aI1
aI2
aI3
aI4
aI5
aI6
aI7
aI8
aI9
aI10
aI11
aI12
aI13
aa(lp936
I0
aI1
aI2
aI3
aI4
aI5
aI6
aI7
aI8
aI9
aI10
aI11
aI12
aI13
aI14
aag47
ag914
asg135
(lp937
g733
aS'@@color'
p938
asg734
(lp939
I0
aF0.01
aF0.10000000000000001
aF0.20000000000000001
aF0.5
aS'@@stddev_period'
p940
asg787
(lp941
I0
aF0.10000000000000001
aF0.20000000000000001
aF0.5
aF-0.10000000000000001
aS'@@mean_c00'
p942
asg742
(lp943
I20
aS'@@timescale_min'
p944
asg779
(lp945
F0.29999999999999999
aF0.5
aI1
aI2
aI3
aS'@@mean_period'
p946
asg782
(lp947
I0
aF0.0001
aF0.001
aF0.01
aF0.10000000000000001
aI1
aS'@@stddev_c00'
p948
asg735
(lp949
I0
aS'@@fdeg'
p950
asg27
(lp951
g63
aS'@@@Jsequence_KJones'
p952
asg743
(lp953
F1.0
aS'@@c00_scale'
p954
asg28
(lp955
g63
aS'@@@Jsequence_simul'
p956
asg29
(lp957
g63
aS'@@@Jsequence'
p958
asg141
(lp959
NaS'@@unit'
p960
asg142
(lp961
I5
aS'@@size'
p962
assg80
g800
sg82
I00
sg83
S'2006-03-31 16:56'
p963
sg85
g533
sg87
S'MG_JEN_Joneset'
p964
sg89
S'** Specific description of inarg record for: MG_JEN_Joneset::EJones_WSRT()  version=15dec2005  defined=2006-03-31 16:56'
p965
sg110
(dp966
g2
I00
sg25
I00
ssg109
g963
sg112
(lp967
g18
ag25
ag2
ag29
ag28
ag27
ag787
ag782
ag779
ag734
ag730
ag742
ag735
ag135
ag143
ag142
ag155
ag743
ag147
ag141
asg121
(dp968
g730
g808
sg143
g251
sg2
g123
sg147
g810
sg155
g809
sg25
g124
sg135
g245
sg734
g811
sg787
g816
sg742
g812
sg779
g813
sg782
g814
sg735
g815
sg27
g128
sg743
g817
sg28
g128
sg29
g128
sg141
g141
sg142
g818
sssg735
I0
sg743
F1.0
sg787
F0.10000000000000001
sg28
g63
sg29
g63
sg141
Nsg142
I5
ssg12
S'@@parmtable'
p969
sS'[simul_uvp]./MG_JEN_Joneset.DJones_WSRT()'
p970
(dp971
g730
g731
sg2
S'@@polrep'
p972
sg135
g733
sg734
F0.10000000000000001
sg548
I01
sg735
I0
sg141
Nsg142
I5
sg143
g736
sg147
g737
sg738
F0.002
sg18
(dp973
g20
S'MG_JEN_Joneset::DJones_WSRT()'
p974
sg22
g970
sg23
(dp975
g730
I00
sg143
I01
sg2
I01
sg147
I01
sg155
I01
sg25
I01
sg135
I01
sg742
I01
sg735
I01
sg27
I01
sg743
I01
sg28
I01
sg29
I01
sg141
I01
sg142
I01
ssg30
S'MG_JEN_JonesetDJones_WSRT'
p976
sg32
g33
sg129
g555
sg34
S'MG_JEN_Joneset::DJones_WSRT()  version=16dec2005  defined=2006-03-31 16:56'
p977
sg36
S'DJones_WSRT'
p978
sg38
(dp979
g730
(lp980
g731
ag749
a(lp981
g731
ag749
aaNaS'@@unop'
p982
asg27
(lp983
g60
aS'@@@Jsequence_KJones'
p984
asg143
(lp985
g736
aS'@@style'
p986
asg548
(lp987
I01
aI00
aS'@@coupled_XY_Dell'
p988
asg2
(lp989
g3
ag41
ag972
asg155
(lp990
F1.0
aS'@@c00_default'
p991
asg147
(lp992
g737
aS'@@descr'
p993
asg25
(lp994
(lp995
I0
aI1
aI2
aI3
aI4
aa(lp996
I0
aI1
aI2
aI3
aI4
aI5
aI6
aa(lp997
I0
aI1
aI2
aI3
aI4
aI5
aI6
aI7
aI8
aI9
aI10
aI11
aI12
aI13
aa(lp998
I0
aI1
aI2
aI3
aI4
aI5
aI6
aI7
aI8
aI9
aI10
aI11
aI12
aI13
aI14
aag47
aS'@@stations'
p999
asg135
(lp1000
g733
aS'@@color'
p1001
asg734
(lp1002
I0
aF0.01
aF0.10000000000000001
aF0.20000000000000001
aF0.5
aS'@@stddev_period'
p1003
asg742
(lp1004
I20
aS'@@timescale_min'
p1005
asg779
(lp1006
F0.29999999999999999
aF0.5
aI1
aI2
aI3
aS'@@mean_period'
p1007
asg782
(lp1008
I0
aF0.0001
aF0.001
aF0.01
aF0.10000000000000001
aI1
aS'@@stddev_c00'
p1009
asg735
(lp1010
I0
aS'@@fdeg'
p1011
asg787
(lp1012
I0
aF0.10000000000000001
aF0.20000000000000001
aF0.5
aF-0.10000000000000001
aS'@@mean_c00'
p1013
asg743
(lp1014
F1.0
aS'@@c00_scale'
p1015
asg28
(lp1016
g60
aS'@@@Jsequence_simul'
p1017
asg29
(lp1018
g60
aS'@@@Jsequence'
p1019
asg606
(lp1020
I01
aI00
aS'@@coupled_XY_Dang'
p1021
asg141
(lp1022
NaS'@@unit'
p1023
asg142
(lp1024
I5
aS'@@size'
p1025
assg80
g800
sg82
I00
sg83
S'2006-03-31 16:56'
p1026
sg85
g369
sg87
S'MG_JEN_Joneset'
p1027
sg237
(dp1028
g606
I00
sg548
I00
ssg89
S'** Specific description of inarg record for: MG_JEN_Joneset::DJones_WSRT()  version=16dec2005  defined=2006-03-31 16:56'
p1029
sg110
(dp1030
g2
I00
sg25
I00
ssg109
g1026
sg112
(lp1031
g18
ag25
ag2
ag29
ag28
ag27
ag606
ag548
ag787
ag782
ag779
ag734
ag730
ag742
ag735
ag135
ag143
ag142
ag155
ag743
ag147
ag141
asg121
(dp1032
g730
g808
sg27
g128
sg143
g251
sg548
g634
sg2
g123
sg155
g809
sg147
g810
sg25
g124
sg135
g245
sg734
g811
sg742
g812
sg779
g813
sg782
g814
sg735
g815
sg787
g816
sg743
g817
sg28
g128
sg29
g128
sg606
g637
sg141
g141
sg142
g818
sssg27
g60
sg29
g60
sg819
I100
sg155
F1.0
sg820
I3000
sg787
F0.10000000000000001
sg606
I01
sg25
g999
sg742
I20
sg779
F1.0
sg782
F0.01
sg743
F1.0
sg28
g60
sg821
F0.00020000000000000001
ssg18
(dp1033
g20
g21
sg22
g726
sg23
(dp1034
g2
I01
sg25
I01
sg26
I01
sg12
I01
sg27
I01
sg28
I01
sg29
I01
ssg30
S'MG_JEN_CohsetJones'
p1035
sg32
g33
sg34
S'MG_JEN_Cohset::Jones()  version=25dec2005  defined=2006-03-31 16:56'
p1036
sg36
S'Jones'
p1037
sg38
(dp1038
g2
(lp1039
g3
ag41
ag822
asg25
(lp1040
(lp1041
I0
aI1
aI2
aI3
aI4
aa(lp1042
I0
aI1
aI2
aI3
aI4
aI5
aI6
aa(lp1043
I0
aI1
aI2
aI3
aI4
aI5
aI6
aI7
aI8
aI9
aI10
aI11
aI12
aI13
aa(lp1044
I0
aI1
aI2
aI3
aI4
aI5
aI6
aI7
aI8
aI9
aI10
aI11
aI12
aI13
aI14
aag47
ag910
asg26
(lp1045
I00
aS'@@uvplane_effect'
p1046
asg12
(lp1047
Nag72
ag969
asg27
(lp1048
NaS'@@@Jsequence_KJones'
p1049
asg28
(lp1050
NaS'@@@Jsequence_simul'
p1051
asS'Jsequence_simul_uvp'
p1052
(lp1053
(lp1054
g52
aa(lp1055
g54
aa(lp1056
g56
aa(lp1057
g58
aa(lp1058
g60
aa(lp1059
g52
ag60
aa(lp1060
g63
aa(lp1061
g52
ag63
aa(lp1062
g66
aa(lp1063
aS'@@Jsequence_simul_uvp'
p1064
asg29
(lp1065
NaS'@@@Jsequence'
p1066
assg80
g800
sg82
I00
sg83
S'2006-03-31 16:56'
p1067
sg85
g86
sg87
S'MG_JEN_Cohset'
p1068
sg89
S'** Specific description of inarg record for: MG_JEN_Cohset::Jones()  version=25dec2005  defined=2006-03-31 16:56'
p1069
sg91
(dp1070
g93
S'** JEN_inarg.attach(): attached: [simul_uvp]./MG_JEN_Joneset.FJones()'
p1071
sg95
S'** JEN_inarg.attach(): attached: [simul_uvp]./MG_JEN_Joneset.GJones()'
p1072
sg97
S'** JEN_inarg.attach(): attached: [simul_uvp]./MG_JEN_Joneset.KJones()'
p1073
sg99
S'** JEN_inarg.attach(): attached: [simul_uvp]./MG_JEN_Joneset.BJones()'
p1074
sg101
S'** JEN_inarg.attach(): attached: [simul_uvp]./MG_JEN_Joneset.EJones_WSRT()'
p1075
sg103
S'** JEN_inarg.attach(): attached: [simul_uvp]./MG_JEN_Joneset.DJones_WSRT()'
p1076
sg105
S"  1: ..[simul_uvp]./MG_JEN_Cohset.Jones() (qual=None): .modify(Jsequence_simul_uvp):   []  ->  ['GJones']"
p1077
sg107
S'** JEN_inarg.attach(): attached: [simul_uvp]./MG_JEN_Joneset.JJones()'
p1078
ssg109
g1067
sg110
(dp1079
g26
I00
sg12
I00
sg2
I00
sg25
I00
ssg112
(lp1080
g18
ag25
ag2
ag29
ag28
ag27
ag12
ag26
ag1052
aS'[simul_uvp]./MG_JEN_Joneset.GJones()'
p1081
aS'[simul_uvp]./MG_JEN_Joneset.FJones()'
p1082
ag852
ag823
ag970
ag911
ag728
asg121
(dp1083
g2
g123
sg25
g124
sg26
g126
sg12
g127
sg27
g128
sg28
g128
sg1052
g125
sg29
g128
ssg129
g130
ssg27
Nsg28
Nsg1052
(lp1084
g52
asg26
g1046
sg1081
(dp1085
g730
g731
sg143
g736
sg2
S'@@polrep'
p1086
sg155
F1.0
sg147
g737
sg25
S'@@stations'
p1087
sg135
g733
sg734
F0.10000000000000001
sg742
I20
sg743
F1.0
sg29
g52
sg779
F1.0
sg782
F0.01
sg18
(dp1088
g20
S'MG_JEN_Joneset::GJones()'
p1089
sg22
g1081
sg23
(dp1090
g730
I00
sg143
I01
sg2
I01
sg147
I01
sg155
I01
sg25
I01
sg135
I01
sg742
I01
sg29
I01
sg735
I01
sg27
I01
sg743
I01
sg28
I01
sg461
I01
sg141
I01
sg142
I01
ssg30
S'MG_JEN_JonesetGJones'
p1091
sg32
g33
sg129
g463
sg34
S'MG_JEN_Joneset::GJones()  version=15dec2005  defined=2006-03-31 16:56'
p1092
sg36
S'GJones'
p1093
sg38
(dp1094
g730
(lp1095
g731
ag749
a(lp1096
g731
ag749
aaNaS'@@unop'
p1097
asg27
(lp1098
g52
aS'@@@Jsequence_KJones'
p1099
asg143
(lp1100
g736
aS'@@style'
p1101
asg2
(lp1102
g3
ag41
ag1086
asg147
(lp1103
g737
aS'@@descr'
p1104
asg155
(lp1105
F1.0
aS'@@c00_default'
p1106
asg25
(lp1107
(lp1108
I0
aI1
aI2
aI3
aI4
aa(lp1109
I0
aI1
aI2
aI3
aI4
aI5
aI6
aa(lp1110
I0
aI1
aI2
aI3
aI4
aI5
aI6
aI7
aI8
aI9
aI10
aI11
aI12
aI13
aa(lp1111
I0
aI1
aI2
aI3
aI4
aI5
aI6
aI7
aI8
aI9
aI10
aI11
aI12
aI13
aI14
aag47
ag1087
asg135
(lp1112
g733
aS'@@color'
p1113
asg734
(lp1114
I0
aF0.01
aF0.10000000000000001
aF0.20000000000000001
aF0.5
aS'@@stddev_period'
p1115
asg742
(lp1116
I20
aS'@@timescale_min'
p1117
asg29
(lp1118
g52
aS'@@@Jsequence'
p1119
asg779
(lp1120
F0.29999999999999999
aF0.5
aI1
aI2
aI3
aS'@@mean_period'
p1121
asg782
(lp1122
I0
aF0.0001
aF0.001
aF0.01
aF0.10000000000000001
aI1
aS'@@stddev_c00'
p1123
asg735
(lp1124
I0
aS'@@fdeg'
p1125
asg787
(lp1126
I0
aF0.10000000000000001
aF0.20000000000000001
aF0.5
aF-0.10000000000000001
aS'@@mean_c00'
p1127
asg743
(lp1128
F1.0
aS'@@c00_scale'
p1129
asg28
(lp1130
g52
aS'@@@Jsequence_simul'
p1131
asg461
(lp1132
I01
aI00
aS'@@Gpolar'
p1133
asg141
(lp1134
NaS'@@unit'
p1135
asg142
(lp1136
I5
aS'@@size'
p1137
assg80
g800
sg82
I00
sg83
S'2006-03-31 16:56'
p1138
sg85
g533
sg87
S'MG_JEN_Joneset'
p1139
sg237
(dp1140
g461
I00
ssg89
S'** Specific description of inarg record for: MG_JEN_Joneset::GJones()  version=15dec2005  defined=2006-03-31 16:56'
p1141
sg110
(dp1142
g2
I00
sg25
I00
ssg109
g1138
sg112
(lp1143
g18
ag25
ag2
ag29
ag28
ag27
ag461
ag787
ag782
ag779
ag734
ag730
ag742
ag735
ag135
ag143
ag142
ag155
ag743
ag147
ag141
asg121
(dp1144
g730
g808
sg27
g128
sg143
g251
sg2
g123
sg147
g810
sg155
g809
sg25
g124
sg135
g245
sg734
g811
sg742
g812
sg29
g128
sg779
g813
sg782
g814
sg735
g815
sg787
g816
sg743
g817
sg28
g128
sg461
g543
sg141
g141
sg142
g818
sssg735
I0
sg787
F0.10000000000000001
sg27
g52
sg28
g52
sg461
I01
sg141
Nsg142
I5
ssg1082
(dp1145
g730
g731
sg2
S'@@polrep'
p1146
sg135
g733
sg734
F0.10000000000000001
sg735
I0
sg141
Nsg142
I5
sg143
g736
sg147
g737
sg738
F0.20000000000000001
sg18
(dp1147
g20
S'MG_JEN_Joneset::FJones()'
p1148
sg22
g1082
sg23
(dp1149
g730
I00
sg143
I01
sg2
I01
sg147
I01
sg155
I01
sg25
I01
sg135
I01
sg742
I01
sg735
I01
sg27
I01
sg743
I01
sg28
I01
sg29
I01
sg141
I01
sg142
I01
ssg30
S'MG_JEN_JonesetFJones'
p1150
sg32
g33
sg129
g386
sg34
S'MG_JEN_Joneset::FJones()  version=16dec2005  defined=2006-03-31 16:56'
p1151
sg36
S'FJones'
p1152
sg38
(dp1153
g730
(lp1154
g731
ag749
a(lp1155
g731
ag749
aaNaS'@@unop'
p1156
asg143
(lp1157
g736
aS'@@style'
p1158
asg2
(lp1159
g3
ag41
ag1146
asg147
(lp1160
g737
aS'@@descr'
p1161
asg155
(lp1162
F1.0
aS'@@c00_default'
p1163
asg25
(lp1164
(lp1165
I0
aI1
aI2
aI3
aI4
aa(lp1166
I0
aI1
aI2
aI3
aI4
aI5
aI6
aa(lp1167
I0
aI1
aI2
aI3
aI4
aI5
aI6
aI7
aI8
aI9
aI10
aI11
aI12
aI13
aa(lp1168
I0
aI1
aI2
aI3
aI4
aI5
aI6
aI7
aI8
aI9
aI10
aI11
aI12
aI13
aI14
aag47
aS'@@stations'
p1169
asg135
(lp1170
g733
aS'@@color'
p1171
asg734
(lp1172
I0
aF0.01
aF0.10000000000000001
aF0.20000000000000001
aF0.5
aS'@@stddev_period'
p1173
asg787
(lp1174
I0
aF0.10000000000000001
aF0.20000000000000001
aF0.5
aF-0.10000000000000001
aS'@@mean_c00'
p1175
asg742
(lp1176
I20
aS'@@timescale_min'
p1177
asg779
(lp1178
F0.29999999999999999
aF0.5
aI1
aI2
aI3
aS'@@mean_period'
p1179
asg782
(lp1180
I0
aF0.0001
aF0.001
aF0.01
aF0.10000000000000001
aI1
aS'@@stddev_c00'
p1181
asg735
(lp1182
I0
aS'@@fdeg'
p1183
asg27
(lp1184
g56
aS'@@@Jsequence_KJones'
p1185
asg743
(lp1186
F1.0
aS'@@c00_scale'
p1187
asg28
(lp1188
g56
aS'@@@Jsequence_simul'
p1189
asg29
(lp1190
g56
aS'@@@Jsequence'
p1191
asg141
(lp1192
NaS'@@unit'
p1193
asg142
(lp1194
I5
aS'@@size'
p1195
assg80
g800
sg82
I00
sg83
S'2006-03-31 16:56'
p1196
sg85
g369
sg87
S'MG_JEN_Joneset'
p1197
sg89
S'** Specific description of inarg record for: MG_JEN_Joneset::FJones()  version=16dec2005  defined=2006-03-31 16:56'
p1198
sg110
(dp1199
g2
I00
sg25
I00
ssg109
g1196
sg112
(lp1200
g18
ag25
ag2
ag29
ag28
ag27
ag787
ag782
ag779
ag734
ag730
ag742
ag735
ag135
ag143
ag142
ag155
ag743
ag147
ag141
asg121
(dp1201
g730
g808
sg143
g251
sg2
g123
sg147
g810
sg155
g809
sg25
g124
sg135
g245
sg734
g811
sg787
g816
sg742
g812
sg779
g813
sg782
g814
sg735
g815
sg27
g128
sg743
g817
sg28
g128
sg29
g128
sg141
g141
sg142
g818
sssg27
g56
sg29
g56
sg819
I50
sg155
F1.0
sg820
I500
sg787
F0.10000000000000001
sg25
g1169
sg742
I20
sg779
F1.0
sg782
F0.01
sg743
F1.0
sg28
g56
sg821
F0.02
ssg29
NssS'[solve]./MG_JEN_Sixpack.newstar_source()'
p1202
(dp1203
S'f0'
p1204
F1000000.0
sg132
I00
sS'major'
p1205
F0.0
sS'unsolvable'
p1206
I00
sg135
g136
sg137
I00
sS'shape'
p1207
S'point'
p1208
sg12
g13
sS'Upct'
p1209
Nsg141
Nsg142
I10
sg143
g144
sg147
g148
sS'I0'
p1210
F1.0
sg156
Nsg149
g150
sS'Vpct'
p1211
Nsg151
NsS'pa'
p1212
F0.0
sg18
(dp1213
g20
S'MG_JEN_Sixpack::newstar_source()'
p1214
sg22
g1202
sg109
S'2006-03-31 16:56'
p1215
sg23
(dp1216
g1204
I01
sg1205
I01
sg1206
I01
sS'name'
p1217
I01
sg147
I01
sg151
I01
sg135
I01
sg155
I01
sg1207
I01
sS'fsr_trace'
p1218
I01
sS'punit'
p1219
I00
sg156
I01
sg1212
I01
sg149
I01
sg157
I01
sg141
I01
sg143
I01
sS'minor'
p1220
I01
sg142
I01
ssg30
S'MG_JEN_Sixpacknewstar_source'
p1221
sg80
S'solve'
p1222
sg32
g33
sg34
S'MG_JEN_Sixpack::newstar_source()  version=10feb2006  defined=2006-03-31 16:56'
p1223
sg36
S'newstar_source'
p1224
sg38
(dp1225
g1204
(lp1226
F1000000.0
aS'@@f0'
p1227
asg132
(lp1228
I01
aI00
aS'@@reset_funklet'
p1229
asg1205
(lp1230
F0.0
aF1.0
aF10.0
aF100.0
aS'@@major'
p1231
asg1206
(lp1232
I01
aI00
aS'@@unsolvable'
p1233
asg135
(lp1234
g136
aS'@@color'
p1235
asg137
(lp1236
I01
aI00
aS'@@save_all'
p1237
asg1207
(lp1238
g1208
aS'ell.gauss'
p1239
aS'@@shape'
p1240
asg12
(lp1241
NaS'@@parmtable'
p1242
asg1209
(lp1243
NaF-0.10000000000000001
aF0.050000000000000003
aF-0.01
aS'@@Upct'
p1244
asg141
(lp1245
NaS'@@unit'
p1246
asg142
(lp1247
I10
aS'@@size'
p1248
asg143
(lp1249
g144
aS'@@style'
p1250
asg147
(lp1251
g148
aS'@@descr'
p1252
asg1210
(lp1253
F1.0
aF10.0
aS'@@I0'
p1254
asg156
(lp1255
NaS'@@subtile_size'
p1256
asg149
(lp1257
g150
aS'@@condeq_corrs'
p1258
asg1211
(lp1259
NaF0.01
aF-0.0050000000000000001
aF0.001
aS'@@Vpct'
p1260
asg151
(lp1261
NaS'@@funklet_shape'
p1262
asg1212
(lp1263
F0.0
aF1.0
aF-0.5
aS'@@pa'
p1264
asS'RA'
p1265
(lp1266
F0.0
aF0.5
aF1.0
aF1.4950000000000001
aF4.3570000000000002
aS'@@RA'
p1267
asS'RM'
p1268
(lp1269
NaF1.0
aF3.0
aF10.0
aF-10.0
aF60.0
aS'@@RM'
p1270
asg1220
(lp1271
F0.0
aF0.5
aF5.0
aF50.0
aS'@@minor'
p1272
asg155
(lp1273
F1.0
aS'@@c00_default'
p1274
asS'Qpct'
p1275
(lp1276
NaF0.10000000000000001
aF-0.050000000000000003
aF0.01
aS'@@Qpct'
p1277
asg1219
(lp1278
S'unpol'
p1279
aS'unpol2'
p1280
aS'unpol10'
p1281
aS'QUV'
p1282
aS'QU'
p1283
aS'Qonly'
p1284
aS'Uonly'
p1285
aS'Vonly'
p1286
aS'3c147'
p1287
aS'3c286'
p1288
aS'3c48'
p1289
aS'3c295'
p1290
aS'D1'
p1291
aS'RMtest'
p1292
aS'SItest'
p1293
aS'@@punit'
p1294
asS'Dec'
p1295
(lp1296
F0.5
aF1.0
aF0.87
aF1.0920000000000001
aS'@@Dec'
p1297
asg1217
(lp1298
NaS'@@name'
p1299
asg1218
(lp1300
I01
aI00
aS'@@fsr_trace'
p1301
asg223
(lp1302
I01
aI00
aS'@@use_previous'
p1303
asS'SI'
p1304
(lp1305
NaF-0.69999999999999996
a(lp1306
F0.44700000000000001
aF-0.184
aaS'@@SI'
p1307
asg157
(lp1308
NaS'@@tfdeg'
p1309
asg180
(lp1310
I01
aI00
aS'@@auto_save'
p1311
assS'callback'
p1312
(dp1313
g1219
I01
ssg85
S'10feb2006'
p1314
sg83
g1215
sg87
S'MG_JEN_Sixpack'
p1315
sg237
(dp1316
g132
I00
sg1206
I00
sg1218
I00
sg137
I00
sg223
I00
sg180
I00
ssg89
S'** Specific description of inarg record for: MG_JEN_Sixpack::newstar_source()  version=10feb2006  defined=2006-03-31 16:56'
p1317
sg91
(dp1318
g95
S'  1: ..[solve]./MG_JEN_Sixpack.newstar_source() (qual=None): .modify(parmtable):   None  ->  simul_GJones'
p1319
ssg82
I00
sg112
(lp1320
g18
ag1219
ag1217
ag12
ag1206
ag1210
ag1275
ag1209
ag1211
ag1268
ag1304
ag1204
ag1265
ag1295
ag1218
ag1207
ag1205
ag1220
ag1212
ag223
ag180
ag137
ag132
ag147
ag141
ag135
ag143
ag142
ag155
ag157
ag151
ag156
ag149
asg121
(dp1321
g1204
S'reference freq (Hz): I=I0 @ f=f0'
p1322
sg132
g243
sg1205
S'major axis (arcsec)'
p1323
sg1206
S'if True, do NOT store solvegroup/parmgroup info'
p1324
sg135
g245
sg137
g246
sg1207
S'source shape'
p1325
sg12
S'name of the MeqParm table (AIPS++)'
p1326
sg1209
S'Stokes U (percentage of I)'
p1327
sg141
g141
sg142
g250
sg143
g251
sg147
g252
sg1210
S'Stokes I: Total intensity @ f=f0 (usually 1 MHz)'
p1328
sg156
g259
sg149
g253
sg1211
S'Stokes V (percentage of I)'
p1329
sg151
g254
sg1212
S'position angle (rad)'
p1330
sg1265
S'Right Ascension (rad, J2000)'
p1331
sg1268
S'Intrinsic Rotation Measure (rad/m2)'
p1332
sg1220
S'minor axis (arcsec)'
p1333
sg155
g256
sg1275
S'Stokes Q (percentage of I)'
p1334
sg1219
S'name of calibrator source/patch \n- unpol:   unpolarised, I=1Jy \n- unpol2:  idem, I=2Jy \n- unpol10: idem, I=10Jy \n- RMtest:  Rotation Measure \n- SItest:  Spectral Index \n- QUV:     non-zero Q,U,V \n- QU:      non-zero Q,U \n- QU2:     stronger version of QU \n- Qonly:   non-zero Q \n- Uonly:   non-zero U \n- Vonly:   non-zero V \n- 3c286:   \n- 3c48:    \n- 3c295:   \n- 3c147:   \n- D1:      cps in D1.MS \n'
p1335
sg1295
S'Declination (rad, J2000)'
p1336
sg1218
S'If True, attach to forest state record'
p1337
sg223
g258
sg1304
S'Spectral Index (generalised)\n   A scalar represents the classical SI: I(f)=I0*(f/f0)^SI\n   A vector represents a freq-dependent SI (....)'
p1338
sg157
g260
sg180
g249
ssg129
S'Make a Sixpack (I,Q,U,V,Ra,Dec) for a source with NEWSTAR parametrisation'
p1339
ssg1268
Nsg1220
F0.0
sg1265
F1.4950000000000001
sg155
F1.0
sg1275
Nsg1219
g1279
sg1295
F0.87
sg1217
Nsg1218
I01
sg223
I01
sg1304
Nsg157
Nsg180
I01
ssS'[simul]./MG_JEN_Cohset.predict_lsm()'
p1340
(dp1341
g2
S'@@polrep'
p1342
sg25
S'@@stations'
p1343
sg18
(dp1344
g20
S'MG_JEN_Cohset::predict_lsm()'
p1345
sg22
g1340
sg23
(dp1346
g27
I01
sg28
I01
sg29
I01
sg2
I01
sg25
I01
ssg30
S'MG_JEN_Cohsetpredict_lsm'
p1347
sg32
g33
sg34
S'MG_JEN_Cohset::predict_lsm()  version=20mar2006  defined=2006-03-31 16:56'
p1348
sg36
S'predict_lsm'
p1349
sg38
(dp1350
g2
(lp1351
g3
ag41
ag1342
asg25
(lp1352
(lp1353
I0
aI1
aI2
aI3
aI4
aa(lp1354
I0
aI1
aI2
aI3
aI4
aI5
aI6
aa(lp1355
I0
aI1
aI2
aI3
aI4
aI5
aI6
aI7
aI8
aI9
aI10
aI11
aI12
aI13
aa(lp1356
I0
aI1
aI2
aI3
aI4
aI5
aI6
aI7
aI8
aI9
aI10
aI11
aI12
aI13
aI14
aag47
ag1343
asS'nr_lsm_sources'
p1357
(lp1358
I1
aI2
aI3
aI5
aI10
aI20
aI100
aS'@@nr_lsm_sources'
p1359
asg27
(lp1360
NaS'@@@Jsequence_KJones'
p1361
asg28
(lp1362
NaS'@@@Jsequence_simul'
p1363
asg29
(lp1364
NaS'@@@Jsequence'
p1365
assg80
S'simul'
p1366
sg82
I00
sg83
S'2006-03-31 16:56'
p1367
sg85
S'20mar2006'
p1368
sg87
S'MG_JEN_Cohset'
p1369
sg89
S'** Specific description of inarg record for: MG_JEN_Cohset::predict_lsm()  version=20mar2006  defined=2006-03-31 16:56'
p1370
sg91
(dp1371
g95
S'** JEN_inarg.attach(): attached: [simul_imp]./MG_JEN_Cohset.Jones()'
p1372
ssg109
g1367
sg110
(dp1373
g2
I00
sg25
I00
ssg112
(lp1374
g18
ag1357
ag25
ag2
ag29
ag28
ag27
aS'[simul_imp]./MG_JEN_Cohset.Jones()'
p1375
asg121
(dp1376
g2
g123
sg25
g124
sg1357
S'nr of lsm sources to be included (in order of brightness'
p1377
sg27
g128
sg28
g128
sg29
g128
ssg129
S'Obsolete (upward compatibility) version of .predict_cps()'
p1378
ssg1357
I1
sg27
Nsg28
Nsg1375
(dp1379
S'[simul_imp]./MG_JEN_Joneset.BJones()'
p1380
(dp1381
g132
I00
sg2
S'@@polrep'
p1382
sg135
g136
sg294
g295
sg137
I00
sg296
Nsg141
Nsg142
I10
sg143
g144
sg147
g148
sg297
I5
sg149
g150
sg151
Nsg18
(dp1383
g20
S'MG_JEN_Joneset::BJones()'
p1384
sg22
g1380
sg23
(dp1385
g143
I01
sg2
I01
sg155
I01
sg147
I01
sg25
I01
sg135
I01
sg156
I01
sg149
I01
sg26
I01
sg151
I01
sg157
I01
sg12
I01
sg27
I01
sg28
I01
sg142
I01
sg141
I01
sg29
I01
ssg129
g302
sg32
g33
sg34
S'MG_JEN_Joneset::BJones()  version=16dec2005  defined=2006-03-31 16:56'
p1386
sg36
S'BJones'
p1387
sg38
(dp1388
g132
(lp1389
I01
aI00
aS'@@reset_funklet'
p1390
asg2
(lp1391
g3
ag41
ag1382
asg135
(lp1392
g136
aS'@@color'
p1393
asg294
(lp1394
g295
aNaI1
aI2
aI5
aI10
aI20
aI50
aI100
aI200
aI500
aS'@@subtile_size_Bimag'
p1395
asg137
(lp1396
I01
aI00
aS'@@save_all'
p1397
asg296
(lp1398
NaI1
aI2
aI5
aI10
aI20
aI50
aI100
aI200
aI500
aS'@@subtile_size_Breal'
p1399
asg141
(lp1400
NaS'@@unit'
p1401
asg142
(lp1402
I10
aS'@@size'
p1403
asg143
(lp1404
g144
aS'@@style'
p1405
asg147
(lp1406
g148
aS'@@descr'
p1407
asg297
(lp1408
I3
aI4
aI5
aI6
aS'@@fdeg_Breal'
p1409
asg149
(lp1410
g150
aS'@@condeq_corrs'
p1411
asg151
(lp1412
NaS'@@funklet_shape'
p1413
asg180
(lp1414
I01
aI00
aS'@@auto_save'
p1415
asg27
(lp1416
g54
aS'@@@Jsequence_KJones'
p1417
asg335
(lp1418
I0
aI1
aI2
aI3
ag337
aS'@@tdeg_Bimag'
p1419
asg29
(lp1420
g54
aS'@@@Jsequence'
p1421
asg155
(lp1422
F1.0
aS'@@c00_default'
p1423
asg343
(lp1424
I3
aI4
aI5
aI6
ag345
aS'@@fdeg_Bimag'
p1425
asg26
(lp1426
I00
aS'@@uvplane_effect'
p1427
asg25
(lp1428
(lp1429
I0
aI1
aI2
aI3
aI4
aa(lp1430
I0
aI1
aI2
aI3
aI4
aI5
aI6
aa(lp1431
I0
aI1
aI2
aI3
aI4
aI5
aI6
aI7
aI8
aI9
aI10
aI11
aI12
aI13
aa(lp1432
I0
aI1
aI2
aI3
aI4
aI5
aI6
aI7
aI8
aI9
aI10
aI11
aI12
aI13
aI14
aag47
aS'@@stations'
p1433
asg157
(lp1434
NaS'@@tfdeg'
p1435
asg357
(lp1436
I0
aI1
aI2
aI3
aS'@@tdeg_Breal'
p1437
asg223
(lp1438
I01
aI00
aS'@@use_previous'
p1439
asg156
(lp1440
NaS'@@subtile_size'
p1441
asg12
(lp1442
Nag72
aS'@@parmtable'
p1443
asg28
(lp1444
g54
aS'@@@Jsequence_simul'
p1445
assg80
S'simul_imp'
p1446
sg82
I00
sg83
S'2006-03-31 16:56'
p1447
sg85
g369
sg87
S'MG_JEN_Joneset'
p1448
sg237
(dp1449
g132
I00
sg137
I00
sg180
I00
sg223
I00
ssg89
S'** Specific description of inarg record for: MG_JEN_Joneset::BJones()  version=16dec2005  defined=2006-03-31 16:56'
p1450
sg110
(dp1451
g26
I00
sg12
I00
sg2
I00
sg25
I00
ssg109
g1447
sg112
(lp1452
g18
ag25
ag2
ag29
ag28
ag27
ag12
ag26
ag357
ag335
ag297
ag343
ag296
ag294
ag223
ag180
ag137
ag132
ag147
ag141
ag135
ag143
ag142
ag155
ag157
ag151
ag156
ag149
asg121
(dp1453
g132
g243
sg2
g123
sg135
g245
sg294
g376
sg137
g246
sg296
g376
sg141
g141
sg142
g250
sg143
g251
sg147
g252
sg297
g377
sg149
g253
sg151
g254
sg180
g249
sg27
g128
sg335
g378
sg29
g128
sg155
g256
sg343
g377
sg26
g126
sg25
g124
sg157
g260
sg357
g378
sg223
g258
sg156
g259
sg12
g127
sg28
g128
ssg30
S'MG_JEN_JonesetBJones'
p1454
ssg27
g54
sg335
g337
sg29
g54
sg155
F1.0
sg343
g345
sg26
g1427
sg25
g1433
sg157
Nsg357
I0
sg223
I01
sg156
Nsg12
g1443
sg28
g54
sg180
I01
ssg2
S'@@polrep'
p1455
sS'[simul_imp]./MG_JEN_Joneset.EJones_WSRT()'
p1456
(dp1457
g132
I00
sg2
S'@@polrep'
p1458
sg135
g136
sg137
I00
sg141
Nsg12
S'@@parmtable'
p1459
sg180
I01
sg142
I10
sg641
I0
sg642
g643
sg143
g144
sg147
g148
sg156
Nsg149
g150
sg151
Nsg18
(dp1460
g20
S'MG_JEN_Joneset::EJones_WSRT()'
p1461
sg22
g1456
sg23
(dp1462
g143
I01
sg2
I01
sg155
I01
sg147
I01
sg25
I01
sg135
I01
sg156
I01
sg149
I01
sg26
I01
sg151
I01
sg157
I01
sg12
I01
sg27
I01
sg28
I01
sg142
I01
sg141
I01
sg29
I01
ssg129
g651
sg32
g33
sg34
S'MG_JEN_Joneset::EJones_WSRT()  version=15dec2005  defined=2006-03-31 16:56'
p1463
sg36
S'EJones_WSRT'
p1464
sg38
(dp1465
g132
(lp1466
I01
aI00
aS'@@reset_funklet'
p1467
asg2
(lp1468
g3
ag41
ag1458
asg135
(lp1469
g136
aS'@@color'
p1470
asg137
(lp1471
I01
aI00
aS'@@save_all'
p1472
asg12
(lp1473
Nag72
ag1459
asg141
(lp1474
NaS'@@unit'
p1475
asg142
(lp1476
I10
aS'@@size'
p1477
asg641
(lp1478
I0
aI1
aI2
aI3
aS'@@tdeg_Edl'
p1479
asg642
(lp1480
I0
aI1
aI2
aI3
ag643
aS'@@tdeg_Edm'
p1481
asg143
(lp1482
g144
aS'@@style'
p1483
asg147
(lp1484
g148
aS'@@descr'
p1485
asg156
(lp1486
NaS'@@subtile_size'
p1487
asg149
(lp1488
g150
aS'@@condeq_corrs'
p1489
asg151
(lp1490
NaS'@@funklet_shape'
p1491
asg180
(lp1492
I01
aI00
aS'@@auto_save'
p1493
asg27
(lp1494
g63
aS'@@@Jsequence_KJones'
p1495
asg29
(lp1496
g63
aS'@@@Jsequence'
p1497
asg155
(lp1498
F1.0
aS'@@c00_default'
p1499
asg26
(lp1500
I00
aS'@@uvplane_effect'
p1501
asg25
(lp1502
(lp1503
I0
aI1
aI2
aI3
aI4
aa(lp1504
I0
aI1
aI2
aI3
aI4
aI5
aI6
aa(lp1505
I0
aI1
aI2
aI3
aI4
aI5
aI6
aI7
aI8
aI9
aI10
aI11
aI12
aI13
aa(lp1506
I0
aI1
aI2
aI3
aI4
aI5
aI6
aI7
aI8
aI9
aI10
aI11
aI12
aI13
aI14
aag47
aS'@@stations'
p1507
asg157
(lp1508
NaS'@@tfdeg'
p1509
asg223
(lp1510
I01
aI00
aS'@@use_previous'
p1511
asg644
(lp1512
NaI1
aI2
aI5
aI10
aI20
aI50
aI100
aI200
aI500
aS'@@subtile_size_Edl'
p1513
asg645
(lp1514
g646
aNaI1
aI2
aI5
aI10
aI20
aI50
aI100
aI200
aI500
aS'@@subtile_size_Edm'
p1515
asg28
(lp1516
g63
aS'@@@Jsequence_simul'
p1517
asg707
(lp1518
I0
aI1
aI2
aI3
aS'@@fdeg_Edl'
p1519
asg710
(lp1520
I0
aI1
aI2
aI3
ag712
aS'@@fdeg_Edm'
p1521
assg80
g1446
sg82
I00
sg83
S'2006-03-31 16:56'
p1522
sg85
g533
sg87
S'MG_JEN_Joneset'
p1523
sg237
(dp1524
g132
I00
sg137
I00
sg180
I00
sg223
I00
ssg89
S'** Specific description of inarg record for: MG_JEN_Joneset::EJones_WSRT()  version=15dec2005  defined=2006-03-31 16:56'
p1525
sg110
(dp1526
g26
I00
sg12
I00
sg2
I00
sg25
I00
ssg109
g1522
sg112
(lp1527
g18
ag25
ag2
ag29
ag28
ag27
ag12
ag26
ag641
ag642
ag707
ag710
ag644
ag645
ag223
ag180
ag137
ag132
ag147
ag141
ag135
ag143
ag142
ag155
ag157
ag151
ag156
ag149
asg121
(dp1528
g132
g243
sg2
g123
sg135
g245
sg137
g246
sg12
g127
sg141
g141
sg142
g250
sg641
g721
sg642
g721
sg143
g251
sg147
g252
sg156
g259
sg149
g253
sg151
g254
sg180
g249
sg27
g128
sg29
g128
sg155
g256
sg26
g126
sg25
g124
sg157
g260
sg223
g258
sg644
g722
sg645
g722
sg28
g128
sg707
g723
sg710
g723
ssg30
S'MG_JEN_JonesetEJones_WSRT'
p1529
ssg27
g63
sg29
g63
sg155
F1.0
sg26
g1501
sg25
g1507
sg157
Nsg223
I01
sg644
Nsg645
g646
sg28
g63
sg707
I0
sg710
g712
ssg25
S'@@stations'
p1530
sS'[simul_imp]./MG_JEN_Joneset.GJones()'
p1531
(dp1532
g132
I00
sg2
S'@@polrep'
p1533
sg455
I0
sg135
g136
sg137
I00
sg12
S'@@parmtable'
p1534
sg141
Nsg142
I10
sg143
g144
sg147
g148
sg457
I1
sg149
g150
sg151
Nsg18
(dp1535
g20
S'MG_JEN_Joneset::GJones()'
p1536
sg22
g1531
sg23
(dp1537
g142
I01
sg143
I01
sg2
I01
sg155
I01
sg147
I01
sg25
I01
sg135
I01
sg156
I01
sg149
I01
sg26
I01
sg151
I01
sg157
I01
sg12
I01
sg27
I01
sg28
I01
sg461
I01
sg141
I01
sg29
I01
ssg129
g463
sg32
g33
sg34
S'MG_JEN_Joneset::GJones()  version=15dec2005  defined=2006-03-31 16:56'
p1538
sg36
S'GJones'
p1539
sg38
(dp1540
g132
(lp1541
I01
aI00
aS'@@reset_funklet'
p1542
asg2
(lp1543
g3
ag41
ag1533
asg455
(lp1544
I0
aI1
aI2
aI3
aS'@@fdeg_Ggain'
p1545
asg135
(lp1546
g136
aS'@@color'
p1547
asg137
(lp1548
I01
aI00
aS'@@save_all'
p1549
asg12
(lp1550
Nag72
ag1534
asg141
(lp1551
NaS'@@unit'
p1552
asg142
(lp1553
I10
aS'@@size'
p1554
asg143
(lp1555
g144
aS'@@style'
p1556
asg147
(lp1557
g148
aS'@@descr'
p1558
asg457
(lp1559
NaI1
aI2
aI5
aI10
aI20
aI50
aI100
aI200
aI500
aS'@@subtile_size_Ggain'
p1560
asg149
(lp1561
g150
aS'@@condeq_corrs'
p1562
asg151
(lp1563
NaS'@@funklet_shape'
p1564
asg180
(lp1565
I01
aI00
aS'@@auto_save'
p1566
asg27
(lp1567
g52
aS'@@@Jsequence_KJones'
p1568
asg29
(lp1569
g52
aS'@@@Jsequence'
p1570
asg155
(lp1571
F1.0
aS'@@c00_default'
p1572
asg499
(lp1573
I0
aI1
aI2
aI3
ag501
aS'@@tdeg_Gphase'
p1574
asg503
(lp1575
I0
aI1
aI2
aI3
aS'@@tdeg_Ggain'
p1576
asg506
(lp1577
I0
aI1
aI2
aI3
ag508
aS'@@fdeg_Gphase'
p1578
asg510
(lp1579
g512
aNaI1
aI2
aI5
aI10
aI20
aI50
aI100
aI200
aI500
aS'@@subtile_size_Gphase'
p1580
asg461
(lp1581
I01
aI00
aS'@@Gpolar'
p1582
asg26
(lp1583
I00
aS'@@uvplane_effect'
p1584
asg25
(lp1585
(lp1586
I0
aI1
aI2
aI3
aI4
aa(lp1587
I0
aI1
aI2
aI3
aI4
aI5
aI6
aa(lp1588
I0
aI1
aI2
aI3
aI4
aI5
aI6
aI7
aI8
aI9
aI10
aI11
aI12
aI13
aa(lp1589
I0
aI1
aI2
aI3
aI4
aI5
aI6
aI7
aI8
aI9
aI10
aI11
aI12
aI13
aI14
aag47
aS'@@stations'
p1590
asg223
(lp1591
I01
aI00
aS'@@use_previous'
p1592
asg156
(lp1593
NaS'@@subtile_size'
p1594
asg157
(lp1595
NaS'@@tfdeg'
p1596
asg28
(lp1597
g52
aS'@@@Jsequence_simul'
p1598
assg80
g1446
sg82
I00
sg83
S'2006-03-31 16:56'
p1599
sg85
g533
sg87
S'MG_JEN_Joneset'
p1600
sg237
(dp1601
g132
I00
sg461
I00
sg137
I00
sg180
I00
sg223
I00
ssg89
S'** Specific description of inarg record for: MG_JEN_Joneset::GJones()  version=15dec2005  defined=2006-03-31 16:56'
p1602
sg110
(dp1603
g26
I00
sg12
I00
sg2
I00
sg25
I00
ssg109
g1599
sg112
(lp1604
g18
ag25
ag2
ag29
ag28
ag27
ag461
ag12
ag26
ag503
ag499
ag455
ag506
ag457
ag510
ag223
ag180
ag137
ag132
ag147
ag141
ag135
ag143
ag142
ag155
ag157
ag151
ag156
ag149
asg121
(dp1605
g132
g243
sg2
g123
sg455
g540
sg135
g245
sg137
g246
sg12
g127
sg141
g141
sg142
g250
sg143
g251
sg147
g252
sg457
g541
sg149
g253
sg151
g254
sg180
g249
sg27
g128
sg29
g128
sg155
g256
sg499
g542
sg503
g542
sg506
g540
sg510
g541
sg461
g543
sg26
g126
sg25
g124
sg223
g258
sg156
g259
sg157
g260
sg28
g128
ssg30
S'MG_JEN_JonesetGJones'
p1606
ssg27
g52
sg29
g52
sg155
F1.0
sg499
g501
sg503
I0
sg506
g508
sg510
g512
sg461
I01
sg26
g1584
sg25
g1590
sg223
I01
sg156
Nsg157
Nsg28
g52
sg180
I01
ssS'[simul_imp]./MG_JEN_Joneset.DJones_WSRT()'
p1607
(dp1608
g132
I00
sg2
S'@@polrep'
p1609
sg135
g136
sg546
g547
sg548
I01
sg137
I00
sg141
Nsg12
S'@@parmtable'
p1610
sg550
Nsg180
I01
sg142
I10
sg143
g144
sg147
g148
sg149
g150
sg151
Nsg18
(dp1611
g20
S'MG_JEN_Joneset::DJones_WSRT()'
p1612
sg22
g1607
sg23
(dp1613
g143
I01
sg2
I01
sg155
I01
sg147
I01
sg25
I01
sg135
I01
sg156
I01
sg149
I01
sg26
I01
sg151
I01
sg157
I01
sg12
I01
sg27
I01
sg28
I01
sg142
I01
sg141
I01
sg29
I01
ssg129
g555
sg32
g33
sg34
S'MG_JEN_Joneset::DJones_WSRT()  version=16dec2005  defined=2006-03-31 16:56'
p1614
sg36
S'DJones_WSRT'
p1615
sg38
(dp1616
g132
(lp1617
I01
aI00
aS'@@reset_funklet'
p1618
asg2
(lp1619
g3
ag41
ag1609
asg135
(lp1620
g136
aS'@@color'
p1621
asg546
(lp1622
I0
aI1
aI2
aI3
ag547
aS'@@fdeg_Dell'
p1623
asg548
(lp1624
I01
aI00
aS'@@coupled_XY_Dell'
p1625
asg137
(lp1626
I01
aI00
aS'@@save_all'
p1627
asg12
(lp1628
Nag72
ag1610
asg550
(lp1629
NaI1
aI2
aI5
aI10
aI20
aI50
aI100
aI200
aI500
aS'@@subtile_size_Dang'
p1630
asg141
(lp1631
NaS'@@unit'
p1632
asg142
(lp1633
I10
aS'@@size'
p1634
asg143
(lp1635
g144
aS'@@style'
p1636
asg147
(lp1637
g148
aS'@@descr'
p1638
asg149
(lp1639
g150
aS'@@condeq_corrs'
p1640
asg151
(lp1641
NaS'@@funklet_shape'
p1642
asg180
(lp1643
I01
aI00
aS'@@auto_save'
p1644
asg27
(lp1645
g60
aS'@@@Jsequence_KJones'
p1646
asg589
(lp1647
g591
aNaI1
aI2
aI5
aI10
aI20
aI50
aI100
aI200
aI500
aS'@@subtile_size_Dell'
p1648
asg29
(lp1649
g60
aS'@@@Jsequence'
p1650
asg595
(lp1651
I0
aI1
aI2
aI3
aS'@@fdeg_Dang'
p1652
asg155
(lp1653
F1.0
aS'@@c00_default'
p1654
asg26
(lp1655
I00
aS'@@uvplane_effect'
p1656
asg602
(lp1657
I0
aI1
aI2
aI3
ag604
aS'@@tdeg_Dell'
p1658
asg606
(lp1659
I01
aI00
aS'@@coupled_XY_Dang'
p1660
asg609
(lp1661
I0
aI1
aI2
aI3
aS'@@tdeg_Dang'
p1662
asg25
(lp1663
(lp1664
I0
aI1
aI2
aI3
aI4
aa(lp1665
I0
aI1
aI2
aI3
aI4
aI5
aI6
aa(lp1666
I0
aI1
aI2
aI3
aI4
aI5
aI6
aI7
aI8
aI9
aI10
aI11
aI12
aI13
aa(lp1667
I0
aI1
aI2
aI3
aI4
aI5
aI6
aI7
aI8
aI9
aI10
aI11
aI12
aI13
aI14
aag47
aS'@@stations'
p1668
asg223
(lp1669
I01
aI00
aS'@@use_previous'
p1670
asg156
(lp1671
NaS'@@subtile_size'
p1672
asg157
(lp1673
NaS'@@tfdeg'
p1674
asg28
(lp1675
g60
aS'@@@Jsequence_simul'
p1676
assg80
g1446
sg82
I00
sg83
S'2006-03-31 16:56'
p1677
sg85
g369
sg87
S'MG_JEN_Joneset'
p1678
sg237
(dp1679
g132
I00
sg548
I00
sg137
I00
sg606
I00
sg223
I00
sg180
I00
ssg89
S'** Specific description of inarg record for: MG_JEN_Joneset::DJones_WSRT()  version=16dec2005  defined=2006-03-31 16:56'
p1680
sg110
(dp1681
g26
I00
sg12
I00
sg2
I00
sg25
I00
ssg109
g1677
sg112
(lp1682
g18
ag25
ag2
ag29
ag28
ag27
ag606
ag548
ag12
ag26
ag609
ag602
ag595
ag546
ag550
ag589
ag223
ag180
ag137
ag132
ag147
ag141
ag135
ag143
ag142
ag155
ag157
ag151
ag156
ag149
asg121
(dp1683
g132
g243
sg2
g123
sg135
g245
sg546
g633
sg548
g634
sg137
g246
sg12
g127
sg550
g635
sg141
g141
sg142
g250
sg143
g251
sg147
g252
sg149
g253
sg151
g254
sg180
g249
sg27
g128
sg589
g635
sg29
g128
sg595
g633
sg155
g256
sg26
g126
sg602
g636
sg606
g637
sg609
g636
sg25
g124
sg223
g258
sg156
g259
sg157
g260
sg28
g128
ssg30
S'MG_JEN_JonesetDJones_WSRT'
p1684
ssg27
g60
sg589
g591
sg29
g60
sg595
I0
sg155
F1.0
sg26
g1656
sg602
g604
sg606
I01
sg609
I0
sg25
g1668
sg223
I01
sg156
Nsg157
Nsg28
g60
ssg26
S'@@uvplane_effect'
p1685
sg12
S'@@parmtable'
p1686
sg18
(dp1687
g20
g21
sg22
g1375
sg23
(dp1688
g2
I01
sg25
I01
sg26
I01
sg12
I01
sg27
I01
sg28
I01
sg29
I01
ssg30
S'MG_JEN_CohsetJones'
p1689
sg32
g33
sg129
g130
sg34
S'MG_JEN_Cohset::Jones()  version=25dec2005  defined=2006-03-31 16:56'
p1690
sg36
S'Jones'
p1691
sg38
(dp1692
g2
(lp1693
g3
ag41
ag1455
asg25
(lp1694
(lp1695
I0
aI1
aI2
aI3
aI4
aa(lp1696
I0
aI1
aI2
aI3
aI4
aI5
aI6
aa(lp1697
I0
aI1
aI2
aI3
aI4
aI5
aI6
aI7
aI8
aI9
aI10
aI11
aI12
aI13
aa(lp1698
I0
aI1
aI2
aI3
aI4
aI5
aI6
aI7
aI8
aI9
aI10
aI11
aI12
aI13
aI14
aag47
ag1530
asg26
(lp1699
I00
ag1685
asg12
(lp1700
Nag72
ag1686
asg27
(lp1701
NaS'@@@Jsequence_KJones'
p1702
asg28
(lp1703
NaS'@@@Jsequence_simul'
p1704
asS'Jsequence_simul_imp'
p1705
(lp1706
(lp1707
g52
aa(lp1708
g54
aa(lp1709
g56
aa(lp1710
g58
aa(lp1711
g60
aa(lp1712
g52
ag60
aa(lp1713
g63
aa(lp1714
g52
ag63
aa(lp1715
g66
aa(lp1716
aS'@@Jsequence_simul_imp'
p1717
asg29
(lp1718
NaS'@@@Jsequence'
p1719
assg80
g1446
sg82
I00
sg83
S'2006-03-31 16:56'
p1720
sg85
g86
sg87
S'MG_JEN_Cohset'
p1721
sg89
S'** Specific description of inarg record for: MG_JEN_Cohset::Jones()  version=25dec2005  defined=2006-03-31 16:56'
p1722
sg91
(dp1723
g93
S'** JEN_inarg.attach(): attached: [simul_imp]./MG_JEN_Joneset.FJones()'
p1724
sg95
S'** JEN_inarg.attach(): attached: [simul_imp]./MG_JEN_Joneset.GJones()'
p1725
sg97
S'** JEN_inarg.attach(): attached: [simul_imp]./MG_JEN_Joneset.KJones()'
p1726
sg99
S'** JEN_inarg.attach(): attached: [simul_imp]./MG_JEN_Joneset.BJones()'
p1727
sg101
S'** JEN_inarg.attach(): attached: [simul_imp]./MG_JEN_Joneset.EJones_WSRT()'
p1728
sg103
S'** JEN_inarg.attach(): attached: [simul_imp]./MG_JEN_Joneset.DJones_WSRT()'
p1729
sg107
S'** JEN_inarg.attach(): attached: [simul_imp]./MG_JEN_Joneset.JJones()'
p1730
ssg109
g1720
sg110
(dp1731
g26
I00
sg12
I00
sg2
I00
sg25
I00
ssg112
(lp1732
g18
ag25
ag2
ag29
ag28
ag27
ag12
ag26
ag1705
ag1531
aS'[simul_imp]./MG_JEN_Joneset.FJones()'
p1733
ag1380
aS'[simul_imp]./MG_JEN_Joneset.KJones()'
p1734
ag1607
ag1456
aS'[simul_imp]./MG_JEN_Joneset.JJones()'
p1735
asg121
(dp1736
g2
g123
sg25
g124
sg26
g126
sg12
g127
sg27
g128
sg28
g128
sg1705
g125
sg29
g128
sssg1735
(dp1737
g132
I00
sg2
S'@@polrep'
p1738
sg134
I0
sg135
g136
sg137
I00
sg138
Nsg12
S'@@parmtable'
p1739
sg140
Nsg141
Nsg142
I10
sg143
g144
sg145
g146
sg147
g148
sg149
g150
sg151
Nsg18
(dp1740
g20
S'MG_JEN_Joneset::JJones()'
p1741
sg22
g1735
sg23
(dp1742
g143
I01
sg2
I01
sg155
I01
sg147
I01
sg25
I01
sg135
I01
sg156
I01
sg149
I01
sg26
I01
sg151
I01
sg157
I01
sg12
I01
sg27
I01
sg28
I01
sg142
I01
sg141
I01
sg29
I01
ssg129
g159
sg32
g33
sg34
S'MG_JEN_Joneset::JJones()  version=14feb2006  defined=2006-03-31 16:56'
p1743
sg36
S'JJones'
p1744
sg38
(dp1745
g132
(lp1746
I01
aI00
aS'@@reset_funklet'
p1747
asg2
(lp1748
g3
ag41
ag1738
asg134
(lp1749
I0
aI1
aI2
aI3
aS'@@tdeg_Jreal'
p1750
asg135
(lp1751
g136
aS'@@color'
p1752
asg137
(lp1753
I01
aI00
aS'@@save_all'
p1754
asg138
(lp1755
Na(lp1756
I14
aa(lp1757
I1
aag175
aS'@@all4_always'
p1758
asg12
(lp1759
Nag72
ag1739
asg140
(lp1760
NaI1
aI2
aI5
aI10
aI20
aI50
aI100
aI200
aI500
aS'@@subtile_size_Jreal'
p1761
asg141
(lp1762
NaS'@@unit'
p1763
asg142
(lp1764
I10
aS'@@size'
p1765
asg143
(lp1766
g144
aS'@@style'
p1767
asg145
(lp1768
I0
aI1
aI2
aI3
ag146
aS'@@tdeg_Jimag'
p1769
asg147
(lp1770
g148
aS'@@descr'
p1771
asg149
(lp1772
g150
aS'@@condeq_corrs'
p1773
asg151
(lp1774
NaS'@@funklet_shape'
p1775
asg180
(lp1776
I01
aI00
aS'@@auto_save'
p1777
asg27
(lp1778
g66
aS'@@@Jsequence_KJones'
p1779
asg199
(lp1780
I0
aI1
aI2
aI3
aS'@@fdeg_Jreal'
p1781
asg155
(lp1782
F1.0
aS'@@c00_default'
p1783
asg26
(lp1784
I00
aS'@@uvplane_effect'
p1785
asg206
(lp1786
I0
aI1
aI2
aI3
ag208
aS'@@fdeg_Jimag'
p1787
asg210
(lp1788
g212
aNaI1
aI2
aI5
aI10
aI20
aI50
aI100
aI200
aI500
aS'@@subtile_size_Jimag'
p1789
asg25
(lp1790
(lp1791
I0
aI1
aI2
aI3
aI4
aa(lp1792
I0
aI1
aI2
aI3
aI4
aI5
aI6
aa(lp1793
I0
aI1
aI2
aI3
aI4
aI5
aI6
aI7
aI8
aI9
aI10
aI11
aI12
aI13
aa(lp1794
I0
aI1
aI2
aI3
aI4
aI5
aI6
aI7
aI8
aI9
aI10
aI11
aI12
aI13
aI14
aag47
aS'@@stations'
p1795
asg220
(lp1796
I01
aI00
aS'@@diagonal_only'
p1797
asg223
(lp1798
I01
aI00
aS'@@use_previous'
p1799
asg156
(lp1800
NaS'@@subtile_size'
p1801
asg157
(lp1802
NaS'@@tfdeg'
p1803
asg28
(lp1804
g66
aS'@@@Jsequence_simul'
p1805
asg29
(lp1806
g66
aS'@@@Jsequence'
p1807
assg80
g1446
sg82
I00
sg83
S'2006-03-31 16:56'
p1808
sg85
g235
sg87
S'MG_JEN_Joneset'
p1809
sg237
(dp1810
g132
I00
sg220
I00
sg137
I00
sg180
I00
sg223
I00
ssg89
S'** Specific description of inarg record for: MG_JEN_Joneset::JJones()  version=14feb2006  defined=2006-03-31 16:56'
p1811
sg110
(dp1812
g26
I00
sg12
I00
sg2
I00
sg25
I00
ssg109
g1808
sg112
(lp1813
g18
ag25
ag2
ag29
ag28
ag27
ag220
ag138
ag12
ag26
ag134
ag145
ag199
ag206
ag140
ag210
ag223
ag180
ag137
ag132
ag147
ag141
ag135
ag143
ag142
ag155
ag157
ag151
ag156
ag149
asg121
(dp1814
g132
g243
sg2
g123
sg134
g244
sg135
g245
sg137
g246
sg138
g247
sg12
g127
sg140
g248
sg141
g141
sg142
g250
sg143
g251
sg145
g244
sg147
g252
sg149
g253
sg151
g254
sg180
g249
sg27
g128
sg199
g255
sg155
g256
sg26
g126
sg206
g255
sg210
g248
sg25
g124
sg220
g257
sg223
g258
sg156
g259
sg157
g260
sg28
g128
sg29
g128
ssg30
S'MG_JEN_JonesetJJones'
p1815
ssg27
g66
sg199
I0
sg155
F1.0
sg26
g1785
sg206
g208
sg210
g212
sg25
g1795
sg220
I00
sg223
I01
sg156
Nsg157
Nsg28
g66
sg29
g66
sg180
I01
ssg27
Nsg28
Nsg29
Nsg1734
(dp1816
g2
S'@@polrep'
p1817
sg25
S'@@stations'
p1818
sg18
(dp1819
g20
S'MG_JEN_Joneset::KJones()'
p1820
sg22
g1734
sg23
(dp1821
g27
I01
sg28
I01
sg29
I01
sg2
I01
sg25
I01
ssg129
g268
sg32
g33
sg34
S'MG_JEN_Joneset::KJones()  version=12dec2005  defined=2006-03-31 16:56'
p1822
sg36
S'KJones'
p1823
sg38
(dp1824
g27
(lp1825
g58
aS'@@@Jsequence_KJones'
p1826
asg28
(lp1827
g58
aS'@@@Jsequence_simul'
p1828
asg29
(lp1829
g58
aS'@@@Jsequence'
p1830
asg2
(lp1831
g3
ag41
ag1817
asg25
(lp1832
(lp1833
I0
aI1
aI2
aI3
aI4
aa(lp1834
I0
aI1
aI2
aI3
aI4
aI5
aI6
aa(lp1835
I0
aI1
aI2
aI3
aI4
aI5
aI6
aI7
aI8
aI9
aI10
aI11
aI12
aI13
aa(lp1836
I0
aI1
aI2
aI3
aI4
aI5
aI6
aI7
aI8
aI9
aI10
aI11
aI12
aI13
aI14
aag47
ag1818
assg80
g1446
sg82
I00
sg83
S'2006-03-31 16:56'
p1837
sg85
g285
sg87
S'MG_JEN_Joneset'
p1838
sg89
S'** Specific description of inarg record for: MG_JEN_Joneset::KJones()  version=12dec2005  defined=2006-03-31 16:56'
p1839
sg110
(dp1840
g2
I00
sg25
I00
ssg109
g1837
sg112
(lp1841
g18
ag25
ag2
ag29
ag28
ag27
asg121
(dp1842
g27
g128
sg28
g128
sg29
g128
sg2
g123
sg25
g124
ssg30
S'MG_JEN_JonesetKJones'
p1843
ssg27
g58
sg28
g58
sg29
g58
ssg1705
(lp1844
sg1733
(dp1845
g132
I00
sg2
S'@@polrep'
p1846
sg135
g136
sg137
I00
sg12
S'@@parmtable'
p1847
sg141
Nsg142
I10
sg143
g144
sg147
g148
sg149
g150
sg151
Nsg18
(dp1848
g20
S'MG_JEN_Joneset::FJones()'
p1849
sg22
g1733
sg23
(dp1850
g143
I01
sg2
I01
sg155
I01
sg147
I01
sg25
I01
sg135
I01
sg156
I01
sg149
I01
sg26
I01
sg151
I01
sg157
I01
sg12
I01
sg27
I01
sg28
I01
sg142
I01
sg141
I01
sg29
I01
ssg129
g386
sg32
g33
sg34
S'MG_JEN_Joneset::FJones()  version=16dec2005  defined=2006-03-31 16:56'
p1851
sg36
S'FJones'
p1852
sg38
(dp1853
g132
(lp1854
I01
aI00
aS'@@reset_funklet'
p1855
asg2
(lp1856
g3
ag41
ag1846
asg135
(lp1857
g136
aS'@@color'
p1858
asg137
(lp1859
I01
aI00
aS'@@save_all'
p1860
asg157
(lp1861
NaS'@@tfdeg'
p1862
asg141
(lp1863
NaS'@@unit'
p1864
asg142
(lp1865
I10
aS'@@size'
p1866
asg143
(lp1867
g144
aS'@@style'
p1868
asg147
(lp1869
g148
aS'@@descr'
p1870
asg149
(lp1871
g150
aS'@@condeq_corrs'
p1872
asg151
(lp1873
NaS'@@funklet_shape'
p1874
asg180
(lp1875
I01
aI00
aS'@@auto_save'
p1876
asg27
(lp1877
g56
aS'@@@Jsequence_KJones'
p1878
asg29
(lp1879
g56
aS'@@@Jsequence'
p1880
asg155
(lp1881
F1.0
aS'@@c00_default'
p1882
asg26
(lp1883
I00
aS'@@uvplane_effect'
p1884
asg25
(lp1885
(lp1886
I0
aI1
aI2
aI3
aI4
aa(lp1887
I0
aI1
aI2
aI3
aI4
aI5
aI6
aa(lp1888
I0
aI1
aI2
aI3
aI4
aI5
aI6
aI7
aI8
aI9
aI10
aI11
aI12
aI13
aa(lp1889
I0
aI1
aI2
aI3
aI4
aI5
aI6
aI7
aI8
aI9
aI10
aI11
aI12
aI13
aI14
aag47
aS'@@stations'
p1890
asg427
(lp1891
I0
aI1
aI2
aI3
aS'@@tdeg_RM'
p1892
asg223
(lp1893
I01
aI00
aS'@@use_previous'
p1894
asg432
(lp1895
I0
aI1
aI2
aI3
aS'@@fdeg_RM'
p1896
asg156
(lp1897
NaS'@@subtile_size'
p1898
asg12
(lp1899
Nag72
ag1847
asg438
(lp1900
NaI1
aI2
aI5
aI10
aI20
aI50
aI100
aI200
aI500
aS'@@subtile_size_RM'
p1901
asg28
(lp1902
g56
aS'@@@Jsequence_simul'
p1903
assg80
g1446
sg82
I00
sg83
S'2006-03-31 16:56'
p1904
sg85
g369
sg87
S'MG_JEN_Joneset'
p1905
sg237
(dp1906
g132
I00
sg137
I00
sg180
I00
sg223
I00
ssg89
S'** Specific description of inarg record for: MG_JEN_Joneset::FJones()  version=16dec2005  defined=2006-03-31 16:56'
p1907
sg110
(dp1908
g26
I00
sg12
I00
sg2
I00
sg25
I00
ssg109
g1904
sg112
(lp1909
g18
ag25
ag2
ag29
ag28
ag27
ag12
ag26
ag427
ag432
ag438
ag223
ag180
ag137
ag132
ag147
ag141
ag135
ag143
ag142
ag155
ag157
ag151
ag156
ag149
asg121
(dp1910
g132
g243
sg2
g123
sg135
g245
sg137
g246
sg157
g260
sg141
g141
sg142
g250
sg143
g251
sg147
g252
sg149
g253
sg151
g254
sg180
g249
sg27
g128
sg29
g128
sg155
g256
sg26
g126
sg25
g124
sg427
g450
sg223
g258
sg432
g451
sg156
g259
sg12
g127
sg438
g452
sg28
g128
ssg30
S'MG_JEN_JonesetFJones'
p1911
ssg27
g56
sg29
g56
sg155
F1.0
sg26
g1884
sg25
g1890
sg427
I0
sg223
I01
sg432
I2
sg156
Nsg157
Nsg438
I1
sg28
g56
sg180
I01
sssg29
NssS'[solve]./MG_JEN_Cohset.predict_cps()'
p1912
(dp1913
g2
S'@@polrep'
p1914
sg25
S'@@stations'
p1915
sg18
(dp1916
g20
S'MG_JEN_Cohset::predict_cps()'
p1917
sg22
g1912
sg23
(dp1918
g27
I01
sg28
I01
sg29
I01
sg2
I01
sg25
I01
ssg30
S'MG_JEN_Cohsetpredict_cps'
p1919
sg32
g33
sg34
S'MG_JEN_Cohset::predict_cps()  version=20mar2006  defined=2006-03-31 16:56'
p1920
sg36
S'predict_cps'
p1921
sg38
(dp1922
g27
(lp1923
NaS'@@@Jsequence_KJones'
p1924
asg28
(lp1925
NaS'@@@Jsequence_simul'
p1926
asg29
(lp1927
NaS'@@@Jsequence'
p1928
asg2
(lp1929
g3
ag41
ag1914
asg25
(lp1930
(lp1931
I0
aI1
aI2
aI3
aI4
aa(lp1932
I0
aI1
aI2
aI3
aI4
aI5
aI6
aa(lp1933
I0
aI1
aI2
aI3
aI4
aI5
aI6
aI7
aI8
aI9
aI10
aI11
aI12
aI13
aa(lp1934
I0
aI1
aI2
aI3
aI4
aI5
aI6
aI7
aI8
aI9
aI10
aI11
aI12
aI13
aI14
aag47
ag1915
assg80
g1222
sg82
I00
sg83
S'2006-03-31 16:56'
p1935
sg85
g1368
sg87
S'MG_JEN_Cohset'
p1936
sg89
S'** Specific description of inarg record for: MG_JEN_Cohset::predict_cps()  version=20mar2006  defined=2006-03-31 16:56'
p1937
sg110
(dp1938
g2
I00
sg25
I00
ssg109
g1935
sg112
(lp1939
g18
ag25
ag2
ag29
ag28
ag27
asg121
(dp1940
g27
g128
sg28
g128
sg29
g128
sg2
g123
sg25
g124
ssg129
g1378
ssg27
Nsg28
Nsg29
Nssg18
(dp1941
g22
S'./MG_JEN_simul.'
p1942
sg121
(dp1943
g27
g128
sg1
S'if True, add to existing uv-data (from MS column)'
p1944
sS'rms_noise_Jy'
p1945
S'rms noise, to be added'
p1946
sg2
g123
sS'master_reqseq'
p1947
S'if True, use a master reqseq for solver(s)'
p1948
sS'LSM_simul'
p1949
S'(file)name of a Local Sky Model to be used for simulation(instead of a predefined punit)'
p1950
sg25
g124
sS'redun'
p1951
S'if True, redundant spacing calibration'
p1952
sg14
S'if True, insert a solver'
p1953
sg10
S'name of the (AIPS++) Measurement Set'
p1954
sS'chain_solvers'
p1955
S'if True, chain the solvers (recommended)'
p1956
sS'num_cells'
p1957
S'if defined, ModRes argument [ntime,nfreq]'
p1958
sg12
g127
sg724
S'(file)name of a Local Sky Model to be used for solving(instead of a predefined punit)'
p1959
sg28
g128
sS'tile_size'
p1960
S'(inputrec) size (in time-slots) of the input data-tile'
p1961
sg26
g126
sg29
g128
ssS'reference'
p1962
I00
sg32
g33
sg87
S'MG_JEN_simul'
p1963
sg23
(dp1964
g27
I01
sg2
I00
sg1947
I01
sg1949
I00
sg25
I00
sS'last_changed'
p1965
I01
sg1951
I00
sg26
I00
sg1955
I01
sg1957
I00
sg724
I00
sg28
I01
sg29
I01
ssS'browse'
p1966
(dp1967
g10
S'*.MS'
p1968
sg1949
S'*.lsm'
p1969
sg724
g1969
ssg85
g533
sg129
S"\n    -------------------------------------------------------------\n    General description of the MeqTree TDL script MG_JEN_simul.py\n    -------------------------------------------------------------\n\n    The MG_JEN_simul.py script is used to put simulated visibilities into the\n    CORRECTED_DATA column of an existing Measurement Set (MS). The original DATA\n    in the MS are untouched. The advantage of this approach is that it is not\n    necessary to specify pointing centre, uv-coverage, spectral-window etc.\n\n    * The input source model is either an existing Local Sky Model (LSM),\n    or a 'punit' point source in the centre of the field.\n\n    * The nominal source visibilities may be corrupted by:\n      - various (uv-plane) Jones matrices\n      - image-plane effects from EJones and IJones (MIM)\n      - ifr-based errors (additive, multiplicative)\n      - noise\n\n    * Optionally, the simulated visibilities may be added to the existing uv-data,\n    either from the DATA column or the CORRECTED_DATA column of the MS\n\n    * Optionally, a parallel solver branch may be inserted, which uses the simulated\n    uv-data to solve for instrumental parameters. The latter may be compared with\n    the simulated instrumental parameters.\n\n    Different types of simulations may be specified by loading (and editing) socalled\n    'inarg' records from files (like this one). These contain input arguments\n    for generating a suitable MeqTree forest for the desired operation.\n    "
p1970
sg237
(dp1971
g1
I00
sg1947
I00
sg1951
I00
sg14
I00
sg1965
I00
ssg34
S'** Top-level CTRL-record of: MG_JEN_simul.inarg'
p1972
sg38
(dp1973
g27
(lp1974
NaS'@@@Jsequence_KJones'
p1975
asg1
(lp1976
I01
aI00
aS'@@add_to_existing'
p1977
asg1945
(lp1978
I0
aF0.01
aF0.10000000000000001
aI1
aS'@@rms_noise_Jy'
p1979
asg2
(lp1980
g3
ag41
aS'@@polrep'
p1981
asg1947
(lp1982
I01
aI00
aS'@@master_reqseq'
p1983
asg1949
(lp1984
NaS'@@LSM_simul'
p1985
asg25
(lp1986
(lp1987
I0
aI1
aI2
aI3
aI4
aa(lp1988
I0
aI1
aI2
aI3
aI4
aI5
aI6
aa(lp1989
I0
aI1
aI2
aI3
aI4
aI5
aI6
aI7
aI8
aI9
aI10
aI11
aI12
aI13
aa(lp1990
I0
aI1
aI2
aI3
aI4
aI5
aI6
aI7
aI8
aI9
aI10
aI11
aI12
aI13
aI14
aag47
aS'@@stations'
p1991
asg1965
(lp1992
S'd30jan2006'
p1993
aS'@@last_changed'
p1994
asg14
(lp1995
I01
aI00
aS'@@insert_solver'
p1996
asg1951
(lp1997
I01
aI00
aS'@@redun'
p1998
asg10
(lp1999
g11
aS'@@ms_name'
p2000
asg1955
(lp2001
I01
aS'@@chain_solvers'
p2002
asg1957
(lp2003
Na(lp2004
I5
aI2
aa(lp2005
I2
aI2
aa(lp2006
I3
aI3
aaS'@@num_cells'
p2007
asg12
(lp2008
Nag72
aS'@@parmtable'
p2009
asg724
(lp2010
NaS'@@LSM_solve'
p2011
asg28
(lp2012
NaS'@@@Jsequence_simul'
p2013
asg1960
(lp2014
I1
aI2
aI3
aI5
aI10
aI20
aI50
aI100
aS'@@tile_size'
p2015
asg26
(lp2016
I00
aS'@@uvplane_effect'
p2017
asg29
(lp2018
NaS'@@@Jsequence'
p2019
assg80
Nsg109
S'2006-03-31 16:56'
p2020
sS'HISTORY'
p2021
(dp2022
g93
S'2006-03-31 16:56: Derived from: MG_JEN_simul_GJones.inarg'
p2023
sg95
S'2006-03-31 16:56: Derived from: MG_JEN_simul.inarg'
p2024
ssg20
g9
sg89
S'Predefined inarg record for simulating with GJones corruption'
p2025
sS'save_file'
p2026
S'MG_JEN_simul_GJones_protected.inarg'
p2027
sS'file_filter'
p2028
S'MG_JEN_simul*.inarg'
p2029
sg36
S''
p2030
sg82
I01
sg83
g2020
sg91
(dp2031
S'20'
p2032
S'  0: ./MG_JEN_simul. (qual=None): .modify(insert_solver):   True  ->  False'
p2033
sS'21'
p2034
S'  0: ./MG_JEN_simul. (qual=None): .modify(parmtable):   None  ->  simul_GJones'
p2035
sS'22'
p2036
S'  0: ./MG_JEN_simul. (qual=None): .modify(LSM_solve):   None  ->  lsm_current.lsm'
p2037
sS'23'
p2038
S".modify(severe=False):   ** NOT OK **   found = {'nr_sources': 0, 'LSM_simul': 1, 'Jsequence_solve_uvp': 1, 'insert_solver': 1, 'parmtable': 25, 'solvegroup': 1, 'LSM_solve': 1, 'num_iter': 1, 'Jsequence_simul_uvp': 1}"
p2039
sg93
S'  0: ./MG_JEN_simul. (qual=None): .modify(tile_size):   10  ->  1'
p2040
sg95
S'  0: ./MG_JEN_simul. (qual=None): .modify(uvplane_effect):   False  ->  True'
p2041
sg97
S'** JEN_inarg.separator(): : uv-data (MS) stream_control'
p2042
sg99
S".modify():   ** OK ** (['uvplane_effect', 'tile_size'])"
p2043
sg101
S'** JEN_inarg.attach(): attached: ./MG_JEN_Cohset.make_spigots()'
p2044
sg103
S'** JEN_inarg.attach(): attached: ./MG_JEN_exec.stream_control()'
p2045
sg105
S'** JEN_inarg.attach(): attached: [simul]./MG_JEN_Sixpack.newstar_source()'
p2046
sg107
S'** JEN_inarg.separator(): : uv-data simulation (LeafSet)'
p2047
sS'9'
p2048
S'** JEN_inarg.attach(): attached: [simul]./MG_JEN_Cohset.predict_cps()'
p2049
sS'8'
p2050
S'** JEN_inarg.attach(): attached: [simul_uvp]./MG_JEN_Cohset.Jones()'
p2051
sS'11'
p2052
S'** JEN_inarg.separator(): : solver-branch (ParmSet)'
p2053
sS'10'
p2054
S'** JEN_inarg.attach(): attached: [simul]./MG_JEN_Cohset.predict_lsm()'
p2055
sS'13'
p2056
S'** JEN_inarg.attach(): attached: [solve_uvp]./MG_JEN_Cohset.Jones()'
p2057
sS'12'
p2058
S'** JEN_inarg.attach(): attached: [solve]./MG_JEN_Sixpack.newstar_source()'
p2059
sS'15'
p2060
S'** JEN_inarg.attach(): attached: [solve]./MG_JEN_Cohset.predict_lsm()'
p2061
sS'14'
p2062
S'** JEN_inarg.attach(): attached: [solve]./MG_JEN_Cohset.predict_cps()'
p2063
sS'17'
p2064
S'** JEN_inarg.separator(): : finishing touches'
p2065
sS'16'
p2066
S'** JEN_inarg.attach(): attached: ./MG_JEN_Cohset.insert_solver()'
p2067
sS'19'
p2068
S'  0: ./MG_JEN_simul. (qual=None): .modify(LSM_simul):   None  ->  lsm_current.lsm'
p2069
sS'18'
p2070
S'** JEN_inarg.attach(): attached: ./MG_JEN_Cohset.make_sinks()'
p2071
ssg112
(lp2072
g18
ag8
ag1965
ag10
ag1960
ag25
ag2
ag29
ag28
ag27
ag12
ag26
ag1955
ag1947
ag1951
ag1957
ag1
ag1945
ag14
ag4
aS'./MG_JEN_exec.stream_control()'
p2073
aS'./MG_JEN_Cohset.make_spigots()'
p2074
aS'_JEN_inarg_separator_record:_2'
p2075
ag1949
aS'[simul]./MG_JEN_Sixpack.newstar_source()'
p2076
ag726
aS'[simul]./MG_JEN_Cohset.predict_cps()'
p2077
ag1340
aS'_JEN_inarg_separator_record:_3'
p2078
ag724
ag1202
ag15
ag1912
aS'[solve]./MG_JEN_Cohset.predict_lsm()'
p2079
aS'./MG_JEN_Cohset.insert_solver()'
p2080
aS'_JEN_inarg_separator_record:_4'
p2081
aS'./MG_JEN_Cohset.make_sinks()'
p2082
assg2082
(dp2083
S'fullDomainMux'
p2084
I01
sS'output_col'
p2085
S'PREDICT'
p2086
sS'visu'
p2087
I01
sS'flag'
p2088
I00
sg18
(dp2089
g20
S'MG_JEN_Cohset::make_sinks()'
p2090
sg22
g2082
sg109
S'2006-03-31 16:56'
p2091
sg89
S'** Specific description of inarg record for: MG_JEN_Cohset::make_sinks()  version=25dec2005  defined=2006-03-31 16:56'
p2092
sg30
S'MG_JEN_Cohsetmake_sinks'
p2093
sg32
g33
sg34
S'MG_JEN_Cohset::make_sinks()  version=25dec2005  defined=2006-03-31 16:56'
p2094
sg36
S'make_sinks'
p2095
sg38
(dp2096
g2088
(lp2097
I01
aI00
aS'@@flag'
p2098
asg2087
(lp2099
I01
aI00
aS'@@visu'
p2100
asg2084
(lp2101
I01
aI00
aS'@@fullDomainMux'
p2102
asg2085
(lp2103
g2086
aS'RESIDUALS'
p2104
aS'DATA'
p2105
aS'@@output_col'
p2106
asS'visu_array_config'
p2107
(lp2108
I01
aI00
aS'@@visu_array_config'
p2109
assg80
Nsg85
g86
sg83
g2091
sg87
S'MG_JEN_Cohset'
p2110
sg237
(dp2111
g2088
I00
sg2087
I00
sg2084
I00
sg2107
I00
ssg82
I00
sg112
(lp2112
g18
ag2085
ag2107
ag2087
ag2088
ag2084
asg121
(dp2113
g2088
S'if True, insert a flagger for the output uv-data'
p2114
sg2087
S'if True, visualise the output uv-data'
p2115
sg2084
S'if True, attach an extra VisDataMux'
p2116
sg2085
S'name of the logical (VisTile) output column'
p2117
sg2107
S'if True, visualise the array config (from MS)'
p2118
ssg129
S'Make sink nodes in the given Cohset object'
p2119
ssg2107
I01
ssg27
Nsg2074
(dp2120
g2088
I00
sg2087
I01
sg18
(dp2121
g20
S'MG_JEN_Cohset::make_spigots()'
p2122
sg22
g2074
sg109
S'2006-03-31 16:56'
p2123
sg23
(dp2124
S'input_col'
p2125
I01
ssg30
S'MG_JEN_Cohsetmake_spigots'
p2126
sg32
g33
sg34
S'MG_JEN_Cohset::make_spigots()  version=25dec2005  defined=2006-03-31 16:56'
p2127
sg36
S'make_spigots'
p2128
sg38
(dp2129
g2088
(lp2130
I01
aI00
aS'@@flag'
p2131
asS'MS_corr_index'
p2132
(lp2133
(lp2134
I0
aI1
aI2
aI3
aa(lp2135
I0
aI-1
aI-1
aI1
aa(lp2136
I0
aI-1
aI-1
aI3
aaS'@@MS_corr_index'
p2137
asg2125
(lp2138
g2105
ag2086
ag2104
aS'@@input_col'
p2139
asg2087
(lp2140
I01
aI00
aS'@@visu'
p2141
assg80
Nsg85
g86
sg83
g2123
sg87
S'MG_JEN_Cohset'
p2142
sg237
(dp2143
g2088
I00
sg2087
I00
ssg89
S'** Specific description of inarg record for: MG_JEN_Cohset::make_spigots()  version=25dec2005  defined=2006-03-31 16:56'
p2144
sg82
I00
sg112
(lp2145
g18
ag2125
ag2132
ag2087
ag2088
asg121
(dp2146
g2088
S'if True, insert a flagger for the input uv-data'
p2147
sg2132
S'correlations to be used: \n- [0,1,2,3]:   all corrs available, use all \n- [0,-1,-1,1]: only XX/YY (or RR/LL) available \n- [0,-1,-1,3]: all available, but use only XX/YY or RR/LL'
p2148
sg2125
S'name of the logical (VisTile) input column'
p2149
sg2087
S'if True, visualise the input uv-data'
p2150
ssg129
S'Make spigot nodes in the given Cohset object'
p2151
ssg2125
g2105
sg2132
(lp2152
I0
aI1
aI2
aI3
assg2079
(dp2153
S'[solve_imp]./MG_JEN_Cohset.Jones()'
p2154
(dp2155
S'[solve_imp]./MG_JEN_Joneset.FJones()'
p2156
(dp2157
g132
I00
sg2
S'@@polrep'
p2158
sg135
g136
sg137
I00
sg12
S'@@parmtable'
p2159
sg141
Nsg142
I10
sg143
g144
sg147
g148
sg149
g150
sg151
Nsg18
(dp2160
g20
S'MG_JEN_Joneset::FJones()'
p2161
sg22
g2156
sg23
(dp2162
g143
I01
sg2
I01
sg155
I01
sg147
I01
sg25
I01
sg135
I01
sg156
I01
sg149
I01
sg26
I01
sg151
I01
sg157
I01
sg12
I01
sg27
I01
sg28
I01
sg142
I01
sg141
I01
sg29
I01
ssg129
g386
sg32
g33
sg34
S'MG_JEN_Joneset::FJones()  version=16dec2005  defined=2006-03-31 16:56'
p2163
sg36
S'FJones'
p2164
sg38
(dp2165
g132
(lp2166
I01
aI00
aS'@@reset_funklet'
p2167
asg2
(lp2168
g3
ag41
ag2158
asg135
(lp2169
g136
aS'@@color'
p2170
asg137
(lp2171
I01
aI00
aS'@@save_all'
p2172
asg157
(lp2173
NaS'@@tfdeg'
p2174
asg141
(lp2175
NaS'@@unit'
p2176
asg142
(lp2177
I10
aS'@@size'
p2178
asg143
(lp2179
g144
aS'@@style'
p2180
asg147
(lp2181
g148
aS'@@descr'
p2182
asg149
(lp2183
g150
aS'@@condeq_corrs'
p2184
asg151
(lp2185
NaS'@@funklet_shape'
p2186
asg180
(lp2187
I01
aI00
aS'@@auto_save'
p2188
asg27
(lp2189
g56
aS'@@@Jsequence_KJones'
p2190
asg29
(lp2191
g56
aS'@@@Jsequence'
p2192
asg155
(lp2193
F1.0
aS'@@c00_default'
p2194
asg26
(lp2195
I00
aS'@@uvplane_effect'
p2196
asg25
(lp2197
(lp2198
I0
aI1
aI2
aI3
aI4
aa(lp2199
I0
aI1
aI2
aI3
aI4
aI5
aI6
aa(lp2200
I0
aI1
aI2
aI3
aI4
aI5
aI6
aI7
aI8
aI9
aI10
aI11
aI12
aI13
aa(lp2201
I0
aI1
aI2
aI3
aI4
aI5
aI6
aI7
aI8
aI9
aI10
aI11
aI12
aI13
aI14
aag47
aS'@@stations'
p2202
asg427
(lp2203
I0
aI1
aI2
aI3
aS'@@tdeg_RM'
p2204
asg223
(lp2205
I01
aI00
aS'@@use_previous'
p2206
asg432
(lp2207
I0
aI1
aI2
aI3
aS'@@fdeg_RM'
p2208
asg156
(lp2209
NaS'@@subtile_size'
p2210
asg12
(lp2211
Nag72
ag2159
asg438
(lp2212
NaI1
aI2
aI5
aI10
aI20
aI50
aI100
aI200
aI500
aS'@@subtile_size_RM'
p2213
asg28
(lp2214
g56
aS'@@@Jsequence_simul'
p2215
assg80
S'solve_imp'
p2216
sg82
I00
sg83
S'2006-03-31 16:56'
p2217
sg85
g369
sg87
S'MG_JEN_Joneset'
p2218
sg237
(dp2219
g132
I00
sg137
I00
sg180
I00
sg223
I00
ssg89
S'** Specific description of inarg record for: MG_JEN_Joneset::FJones()  version=16dec2005  defined=2006-03-31 16:56'
p2220
sg110
(dp2221
g26
I00
sg12
I00
sg2
I00
sg25
I00
ssg109
g2217
sg112
(lp2222
g18
ag25
ag2
ag29
ag28
ag27
ag12
ag26
ag427
ag432
ag438
ag223
ag180
ag137
ag132
ag147
ag141
ag135
ag143
ag142
ag155
ag157
ag151
ag156
ag149
asg121
(dp2223
g132
g243
sg2
g123
sg135
g245
sg137
g246
sg157
g260
sg141
g141
sg142
g250
sg143
g251
sg147
g252
sg149
g253
sg151
g254
sg180
g249
sg27
g128
sg29
g128
sg155
g256
sg26
g126
sg25
g124
sg427
g450
sg223
g258
sg432
g451
sg156
g259
sg12
g127
sg438
g452
sg28
g128
ssg30
S'MG_JEN_JonesetFJones'
p2224
ssg27
g56
sg29
g56
sg155
F1.0
sg26
g2196
sg25
g2202
sg427
I0
sg223
I01
sg432
I2
sg156
Nsg157
Nsg438
I1
sg28
g56
sg180
I01
ssg27
NsS'[solve_imp]./MG_JEN_Joneset.JJones()'
p2225
(dp2226
g132
I00
sg2
S'@@polrep'
p2227
sg134
I0
sg135
g136
sg137
I00
sg138
Nsg12
S'@@parmtable'
p2228
sg140
Nsg141
Nsg142
I10
sg143
g144
sg145
g146
sg147
g148
sg149
g150
sg151
Nsg18
(dp2229
g20
S'MG_JEN_Joneset::JJones()'
p2230
sg22
g2225
sg23
(dp2231
g143
I01
sg2
I01
sg155
I01
sg147
I01
sg25
I01
sg135
I01
sg156
I01
sg149
I01
sg26
I01
sg151
I01
sg157
I01
sg12
I01
sg27
I01
sg28
I01
sg142
I01
sg141
I01
sg29
I01
ssg129
g159
sg32
g33
sg34
S'MG_JEN_Joneset::JJones()  version=14feb2006  defined=2006-03-31 16:56'
p2232
sg36
S'JJones'
p2233
sg38
(dp2234
g132
(lp2235
I01
aI00
aS'@@reset_funklet'
p2236
asg2
(lp2237
g3
ag41
ag2227
asg134
(lp2238
I0
aI1
aI2
aI3
aS'@@tdeg_Jreal'
p2239
asg135
(lp2240
g136
aS'@@color'
p2241
asg137
(lp2242
I01
aI00
aS'@@save_all'
p2243
asg138
(lp2244
Na(lp2245
I14
aa(lp2246
I1
aag175
aS'@@all4_always'
p2247
asg12
(lp2248
Nag72
ag2228
asg140
(lp2249
NaI1
aI2
aI5
aI10
aI20
aI50
aI100
aI200
aI500
aS'@@subtile_size_Jreal'
p2250
asg141
(lp2251
NaS'@@unit'
p2252
asg142
(lp2253
I10
aS'@@size'
p2254
asg143
(lp2255
g144
aS'@@style'
p2256
asg145
(lp2257
I0
aI1
aI2
aI3
ag146
aS'@@tdeg_Jimag'
p2258
asg147
(lp2259
g148
aS'@@descr'
p2260
asg149
(lp2261
g150
aS'@@condeq_corrs'
p2262
asg151
(lp2263
NaS'@@funklet_shape'
p2264
asg180
(lp2265
I01
aI00
aS'@@auto_save'
p2266
asg27
(lp2267
g66
aS'@@@Jsequence_KJones'
p2268
asg199
(lp2269
I0
aI1
aI2
aI3
aS'@@fdeg_Jreal'
p2270
asg155
(lp2271
F1.0
aS'@@c00_default'
p2272
asg26
(lp2273
I00
aS'@@uvplane_effect'
p2274
asg206
(lp2275
I0
aI1
aI2
aI3
ag208
aS'@@fdeg_Jimag'
p2276
asg210
(lp2277
g212
aNaI1
aI2
aI5
aI10
aI20
aI50
aI100
aI200
aI500
aS'@@subtile_size_Jimag'
p2278
asg25
(lp2279
(lp2280
I0
aI1
aI2
aI3
aI4
aa(lp2281
I0
aI1
aI2
aI3
aI4
aI5
aI6
aa(lp2282
I0
aI1
aI2
aI3
aI4
aI5
aI6
aI7
aI8
aI9
aI10
aI11
aI12
aI13
aa(lp2283
I0
aI1
aI2
aI3
aI4
aI5
aI6
aI7
aI8
aI9
aI10
aI11
aI12
aI13
aI14
aag47
aS'@@stations'
p2284
asg220
(lp2285
I01
aI00
aS'@@diagonal_only'
p2286
asg223
(lp2287
I01
aI00
aS'@@use_previous'
p2288
asg156
(lp2289
NaS'@@subtile_size'
p2290
asg157
(lp2291
NaS'@@tfdeg'
p2292
asg28
(lp2293
g66
aS'@@@Jsequence_simul'
p2294
asg29
(lp2295
g66
aS'@@@Jsequence'
p2296
assg80
g2216
sg82
I00
sg83
S'2006-03-31 16:56'
p2297
sg85
g235
sg87
S'MG_JEN_Joneset'
p2298
sg237
(dp2299
g132
I00
sg220
I00
sg137
I00
sg180
I00
sg223
I00
ssg89
S'** Specific description of inarg record for: MG_JEN_Joneset::JJones()  version=14feb2006  defined=2006-03-31 16:56'
p2300
sg110
(dp2301
g26
I00
sg12
I00
sg2
I00
sg25
I00
ssg109
g2297
sg112
(lp2302
g18
ag25
ag2
ag29
ag28
ag27
ag220
ag138
ag12
ag26
ag134
ag145
ag199
ag206
ag140
ag210
ag223
ag180
ag137
ag132
ag147
ag141
ag135
ag143
ag142
ag155
ag157
ag151
ag156
ag149
asg121
(dp2303
g132
g243
sg2
g123
sg134
g244
sg135
g245
sg137
g246
sg138
g247
sg12
g127
sg140
g248
sg141
g141
sg142
g250
sg143
g251
sg145
g244
sg147
g252
sg149
g253
sg151
g254
sg180
g249
sg27
g128
sg199
g255
sg155
g256
sg26
g126
sg206
g255
sg210
g248
sg25
g124
sg220
g257
sg223
g258
sg156
g259
sg157
g260
sg28
g128
sg29
g128
ssg30
S'MG_JEN_JonesetJJones'
p2304
ssg27
g66
sg199
I0
sg155
F1.0
sg26
g2274
sg206
g208
sg210
g212
sg25
g2284
sg220
I00
sg223
I01
sg156
Nsg157
Nsg28
g66
sg29
g66
sg180
I01
ssg25
S'@@stations'
p2305
sS'[solve_imp]./MG_JEN_Joneset.BJones()'
p2306
(dp2307
g132
I00
sg2
S'@@polrep'
p2308
sg135
g136
sg294
g295
sg137
I00
sg296
Nsg141
Nsg142
I10
sg143
g144
sg147
g148
sg297
I5
sg149
g150
sg151
Nsg18
(dp2309
g20
S'MG_JEN_Joneset::BJones()'
p2310
sg22
g2306
sg23
(dp2311
g143
I01
sg2
I01
sg155
I01
sg147
I01
sg25
I01
sg135
I01
sg156
I01
sg149
I01
sg26
I01
sg151
I01
sg157
I01
sg12
I01
sg27
I01
sg28
I01
sg142
I01
sg141
I01
sg29
I01
ssg129
g302
sg32
g33
sg34
S'MG_JEN_Joneset::BJones()  version=16dec2005  defined=2006-03-31 16:56'
p2312
sg36
S'BJones'
p2313
sg38
(dp2314
g132
(lp2315
I01
aI00
aS'@@reset_funklet'
p2316
asg2
(lp2317
g3
ag41
ag2308
asg135
(lp2318
g136
aS'@@color'
p2319
asg294
(lp2320
g295
aNaI1
aI2
aI5
aI10
aI20
aI50
aI100
aI200
aI500
aS'@@subtile_size_Bimag'
p2321
asg137
(lp2322
I01
aI00
aS'@@save_all'
p2323
asg296
(lp2324
NaI1
aI2
aI5
aI10
aI20
aI50
aI100
aI200
aI500
aS'@@subtile_size_Breal'
p2325
asg141
(lp2326
NaS'@@unit'
p2327
asg142
(lp2328
I10
aS'@@size'
p2329
asg143
(lp2330
g144
aS'@@style'
p2331
asg147
(lp2332
g148
aS'@@descr'
p2333
asg297
(lp2334
I3
aI4
aI5
aI6
aS'@@fdeg_Breal'
p2335
asg149
(lp2336
g150
aS'@@condeq_corrs'
p2337
asg151
(lp2338
NaS'@@funklet_shape'
p2339
asg180
(lp2340
I01
aI00
aS'@@auto_save'
p2341
asg27
(lp2342
g54
aS'@@@Jsequence_KJones'
p2343
asg335
(lp2344
I0
aI1
aI2
aI3
ag337
aS'@@tdeg_Bimag'
p2345
asg29
(lp2346
g54
aS'@@@Jsequence'
p2347
asg155
(lp2348
F1.0
aS'@@c00_default'
p2349
asg343
(lp2350
I3
aI4
aI5
aI6
ag345
aS'@@fdeg_Bimag'
p2351
asg26
(lp2352
I00
aS'@@uvplane_effect'
p2353
asg25
(lp2354
(lp2355
I0
aI1
aI2
aI3
aI4
aa(lp2356
I0
aI1
aI2
aI3
aI4
aI5
aI6
aa(lp2357
I0
aI1
aI2
aI3
aI4
aI5
aI6
aI7
aI8
aI9
aI10
aI11
aI12
aI13
aa(lp2358
I0
aI1
aI2
aI3
aI4
aI5
aI6
aI7
aI8
aI9
aI10
aI11
aI12
aI13
aI14
aag47
aS'@@stations'
p2359
asg157
(lp2360
NaS'@@tfdeg'
p2361
asg357
(lp2362
I0
aI1
aI2
aI3
aS'@@tdeg_Breal'
p2363
asg223
(lp2364
I01
aI00
aS'@@use_previous'
p2365
asg156
(lp2366
NaS'@@subtile_size'
p2367
asg12
(lp2368
Nag72
aS'@@parmtable'
p2369
asg28
(lp2370
g54
aS'@@@Jsequence_simul'
p2371
assg80
g2216
sg82
I00
sg83
S'2006-03-31 16:56'
p2372
sg85
g369
sg87
S'MG_JEN_Joneset'
p2373
sg237
(dp2374
g132
I00
sg137
I00
sg180
I00
sg223
I00
ssg89
S'** Specific description of inarg record for: MG_JEN_Joneset::BJones()  version=16dec2005  defined=2006-03-31 16:56'
p2375
sg110
(dp2376
g26
I00
sg12
I00
sg2
I00
sg25
I00
ssg109
g2372
sg112
(lp2377
g18
ag25
ag2
ag29
ag28
ag27
ag12
ag26
ag357
ag335
ag297
ag343
ag296
ag294
ag223
ag180
ag137
ag132
ag147
ag141
ag135
ag143
ag142
ag155
ag157
ag151
ag156
ag149
asg121
(dp2378
g132
g243
sg2
g123
sg135
g245
sg294
g376
sg137
g246
sg296
g376
sg141
g141
sg142
g250
sg143
g251
sg147
g252
sg297
g377
sg149
g253
sg151
g254
sg180
g249
sg27
g128
sg335
g378
sg29
g128
sg155
g256
sg343
g377
sg26
g126
sg25
g124
sg157
g260
sg357
g378
sg223
g258
sg156
g259
sg12
g127
sg28
g128
ssg30
S'MG_JEN_JonesetBJones'
p2379
ssg27
g54
sg335
g337
sg29
g54
sg155
F1.0
sg343
g345
sg26
g2353
sg25
g2359
sg157
Nsg357
I0
sg223
I01
sg156
Nsg12
g2369
sg28
g54
sg180
I01
ssS'[solve_imp]./MG_JEN_Joneset.DJones_WSRT()'
p2380
(dp2381
g132
I00
sg2
S'@@polrep'
p2382
sg135
g136
sg546
g547
sg548
I01
sg137
I00
sg141
Nsg12
S'@@parmtable'
p2383
sg550
Nsg180
I01
sg142
I10
sg143
g144
sg147
g148
sg149
g150
sg151
Nsg18
(dp2384
g20
S'MG_JEN_Joneset::DJones_WSRT()'
p2385
sg22
g2380
sg23
(dp2386
g143
I01
sg2
I01
sg155
I01
sg147
I01
sg25
I01
sg135
I01
sg156
I01
sg149
I01
sg26
I01
sg151
I01
sg157
I01
sg12
I01
sg27
I01
sg28
I01
sg142
I01
sg141
I01
sg29
I01
ssg129
g555
sg32
g33
sg34
S'MG_JEN_Joneset::DJones_WSRT()  version=16dec2005  defined=2006-03-31 16:56'
p2387
sg36
S'DJones_WSRT'
p2388
sg38
(dp2389
g132
(lp2390
I01
aI00
aS'@@reset_funklet'
p2391
asg2
(lp2392
g3
ag41
ag2382
asg135
(lp2393
g136
aS'@@color'
p2394
asg546
(lp2395
I0
aI1
aI2
aI3
ag547
aS'@@fdeg_Dell'
p2396
asg548
(lp2397
I01
aI00
aS'@@coupled_XY_Dell'
p2398
asg137
(lp2399
I01
aI00
aS'@@save_all'
p2400
asg12
(lp2401
Nag72
ag2383
asg550
(lp2402
NaI1
aI2
aI5
aI10
aI20
aI50
aI100
aI200
aI500
aS'@@subtile_size_Dang'
p2403
asg141
(lp2404
NaS'@@unit'
p2405
asg142
(lp2406
I10
aS'@@size'
p2407
asg143
(lp2408
g144
aS'@@style'
p2409
asg147
(lp2410
g148
aS'@@descr'
p2411
asg149
(lp2412
g150
aS'@@condeq_corrs'
p2413
asg151
(lp2414
NaS'@@funklet_shape'
p2415
asg180
(lp2416
I01
aI00
aS'@@auto_save'
p2417
asg27
(lp2418
g60
aS'@@@Jsequence_KJones'
p2419
asg589
(lp2420
g591
aNaI1
aI2
aI5
aI10
aI20
aI50
aI100
aI200
aI500
aS'@@subtile_size_Dell'
p2421
asg29
(lp2422
g60
aS'@@@Jsequence'
p2423
asg595
(lp2424
I0
aI1
aI2
aI3
aS'@@fdeg_Dang'
p2425
asg155
(lp2426
F1.0
aS'@@c00_default'
p2427
asg26
(lp2428
I00
aS'@@uvplane_effect'
p2429
asg602
(lp2430
I0
aI1
aI2
aI3
ag604
aS'@@tdeg_Dell'
p2431
asg606
(lp2432
I01
aI00
aS'@@coupled_XY_Dang'
p2433
asg609
(lp2434
I0
aI1
aI2
aI3
aS'@@tdeg_Dang'
p2435
asg25
(lp2436
(lp2437
I0
aI1
aI2
aI3
aI4
aa(lp2438
I0
aI1
aI2
aI3
aI4
aI5
aI6
aa(lp2439
I0
aI1
aI2
aI3
aI4
aI5
aI6
aI7
aI8
aI9
aI10
aI11
aI12
aI13
aa(lp2440
I0
aI1
aI2
aI3
aI4
aI5
aI6
aI7
aI8
aI9
aI10
aI11
aI12
aI13
aI14
aag47
aS'@@stations'
p2441
asg223
(lp2442
I01
aI00
aS'@@use_previous'
p2443
asg156
(lp2444
NaS'@@subtile_size'
p2445
asg157
(lp2446
NaS'@@tfdeg'
p2447
asg28
(lp2448
g60
aS'@@@Jsequence_simul'
p2449
assg80
g2216
sg82
I00
sg83
S'2006-03-31 16:56'
p2450
sg85
g369
sg87
S'MG_JEN_Joneset'
p2451
sg237
(dp2452
g132
I00
sg548
I00
sg137
I00
sg606
I00
sg223
I00
sg180
I00
ssg89
S'** Specific description of inarg record for: MG_JEN_Joneset::DJones_WSRT()  version=16dec2005  defined=2006-03-31 16:56'
p2453
sg110
(dp2454
g26
I00
sg12
I00
sg2
I00
sg25
I00
ssg109
g2450
sg112
(lp2455
g18
ag25
ag2
ag29
ag28
ag27
ag606
ag548
ag12
ag26
ag609
ag602
ag595
ag546
ag550
ag589
ag223
ag180
ag137
ag132
ag147
ag141
ag135
ag143
ag142
ag155
ag157
ag151
ag156
ag149
asg121
(dp2456
g132
g243
sg2
g123
sg135
g245
sg546
g633
sg548
g634
sg137
g246
sg12
g127
sg550
g635
sg141
g141
sg142
g250
sg143
g251
sg147
g252
sg149
g253
sg151
g254
sg180
g249
sg27
g128
sg589
g635
sg29
g128
sg595
g633
sg155
g256
sg26
g126
sg602
g636
sg606
g637
sg609
g636
sg25
g124
sg223
g258
sg156
g259
sg157
g260
sg28
g128
ssg30
S'MG_JEN_JonesetDJones_WSRT'
p2457
ssg27
g60
sg589
g591
sg29
g60
sg595
I0
sg155
F1.0
sg26
g2429
sg602
g604
sg606
I01
sg609
I0
sg25
g2441
sg223
I01
sg156
Nsg157
Nsg28
g60
ssg26
S'@@uvplane_effect'
p2458
sg12
S'@@parmtable'
p2459
sg18
(dp2460
g20
g21
sg22
g2154
sg23
(dp2461
g2
I01
sg25
I01
sg26
I01
sg12
I01
sg27
I01
sg28
I01
sg29
I01
ssg30
S'MG_JEN_CohsetJones'
p2462
sg32
g33
sg129
g130
sg34
S'MG_JEN_Cohset::Jones()  version=25dec2005  defined=2006-03-31 16:56'
p2463
sg36
S'Jones'
p2464
sg38
(dp2465
g2
(lp2466
g3
ag41
aS'@@polrep'
p2467
asg25
(lp2468
(lp2469
I0
aI1
aI2
aI3
aI4
aa(lp2470
I0
aI1
aI2
aI3
aI4
aI5
aI6
aa(lp2471
I0
aI1
aI2
aI3
aI4
aI5
aI6
aI7
aI8
aI9
aI10
aI11
aI12
aI13
aa(lp2472
I0
aI1
aI2
aI3
aI4
aI5
aI6
aI7
aI8
aI9
aI10
aI11
aI12
aI13
aI14
aag47
ag2305
asg26
(lp2473
I00
ag2458
asg12
(lp2474
Nag72
ag2459
asg27
(lp2475
NaS'@@@Jsequence_KJones'
p2476
asg28
(lp2477
NaS'@@@Jsequence_simul'
p2478
asS'Jsequence_solve_imp'
p2479
(lp2480
(lp2481
g52
aa(lp2482
g54
aa(lp2483
g56
aa(lp2484
g58
aa(lp2485
g60
aa(lp2486
g52
ag60
aa(lp2487
g63
aa(lp2488
g52
ag63
aa(lp2489
g66
aa(lp2490
aS'@@Jsequence_solve_imp'
p2491
asg29
(lp2492
NaS'@@@Jsequence'
p2493
assg80
g2216
sg82
I00
sg83
S'2006-03-31 16:56'
p2494
sg85
g86
sg87
S'MG_JEN_Cohset'
p2495
sg89
S'** Specific description of inarg record for: MG_JEN_Cohset::Jones()  version=25dec2005  defined=2006-03-31 16:56'
p2496
sg91
(dp2497
g93
S'** JEN_inarg.attach(): attached: [solve_imp]./MG_JEN_Joneset.FJones()'
p2498
sg95
S'** JEN_inarg.attach(): attached: [solve_imp]./MG_JEN_Joneset.GJones()'
p2499
sg97
S'** JEN_inarg.attach(): attached: [solve_imp]./MG_JEN_Joneset.KJones()'
p2500
sg99
S'** JEN_inarg.attach(): attached: [solve_imp]./MG_JEN_Joneset.BJones()'
p2501
sg101
S'** JEN_inarg.attach(): attached: [solve_imp]./MG_JEN_Joneset.EJones_WSRT()'
p2502
sg103
S'** JEN_inarg.attach(): attached: [solve_imp]./MG_JEN_Joneset.DJones_WSRT()'
p2503
sg107
S'** JEN_inarg.attach(): attached: [solve_imp]./MG_JEN_Joneset.JJones()'
p2504
ssg109
g2494
sg110
(dp2505
g26
I00
sg12
I00
sg2
I00
sg25
I00
ssg112
(lp2506
g18
ag25
ag2
ag29
ag28
ag27
ag12
ag26
ag2479
aS'[solve_imp]./MG_JEN_Joneset.GJones()'
p2507
ag2156
ag2306
aS'[solve_imp]./MG_JEN_Joneset.KJones()'
p2508
ag2380
aS'[solve_imp]./MG_JEN_Joneset.EJones_WSRT()'
p2509
ag2225
asg121
(dp2510
g2
g123
sg25
g124
sg26
g126
sg12
g127
sg27
g128
sg28
g128
sg2479
g125
sg29
g128
sssg2507
(dp2511
g132
I00
sg2
S'@@polrep'
p2512
sg455
I0
sg135
g136
sg137
I00
sg12
S'@@parmtable'
p2513
sg141
Nsg142
I10
sg143
g144
sg147
g148
sg457
I1
sg149
g150
sg151
Nsg18
(dp2514
g20
S'MG_JEN_Joneset::GJones()'
p2515
sg22
g2507
sg23
(dp2516
g142
I01
sg143
I01
sg2
I01
sg155
I01
sg147
I01
sg25
I01
sg135
I01
sg156
I01
sg149
I01
sg26
I01
sg151
I01
sg157
I01
sg12
I01
sg27
I01
sg28
I01
sg461
I01
sg141
I01
sg29
I01
ssg129
g463
sg32
g33
sg34
S'MG_JEN_Joneset::GJones()  version=15dec2005  defined=2006-03-31 16:56'
p2517
sg36
S'GJones'
p2518
sg38
(dp2519
g132
(lp2520
I01
aI00
aS'@@reset_funklet'
p2521
asg2
(lp2522
g3
ag41
ag2512
asg455
(lp2523
I0
aI1
aI2
aI3
aS'@@fdeg_Ggain'
p2524
asg135
(lp2525
g136
aS'@@color'
p2526
asg137
(lp2527
I01
aI00
aS'@@save_all'
p2528
asg12
(lp2529
Nag72
ag2513
asg141
(lp2530
NaS'@@unit'
p2531
asg142
(lp2532
I10
aS'@@size'
p2533
asg143
(lp2534
g144
aS'@@style'
p2535
asg147
(lp2536
g148
aS'@@descr'
p2537
asg457
(lp2538
NaI1
aI2
aI5
aI10
aI20
aI50
aI100
aI200
aI500
aS'@@subtile_size_Ggain'
p2539
asg149
(lp2540
g150
aS'@@condeq_corrs'
p2541
asg151
(lp2542
NaS'@@funklet_shape'
p2543
asg180
(lp2544
I01
aI00
aS'@@auto_save'
p2545
asg27
(lp2546
g52
aS'@@@Jsequence_KJones'
p2547
asg29
(lp2548
g52
aS'@@@Jsequence'
p2549
asg155
(lp2550
F1.0
aS'@@c00_default'
p2551
asg499
(lp2552
I0
aI1
aI2
aI3
ag501
aS'@@tdeg_Gphase'
p2553
asg503
(lp2554
I0
aI1
aI2
aI3
aS'@@tdeg_Ggain'
p2555
asg506
(lp2556
I0
aI1
aI2
aI3
ag508
aS'@@fdeg_Gphase'
p2557
asg510
(lp2558
g512
aNaI1
aI2
aI5
aI10
aI20
aI50
aI100
aI200
aI500
aS'@@subtile_size_Gphase'
p2559
asg461
(lp2560
I01
aI00
aS'@@Gpolar'
p2561
asg26
(lp2562
I00
aS'@@uvplane_effect'
p2563
asg25
(lp2564
(lp2565
I0
aI1
aI2
aI3
aI4
aa(lp2566
I0
aI1
aI2
aI3
aI4
aI5
aI6
aa(lp2567
I0
aI1
aI2
aI3
aI4
aI5
aI6
aI7
aI8
aI9
aI10
aI11
aI12
aI13
aa(lp2568
I0
aI1
aI2
aI3
aI4
aI5
aI6
aI7
aI8
aI9
aI10
aI11
aI12
aI13
aI14
aag47
aS'@@stations'
p2569
asg223
(lp2570
I01
aI00
aS'@@use_previous'
p2571
asg156
(lp2572
NaS'@@subtile_size'
p2573
asg157
(lp2574
NaS'@@tfdeg'
p2575
asg28
(lp2576
g52
aS'@@@Jsequence_simul'
p2577
assg80
g2216
sg82
I00
sg83
S'2006-03-31 16:56'
p2578
sg85
g533
sg87
S'MG_JEN_Joneset'
p2579
sg237
(dp2580
g132
I00
sg461
I00
sg137
I00
sg180
I00
sg223
I00
ssg89
S'** Specific description of inarg record for: MG_JEN_Joneset::GJones()  version=15dec2005  defined=2006-03-31 16:56'
p2581
sg110
(dp2582
g26
I00
sg12
I00
sg2
I00
sg25
I00
ssg109
g2578
sg112
(lp2583
g18
ag25
ag2
ag29
ag28
ag27
ag461
ag12
ag26
ag503
ag499
ag455
ag506
ag457
ag510
ag223
ag180
ag137
ag132
ag147
ag141
ag135
ag143
ag142
ag155
ag157
ag151
ag156
ag149
asg121
(dp2584
g132
g243
sg2
g123
sg455
g540
sg135
g245
sg137
g246
sg12
g127
sg141
g141
sg142
g250
sg143
g251
sg147
g252
sg457
g541
sg149
g253
sg151
g254
sg180
g249
sg27
g128
sg29
g128
sg155
g256
sg499
g542
sg503
g542
sg506
g540
sg510
g541
sg461
g543
sg26
g126
sg25
g124
sg223
g258
sg156
g259
sg157
g260
sg28
g128
ssg30
S'MG_JEN_JonesetGJones'
p2585
ssg27
g52
sg29
g52
sg155
F1.0
sg499
g501
sg503
I0
sg506
g508
sg510
g512
sg461
I01
sg26
g2563
sg25
g2569
sg223
I01
sg156
Nsg157
Nsg28
g52
sg180
I01
ssg2
g2467
sg28
Nsg2508
(dp2586
g2
S'@@polrep'
p2587
sg25
S'@@stations'
p2588
sg18
(dp2589
g20
S'MG_JEN_Joneset::KJones()'
p2590
sg22
g2508
sg23
(dp2591
g27
I01
sg28
I01
sg29
I01
sg2
I01
sg25
I01
ssg129
g268
sg32
g33
sg34
S'MG_JEN_Joneset::KJones()  version=12dec2005  defined=2006-03-31 16:56'
p2592
sg36
S'KJones'
p2593
sg38
(dp2594
g27
(lp2595
g58
aS'@@@Jsequence_KJones'
p2596
asg28
(lp2597
g58
aS'@@@Jsequence_simul'
p2598
asg29
(lp2599
g58
aS'@@@Jsequence'
p2600
asg2
(lp2601
g3
ag41
ag2587
asg25
(lp2602
(lp2603
I0
aI1
aI2
aI3
aI4
aa(lp2604
I0
aI1
aI2
aI3
aI4
aI5
aI6
aa(lp2605
I0
aI1
aI2
aI3
aI4
aI5
aI6
aI7
aI8
aI9
aI10
aI11
aI12
aI13
aa(lp2606
I0
aI1
aI2
aI3
aI4
aI5
aI6
aI7
aI8
aI9
aI10
aI11
aI12
aI13
aI14
aag47
ag2588
assg80
g2216
sg82
I00
sg83
S'2006-03-31 16:56'
p2607
sg85
g285
sg87
S'MG_JEN_Joneset'
p2608
sg89
S'** Specific description of inarg record for: MG_JEN_Joneset::KJones()  version=12dec2005  defined=2006-03-31 16:56'
p2609
sg110
(dp2610
g2
I00
sg25
I00
ssg109
g2607
sg112
(lp2611
g18
ag25
ag2
ag29
ag28
ag27
asg121
(dp2612
g27
g128
sg28
g128
sg29
g128
sg2
g123
sg25
g124
ssg30
S'MG_JEN_JonesetKJones'
p2613
ssg27
g58
sg28
g58
sg29
g58
ssg2479
(lp2614
sg2509
(dp2615
g132
I00
sg2
S'@@polrep'
p2616
sg135
g136
sg137
I00
sg141
Nsg12
S'@@parmtable'
p2617
sg180
I01
sg142
I10
sg641
I0
sg642
g643
sg143
g144
sg147
g148
sg156
Nsg149
g150
sg151
Nsg18
(dp2618
g20
S'MG_JEN_Joneset::EJones_WSRT()'
p2619
sg22
g2509
sg23
(dp2620
g143
I01
sg2
I01
sg155
I01
sg147
I01
sg25
I01
sg135
I01
sg156
I01
sg149
I01
sg26
I01
sg151
I01
sg157
I01
sg12
I01
sg27
I01
sg28
I01
sg142
I01
sg141
I01
sg29
I01
ssg129
g651
sg32
g33
sg34
S'MG_JEN_Joneset::EJones_WSRT()  version=15dec2005  defined=2006-03-31 16:56'
p2621
sg36
S'EJones_WSRT'
p2622
sg38
(dp2623
g132
(lp2624
I01
aI00
aS'@@reset_funklet'
p2625
asg2
(lp2626
g3
ag41
ag2616
asg135
(lp2627
g136
aS'@@color'
p2628
asg137
(lp2629
I01
aI00
aS'@@save_all'
p2630
asg12
(lp2631
Nag72
ag2617
asg141
(lp2632
NaS'@@unit'
p2633
asg142
(lp2634
I10
aS'@@size'
p2635
asg641
(lp2636
I0
aI1
aI2
aI3
aS'@@tdeg_Edl'
p2637
asg642
(lp2638
I0
aI1
aI2
aI3
ag643
aS'@@tdeg_Edm'
p2639
asg143
(lp2640
g144
aS'@@style'
p2641
asg147
(lp2642
g148
aS'@@descr'
p2643
asg156
(lp2644
NaS'@@subtile_size'
p2645
asg149
(lp2646
g150
aS'@@condeq_corrs'
p2647
asg151
(lp2648
NaS'@@funklet_shape'
p2649
asg180
(lp2650
I01
aI00
aS'@@auto_save'
p2651
asg27
(lp2652
g63
aS'@@@Jsequence_KJones'
p2653
asg29
(lp2654
g63
aS'@@@Jsequence'
p2655
asg155
(lp2656
F1.0
aS'@@c00_default'
p2657
asg26
(lp2658
I00
aS'@@uvplane_effect'
p2659
asg25
(lp2660
(lp2661
I0
aI1
aI2
aI3
aI4
aa(lp2662
I0
aI1
aI2
aI3
aI4
aI5
aI6
aa(lp2663
I0
aI1
aI2
aI3
aI4
aI5
aI6
aI7
aI8
aI9
aI10
aI11
aI12
aI13
aa(lp2664
I0
aI1
aI2
aI3
aI4
aI5
aI6
aI7
aI8
aI9
aI10
aI11
aI12
aI13
aI14
aag47
aS'@@stations'
p2665
asg157
(lp2666
NaS'@@tfdeg'
p2667
asg223
(lp2668
I01
aI00
aS'@@use_previous'
p2669
asg644
(lp2670
NaI1
aI2
aI5
aI10
aI20
aI50
aI100
aI200
aI500
aS'@@subtile_size_Edl'
p2671
asg645
(lp2672
g646
aNaI1
aI2
aI5
aI10
aI20
aI50
aI100
aI200
aI500
aS'@@subtile_size_Edm'
p2673
asg28
(lp2674
g63
aS'@@@Jsequence_simul'
p2675
asg707
(lp2676
I0
aI1
aI2
aI3
aS'@@fdeg_Edl'
p2677
asg710
(lp2678
I0
aI1
aI2
aI3
ag712
aS'@@fdeg_Edm'
p2679
assg80
g2216
sg82
I00
sg83
S'2006-03-31 16:56'
p2680
sg85
g533
sg87
S'MG_JEN_Joneset'
p2681
sg237
(dp2682
g132
I00
sg137
I00
sg180
I00
sg223
I00
ssg89
S'** Specific description of inarg record for: MG_JEN_Joneset::EJones_WSRT()  version=15dec2005  defined=2006-03-31 16:56'
p2683
sg110
(dp2684
g26
I00
sg12
I00
sg2
I00
sg25
I00
ssg109
g2680
sg112
(lp2685
g18
ag25
ag2
ag29
ag28
ag27
ag12
ag26
ag641
ag642
ag707
ag710
ag644
ag645
ag223
ag180
ag137
ag132
ag147
ag141
ag135
ag143
ag142
ag155
ag157
ag151
ag156
ag149
asg121
(dp2686
g132
g243
sg2
g123
sg135
g245
sg137
g246
sg12
g127
sg141
g141
sg142
g250
sg641
g721
sg642
g721
sg143
g251
sg147
g252
sg156
g259
sg149
g253
sg151
g254
sg180
g249
sg27
g128
sg29
g128
sg155
g256
sg26
g126
sg25
g124
sg157
g260
sg223
g258
sg644
g722
sg645
g722
sg28
g128
sg707
g723
sg710
g723
ssg30
S'MG_JEN_JonesetEJones_WSRT'
p2687
ssg27
g63
sg29
g63
sg155
F1.0
sg26
g2659
sg25
g2665
sg157
Nsg223
I01
sg644
Nsg645
g646
sg28
g63
sg707
I0
sg710
g712
ssg29
Nssg2
S'@@polrep'
p2688
sg25
S'@@stations'
p2689
sg18
(dp2690
g20
g1345
sg22
g2079
sg23
(dp2691
g27
I01
sg28
I01
sg29
I01
sg2
I01
sg25
I01
ssg30
S'MG_JEN_Cohsetpredict_lsm'
p2692
sg32
g33
sg34
S'MG_JEN_Cohset::predict_lsm()  version=20mar2006  defined=2006-03-31 16:56'
p2693
sg36
S'predict_lsm'
p2694
sg38
(dp2695
g2
(lp2696
g3
ag41
ag2688
asg25
(lp2697
(lp2698
I0
aI1
aI2
aI3
aI4
aa(lp2699
I0
aI1
aI2
aI3
aI4
aI5
aI6
aa(lp2700
I0
aI1
aI2
aI3
aI4
aI5
aI6
aI7
aI8
aI9
aI10
aI11
aI12
aI13
aa(lp2701
I0
aI1
aI2
aI3
aI4
aI5
aI6
aI7
aI8
aI9
aI10
aI11
aI12
aI13
aI14
aag47
ag2689
asg1357
(lp2702
I1
aI2
aI3
aI5
aI10
aI20
aI100
aS'@@nr_lsm_sources'
p2703
asg27
(lp2704
NaS'@@@Jsequence_KJones'
p2705
asg28
(lp2706
NaS'@@@Jsequence_simul'
p2707
asg29
(lp2708
NaS'@@@Jsequence'
p2709
assg80
g1222
sg82
I00
sg83
S'2006-03-31 16:56'
p2710
sg85
g1368
sg87
S'MG_JEN_Cohset'
p2711
sg89
S'** Specific description of inarg record for: MG_JEN_Cohset::predict_lsm()  version=20mar2006  defined=2006-03-31 16:56'
p2712
sg91
(dp2713
g95
S'** JEN_inarg.attach(): attached: [solve_imp]./MG_JEN_Cohset.Jones()'
p2714
ssg109
g2710
sg110
(dp2715
g2
I00
sg25
I00
ssg112
(lp2716
g18
ag1357
ag25
ag2
ag29
ag28
ag27
ag2154
asg121
(dp2717
g2
g123
sg25
g124
sg1357
g1377
sg27
g128
sg28
g128
sg29
g128
ssg129
g1378
ssg1357
I1
sg27
Nsg28
Nsg29
Nssg29
Nsg1949
g725
sg1965
g1993
sg26
I01
sg1957
Nsg2077
(dp2718
g2
S'@@polrep'
p2719
sg25
S'@@stations'
p2720
sg18
(dp2721
g20
g1917
sg22
g2077
sg23
(dp2722
g27
I01
sg28
I01
sg29
I01
sg2
I01
sg25
I01
ssg30
S'MG_JEN_Cohsetpredict_cps'
p2723
sg32
g33
sg34
S'MG_JEN_Cohset::predict_cps()  version=20mar2006  defined=2006-03-31 16:56'
p2724
sg36
S'predict_cps'
p2725
sg38
(dp2726
g27
(lp2727
NaS'@@@Jsequence_KJones'
p2728
asg28
(lp2729
NaS'@@@Jsequence_simul'
p2730
asg29
(lp2731
NaS'@@@Jsequence'
p2732
asg2
(lp2733
g3
ag41
ag2719
asg25
(lp2734
(lp2735
I0
aI1
aI2
aI3
aI4
aa(lp2736
I0
aI1
aI2
aI3
aI4
aI5
aI6
aa(lp2737
I0
aI1
aI2
aI3
aI4
aI5
aI6
aI7
aI8
aI9
aI10
aI11
aI12
aI13
aa(lp2738
I0
aI1
aI2
aI3
aI4
aI5
aI6
aI7
aI8
aI9
aI10
aI11
aI12
aI13
aI14
aag47
ag2720
assg80
g1366
sg82
I00
sg83
S'2006-03-31 16:56'
p2739
sg85
g1368
sg87
S'MG_JEN_Cohset'
p2740
sg89
S'** Specific description of inarg record for: MG_JEN_Cohset::predict_cps()  version=20mar2006  defined=2006-03-31 16:56'
p2741
sg110
(dp2742
g2
I00
sg25
I00
ssg109
g2739
sg112
(lp2743
g18
ag25
ag2
ag29
ag28
ag27
asg121
(dp2744
g27
g128
sg28
g128
sg29
g128
sg2
g123
sg25
g124
ssg129
g1378
ssg27
Nsg28
Nsg29
Nssg1945
F0.0
sg1947
I00
sg1960
I1
sg25
g1987
sg2081
(dp2745
g6
S'finishing touches'
p2746
ssg2073
(dp2747
S'channel_start_index'
p2748
I0
sS'data_column_name'
p2749
S'CORRECTED_DATA'
p2750
sS'predict_column'
p2751
g2750
sg10
S'@@ms_name'
p2752
sg18
(dp2753
g22
g2073
sg121
(dp2754
g2748
S'(inputrec.sel) index of first selected freq channel'
p2755
sg2749
S'(inputrec) MS input column'
p2756
sg2751
S'MS output column to be associated with the VisTile predict-column'
p2757
sg10
g1954
sg1960
g1961
sS'channel_increment'
p2758
S'(inputrec.sel) take every nth channel (1=all)'
p2759
sS'channel_end_index'
p2760
S'(inputrec.sel) index of last selected freq channel'
p2761
sS'write_flags'
p2762
S'(outputrec) if True, write flags to MS'
p2763
ssg32
g33
sg87
S'MG_JEN_exec'
p2764
sg23
(dp2765
g10
I01
sg1960
I01
ssg1966
(dp2766
g10
g1968
ssg85
S'20jan2006'
p2767
sg110
(dp2768
g10
I00
sg1960
I00
ssg129
S'** Description of script: MG_JEN_exec::stream_control()  version=20jan2006  defined=2006-03-31 16:56'
p2769
sg237
(dp2770
g2762
I00
ssg34
S'MG_JEN_exec::stream_control()  version=20jan2006  defined=2006-03-31 16:56'
p2771
sg38
(dp2772
g2748
(lp2773
I0
aI5
aI10
aI20
aS'@@channel_start_index'
p2774
asg2749
(lp2775
g2105
ag2750
aS'@@data_column_name'
p2776
asg2751
(lp2777
g2105
ag2750
aS'MODEL_DATA'
p2778
aS'@@predict_column'
p2779
asg10
(lp2780
g11
ag2752
asg1960
(lp2781
I1
aI2
aI3
aI5
aI10
aI20
aI50
aI100
aS'@@tile_size'
p2782
asg2758
(lp2783
I1
aI2
aI3
aI5
aI10
aS'@@channel_increment'
p2784
asg2760
(lp2785
I-1
aI25
aI50
aI100
aS'@@channel_end_index'
p2786
asg2762
(lp2787
I01
aI00
aS'@@write_flags'
p2788
assg80
Nsg109
S'2006-03-31 16:56'
p2789
sg20
S'MG_JEN_exec::stream_control()'
p2790
sg89
S'** Specific description of inarg record for: MG_JEN_exec::stream_control()  version=20jan2006  defined=2006-03-31 16:56'
p2791
sg30
S'MG_JEN_execstream_control'
p2792
sg36
S'stream_control'
p2793
sg82
I00
sg83
g2789
sg91
(dp2794
g93
S'  1: .../MG_JEN_exec.stream_control() (qual=None): .modify(channel_start_index):   10  ->  0'
p2795
sg95
S'  1: .../MG_JEN_exec.stream_control() (qual=None): .modify(data_column_name):   DATA  ->  CORRECTED_DATA'
p2796
sg99
S'  1: .../MG_JEN_exec.stream_control() (qual=None): .modify(channel_end_index):   50  ->  -1'
p2797
ssg112
(lp2798
g18
ag10
ag1960
ag2749
ag2748
ag2760
ag2758
ag2762
ag2751
assg1960
g2782
sg2758
I1
sg2760
I-1
sg2762
I00
ssg1951
I00
sg2078
(dp2799
g6
S'solver-branch (ParmSet)'
p2800
ssg2075
(dp2801
g6
S'uv-data simulation (LeafSet)'
p2802
ssg1955
I01
sg28
Nsg2076
(dp2803
g1204
F1000000.0
sg132
I00
sg1205
F0.0
sg1206
I00
sg135
g136
sg137
I00
sg1207
g1208
sg12
g13
sg1209
Nsg141
Nsg142
I10
sg143
g144
sg147
g148
sg1210
F1.0
sg156
Nsg149
g150
sg1211
Nsg151
Nsg1212
F0.0
sg18
(dp2804
g20
g1214
sg22
g2076
sg109
S'2006-03-31 16:56'
p2805
sg23
(dp2806
g1204
I01
sg1205
I01
sg1206
I01
sg1217
I01
sg147
I01
sg151
I01
sg135
I01
sg155
I01
sg1207
I01
sg1218
I01
sg1219
I00
sg156
I01
sg1212
I01
sg149
I01
sg157
I01
sg141
I01
sg143
I01
sg1220
I01
sg142
I01
ssg30
S'MG_JEN_Sixpacknewstar_source'
p2807
sg80
g1366
sg32
g33
sg34
S'MG_JEN_Sixpack::newstar_source()  version=10feb2006  defined=2006-03-31 16:56'
p2808
sg36
S'newstar_source'
p2809
sg38
(dp2810
g1204
(lp2811
F1000000.0
aS'@@f0'
p2812
asg132
(lp2813
I01
aI00
aS'@@reset_funklet'
p2814
asg1205
(lp2815
F0.0
aF1.0
aF10.0
aF100.0
aS'@@major'
p2816
asg1206
(lp2817
I01
aI00
aS'@@unsolvable'
p2818
asg135
(lp2819
g136
aS'@@color'
p2820
asg137
(lp2821
I01
aI00
aS'@@save_all'
p2822
asg1207
(lp2823
g1208
ag1239
aS'@@shape'
p2824
asg12
(lp2825
NaS'@@parmtable'
p2826
asg1209
(lp2827
NaF-0.10000000000000001
aF0.050000000000000003
aF-0.01
aS'@@Upct'
p2828
asg141
(lp2829
NaS'@@unit'
p2830
asg142
(lp2831
I10
aS'@@size'
p2832
asg143
(lp2833
g144
aS'@@style'
p2834
asg147
(lp2835
g148
aS'@@descr'
p2836
asg1210
(lp2837
F1.0
aF10.0
aS'@@I0'
p2838
asg156
(lp2839
NaS'@@subtile_size'
p2840
asg149
(lp2841
g150
aS'@@condeq_corrs'
p2842
asg1211
(lp2843
NaF0.01
aF-0.0050000000000000001
aF0.001
aS'@@Vpct'
p2844
asg151
(lp2845
NaS'@@funklet_shape'
p2846
asg1212
(lp2847
F0.0
aF1.0
aF-0.5
aS'@@pa'
p2848
asg1265
(lp2849
F0.0
aF0.5
aF1.0
aF1.4950000000000001
aF4.3570000000000002
aS'@@RA'
p2850
asg1268
(lp2851
NaF1.0
aF3.0
aF10.0
aF-10.0
aF60.0
aS'@@RM'
p2852
asg1220
(lp2853
F0.0
aF0.5
aF5.0
aF50.0
aS'@@minor'
p2854
asg155
(lp2855
F1.0
aS'@@c00_default'
p2856
asg1275
(lp2857
NaF0.10000000000000001
aF-0.050000000000000003
aF0.01
aS'@@Qpct'
p2858
asg1219
(lp2859
g1279
ag1280
ag1281
ag1282
ag1283
ag1284
ag1285
ag1286
ag1287
ag1288
ag1289
ag1290
ag1291
ag1292
ag1293
aS'@@punit'
p2860
asg1295
(lp2861
F0.5
aF1.0
aF0.87
aF1.0920000000000001
aS'@@Dec'
p2862
asg1217
(lp2863
NaS'@@name'
p2864
asg1218
(lp2865
I01
aI00
aS'@@fsr_trace'
p2866
asg223
(lp2867
I01
aI00
aS'@@use_previous'
p2868
asg1304
(lp2869
NaF-0.69999999999999996
a(lp2870
F0.44700000000000001
aF-0.184
aaS'@@SI'
p2871
asg157
(lp2872
NaS'@@tfdeg'
p2873
asg180
(lp2874
I01
aI00
aS'@@auto_save'
p2875
assg1312
(dp2876
g1219
I01
ssg85
g1314
sg83
g2805
sg87
S'MG_JEN_Sixpack'
p2877
sg237
(dp2878
g132
I00
sg1206
I00
sg1218
I00
sg137
I00
sg223
I00
sg180
I00
ssg89
S'** Specific description of inarg record for: MG_JEN_Sixpack::newstar_source()  version=10feb2006  defined=2006-03-31 16:56'
p2879
sg91
(dp2880
g95
S'  1: ..[simul]./MG_JEN_Sixpack.newstar_source() (qual=None): .modify(parmtable):   None  ->  simul_GJones'
p2881
ssg82
I00
sg112
(lp2882
g18
ag1219
ag1217
ag12
ag1206
ag1210
ag1275
ag1209
ag1211
ag1268
ag1304
ag1204
ag1265
ag1295
ag1218
ag1207
ag1205
ag1220
ag1212
ag223
ag180
ag137
ag132
ag147
ag141
ag135
ag143
ag142
ag155
ag157
ag151
ag156
ag149
asg121
(dp2883
g1204
g1322
sg132
g243
sg1205
g1323
sg1206
g1324
sg135
g245
sg137
g246
sg1207
g1325
sg12
g1326
sg1209
g1327
sg141
g141
sg142
g250
sg143
g251
sg147
g252
sg1210
g1328
sg156
g259
sg149
g253
sg1211
g1329
sg151
g254
sg1212
g1330
sg1265
g1331
sg1268
g1332
sg1220
g1333
sg155
g256
sg1275
g1334
sg1219
S'name of calibrator source/patch \n- unpol:   unpolarised, I=1Jy \n- unpol2:  idem, I=2Jy \n- unpol10: idem, I=10Jy \n- RMtest:  Rotation Measure \n- SItest:  Spectral Index \n- QUV:     non-zero Q,U,V \n- QU:      non-zero Q,U \n- QU2:     stronger version of QU \n- Qonly:   non-zero Q \n- Uonly:   non-zero U \n- Vonly:   non-zero V \n- 3c286:   \n- 3c48:    \n- 3c295:   \n- 3c147:   \n- D1:      cps in D1.MS \n'
p2884
sg1295
g1336
sg1218
g1337
sg223
g258
sg1304
g1338
sg157
g260
sg180
g249
ssg129
g1339
ssg1268
Nsg1220
F0.0
sg1265
F1.4950000000000001
sg155
F1.0
sg1275
Nsg1219
g1279
sg1295
F0.87
sg1217
Nsg1218
I01
sg223
I01
sg1304
Nsg157
Nsg180
I01
ssg2080
(dp2885
S'correct_after'
p2886
I01
sg1947
S'@@master_reqseq'
p2887
sS'condeq_unop'
p2888
Nsg2087
I01
sg1951
S'@@redun'
p2889
sS'solver_subtree'
p2890
NsS'subtract_after'
p2891
I00
sg1955
S'@@chain_solvers'
p2892
sg18
(dp2893
g20
S'MG_JEN_Cohset::insert_solver()'
p2894
sg22
g2080
sg23
(dp2895
g1947
I01
sg1951
I01
sg2890
I01
sg1955
I01
sS'flag_residuals'
p2896
I01
sg1957
I01
ssg30
S'MG_JEN_Cohsetinsert_solver'
p2897
sg32
g33
sg34
S'MG_JEN_Cohset::insert_solver()  version=25dec2005  defined=2006-03-31 16:56'
p2898
sg36
S'insert_solver'
p2899
sg38
(dp2900
g2886
(lp2901
I01
aI00
aS'@@correct_after'
p2902
asg1947
(lp2903
I01
aI00
ag2887
asg2888
(lp2904
NaS'Abs'
p2905
aS'Arg'
p2906
aS'@@condeq_unop'
p2907
asg2087
(lp2908
I01
aI00
aS'@@visu'
p2909
asg1951
(lp2910
I01
aI00
ag2889
asg2890
(lp2911
NaS'@@solver_subtree'
p2912
asg2891
(lp2913
I01
aI00
aS'@@subtract_after'
p2914
asg1955
(lp2915
I01
ag2892
asg2896
(lp2916
I01
aI00
aS'@@flag_residuals'
p2917
asg1957
(lp2918
Na(lp2919
I5
aI2
aa(lp2920
I2
aI2
aa(lp2921
I3
aI3
aaS'@@num_cells'
p2922
assg80
Nsg82
I00
sg83
S'2006-03-31 16:56'
p2923
sg85
g86
sg87
S'MG_JEN_Cohset'
p2924
sg237
(dp2925
g2886
I00
sg1947
I00
sg2087
I00
sg1951
I00
sg2891
I00
sg2896
I00
ssg89
S'** Specific description of inarg record for: MG_JEN_Cohset::insert_solver()  version=25dec2005  defined=2006-03-31 16:56'
p2926
sg91
(dp2927
g95
S'** JEN_inarg.attach(): attached: ./MG_JEN_Cohset.solver_subtree()'
p2928
ssg109
g2923
sg110
(dp2929
g1951
I00
sg1955
I00
sg1947
I00
sg1957
I00
ssg112
(lp2930
g18
ag2890
ag1951
ag1957
ag1955
ag1947
ag2888
ag2087
ag2891
ag2886
ag2896
aS'./MG_JEN_Cohset.solver_subtree()'
p2931
asg121
(dp2932
g2886
S'if True, correct measured with predicted.Joneset'
p2933
sg1947
g1948
sg2888
S'Optional unary operation on Condeq inputs'
p2934
sg2087
S'if True, include full visualisation'
p2935
sg1951
g1952
sg2890
S'solver subtree qualifier(s)'
p2936
sg2891
S'if True, subtract predicted from measured'
p2937
sg1955
g1956
sg2896
S'if True, flag the residuals'
p2938
sg1957
g1958
ssg129
S'insert one or more solver subtrees in the data stream'
p2939
ssg1957
g2922
sg2931
(dp2940
S'rmin'
p2941
NsS'setBalanced'
p2942
I00
sg2087
I01
sS'epsilon'
p2943
F0.0001
sS'rmax'
p2944
NsS'derivative_eps'
p2945
F1e-08
sS'usesvd'
p2946
I01
sS'debug_level'
p2947
I10
sS'solvegroup'
p2948
(lp2949
g52
asg18
(dp2950
g20
S'MG_JEN_Cohset::solver_subtree()'
p2951
sg22
g2931
sg91
(dp2952
g93
S'  2: ...../MG_JEN_Cohset.solver_subtree() (qual=None): .modify(num_iter):   5  ->  2'
p2953
sg95
S"  2: ...../MG_JEN_Cohset.solver_subtree() (qual=None): .modify(solvegroup):   []  ->  ['GJones']"
p2954
ssg23
(dp2955
g2947
I01
sg2945
I01
sg2942
I01
sS'epsval'
p2956
I01
sg1957
I00
ssg30
S'MG_JEN_Cohsetsolver_subtree'
p2957
sg32
g33
sg129
S'Make a solver-subtree for the given Condeq Cohset'
p2958
sg34
S'MG_JEN_Cohset::solver_subtree()  version=20dec2005  defined=2006-03-31 16:56'
p2959
sg36
S'solver_subtree'
p2960
sg38
(dp2961
g2941
(lp2962
NaI100
aI200
aI500
aS'@@rmin'
p2963
asg2087
(lp2964
I01
aI00
aS'@@visu'
p2965
asg2943
(lp2966
F0.001
aF0.0001
aF1.0000000000000001e-05
aS'@@epsilon'
p2967
asS'colin_factor'
p2968
(lp2969
F1e-08
aF0.0
aS'@@colin_factor'
p2970
asg2944
(lp2971
NaI500
aI1000
aI2000
aS'@@rmax'
p2972
asg2945
(lp2973
F1e-08
aF0.001
aF0.0001
aF1.0000000000000001e-05
aS'@@derivative_eps'
p2974
asg2946
(lp2975
I01
aI00
aS'@@usesvd'
p2976
asg2947
(lp2977
I10
aS'@@debug_level'
p2978
asg2948
(lp2979
(lp2980
a(lp2981
g52
aa(lp2982
S'Ggain'
p2983
aa(lp2984
S'Gphase'
p2985
aa(lp2986
S'Gpol1'
p2987
aa(lp2988
S'Gpol2'
p2989
aa(lp2990
g66
aa(lp2991
g66
aS'stokesU'
p2992
aa(lp2993
g66
aS'stokesQ'
p2994
aa(lp2995
g66
aS'stokesV'
p2996
aa(lp2997
S'stokesQU'
p2998
ag66
aa(lp2999
S'stokesQUV'
p3000
ag66
aa(lp3001
g52
aS'stokesI'
p3002
aa(lp3003
g3002
aa(lp3004
S'stokesIQU'
p3005
aa(lp3006
S'stokesIQUV'
p3007
aa(lp3008
S'stokesIV'
p3009
aa(lp3010
g2998
aa(lp3011
g3000
aa(lp3012
g52
aS'DJones'
p3013
aa(lp3014
g3013
aa(lp3015
S'Dang'
p3016
aa(lp3017
S'Dell'
p3018
aa(lp3019
S'Dreal'
p3020
aa(lp3021
S'Dimag'
p3022
aa(lp3023
g52
ag3013
ag56
aa(lp3024
g56
aa(lp3025
g52
ag54
aa(lp3026
g54
aa(lp3027
S'Breal'
p3028
aa(lp3029
S'Bimag'
p3030
aa(lp3031
S'Bpol1'
p3032
aa(lp3033
S'Bpol2'
p3034
aaS'@@solvegroup'
p3035
asg2956
(lp3036
F1e-08
aF0.001
aF0.0001
aF1.0000000000000001e-05
aS'@@epsval'
p3037
asg1957
(lp3038
Na(lp3039
I5
aI2
aa(lp3040
I2
aI2
aa(lp3041
I3
aI3
aaS'@@num_cells'
p3042
asg2942
(lp3043
I01
aI00
aS'@@setBalanced'
p3044
asS'num_iter'
p3045
(lp3046
I1
aI3
aI5
aI10
aI20
aS'@@num_iter'
p3047
asS'condition'
p3048
(lp3049
NaS'Gphase_X_sum=0.0'
p3050
aS'Gphase_Y_sum=0.0'
p3051
a(lp3052
g3050
ag3051
aa(lp3053
S'Gphase_X_first=0.0'
p3054
aS'Gphase_Y_first=0.0'
p3055
aa(lp3056
S'Gphase_X_last=0.0'
p3057
aS'Gphase_Y_last=0.0'
p3058
aaS'Dang_sum=0.0'
p3059
a(lp3060
S'Bimag_X_sum=0.0'
p3061
aS'Bimag_Y_sum=0.0'
p3062
aa(lp3063
S'Breal_X_product=1.0'
p3064
aS'Breal_Y_product=1.0'
p3065
aaS'@@condition'
p3066
asS'history'
p3067
(lp3068
I01
aI00
aS'@@history'
p3069
assg80
Nsg85
S'20dec2005'
p3070
sg83
S'2006-03-31 16:56'
p3071
sg87
S'MG_JEN_Cohset'
p3072
sg237
(dp3073
g2946
I00
sg2942
I00
sg2087
I00
sg3067
I00
ssg89
S'** Specific description of inarg record for: MG_JEN_Cohset::solver_subtree()  version=20dec2005  defined=2006-03-31 16:56'
p3074
sg82
I00
sg109
g3071
sg112
(lp3075
g18
ag2948
ag3048
ag2941
ag2944
ag1957
ag3045
ag2943
ag2956
ag2945
ag2968
ag2946
ag2942
ag2947
ag2087
ag3067
asg121
(dp3076
g2941
S'if specified, only use baselines>=rmin'
p3077
sg2087
S'if True, include visualisation'
p3078
sg2943
S'iteration control criterion...'
p3079
sg2968
S'colinearity factor'
p3080
sg2944
S'if specified, only use baselines<=rmax'
p3081
sg2945
S'NEW: also iteration control...'
p3082
sg2946
S'if True, use Singular Value Decomposition (SVD)'
p3083
sg2947
S'solver debug_level'
p3084
sg2948
S'group (list) of parmgroups, to be solved for:\n- [GJones]:  all GJones MeqParms\n- [Ggain]:   GJones station gains (both pols)\n- [Gphase]:  GJones station phases (both pols)\n- [Gpol1]:   All GJones MeqParms for pol1 (X or R)\n- [Gpol2]:   All GJones MeqParms for pol2 (Y or L)\n- [JJones,stokesU]:     actually solves for U!\n- [JJones,stokesQ]:     -> zero Q(?), but better freq sol(?)\n- [JJones,stokesV]:     -> punit V(?)...\n- [stokesI]:    stokes I (incl SI(f), if relevant)\n- [stokesIQU]:  stokes I,Q,U (incl RM and SI(f))\n- [stokesIQUV]: stokes I,Q,U,V (incl RM and SI(f))'
p3085
sg2956
S'NEW: WNB version of epsilon....'
p3086
sg1957
g1958
sg2942
S'NEW: if True, add (..) to diagonal, otherwise multiply (1+lambda)'
p3087
sg3045
S'max number of iterations (now also in fitter)'
p3088
sg3048
S'(list of) extra condition equations:\n- [...phase_sum=0.0]:   sum of phases = zero\n- [...phase_first=0.0]: phase of first station = zero\n- [...phase_last=0.0]:  phase of last station = zero\n- [Dang_sum=0.0]:   sum of dipole pos.angle errors = zero\n- [...imag_sum=0.0]:   sum of imag.parts = zero\n- [...real_product=1.0]:   product of real.parts = unity'
p3089
sg3067
S'if True, include history collection of metrics'
p3090
sssg1957
Nsg2956
F1e-08
sg3067
I01
sg3045
I2
sg3048
Nsg2968
F0.0
ssg2896
I00
ss.