(dp0
S'add_to_existing'
p1
I00
sS'polrep'
p2
S'linear'
p3
sS'external_uvp_Joneset'
p4
I00
sS'_JEN_inarg_separator_record:_1'
p5
(dp6
S'txt'
p7
S'uv-data (MS) stream_control'
p8
ssS'script_name'
p9
S'MG_JEN_simul'
p10
sS'ms_name'
p11
S'D1.MS'
p12
sS'parmtable'
p13
NsS'insert_solver'
p14
I01
sS'use_same_LSM'
p15
I00
sS'[simul]./MG_JEN_lsm.get_lsm()'
p16
(dp17
S'saveAs'
p18
S'<automatic>'
p19
sS'test_pattern'
p20
S'grid'
p21
sS'[simul]./MG_JEN_lsm.add_single()'
p22
(dp23
S'[simul_single]./MG_JEN_Sixpack.newstar_source()'
p24
(dp25
S'f0'
p26
F1000000.0
sS'reset_funklet'
p27
I00
sS'major'
p28
F0.0
sS'unsolvable'
p29
I00
sS'color'
p30
S'red'
p31
sS'save_all'
p32
I00
sS'shape'
p33
S'point'
p34
sg13
NsS'Upct'
p35
NsS'unit'
p36
NsS'size'
p37
I10
sS'style'
p38
S'circle'
p39
sS'descr'
p40
S'<descr>'
p41
sS'I0'
p42
F1.0
sS'subtile_size'
p43
NsS'condeq_corrs'
p44
S'*'
p45
sS'Vpct'
p46
NsS'funklet_shape'
p47
NsS'pa'
p48
F0.0
sS'_JEN_inarg_CTRL_record:'
p49
(dp50
S'target_definition'
p51
S'MG_JEN_Sixpack::newstar_source()'
p52
sS'localscope'
p53
g24
sS'last_edited'
p54
S'2006-04-13 17:23'
p55
sS'hide'
p56
(dp57
g26
I01
sg28
I01
sg29
I01
sS'name'
p58
I01
sg40
I01
sg47
I01
sg30
I01
sg33
I01
sS'fsr_trace'
p59
I01
sS'punit'
p60
I00
sg43
I01
sg48
I01
sg44
I01
sS'tfdeg'
p61
I01
sg36
I01
sS'c00_default'
p62
I01
sg38
I01
sS'minor'
p63
I01
sg37
I01
ssS'barescope'
p64
S'MG_JEN_Sixpacknewstar_source'
p65
sS'qual'
p66
S'simul_single'
p67
sS'target_dir'
p68
S'.'
p69
sS'oneliner'
p70
S'MG_JEN_Sixpack::newstar_source()  version=10feb2006  defined=2006-04-13 17:23'
p71
sS'target_function'
p72
S'newstar_source'
p73
sS'choice'
p74
(dp75
g26
(lp76
F1000000.0
aS'@@f0'
p77
asg27
(lp78
I01
aI00
aS'@@reset_funklet'
p79
asg28
(lp80
F0.0
aF1.0
aF10.0
aF100.0
aS'@@major'
p81
asg29
(lp82
I01
aI00
aS'@@unsolvable'
p83
asg30
(lp84
g31
aS'@@color'
p85
asg32
(lp86
I01
aI00
aS'@@save_all'
p87
asg33
(lp88
g34
aS'ell.gauss'
p89
aS'@@shape'
p90
asg13
(lp91
NaS'@@parmtable'
p92
asg35
(lp93
NaF-0.10000000000000001
aF0.050000000000000003
aF-0.01
aS'@@Upct'
p94
asg36
(lp95
NaS'@@unit'
p96
asg37
(lp97
I10
aS'@@size'
p98
asg38
(lp99
g39
aS'@@style'
p100
asg40
(lp101
g41
aS'@@descr'
p102
asg42
(lp103
F1.0
aF10.0
aS'@@I0'
p104
asg43
(lp105
NaS'@@subtile_size'
p106
asg44
(lp107
g45
aS'@@condeq_corrs'
p108
asg46
(lp109
NaF0.01
aF-0.0050000000000000001
aF0.001
aS'@@Vpct'
p110
asg47
(lp111
NaS'@@funklet_shape'
p112
asg48
(lp113
F0.0
aF1.0
aF-0.5
aS'@@pa'
p114
asS'RA'
p115
(lp116
F0.0
aF0.5
aF1.0
aF1.4950000000000001
aF4.3570000000000002
aS'@@RA'
p117
asS'RM'
p118
(lp119
NaF1.0
aF3.0
aF10.0
aF-10.0
aF60.0
aS'@@RM'
p120
asg63
(lp121
F0.0
aF0.5
aF5.0
aF50.0
aS'@@minor'
p122
asg62
(lp123
F1.0
aS'@@c00_default'
p124
asS'Qpct'
p125
(lp126
NaF0.10000000000000001
aF-0.050000000000000003
aF0.01
aS'@@Qpct'
p127
asg60
(lp128
S'unpol'
p129
aS'unpol2'
p130
aS'unpol10'
p131
aS'QUV'
p132
aS'QU'
p133
aS'Qonly'
p134
aS'Uonly'
p135
aS'Vonly'
p136
aS'3c147'
p137
aS'3c286'
p138
aS'3c48'
p139
aS'3c295'
p140
aS'D1'
p141
aS'RMtest'
p142
aS'SItest'
p143
aS'ellgauss'
p144
aS'@@punit'
p145
asS'Dec'
p146
(lp147
F0.5
aF1.0
aF0.87
aF1.0920000000000001
aS'@@Dec'
p148
asg58
(lp149
NaS'@@name'
p150
asg59
(lp151
I01
aI00
aS'@@fsr_trace'
p152
asS'use_previous'
p153
(lp154
I01
aI00
aS'@@use_previous'
p155
asS'SI'
p156
(lp157
NaF-0.69999999999999996
a(lp158
F0.44700000000000001
aF-0.184
aaS'@@SI'
p159
asg61
(lp160
NaS'@@tfdeg'
p161
asS'auto_save'
p162
(lp163
I01
aI00
aS'@@auto_save'
p164
assS'callback'
p165
(dp166
g60
I01
ssS'available_inargs'
p167
S'** Description of available inarg record(s) for: MG_JEN_Sixpack::newstar_source()  version=10feb2006  defined=2006-04-13 17:23'
p168
sS'version'
p169
S'10feb2006'
p170
sS'datetime_defined'
p171
g55
sS'target_module'
p172
S'MG_JEN_Sixpack'
p173
sS'editable'
p174
(dp175
g27
I00
sg29
I00
sg59
I00
sg32
I00
sg153
I00
sg162
I00
ssS'inarg_specific'
p176
S'** Specific description of inarg record for: MG_JEN_Sixpack::newstar_source()  version=10feb2006  defined=2006-04-13 17:23'
p177
sS'protected'
p178
I00
sS'order'
p179
(lp180
g49
ag60
ag58
ag13
ag29
ag42
ag125
ag35
ag46
ag118
ag156
ag26
ag115
ag146
ag59
ag33
ag28
ag63
ag48
ag153
ag162
ag32
ag27
ag40
ag36
ag30
ag38
ag37
ag62
ag61
ag47
ag43
ag44
asS'help'
p181
(dp182
g26
S'reference freq (Hz): I=I0 @ f=f0'
p183
sg27
S'if True, do NOT use any MeqParm table values when solvable'
p184
sg28
S'major axis (arcsec)'
p185
sg29
S'if True, do NOT store solvegroup/parmgroup info'
p186
sg30
S'plot_color'
p187
sg32
S'if True, save the update result even if not converged'
p188
sg33
S'source shape'
p189
sg13
S'name of the MeqParm table (AIPS++)'
p190
sg35
S'Stokes U (percentage of I)'
p191
sg36
g36
sg37
S'size of plotted symbol'
p192
sg38
S'plot_style'
p193
sg40
S'brief description'
p194
sg42
S'Stokes I: Total intensity @ f=f0 (usually 1 MHz)'
p195
sg43
S'size (time-slots) of a domain sub-tile'
p196
sg44
S'correlations to be used for solving'
p197
sg46
S'Stokes V (percentage of I)'
p198
sg47
S'shape [time,freq] of default funklet'
p199
sg48
S'position angle (rad)'
p200
sg115
S'Right Ascension (rad, J2000)'
p201
sg118
S'Intrinsic Rotation Measure (rad/m2)'
p202
sg63
S'minor axis (arcsec)'
p203
sg62
S'default value of c[0,0] coefficient'
p204
sg125
S'Stokes Q (percentage of I)'
p205
sg60
S'name of calibrator source/patch \n- unpol:     unpolarised, I=1Jy \n- unpol2:    idem, I=2Jy \n- unpol10:   idem, I=10Jy \n- RMtest:    Rotation Measure \n- SItest:    Spectral Index \n- ellgauss:  Elliptic Gaussian \n- QUV:       non-zero Q,U,V \n- QU:        non-zero Q,U \n- QU2:       stronger version of QU \n- Qonly:     non-zero Q \n- Uonly:     non-zero U \n- Vonly:     non-zero V \n- 3c286:     \n- 3c48:      \n- 3c295:     \n- 3c147:     \n- D1:        cps in D1.MS \n'
p206
sg146
S'Declination (rad, J2000)'
p207
sg59
S'If True, attach to forest state record'
p208
sg153
S'if True, start with the previous solution'
p209
sg156
S'Spectral Index (generalised)\n   A scalar represents the classical SI: I(f)=I0*(f/f0)^SI\n   A vector represents a freq-dependent SI (....)'
p210
sg61
S'(time,freq) polynomial degree'
p211
sg162
S'if True, save the result of every iteration (slow!)'
p212
ssS'description'
p213
S'Make a Sixpack (I,Q,U,V,Ra,Dec) for a source with NEWSTAR parametrisation'
p214
ssg118
Nsg63
F0.0
sg115
F1.4950000000000001
sg62
F1.0
sg125
Nsg60
g129
sg146
F0.87
sg58
Nsg59
I01
sg153
I01
sg156
Nsg61
Nsg162
I00
ssg49
(dp215
g51
S'MG_JEN_lsm::add_single()'
p216
sg53
g22
sg176
S'** Specific description of inarg record for: MG_JEN_lsm::add_single()  version=10feb2006  defined=2006-04-13 17:23'
p217
sg213
S'Add a test-source (Sixpack) to the given lsm'
p218
sg68
g69
sg70
S'MG_JEN_lsm::add_single()  version=10feb2006  defined=2006-04-13 17:23'
p219
sg72
S'add_single'
p220
sg66
S'simul'
p221
sg167
S'** Description of available inarg record(s) for: MG_JEN_lsm::add_single()  version=10feb2006  defined=2006-04-13 17:23'
p222
sg178
I00
sg171
S'2006-04-13 17:23'
p223
sg169
g170
sg172
S'MG_JEN_lsm'
p224
sS'MESSAGE'
p225
(dp226
S'0'
p227
S'** JEN_inarg.attach(): attached: [simul_single]./MG_JEN_Sixpack.newstar_source()'
p228
ssg54
g223
sg179
(lp229
g49
ag24
asg64
S'MG_JEN_lsmadd_single'
p230
sssS'[simul]./MG_JEN_lsm.add_grid()'
p231
(dp232
S'taper'
p233
NsS'[simul_grid]./MG_JEN_Sixpack.newstar_source()'
p234
(dp235
g26
F1000000.0
sg27
I00
sg28
F0.0
sg29
I00
sg30
g31
sg32
I00
sg33
g34
sg13
Nsg35
Nsg36
Nsg37
I10
sg38
g39
sg40
g41
sg42
F1.0
sg43
Nsg44
g45
sg46
Nsg47
Nsg48
F0.0
sg49
(dp236
g51
g52
sg53
g234
sg54
S'2006-04-13 17:23'
p237
sg56
(dp238
g26
I01
sg28
I01
sg29
I01
sg58
I01
sg40
I01
sg47
I01
sg30
I01
sg33
I01
sg59
I01
sg60
I00
sg43
I01
sg48
I01
sg44
I01
sg61
I01
sg36
I01
sg62
I01
sg38
I01
sg63
I01
sg37
I01
ssg64
S'MG_JEN_Sixpacknewstar_source'
p239
sg66
S'simul_grid'
p240
sg68
g69
sg70
S'MG_JEN_Sixpack::newstar_source()  version=10feb2006  defined=2006-04-13 17:23'
p241
sg72
S'newstar_source'
p242
sg74
(dp243
g26
(lp244
F1000000.0
aS'@@f0'
p245
asg27
(lp246
I01
aI00
aS'@@reset_funklet'
p247
asg28
(lp248
F0.0
aF1.0
aF10.0
aF100.0
aS'@@major'
p249
asg29
(lp250
I01
aI00
aS'@@unsolvable'
p251
asg30
(lp252
g31
aS'@@color'
p253
asg32
(lp254
I01
aI00
aS'@@save_all'
p255
asg33
(lp256
g34
ag89
aS'@@shape'
p257
asg13
(lp258
NaS'@@parmtable'
p259
asg35
(lp260
NaF-0.10000000000000001
aF0.050000000000000003
aF-0.01
aS'@@Upct'
p261
asg36
(lp262
NaS'@@unit'
p263
asg37
(lp264
I10
aS'@@size'
p265
asg38
(lp266
g39
aS'@@style'
p267
asg40
(lp268
g41
aS'@@descr'
p269
asg42
(lp270
F1.0
aF10.0
aS'@@I0'
p271
asg43
(lp272
NaS'@@subtile_size'
p273
asg44
(lp274
g45
aS'@@condeq_corrs'
p275
asg46
(lp276
NaF0.01
aF-0.0050000000000000001
aF0.001
aS'@@Vpct'
p277
asg47
(lp278
NaS'@@funklet_shape'
p279
asg48
(lp280
F0.0
aF1.0
aF-0.5
aS'@@pa'
p281
asg115
(lp282
F0.0
aF0.5
aF1.0
aF1.4950000000000001
aF4.3570000000000002
aS'@@RA'
p283
asg118
(lp284
NaF1.0
aF3.0
aF10.0
aF-10.0
aF60.0
aS'@@RM'
p285
asg63
(lp286
F0.0
aF0.5
aF5.0
aF50.0
aS'@@minor'
p287
asg62
(lp288
F1.0
aS'@@c00_default'
p289
asg125
(lp290
NaF0.10000000000000001
aF-0.050000000000000003
aF0.01
aS'@@Qpct'
p291
asg60
(lp292
g129
ag130
ag131
ag132
ag133
ag134
ag135
ag136
ag137
ag138
ag139
ag140
ag141
ag142
ag143
ag144
aS'@@punit'
p293
asg146
(lp294
F0.5
aF1.0
aF0.87
aF1.0920000000000001
aS'@@Dec'
p295
asg58
(lp296
NaS'@@name'
p297
asg59
(lp298
I01
aI00
aS'@@fsr_trace'
p299
asg153
(lp300
I01
aI00
aS'@@use_previous'
p301
asg156
(lp302
NaF-0.69999999999999996
a(lp303
F0.44700000000000001
aF-0.184
aaS'@@SI'
p304
asg61
(lp305
NaS'@@tfdeg'
p306
asg162
(lp307
I01
aI00
aS'@@auto_save'
p308
assg165
(dp309
g60
I01
ssg167
S'** Description of available inarg record(s) for: MG_JEN_Sixpack::newstar_source()  version=10feb2006  defined=2006-04-13 17:23'
p310
sg169
g170
sg171
g237
sg172
S'MG_JEN_Sixpack'
p311
sg174
(dp312
g27
I00
sg29
I00
sg59
I00
sg32
I00
sg153
I00
sg162
I00
ssg176
S'** Specific description of inarg record for: MG_JEN_Sixpack::newstar_source()  version=10feb2006  defined=2006-04-13 17:23'
p313
sg178
I00
sg179
(lp314
g49
ag60
ag58
ag13
ag29
ag42
ag125
ag35
ag46
ag118
ag156
ag26
ag115
ag146
ag59
ag33
ag28
ag63
ag48
ag153
ag162
ag32
ag27
ag40
ag36
ag30
ag38
ag37
ag62
ag61
ag47
ag43
ag44
asg181
(dp315
g26
g183
sg27
g184
sg28
g185
sg29
g186
sg30
g187
sg32
g188
sg33
g189
sg13
g190
sg35
g191
sg36
g36
sg37
g192
sg38
g193
sg40
g194
sg42
g195
sg43
g196
sg44
g197
sg46
g198
sg47
g199
sg48
g200
sg115
g201
sg118
g202
sg63
g203
sg62
g204
sg125
g205
sg60
S'name of calibrator source/patch \n- unpol:     unpolarised, I=1Jy \n- unpol2:    idem, I=2Jy \n- unpol10:   idem, I=10Jy \n- RMtest:    Rotation Measure \n- SItest:    Spectral Index \n- ellgauss:  Elliptic Gaussian \n- QUV:       non-zero Q,U,V \n- QU:        non-zero Q,U \n- QU2:       stronger version of QU \n- Qonly:     non-zero Q \n- Uonly:     non-zero U \n- Vonly:     non-zero V \n- 3c286:     \n- 3c48:      \n- 3c295:     \n- 3c147:     \n- D1:        cps in D1.MS \n'
p316
sg146
g207
sg59
g208
sg153
g209
sg156
g210
sg61
g211
sg162
g212
ssg213
g214
ssg118
Nsg63
F0.0
sg115
F1.4950000000000001
sg62
F1.0
sg125
Nsg60
g129
sg146
F0.87
sg58
Nsg59
I01
sg153
I01
sg156
Nsg61
Nsg162
I00
ssS'nRA2'
p317
I1
sS'dDec'
p318
I20
sS'relpos'
p319
S'trq'
p320
sg49
(dp321
g51
S'MG_JEN_lsm::add_grid()'
p322
sg53
g231
sg176
S'** Specific description of inarg record for: MG_JEN_lsm::add_grid()  version=10feb2006  defined=2006-04-13 17:23'
p323
sg64
S'MG_JEN_lsmadd_grid'
p324
sg68
g69
sg213
S'Add a rectangular grid of identical test-sources to the given lsm'
p325
sg70
S'MG_JEN_lsm::add_grid()  version=10feb2006  defined=2006-04-13 17:23'
p326
sg72
S'add_grid'
p327
sg74
(dp328
g233
(lp329
F0.5
aI1
aI2
aI5
aI10
aI100
aNaS'@@taper'
p330
asg317
(lp331
I0
aI1
aI2
aI3
aS'@@nRA2'
p332
asg318
(lp333
I5
aI10
aI20
aS'@@dDec'
p334
asg319
(lp335
S'center'
p336
aS'top'
p337
aS'bottom'
p338
aS'left'
p339
aS'right'
p340
aS'tlq'
p341
ag320
aS'blq'
p342
aS'brq'
p343
aS'@@relpos'
p344
asS'dRA'
p345
(lp346
I5
aI10
aI20
aS'@@dRA'
p347
asS'nDec2'
p348
(lp349
I0
aI1
aI2
aI3
aS'@@nDec2'
p350
assg66
g221
sg167
S'** Description of available inarg record(s) for: MG_JEN_lsm::add_grid()  version=10feb2006  defined=2006-04-13 17:23'
p351
sg178
I00
sg171
S'2006-04-13 17:23'
p352
sg169
g170
sg172
S'MG_JEN_lsm'
p353
sg225
(dp354
S'1'
p355
S'  2: ....[simul]./MG_JEN_lsm.add_grid() (qual=simul): .modify(taper):   1.0  ->  None'
p356
sg227
S'** JEN_inarg.attach(): attached: [simul_grid]./MG_JEN_Sixpack.newstar_source()'
p357
ssg54
g352
sg179
(lp358
g49
ag317
ag348
ag345
ag318
ag233
ag319
ag234
asg181
(dp359
g233
S'Scale (degr) of gaussian FOV taper'
p360
sg317
S'(half) nr of sources in RA direction'
p361
sg318
S'Dec grid spacing (arcmin)'
p362
sg319
S'Relative position w.r.t. the nominal punit (RA,Dec)'
p363
sg345
S'RA grid spacing (arcmin)'
p364
sg348
S'(half) nr of sources in DEC direction'
p365
sssg345
I20
sg348
I1
ssg49
(dp366
g51
S'MG_JEN_lsm::get_lsm()'
p367
sg53
g16
sg176
S'** Specific description of inarg record for: MG_JEN_lsm::get_lsm()  version=02apr2006  defined=2006-04-13 17:23'
p368
sg64
S'MG_JEN_lsmget_lsm'
p369
sS'browse'
p370
(dp371
S'input_LSM'
p372
S'*.lsm'
p373
sg18
g373
ssg68
g69
sg70
S'MG_JEN_lsm::get_lsm()  version=02apr2006  defined=2006-04-13 17:23'
p374
sg72
S'get_lsm'
p375
sg74
(dp376
g372
(lp377
S'lsm_current.lsm'
p378
aS'3c343_nvss.lsm'
p379
aS'abel963.lsm'
p380
aS'D1.lsm'
p381
aNaS'@@input_LSM'
p382
asg18
(lp383
S'<automatic>'
p384
aNaS'@@saveAs'
p385
asg20
(lp386
NaS'single'
p387
aS'double'
p388
ag21
aS'spiral'
p389
aS'@@test_pattern'
p390
asS'display'
p391
(lp392
I01
aI00
aS'@@display'
p393
asS'save_as_current'
p394
(lp395
I01
aI00
aS'@@save_as_current'
p396
assg66
g221
sg167
S'** Description of available inarg record(s) for: MG_JEN_lsm::get_lsm()  version=02apr2006  defined=2006-04-13 17:23'
p397
sg178
I00
sg171
S'2006-04-13 17:23'
p398
sg169
S'02apr2006'
p399
sg172
S'MG_JEN_lsm'
p400
sg174
(dp401
g391
I00
sg394
I00
ssg225
(dp402
g355
S'** JEN_inarg.attach(): attached: [simul]./MG_JEN_lsm.add_double()'
p403
sg227
S'** JEN_inarg.attach(): attached: [simul]./MG_JEN_lsm.add_single()'
p404
sS'3'
p405
S'** JEN_inarg.attach(): attached: [simul]./MG_JEN_lsm.add_spiral()'
p406
sS'2'
p407
S'** JEN_inarg.attach(): attached: [simul]./MG_JEN_lsm.add_grid()'
p408
sS'5'
p409
S'  1: ..[simul]./MG_JEN_lsm.get_lsm() (qual=None): .modify(test_pattern):   single  ->  grid'
p410
sS'4'
p411
S'  1: ..[simul]./MG_JEN_lsm.get_lsm() (qual=None): .modify(saveAs):   None  ->  <automatic>'
p412
ssg54
g398
sg179
(lp413
g49
ag372
ag391
ag394
ag18
ag20
ag22
aS'[simul]./MG_JEN_lsm.add_double()'
p414
ag231
aS'[simul]./MG_JEN_lsm.add_spiral()'
p415
asg181
(dp416
g372
S'(file)name of the Local Sky Model to be added to'
p417
sg18
S'Save the new/modified LSM afterwards as...'
p418
sg20
S'pattern of test-sources to be generated'
p419
sg391
S'Display the new/modified LSM'
p420
sg394
S'Save the new/modified LSM afterwards as lsm_current.lsm'
p421
ssg213
S'Generate an existing/new/modified Local Sky Model'
p422
ssg415
(dp423
S'nr_of_sources'
p424
I5
sg233
NsS'[simul_spiral]./MG_JEN_Sixpack.newstar_source()'
p425
(dp426
g26
F1000000.0
sg27
I00
sg28
F0.0
sg29
I00
sg30
g31
sg32
I00
sg33
g34
sg13
Nsg35
Nsg36
Nsg37
I10
sg38
g39
sg40
g41
sg42
F1.0
sg43
Nsg44
g45
sg46
Nsg47
Nsg48
F0.0
sg49
(dp427
g51
g52
sg53
g425
sg54
S'2006-04-13 17:23'
p428
sg56
(dp429
g26
I01
sg28
I01
sg29
I01
sg58
I01
sg40
I01
sg47
I01
sg30
I01
sg33
I01
sg59
I01
sg60
I00
sg43
I01
sg48
I01
sg44
I01
sg61
I01
sg36
I01
sg62
I01
sg38
I01
sg63
I01
sg37
I01
ssg64
S'MG_JEN_Sixpacknewstar_source'
p430
sg66
S'simul_spiral'
p431
sg68
g69
sg70
S'MG_JEN_Sixpack::newstar_source()  version=10feb2006  defined=2006-04-13 17:23'
p432
sg72
S'newstar_source'
p433
sg74
(dp434
g26
(lp435
F1000000.0
aS'@@f0'
p436
asg27
(lp437
I01
aI00
aS'@@reset_funklet'
p438
asg28
(lp439
F0.0
aF1.0
aF10.0
aF100.0
aS'@@major'
p440
asg29
(lp441
I01
aI00
aS'@@unsolvable'
p442
asg30
(lp443
g31
aS'@@color'
p444
asg32
(lp445
I01
aI00
aS'@@save_all'
p446
asg33
(lp447
g34
ag89
aS'@@shape'
p448
asg13
(lp449
NaS'@@parmtable'
p450
asg35
(lp451
NaF-0.10000000000000001
aF0.050000000000000003
aF-0.01
aS'@@Upct'
p452
asg36
(lp453
NaS'@@unit'
p454
asg37
(lp455
I10
aS'@@size'
p456
asg38
(lp457
g39
aS'@@style'
p458
asg40
(lp459
g41
aS'@@descr'
p460
asg42
(lp461
F1.0
aF10.0
aS'@@I0'
p462
asg43
(lp463
NaS'@@subtile_size'
p464
asg44
(lp465
g45
aS'@@condeq_corrs'
p466
asg46
(lp467
NaF0.01
aF-0.0050000000000000001
aF0.001
aS'@@Vpct'
p468
asg47
(lp469
NaS'@@funklet_shape'
p470
asg48
(lp471
F0.0
aF1.0
aF-0.5
aS'@@pa'
p472
asg115
(lp473
F0.0
aF0.5
aF1.0
aF1.4950000000000001
aF4.3570000000000002
aS'@@RA'
p474
asg118
(lp475
NaF1.0
aF3.0
aF10.0
aF-10.0
aF60.0
aS'@@RM'
p476
asg63
(lp477
F0.0
aF0.5
aF5.0
aF50.0
aS'@@minor'
p478
asg62
(lp479
F1.0
aS'@@c00_default'
p480
asg125
(lp481
NaF0.10000000000000001
aF-0.050000000000000003
aF0.01
aS'@@Qpct'
p482
asg60
(lp483
g129
ag130
ag131
ag132
ag133
ag134
ag135
ag136
ag137
ag138
ag139
ag140
ag141
ag142
ag143
ag144
aS'@@punit'
p484
asg146
(lp485
F0.5
aF1.0
aF0.87
aF1.0920000000000001
aS'@@Dec'
p486
asg58
(lp487
NaS'@@name'
p488
asg59
(lp489
I01
aI00
aS'@@fsr_trace'
p490
asg153
(lp491
I01
aI00
aS'@@use_previous'
p492
asg156
(lp493
NaF-0.69999999999999996
a(lp494
F0.44700000000000001
aF-0.184
aaS'@@SI'
p495
asg61
(lp496
NaS'@@tfdeg'
p497
asg162
(lp498
I01
aI00
aS'@@auto_save'
p499
assg165
(dp500
g60
I01
ssg167
S'** Description of available inarg record(s) for: MG_JEN_Sixpack::newstar_source()  version=10feb2006  defined=2006-04-13 17:23'
p501
sg169
g170
sg171
g428
sg172
S'MG_JEN_Sixpack'
p502
sg174
(dp503
g27
I00
sg29
I00
sg59
I00
sg32
I00
sg153
I00
sg162
I00
ssg176
S'** Specific description of inarg record for: MG_JEN_Sixpack::newstar_source()  version=10feb2006  defined=2006-04-13 17:23'
p504
sg178
I00
sg179
(lp505
g49
ag60
ag58
ag13
ag29
ag42
ag125
ag35
ag46
ag118
ag156
ag26
ag115
ag146
ag59
ag33
ag28
ag63
ag48
ag153
ag162
ag32
ag27
ag40
ag36
ag30
ag38
ag37
ag62
ag61
ag47
ag43
ag44
asg181
(dp506
g26
g183
sg27
g184
sg28
g185
sg29
g186
sg30
g187
sg32
g188
sg33
g189
sg13
g190
sg35
g191
sg36
g36
sg37
g192
sg38
g193
sg40
g194
sg42
g195
sg43
g196
sg44
g197
sg46
g198
sg47
g199
sg48
g200
sg115
g201
sg118
g202
sg63
g203
sg62
g204
sg125
g205
sg60
S'name of calibrator source/patch \n- unpol:     unpolarised, I=1Jy \n- unpol2:    idem, I=2Jy \n- unpol10:   idem, I=10Jy \n- RMtest:    Rotation Measure \n- SItest:    Spectral Index \n- ellgauss:  Elliptic Gaussian \n- QUV:       non-zero Q,U,V \n- QU:        non-zero Q,U \n- QU2:       stronger version of QU \n- Qonly:     non-zero Q \n- Uonly:     non-zero U \n- Vonly:     non-zero V \n- 3c286:     \n- 3c48:      \n- 3c295:     \n- 3c147:     \n- D1:        cps in D1.MS \n'
p507
sg146
g207
sg59
g208
sg153
g209
sg156
g210
sg61
g211
sg162
g212
ssg213
g214
ssg118
Nsg63
F0.0
sg115
F1.4950000000000001
sg62
F1.0
sg125
Nsg60
g129
sg146
F0.87
sg58
Nsg59
I01
sg153
I01
sg156
Nsg61
Nsg162
I00
ssS'astart'
p508
I0
sS'rmult'
p509
F1.1000000000000001
sS'rstart'
p510
I20
sg49
(dp511
g51
S'MG_JEN_lsm::add_spiral()'
p512
sg53
g415
sg176
S'** Specific description of inarg record for: MG_JEN_lsm::add_spiral()  version=10feb2006  defined=2006-04-13 17:23'
p513
sg64
S'MG_JEN_lsmadd_spiral'
p514
sg68
g69
sg213
S'Add a spiral pattern of identical test-sources to the given lsm'
p515
sg70
S'MG_JEN_lsm::add_spiral()  version=10feb2006  defined=2006-04-13 17:23'
p516
sg72
S'add_spiral'
p517
sg74
(dp518
g424
(lp519
I2
aI3
aI4
aI5
aI10
aS'@@nr_of_sources'
p520
asg233
(lp521
F0.5
aI1
aI2
aI5
aI10
aI100
aNaS'@@taper'
p522
asg508
(lp523
I0
aI30
aI45
aI90
aI180
aI270
aS'@@astart'
p524
asg509
(lp525
F1.01
aF1.1000000000000001
aF1.2
aF1.5
aI2
aS'@@rmult'
p526
asg510
(lp527
I1
aI2
aI5
aI10
aI20
aI50
aI100
aS'@@rstart'
p528
asS'ainc'
p529
(lp530
I10
aI20
aI30
aI45
aI90
aI180
aI360
aI0
aS'@@ainc'
p531
assg66
g221
sg167
S'** Description of available inarg record(s) for: MG_JEN_lsm::add_spiral()  version=10feb2006  defined=2006-04-13 17:23'
p532
sg178
I00
sg171
S'2006-04-13 17:23'
p533
sg169
g170
sg172
S'MG_JEN_lsm'
p534
sg225
(dp535
g355
S'  2: ....[simul]./MG_JEN_lsm.add_spiral() (qual=simul): .modify(taper):   1.0  ->  None'
p536
sg227
S'** JEN_inarg.attach(): attached: [simul_spiral]./MG_JEN_Sixpack.newstar_source()'
p537
ssg54
g533
sg179
(lp538
g49
ag424
ag510
ag508
ag509
ag529
ag233
ag425
asg181
(dp539
g424
S'nr of sources'
p540
sg233
S'Scale (degr) of gaussian FOV taper'
p541
sg508
S'start position angle (deg)'
p542
sg509
S'radius multiplication factor'
p543
sg510
S'start position radius (arcmin)'
p544
sg529
S'position angle increment (deg)'
p545
sssg529
I10
ssg394
I01
sg372
Nsg414
(dp546
g318
I20
sg345
I20
sS'[simul_double_2]./MG_JEN_Sixpack.newstar_source()'
p547
(dp548
g26
F1000000.0
sg27
I00
sg28
F0.0
sg29
I00
sg30
g31
sg32
I00
sg33
g34
sg13
Nsg35
Nsg36
Nsg37
I10
sg38
g39
sg40
g41
sg42
F1.0
sg43
Nsg44
g45
sg46
Nsg47
Nsg48
F0.0
sg49
(dp549
g51
g52
sg53
g547
sg54
S'2006-04-13 17:23'
p550
sg56
(dp551
g26
I01
sg28
I01
sg29
I01
sg58
I01
sg40
I01
sg47
I01
sg30
I01
sg33
I01
sg59
I01
sg60
I00
sg43
I01
sg48
I01
sg44
I01
sg61
I01
sg36
I01
sg62
I01
sg38
I01
sg63
I01
sg37
I01
ssg64
S'MG_JEN_Sixpacknewstar_source'
p552
sg66
S'simul_double_2'
p553
sg68
g69
sg70
S'MG_JEN_Sixpack::newstar_source()  version=10feb2006  defined=2006-04-13 17:23'
p554
sg72
S'newstar_source'
p555
sg74
(dp556
g26
(lp557
F1000000.0
aS'@@f0'
p558
asg27
(lp559
I01
aI00
aS'@@reset_funklet'
p560
asg28
(lp561
F0.0
aF1.0
aF10.0
aF100.0
aS'@@major'
p562
asg29
(lp563
I01
aI00
aS'@@unsolvable'
p564
asg30
(lp565
g31
aS'@@color'
p566
asg32
(lp567
I01
aI00
aS'@@save_all'
p568
asg33
(lp569
g34
ag89
aS'@@shape'
p570
asg13
(lp571
NaS'@@parmtable'
p572
asg35
(lp573
NaF-0.10000000000000001
aF0.050000000000000003
aF-0.01
aS'@@Upct'
p574
asg36
(lp575
NaS'@@unit'
p576
asg37
(lp577
I10
aS'@@size'
p578
asg38
(lp579
g39
aS'@@style'
p580
asg40
(lp581
g41
aS'@@descr'
p582
asg42
(lp583
F1.0
aF10.0
aS'@@I0'
p584
asg43
(lp585
NaS'@@subtile_size'
p586
asg44
(lp587
g45
aS'@@condeq_corrs'
p588
asg46
(lp589
NaF0.01
aF-0.0050000000000000001
aF0.001
aS'@@Vpct'
p590
asg47
(lp591
NaS'@@funklet_shape'
p592
asg48
(lp593
F0.0
aF1.0
aF-0.5
aS'@@pa'
p594
asg115
(lp595
F0.0
aF0.5
aF1.0
aF1.4950000000000001
aF4.3570000000000002
aS'@@RA'
p596
asg118
(lp597
NaF1.0
aF3.0
aF10.0
aF-10.0
aF60.0
aS'@@RM'
p598
asg63
(lp599
F0.0
aF0.5
aF5.0
aF50.0
aS'@@minor'
p600
asg62
(lp601
F1.0
aS'@@c00_default'
p602
asg125
(lp603
NaF0.10000000000000001
aF-0.050000000000000003
aF0.01
aS'@@Qpct'
p604
asg60
(lp605
g129
ag130
ag131
ag132
ag133
ag134
ag135
ag136
ag137
ag138
ag139
ag140
ag141
ag142
ag143
ag144
aS'@@punit'
p606
asg146
(lp607
F0.5
aF1.0
aF0.87
aF1.0920000000000001
aS'@@Dec'
p608
asg58
(lp609
NaS'@@name'
p610
asg59
(lp611
I01
aI00
aS'@@fsr_trace'
p612
asg153
(lp613
I01
aI00
aS'@@use_previous'
p614
asg156
(lp615
NaF-0.69999999999999996
a(lp616
F0.44700000000000001
aF-0.184
aaS'@@SI'
p617
asg61
(lp618
NaS'@@tfdeg'
p619
asg162
(lp620
I01
aI00
aS'@@auto_save'
p621
assg165
(dp622
g60
I01
ssg167
S'** Description of available inarg record(s) for: MG_JEN_Sixpack::newstar_source()  version=10feb2006  defined=2006-04-13 17:23'
p623
sg169
g170
sg171
g550
sg172
S'MG_JEN_Sixpack'
p624
sg174
(dp625
g27
I00
sg29
I00
sg59
I00
sg32
I00
sg153
I00
sg162
I00
ssg176
S'** Specific description of inarg record for: MG_JEN_Sixpack::newstar_source()  version=10feb2006  defined=2006-04-13 17:23'
p626
sg178
I00
sg179
(lp627
g49
ag60
ag58
ag13
ag29
ag42
ag125
ag35
ag46
ag118
ag156
ag26
ag115
ag146
ag59
ag33
ag28
ag63
ag48
ag153
ag162
ag32
ag27
ag40
ag36
ag30
ag38
ag37
ag62
ag61
ag47
ag43
ag44
asg181
(dp628
g26
g183
sg27
g184
sg28
g185
sg29
g186
sg30
g187
sg32
g188
sg33
g189
sg13
g190
sg35
g191
sg36
g36
sg37
g192
sg38
g193
sg40
g194
sg42
g195
sg43
g196
sg44
g197
sg46
g198
sg47
g199
sg48
g200
sg115
g201
sg118
g202
sg63
g203
sg62
g204
sg125
g205
sg60
S'name of calibrator source/patch \n- unpol:     unpolarised, I=1Jy \n- unpol2:    idem, I=2Jy \n- unpol10:   idem, I=10Jy \n- RMtest:    Rotation Measure \n- SItest:    Spectral Index \n- ellgauss:  Elliptic Gaussian \n- QUV:       non-zero Q,U,V \n- QU:        non-zero Q,U \n- QU2:       stronger version of QU \n- Qonly:     non-zero Q \n- Uonly:     non-zero U \n- Vonly:     non-zero V \n- 3c286:     \n- 3c48:      \n- 3c295:     \n- 3c147:     \n- D1:        cps in D1.MS \n'
p629
sg146
g207
sg59
g208
sg153
g209
sg156
g210
sg61
g211
sg162
g212
ssg213
g214
ssg118
Nsg63
F0.0
sg115
F1.4950000000000001
sg62
F1.0
sg125
Nsg60
g129
sg146
F0.87
sg58
Nsg59
I01
sg153
I01
sg156
Nsg61
Nsg162
I00
ssg49
(dp630
g51
S'MG_JEN_lsm::add_double()'
p631
sg53
g414
sg176
S'** Specific description of inarg record for: MG_JEN_lsm::add_double()  version=10feb2006  defined=2006-04-13 17:23'
p632
sg64
S'MG_JEN_lsmadd_double'
p633
sg68
g69
sg213
S'Add a double test-source (Sixpack) to the given lsm'
p634
sg70
S'MG_JEN_lsm::add_double()  version=10feb2006  defined=2006-04-13 17:23'
p635
sg72
S'add_double'
p636
sg74
(dp637
g345
(lp638
I20
aS'@@dRA'
p639
asg318
(lp640
I20
aS'@@dDec'
p641
assg66
g221
sg167
S'** Description of available inarg record(s) for: MG_JEN_lsm::add_double()  version=10feb2006  defined=2006-04-13 17:23'
p642
sg178
I00
sg171
S'2006-04-13 17:23'
p643
sg169
g170
sg172
S'MG_JEN_lsm'
p644
sg225
(dp645
g355
S'** JEN_inarg.attach(): attached: [simul_double_2]./MG_JEN_Sixpack.newstar_source()'
p646
sg227
S'** JEN_inarg.attach(): attached: [simul_double_1]./MG_JEN_Sixpack.newstar_source()'
p647
ssg54
g643
sg179
(lp648
g49
aS'[simul_double_1]./MG_JEN_Sixpack.newstar_source()'
p649
ag547
ag345
ag318
asg181
(dp650
g345
S'distance of 2nd source in RA (arcmin)'
p651
sg318
S'distance of 2nd source in Dec (arcmin)'
p652
sssg649
(dp653
g26
F1000000.0
sg27
I00
sg28
F0.0
sg29
I00
sg30
g31
sg32
I00
sg33
g34
sg13
Nsg35
Nsg36
Nsg37
I10
sg38
g39
sg40
g41
sg42
F1.0
sg43
Nsg44
g45
sg46
Nsg47
Nsg48
F0.0
sg49
(dp654
g51
g52
sg53
g649
sg54
S'2006-04-13 17:23'
p655
sg56
(dp656
g26
I01
sg28
I01
sg29
I01
sg58
I01
sg40
I01
sg47
I01
sg30
I01
sg33
I01
sg59
I01
sg60
I00
sg43
I01
sg48
I01
sg44
I01
sg61
I01
sg36
I01
sg62
I01
sg38
I01
sg63
I01
sg37
I01
ssg64
S'MG_JEN_Sixpacknewstar_source'
p657
sg66
S'simul_double_1'
p658
sg68
g69
sg70
S'MG_JEN_Sixpack::newstar_source()  version=10feb2006  defined=2006-04-13 17:23'
p659
sg72
S'newstar_source'
p660
sg74
(dp661
g26
(lp662
F1000000.0
aS'@@f0'
p663
asg27
(lp664
I01
aI00
aS'@@reset_funklet'
p665
asg28
(lp666
F0.0
aF1.0
aF10.0
aF100.0
aS'@@major'
p667
asg29
(lp668
I01
aI00
aS'@@unsolvable'
p669
asg30
(lp670
g31
aS'@@color'
p671
asg32
(lp672
I01
aI00
aS'@@save_all'
p673
asg33
(lp674
g34
ag89
aS'@@shape'
p675
asg13
(lp676
NaS'@@parmtable'
p677
asg35
(lp678
NaF-0.10000000000000001
aF0.050000000000000003
aF-0.01
aS'@@Upct'
p679
asg36
(lp680
NaS'@@unit'
p681
asg37
(lp682
I10
aS'@@size'
p683
asg38
(lp684
g39
aS'@@style'
p685
asg40
(lp686
g41
aS'@@descr'
p687
asg42
(lp688
F1.0
aF10.0
aS'@@I0'
p689
asg43
(lp690
NaS'@@subtile_size'
p691
asg44
(lp692
g45
aS'@@condeq_corrs'
p693
asg46
(lp694
NaF0.01
aF-0.0050000000000000001
aF0.001
aS'@@Vpct'
p695
asg47
(lp696
NaS'@@funklet_shape'
p697
asg48
(lp698
F0.0
aF1.0
aF-0.5
aS'@@pa'
p699
asg115
(lp700
F0.0
aF0.5
aF1.0
aF1.4950000000000001
aF4.3570000000000002
aS'@@RA'
p701
asg118
(lp702
NaF1.0
aF3.0
aF10.0
aF-10.0
aF60.0
aS'@@RM'
p703
asg63
(lp704
F0.0
aF0.5
aF5.0
aF50.0
aS'@@minor'
p705
asg62
(lp706
F1.0
aS'@@c00_default'
p707
asg125
(lp708
NaF0.10000000000000001
aF-0.050000000000000003
aF0.01
aS'@@Qpct'
p709
asg60
(lp710
g129
ag130
ag131
ag132
ag133
ag134
ag135
ag136
ag137
ag138
ag139
ag140
ag141
ag142
ag143
ag144
aS'@@punit'
p711
asg146
(lp712
F0.5
aF1.0
aF0.87
aF1.0920000000000001
aS'@@Dec'
p713
asg58
(lp714
NaS'@@name'
p715
asg59
(lp716
I01
aI00
aS'@@fsr_trace'
p717
asg153
(lp718
I01
aI00
aS'@@use_previous'
p719
asg156
(lp720
NaF-0.69999999999999996
a(lp721
F0.44700000000000001
aF-0.184
aaS'@@SI'
p722
asg61
(lp723
NaS'@@tfdeg'
p724
asg162
(lp725
I01
aI00
aS'@@auto_save'
p726
assg165
(dp727
g60
I01
ssg167
S'** Description of available inarg record(s) for: MG_JEN_Sixpack::newstar_source()  version=10feb2006  defined=2006-04-13 17:23'
p728
sg169
g170
sg171
g655
sg172
S'MG_JEN_Sixpack'
p729
sg174
(dp730
g27
I00
sg29
I00
sg59
I00
sg32
I00
sg153
I00
sg162
I00
ssg176
S'** Specific description of inarg record for: MG_JEN_Sixpack::newstar_source()  version=10feb2006  defined=2006-04-13 17:23'
p731
sg178
I00
sg179
(lp732
g49
ag60
ag58
ag13
ag29
ag42
ag125
ag35
ag46
ag118
ag156
ag26
ag115
ag146
ag59
ag33
ag28
ag63
ag48
ag153
ag162
ag32
ag27
ag40
ag36
ag30
ag38
ag37
ag62
ag61
ag47
ag43
ag44
asg181
(dp733
g26
g183
sg27
g184
sg28
g185
sg29
g186
sg30
g187
sg32
g188
sg33
g189
sg13
g190
sg35
g191
sg36
g36
sg37
g192
sg38
g193
sg40
g194
sg42
g195
sg43
g196
sg44
g197
sg46
g198
sg47
g199
sg48
g200
sg115
g201
sg118
g202
sg63
g203
sg62
g204
sg125
g205
sg60
S'name of calibrator source/patch \n- unpol:     unpolarised, I=1Jy \n- unpol2:    idem, I=2Jy \n- unpol10:   idem, I=10Jy \n- RMtest:    Rotation Measure \n- SItest:    Spectral Index \n- ellgauss:  Elliptic Gaussian \n- QUV:       non-zero Q,U,V \n- QU:        non-zero Q,U \n- QU2:       stronger version of QU \n- Qonly:     non-zero Q \n- Uonly:     non-zero U \n- Vonly:     non-zero V \n- 3c286:     \n- 3c48:      \n- 3c295:     \n- 3c147:     \n- D1:        cps in D1.MS \n'
p734
sg146
g207
sg59
g208
sg153
g209
sg156
g210
sg61
g211
sg162
g212
ssg213
g214
ssg118
Nsg63
F0.0
sg115
F1.4950000000000001
sg62
F1.0
sg125
Nsg60
g129
sg146
F0.87
sg58
Nsg59
I01
sg153
I01
sg156
Nsg61
Nsg162
I00
sssg391
I01
ssS'stddev_noise_Jy'
p735
F0.01
sS'[simul]./MG_JEN_Cohset.predict_lsm()'
p736
(dp737
S'[simul_uvp]./MG_JEN_Cohset.Jones()'
p738
(dp739
S'[simul_uvp]./MG_JEN_Joneset.JJones()'
p740
(dp741
g2
S'@@polrep'
p742
sg30
S'yellow'
p743
sS'p7_mean_stddev'
p744
(lp745
F0.0
aF0.0
asS'p8_mean_stddev'
p746
(lp747
F0.0
aF0.0
asS'all4_always'
p748
Nsg36
NsS'simul_funklet'
p749
Nsg38
S'triangle'
p750
sS'p1_mean_stddev'
p751
(lp752
F0.0
aF0.0
asg40
S'<descr>'
p753
sS'mean_tampl'
p754
F0.20000000000000001
sS'p5_mean_stddev'
p755
(lp756
F0.0
aF0.0
asg49
(dp757
g51
S'MG_JEN_Joneset::JJones()'
p758
sg53
g740
sg56
(dp759
g749
I01
sg38
I01
sg2
I01
sg40
I01
sS'stations'
p760
I01
sg30
I01
sg751
I01
sg744
I01
sS'p3_mean_stddev'
p761
I01
sS'p6_mean_stddev'
p762
I01
sg755
I01
sg746
I01
sS'p2_mean_stddev'
p763
I01
sS'p4_mean_stddev'
p764
I01
sS'p0_mean_stddev'
p765
I01
sS'@Jsequence_KJones'
p766
I01
sS'@Jsequence_simul'
p767
I01
sg37
I01
sS'p9_mean_stddev'
p768
I01
sg36
I01
sS'@Jsequence'
p769
I01
ssg213
S'Defines diagonal 2x2 Jones matrices for full polarisation:\n    Jjones(station,source) matrix elements:\n    - J_11 = (Jreal_11,Jimag_11)\n    - J_12 = (Jreal_12,Jimag_12)\n    - J_21 = (Jreal_21,Jimag_21)\n    - J_22 = (Jreal_22,Jimag_22)\n    For circular polarisation, R and L are used rather than X and Y\n    '
p770
sg68
g69
sg70
S'MG_JEN_Joneset::JJones()  version=14feb2006  defined=2006-04-13 17:23'
p771
sg72
S'JJones'
p772
sg74
(dp773
g2
(lp774
g3
aS'circular'
p775
ag742
asg30
(lp776
g743
aS'@@color'
p777
asg744
(lp778
g745
aS'@@p7_mean_stddev'
p779
asg746
(lp780
g747
aS'@@p8_mean_stddev'
p781
asg748
(lp782
Na(lp783
I14
aa(lp784
I1
aaS'WSRT/WHAT'
p785
aS'@@all4_always'
p786
asg36
(lp787
NaS'@@unit'
p788
asg749
(lp789
S'p0*cos(0.1*x0/p1)'
p790
aNaS'@@simul_funklet'
p791
asg38
(lp792
g750
aS'@@style'
p793
asg751
(lp794
g752
aS'@@p1_mean_stddev'
p795
asg40
(lp796
g753
aS'@@descr'
p797
asg755
(lp798
g756
aS'@@p5_mean_stddev'
p799
asg765
(lp800
(lp801
F0.0
aF0.0
aaS'@@p0_mean_stddev'
p802
asg37
(lp803
I5
aS'@@size'
p804
asg769
(lp805
S'JJones'
p806
aS'@@@Jsequence'
p807
asg766
(lp808
g806
aS'@@@Jsequence_KJones'
p809
asg768
(lp810
(lp811
F0.0
aF0.0
aaS'@@p9_mean_stddev'
p812
asg760
(lp813
(lp814
I0
aI1
aI2
aI3
aI4
aa(lp815
I0
aI1
aI2
aI3
aI4
aI5
aI6
aa(lp816
I0
aI1
aI2
aI3
aI4
aI5
aI6
aI7
aI8
aI9
aI10
aI11
aI12
aI13
aa(lp817
I0
aI1
aI2
aI3
aI4
aI5
aI6
aI7
aI8
aI9
aI10
aI11
aI12
aI13
aI14
aaS'range(5)'
p818
aS'@@stations'
p819
asS'diagonal_only'
p820
(lp821
I01
aI00
aS'@@diagonal_only'
p822
asg761
(lp823
(lp824
F0.0
aF0.0
aaS'@@p3_mean_stddev'
p825
asg762
(lp826
(lp827
F0.0
aF0.0
aaS'@@p6_mean_stddev'
p828
asg763
(lp829
(lp830
F0.0
aF0.0
aaS'@@p2_mean_stddev'
p831
asg764
(lp832
(lp833
F0.0
aF0.0
aaS'@@p4_mean_stddev'
p834
asg767
(lp835
g806
aS'@@@Jsequence_simul'
p836
assg66
S'simul_uvp'
p837
sg167
S'** Description of available inarg record(s) for: MG_JEN_Joneset::JJones()  version=14feb2006  defined=2006-04-13 17:23'
p838
sg178
I00
sg171
S'2006-04-13 17:23'
p839
sg169
S'14feb2006'
p840
sg172
S'MG_JEN_Joneset'
p841
sg174
(dp842
g820
I00
ssg176
S'** Specific description of inarg record for: MG_JEN_Joneset::JJones()  version=14feb2006  defined=2006-04-13 17:23'
p843
sS'mutable'
p844
(dp845
g2
I00
sg760
I00
ssg54
g839
sg179
(lp846
g49
ag760
ag2
ag769
ag767
ag766
ag820
ag748
ag40
ag36
ag30
ag38
ag37
ag749
ag765
ag751
ag763
ag761
ag764
ag755
ag762
ag744
ag746
ag768
asg181
(dp847
g2
S'polarisation representation'
p848
sg30
g187
sg744
S'[mean, stddev] of funklet coeff p7'
p849
sg746
S'[mean, stddev] of funklet coeff p8'
p850
sg748
S'stations for which all 4 elements will always be solved for'
p851
sg36
g36
sg749
S'(x0=time, x1=freq)'
p852
sg38
g193
sg751
S'[mean, stddev] of funklet coeff p1'
p853
sg40
S'brief description'
p854
sg755
S'[mean, stddev] of funklet coeff p5'
p855
sg765
S'[mean, stddev] of funklet coeff p0'
p856
sg37
S'size of plotted symbol'
p857
sg769
S'list membership indication (used in JEN_inargGui)'
p858
sg766
g858
sg768
S'[mean, stddev] of funklet coeff p9'
p859
sg760
S'the (subset of) stations to be used'
p860
sg820
S'if True, solve for diagonal (11,22) elements only'
p861
sg761
S'[mean, stddev] of funklet coeff p3'
p862
sg762
S'[mean, stddev] of funklet coeff p6'
p863
sg763
S'[mean, stddev] of funklet coeff p2'
p864
sg764
S'[mean, stddev] of funklet coeff p4'
p865
sg767
g858
ssg64
S'MG_JEN_JonesetJJones'
p866
ssg765
g801
sg37
I5
sg769
g806
sS'stddev_period_s'
p867
I50
sS'mean_period_s'
p868
I500
sg766
g806
sg768
g811
sg760
g819
sg820
I00
sg761
g824
sg762
g827
sg763
g830
sg764
g833
sg767
g806
sS'stddev_tampl'
p869
F0.02
ssg2
S'@@polrep'
p870
sS'uvplane_effect'
p871
S'@@uvplane_effect'
p872
sS'[simul_uvp]./MG_JEN_Joneset.BJones()'
p873
(dp874
g2
S'@@polrep'
p875
sg30
g743
sg744
(lp876
F0.0
aF0.0
asg746
(lp877
F0.0
aF0.0
asg36
Nsg749
Nsg38
g750
sg751
(lp878
F0.0
aF0.0
asg40
g753
sg754
F0.20000000000000001
sg755
(lp879
F0.0
aF0.0
asg49
(dp880
g51
S'MG_JEN_Joneset::BJones()'
p881
sg53
g873
sg56
(dp882
g749
I01
sg38
I01
sg2
I01
sg40
I01
sg760
I01
sg30
I01
sg751
I01
sg744
I01
sg761
I01
sg762
I01
sg755
I01
sg746
I01
sg763
I01
sg764
I01
sg765
I01
sg766
I01
sg767
I01
sg37
I01
sg768
I01
sg36
I01
sg769
I01
ssg213
S'Defines diagonal 2x2 Jones matrices that represent the IF bandpass:\n    Bjones(station,source) matrix elements:\n    - B_11 = (Breal_X,Bimag_X)\n    - B_12 = 0\n    - B_21 = 0\n    - B_22 = (Breal_Y,Bimag_Y)\n    For circular polarisation, R and L are used rather than X and Y\n    NB: The main differences with Gjones are:\n      - the higher-order (~5) freq-polynomial\n      - solving for real/imag rather than gain/phase \n    '
p883
sg68
g69
sg70
S'MG_JEN_Joneset::BJones()  version=16dec2005  defined=2006-04-13 17:23'
p884
sg72
S'BJones'
p885
sg74
(dp886
g749
(lp887
g790
aNaS'@@simul_funklet'
p888
asg38
(lp889
g750
aS'@@style'
p890
asg2
(lp891
g3
ag775
ag875
asg40
(lp892
g753
aS'@@descr'
p893
asg760
(lp894
(lp895
I0
aI1
aI2
aI3
aI4
aa(lp896
I0
aI1
aI2
aI3
aI4
aI5
aI6
aa(lp897
I0
aI1
aI2
aI3
aI4
aI5
aI6
aI7
aI8
aI9
aI10
aI11
aI12
aI13
aa(lp898
I0
aI1
aI2
aI3
aI4
aI5
aI6
aI7
aI8
aI9
aI10
aI11
aI12
aI13
aI14
aag818
aS'@@stations'
p899
asg30
(lp900
g743
aS'@@color'
p901
asg751
(lp902
g878
aS'@@p1_mean_stddev'
p903
asg744
(lp904
g876
aS'@@p7_mean_stddev'
p905
asg761
(lp906
(lp907
F0.0
aF0.0
aaS'@@p3_mean_stddev'
p908
asg762
(lp909
(lp910
F0.0
aF0.0
aaS'@@p6_mean_stddev'
p911
asg755
(lp912
g879
aS'@@p5_mean_stddev'
p913
asg746
(lp914
g877
aS'@@p8_mean_stddev'
p915
asg763
(lp916
(lp917
F0.0
aF0.0
aaS'@@p2_mean_stddev'
p918
asg764
(lp919
(lp920
F0.0
aF0.0
aaS'@@p4_mean_stddev'
p921
asg765
(lp922
(lp923
F0.0
aF0.0
aaS'@@p0_mean_stddev'
p924
asg766
(lp925
S'BJones'
p926
aS'@@@Jsequence_KJones'
p927
asg767
(lp928
g926
aS'@@@Jsequence_simul'
p929
asg37
(lp930
I5
aS'@@size'
p931
asg768
(lp932
(lp933
F0.0
aF0.0
aaS'@@p9_mean_stddev'
p934
asg36
(lp935
NaS'@@unit'
p936
asg769
(lp937
g926
aS'@@@Jsequence'
p938
assg66
g837
sg167
S'** Description of available inarg record(s) for: MG_JEN_Joneset::BJones()  version=16dec2005  defined=2006-04-13 17:23'
p939
sg178
I00
sg171
S'2006-04-13 17:23'
p940
sg169
S'16dec2005'
p941
sg172
S'MG_JEN_Joneset'
p942
sg176
S'** Specific description of inarg record for: MG_JEN_Joneset::BJones()  version=16dec2005  defined=2006-04-13 17:23'
p943
sg844
(dp944
g2
I00
sg760
I00
ssg54
g940
sg179
(lp945
g49
ag760
ag2
ag769
ag767
ag766
ag40
ag36
ag30
ag38
ag37
ag749
ag765
ag751
ag763
ag761
ag764
ag755
ag762
ag744
ag746
ag768
asg181
(dp946
g749
g852
sg38
g193
sg2
g848
sg40
g854
sg760
g860
sg30
g187
sg751
g853
sg744
g849
sg761
g862
sg762
g863
sg755
g855
sg746
g850
sg763
g864
sg764
g865
sg765
g856
sg766
g858
sg767
g858
sg37
g857
sg768
g859
sg36
g36
sg769
g858
ssg64
S'MG_JEN_JonesetBJones'
p947
ssg765
g923
sg37
I5
sg769
g926
sg867
I100
sg868
I5000
sg766
g926
sg768
g933
sg760
g899
sg761
g907
sg762
g910
sg763
g917
sg764
g920
sg767
g926
sg869
F0.02
ssg760
S'@@stations'
p948
sS'[simul_uvp]./MG_JEN_Joneset.KJones()'
p949
(dp950
g2
S'@@polrep'
p951
sg760
S'@@stations'
p952
sg49
(dp953
g51
S'MG_JEN_Joneset::KJones()'
p954
sg53
g949
sg56
(dp955
g766
I01
sg767
I01
sg769
I01
sg2
I01
sg760
I01
ssg213
S'defines diagonal KJones matrices for DFT Fourier kernel'
p956
sg68
g69
sg70
S'MG_JEN_Joneset::KJones()  version=12dec2005  defined=2006-04-13 17:23'
p957
sg72
S'KJones'
p958
sg74
(dp959
g766
(lp960
S'KJones'
p961
aS'@@@Jsequence_KJones'
p962
asg767
(lp963
g961
aS'@@@Jsequence_simul'
p964
asg769
(lp965
g961
aS'@@@Jsequence'
p966
asg2
(lp967
g3
ag775
ag951
asg760
(lp968
(lp969
I0
aI1
aI2
aI3
aI4
aa(lp970
I0
aI1
aI2
aI3
aI4
aI5
aI6
aa(lp971
I0
aI1
aI2
aI3
aI4
aI5
aI6
aI7
aI8
aI9
aI10
aI11
aI12
aI13
aa(lp972
I0
aI1
aI2
aI3
aI4
aI5
aI6
aI7
aI8
aI9
aI10
aI11
aI12
aI13
aI14
aag818
ag952
assg66
g837
sg167
S'** Description of available inarg record(s) for: MG_JEN_Joneset::KJones()  version=12dec2005  defined=2006-04-13 17:23'
p973
sg178
I00
sg171
S'2006-04-13 17:23'
p974
sg169
S'12dec2005'
p975
sg172
S'MG_JEN_Joneset'
p976
sg176
S'** Specific description of inarg record for: MG_JEN_Joneset::KJones()  version=12dec2005  defined=2006-04-13 17:23'
p977
sg844
(dp978
g2
I00
sg760
I00
ssg54
g974
sg179
(lp979
g49
ag760
ag2
ag769
ag767
ag766
asg181
(dp980
g766
g858
sg767
g858
sg769
g858
sg2
g848
sg760
g860
ssg64
S'MG_JEN_JonesetKJones'
p981
ssg766
g961
sg767
g961
sg769
g961
ssS'[simul_uvp]./MG_JEN_Joneset.FJones()'
p982
(dp983
g2
S'@@polrep'
p984
sg30
g743
sg744
(lp985
F0.0
aF0.0
asg746
(lp986
F0.0
aF0.0
asg36
Nsg749
Nsg38
g750
sg751
(lp987
F0.0
aF0.0
asg40
g753
sg754
F0.20000000000000001
sg755
(lp988
F0.0
aF0.0
asg49
(dp989
g51
S'MG_JEN_Joneset::FJones()'
p990
sg53
g982
sg56
(dp991
g749
I01
sg38
I01
sg2
I01
sg40
I01
sg760
I01
sg30
I01
sg751
I01
sg744
I01
sg761
I01
sg762
I01
sg755
I01
sg746
I01
sg763
I01
sg764
I01
sg765
I01
sg766
I01
sg767
I01
sg37
I01
sg768
I01
sg36
I01
sg769
I01
ssg213
S'defines diagonal FJones Faraday rotation matrices'
p992
sg68
g69
sg70
S'MG_JEN_Joneset::FJones()  version=16dec2005  defined=2006-04-13 17:23'
p993
sg72
S'FJones'
p994
sg74
(dp995
g749
(lp996
g790
aNaS'@@simul_funklet'
p997
asg38
(lp998
g750
aS'@@style'
p999
asg2
(lp1000
g3
ag775
ag984
asg40
(lp1001
g753
aS'@@descr'
p1002
asg760
(lp1003
(lp1004
I0
aI1
aI2
aI3
aI4
aa(lp1005
I0
aI1
aI2
aI3
aI4
aI5
aI6
aa(lp1006
I0
aI1
aI2
aI3
aI4
aI5
aI6
aI7
aI8
aI9
aI10
aI11
aI12
aI13
aa(lp1007
I0
aI1
aI2
aI3
aI4
aI5
aI6
aI7
aI8
aI9
aI10
aI11
aI12
aI13
aI14
aag818
aS'@@stations'
p1008
asg30
(lp1009
g743
aS'@@color'
p1010
asg751
(lp1011
g987
aS'@@p1_mean_stddev'
p1012
asg744
(lp1013
g985
aS'@@p7_mean_stddev'
p1014
asg761
(lp1015
(lp1016
F0.0
aF0.0
aaS'@@p3_mean_stddev'
p1017
asg762
(lp1018
(lp1019
F0.0
aF0.0
aaS'@@p6_mean_stddev'
p1020
asg755
(lp1021
g988
aS'@@p5_mean_stddev'
p1022
asg746
(lp1023
g986
aS'@@p8_mean_stddev'
p1024
asg763
(lp1025
(lp1026
F0.0
aF0.0
aaS'@@p2_mean_stddev'
p1027
asg764
(lp1028
(lp1029
F0.0
aF0.0
aaS'@@p4_mean_stddev'
p1030
asg765
(lp1031
(lp1032
F0.0
aF0.0
aaS'@@p0_mean_stddev'
p1033
asg766
(lp1034
S'FJones'
p1035
aS'@@@Jsequence_KJones'
p1036
asg767
(lp1037
g1035
aS'@@@Jsequence_simul'
p1038
asg37
(lp1039
I5
aS'@@size'
p1040
asg768
(lp1041
(lp1042
F0.0
aF0.0
aaS'@@p9_mean_stddev'
p1043
asg36
(lp1044
NaS'@@unit'
p1045
asg769
(lp1046
g1035
aS'@@@Jsequence'
p1047
assg66
g837
sg167
S'** Description of available inarg record(s) for: MG_JEN_Joneset::FJones()  version=16dec2005  defined=2006-04-13 17:23'
p1048
sg178
I00
sg171
S'2006-04-13 17:23'
p1049
sg169
g941
sg172
S'MG_JEN_Joneset'
p1050
sg176
S'** Specific description of inarg record for: MG_JEN_Joneset::FJones()  version=16dec2005  defined=2006-04-13 17:23'
p1051
sg844
(dp1052
g2
I00
sg760
I00
ssg54
g1049
sg179
(lp1053
g49
ag760
ag2
ag769
ag767
ag766
ag40
ag36
ag30
ag38
ag37
ag749
ag765
ag751
ag763
ag761
ag764
ag755
ag762
ag744
ag746
ag768
asg181
(dp1054
g749
g852
sg38
g193
sg2
g848
sg40
g854
sg760
g860
sg30
g187
sg751
g853
sg744
g849
sg761
g862
sg762
g863
sg755
g855
sg746
g850
sg763
g864
sg764
g865
sg765
g856
sg766
g858
sg767
g858
sg37
g857
sg768
g859
sg36
g36
sg769
g858
ssg64
S'MG_JEN_JonesetFJones'
p1055
ssg765
g1032
sg37
I5
sg769
g1035
sg867
I50
sg868
I500
sg766
g1035
sg768
g1042
sg760
g1008
sg761
g1016
sg762
g1019
sg763
g1026
sg764
g1029
sg767
g1035
sg869
F0.02
ssg13
S'@@parmtable'
p1056
sS'[simul_uvp]./MG_JEN_Joneset.DJones_WSRT()'
p1057
(dp1058
g2
S'@@polrep'
p1059
sg30
g743
sg744
(lp1060
F0.0
aF0.0
asS'coupled_XY_Dell'
p1061
I01
sg746
(lp1062
F0.0
aF0.0
asg36
Nsg749
Nsg38
g750
sg751
(lp1063
F0.0
aF0.0
asg40
g753
sg754
F0.002
sg755
(lp1064
F0.0
aF0.0
asg49
(dp1065
g51
S'MG_JEN_Joneset::DJones_WSRT()'
p1066
sg53
g1057
sg56
(dp1067
g749
I01
sg38
I01
sg2
I01
sg40
I01
sg760
I01
sg30
I01
sg751
I01
sg744
I01
sg761
I01
sg762
I01
sg755
I01
sg746
I01
sg763
I01
sg764
I01
sg765
I01
sg766
I01
sg767
I01
sg37
I01
sg768
I01
sg36
I01
sg769
I01
ssg213
S'defines 2x2 DJones_WSRT (polarisation leakage) matrices'
p1068
sg68
g69
sg70
S'MG_JEN_Joneset::DJones_WSRT()  version=16dec2005  defined=2006-04-13 17:23'
p1069
sg72
S'DJones_WSRT'
p1070
sg74
(dp1071
g2
(lp1072
g3
ag775
ag1059
asg30
(lp1073
g743
aS'@@color'
p1074
asg744
(lp1075
g1060
aS'@@p7_mean_stddev'
p1076
asg1061
(lp1077
I01
aI00
aS'@@coupled_XY_Dell'
p1078
asg746
(lp1079
g1062
aS'@@p8_mean_stddev'
p1080
asg36
(lp1081
NaS'@@unit'
p1082
asg749
(lp1083
g790
aNaS'@@simul_funklet'
p1084
asg38
(lp1085
g750
aS'@@style'
p1086
asg751
(lp1087
g1063
aS'@@p1_mean_stddev'
p1088
asg40
(lp1089
g753
aS'@@descr'
p1090
asg755
(lp1091
g1064
aS'@@p5_mean_stddev'
p1092
asg765
(lp1093
(lp1094
F0.0
aF0.0
aaS'@@p0_mean_stddev'
p1095
asg37
(lp1096
I5
aS'@@size'
p1097
asg769
(lp1098
S'DJones_WSRT'
p1099
aS'@@@Jsequence'
p1100
asg766
(lp1101
g1099
aS'@@@Jsequence_KJones'
p1102
asS'coupled_XY_Dang'
p1103
(lp1104
I01
aI00
aS'@@coupled_XY_Dang'
p1105
asg768
(lp1106
(lp1107
F0.0
aF0.0
aaS'@@p9_mean_stddev'
p1108
asg760
(lp1109
(lp1110
I0
aI1
aI2
aI3
aI4
aa(lp1111
I0
aI1
aI2
aI3
aI4
aI5
aI6
aa(lp1112
I0
aI1
aI2
aI3
aI4
aI5
aI6
aI7
aI8
aI9
aI10
aI11
aI12
aI13
aa(lp1113
I0
aI1
aI2
aI3
aI4
aI5
aI6
aI7
aI8
aI9
aI10
aI11
aI12
aI13
aI14
aag818
aS'@@stations'
p1114
asg761
(lp1115
(lp1116
F0.0
aF0.0
aaS'@@p3_mean_stddev'
p1117
asg762
(lp1118
(lp1119
F0.0
aF0.0
aaS'@@p6_mean_stddev'
p1120
asg763
(lp1121
(lp1122
F0.0
aF0.0
aaS'@@p2_mean_stddev'
p1123
asg764
(lp1124
(lp1125
F0.0
aF0.0
aaS'@@p4_mean_stddev'
p1126
asg767
(lp1127
g1099
aS'@@@Jsequence_simul'
p1128
assg66
g837
sg167
S'** Description of available inarg record(s) for: MG_JEN_Joneset::DJones_WSRT()  version=16dec2005  defined=2006-04-13 17:23'
p1129
sg178
I00
sg171
S'2006-04-13 17:23'
p1130
sg169
g941
sg172
S'MG_JEN_Joneset'
p1131
sg174
(dp1132
g1103
I00
sg1061
I00
ssg176
S'** Specific description of inarg record for: MG_JEN_Joneset::DJones_WSRT()  version=16dec2005  defined=2006-04-13 17:23'
p1133
sg844
(dp1134
g2
I00
sg760
I00
ssg54
g1130
sg179
(lp1135
g49
ag760
ag2
ag769
ag767
ag766
ag1103
ag1061
ag40
ag36
ag30
ag38
ag37
ag749
ag765
ag751
ag763
ag761
ag764
ag755
ag762
ag744
ag746
ag768
asg181
(dp1136
g2
g848
sg30
g187
sg744
g849
sg1061
S'if True, XDell = -YDell per station'
p1137
sg746
g850
sg36
g36
sg749
g852
sg38
g193
sg751
g853
sg40
g854
sg755
g855
sg765
g856
sg37
g857
sg769
g858
sg766
g858
sg1103
S'if True, XDang = YDang per station'
p1138
sg768
g859
sg760
g860
sg761
g862
sg762
g863
sg763
g864
sg764
g865
sg767
g858
ssg64
S'MG_JEN_JonesetDJones_WSRT'
p1139
ssg765
g1094
sg37
I5
sg769
g1099
sg867
I100
sg868
I3000
sg766
g1099
sg1103
I01
sg768
g1107
sg760
g1114
sg761
g1116
sg762
g1119
sg763
g1122
sg764
g1125
sg767
g1099
sg869
F0.00020000000000000001
ssg49
(dp1140
g51
S'MG_JEN_Cohset::Jones()'
p1141
sg53
g738
sg56
(dp1142
g2
I01
sg760
I01
sg871
I01
sg13
I01
sg766
I01
sg767
I01
sg769
I01
ssg64
S'MG_JEN_CohsetJones'
p1143
sg68
g69
sg213
S'Make a Joneset by creating and multiplying a sequence of one ore more Jonesets'
p1144
sg70
S'MG_JEN_Cohset::Jones()  version=25dec2005  defined=2006-04-13 17:23'
p1145
sg72
S'Jones'
p1146
sg74
(dp1147
g2
(lp1148
g3
ag775
ag870
asg760
(lp1149
(lp1150
I0
aI1
aI2
aI3
aI4
aa(lp1151
I0
aI1
aI2
aI3
aI4
aI5
aI6
aa(lp1152
I0
aI1
aI2
aI3
aI4
aI5
aI6
aI7
aI8
aI9
aI10
aI11
aI12
aI13
aa(lp1153
I0
aI1
aI2
aI3
aI4
aI5
aI6
aI7
aI8
aI9
aI10
aI11
aI12
aI13
aI14
aag818
ag948
asg871
(lp1154
I00
ag872
asg13
(lp1155
NaS'test'
p1156
ag1056
asg766
(lp1157
NaS'@@@Jsequence_KJones'
p1158
asg767
(lp1159
NaS'@@@Jsequence_simul'
p1160
asS'Jsequence'
p1161
(lp1162
(lp1163
S'GJones'
p1164
aa(lp1165
g926
aa(lp1166
g1035
aa(lp1167
g961
aa(lp1168
g1099
aa(lp1169
g1164
ag1099
aa(lp1170
S'EJones_WSRT'
p1171
aa(lp1172
g1164
ag1171
aa(lp1173
g806
aa(lp1174
aS'@@Jsequence'
p1175
asg769
(lp1176
NaS'@@@Jsequence'
p1177
assg66
g837
sg167
S'** Description of available inarg record(s) for: MG_JEN_Cohset::Jones()  version=25dec2005  defined=2006-04-13 17:23'
p1178
sg178
I00
sg171
S'2006-04-13 17:23'
p1179
sg169
S'25dec2005'
p1180
sg172
S'MG_JEN_Cohset'
p1181
sg176
S'** Specific description of inarg record for: MG_JEN_Cohset::Jones()  version=25dec2005  defined=2006-04-13 17:23'
p1182
sg225
(dp1183
g355
S'** JEN_inarg.attach(): attached: [simul_uvp]./MG_JEN_Joneset.FJones()'
p1184
sg227
S'** JEN_inarg.attach(): attached: [simul_uvp]./MG_JEN_Joneset.GJones()'
p1185
sg405
S'** JEN_inarg.attach(): attached: [simul_uvp]./MG_JEN_Joneset.KJones()'
p1186
sg407
S'** JEN_inarg.attach(): attached: [simul_uvp]./MG_JEN_Joneset.BJones()'
p1187
sg409
S'** JEN_inarg.attach(): attached: [simul_uvp]./MG_JEN_Joneset.EJones_WSRT()'
p1188
sg411
S'** JEN_inarg.attach(): attached: [simul_uvp]./MG_JEN_Joneset.DJones_WSRT()'
p1189
sS'6'
p1190
S'** JEN_inarg.attach(): attached: [simul_uvp]./MG_JEN_Joneset.JJones()'
p1191
ssg54
g1179
sg844
(dp1192
g871
I00
sg13
I00
sg2
I00
sg760
I00
ssg179
(lp1193
g49
ag760
ag2
ag769
ag767
ag766
ag13
ag871
ag1161
aS'[simul_uvp]./MG_JEN_Joneset.GJones()'
p1194
ag982
ag873
ag949
ag1057
aS'[simul_uvp]./MG_JEN_Joneset.EJones_WSRT()'
p1195
ag740
asg181
(dp1196
g2
g848
sg760
g860
sg871
S'if True, the Joneset reprsents uv-plane effects (q=uvp)'
p1197
sg13
S'name of the MeqParm table to be used'
p1198
sg766
g858
sg767
g858
sg1161
S'sequence of Jones matrices to be used'
p1199
sg769
g858
sssg766
Nsg767
Nsg1161
(lp1200
sg1194
(dp1201
g2
S'@@polrep'
p1202
sg30
g743
sg744
(lp1203
F0.0
aF0.0
asg746
(lp1204
F0.0
aF0.0
asg36
Nsg37
I5
sg38
g750
sg751
(lp1205
F0.0
aF0.0
asg40
g753
sg755
(lp1206
F0.0
aF0.0
asg49
(dp1207
g51
S'MG_JEN_Joneset::GJones()'
p1208
sg53
g1194
sg56
(dp1209
g2
I01
sg30
I01
sg744
I01
sg746
I01
sg36
I01
sg37
I01
sg38
I01
sg751
I01
sg40
I01
sg755
I01
sg765
I01
sg749
I01
sg769
I01
sg766
I01
sS'Gpolar'
p1210
I01
sg768
I01
sg760
I01
sg761
I01
sg762
I01
sg763
I01
sg764
I01
sg767
I01
ssg213
S'Defines diagonal 2x2 Jones matrices that represent complex gain:\n    Gjones(station,source) matrix elements:\n    - G_11 = Ggain_X*exp(iGphase_X)\n    - G_12 = 0\n    - G_21 = 0\n    - G_22 = Ggain_Y*exp(iGphase_Y)\n    For circular polarisation, R and L are used rather than X and Y\n    '
p1211
sg68
g69
sg70
S'MG_JEN_Joneset::GJones()  version=15dec2005  defined=2006-04-13 17:23'
p1212
sg72
S'GJones'
p1213
sg74
(dp1214
g2
(lp1215
g3
ag775
ag1202
asg30
(lp1216
g743
aS'@@color'
p1217
asg744
(lp1218
g1203
aS'@@p7_mean_stddev'
p1219
asg746
(lp1220
g1204
aS'@@p8_mean_stddev'
p1221
asg36
(lp1222
NaS'@@unit'
p1223
asg37
(lp1224
I5
aS'@@size'
p1225
asg38
(lp1226
g750
aS'@@style'
p1227
asg751
(lp1228
g1205
aS'@@p1_mean_stddev'
p1229
asg40
(lp1230
g753
aS'@@descr'
p1231
asg755
(lp1232
g1206
aS'@@p5_mean_stddev'
p1233
asg765
(lp1234
(lp1235
F0.0
aF0.0
aaS'@@p0_mean_stddev'
p1236
asg749
(lp1237
g790
aNaS'@@simul_funklet'
p1238
asg769
(lp1239
g1164
aS'@@@Jsequence'
p1240
asg766
(lp1241
g1164
aS'@@@Jsequence_KJones'
p1242
asg1210
(lp1243
I01
aI00
aS'@@Gpolar'
p1244
asg768
(lp1245
(lp1246
F0.0
aF0.0
aaS'@@p9_mean_stddev'
p1247
asg760
(lp1248
(lp1249
I0
aI1
aI2
aI3
aI4
aa(lp1250
I0
aI1
aI2
aI3
aI4
aI5
aI6
aa(lp1251
I0
aI1
aI2
aI3
aI4
aI5
aI6
aI7
aI8
aI9
aI10
aI11
aI12
aI13
aa(lp1252
I0
aI1
aI2
aI3
aI4
aI5
aI6
aI7
aI8
aI9
aI10
aI11
aI12
aI13
aI14
aag818
aS'@@stations'
p1253
asg761
(lp1254
(lp1255
F0.0
aF0.0
aaS'@@p3_mean_stddev'
p1256
asg762
(lp1257
(lp1258
F0.0
aF0.0
aaS'@@p6_mean_stddev'
p1259
asg763
(lp1260
(lp1261
F0.0
aF0.0
aaS'@@p2_mean_stddev'
p1262
asg764
(lp1263
(lp1264
F0.0
aF0.0
aaS'@@p4_mean_stddev'
p1265
asg767
(lp1266
g1164
aS'@@@Jsequence_simul'
p1267
assg66
g837
sg167
S'** Description of available inarg record(s) for: MG_JEN_Joneset::GJones()  version=15dec2005  defined=2006-04-13 17:23'
p1268
sg178
I00
sg171
S'2006-04-13 17:23'
p1269
sg169
S'15dec2005'
p1270
sg172
S'MG_JEN_Joneset'
p1271
sg174
(dp1272
g1210
I00
ssg176
S'** Specific description of inarg record for: MG_JEN_Joneset::GJones()  version=15dec2005  defined=2006-04-13 17:23'
p1273
sg844
(dp1274
g2
I00
sg760
I00
ssg54
g1269
sg179
(lp1275
g49
ag760
ag2
ag769
ag767
ag766
ag1210
ag40
ag36
ag30
ag38
ag37
ag749
ag765
ag751
ag763
ag761
ag764
ag755
ag762
ag744
ag746
ag768
asg181
(dp1276
g2
g848
sg30
g187
sg744
g849
sg746
g850
sg36
g36
sg37
g857
sg38
g193
sg751
g853
sg40
g854
sg755
g855
sg765
g856
sg749
g852
sg769
g858
sg766
g858
sg1210
S'obsolete, kept only for upward compatibility'
p1277
sg768
g859
sg760
g860
sg761
g862
sg762
g863
sg763
g864
sg764
g865
sg767
g858
ssg64
S'MG_JEN_JonesetGJones'
p1278
ssg765
g1235
sg749
Nsg769
g1164
sg766
g1164
sg1210
I01
sg768
g1246
sg760
g1253
sg761
g1255
sg762
g1258
sg763
g1261
sg764
g1264
sg767
g1164
ssg1195
(dp1279
g2
S'@@polrep'
p1280
sg30
g743
sg744
(lp1281
F0.0
aF0.0
asg746
(lp1282
F0.0
aF0.0
asg36
Nsg749
Nsg38
g750
sg751
(lp1283
F0.0
aF0.0
asg40
g753
sg755
(lp1284
F0.0
aF0.0
asg49
(dp1285
g51
S'MG_JEN_Joneset::EJones_WSRT()'
p1286
sg53
g1195
sg56
(dp1287
g749
I01
sg38
I01
sg2
I01
sg40
I01
sg760
I01
sg30
I01
sg751
I01
sg744
I01
sg761
I01
sg762
I01
sg755
I01
sg746
I01
sg763
I01
sg764
I01
sg765
I01
sg766
I01
sg767
I01
sg37
I01
sg768
I01
sg36
I01
sg769
I01
ssg213
S'defines EJones (voltage beamshape) matrices for WSRT (l,m interpolatable)\n    Ejones(station,source) matrix elements:\n    - E_11 = Egain_X*exp(iEphase_X)\n    - E_12 = 0\n    - E_21 = 0\n    - E_22 = Egain_Y*exp(iEphase_Y)\n    For circular polarisation, R and L are used rather than X and Y\n    '
p1288
sg68
g69
sg70
S'MG_JEN_Joneset::EJones_WSRT()  version=15dec2005  defined=2006-04-13 17:23'
p1289
sg72
S'EJones_WSRT'
p1290
sg74
(dp1291
g749
(lp1292
g790
aNaS'@@simul_funklet'
p1293
asg38
(lp1294
g750
aS'@@style'
p1295
asg2
(lp1296
g3
ag775
ag1280
asg40
(lp1297
g753
aS'@@descr'
p1298
asg760
(lp1299
(lp1300
I0
aI1
aI2
aI3
aI4
aa(lp1301
I0
aI1
aI2
aI3
aI4
aI5
aI6
aa(lp1302
I0
aI1
aI2
aI3
aI4
aI5
aI6
aI7
aI8
aI9
aI10
aI11
aI12
aI13
aa(lp1303
I0
aI1
aI2
aI3
aI4
aI5
aI6
aI7
aI8
aI9
aI10
aI11
aI12
aI13
aI14
aag818
aS'@@stations'
p1304
asg30
(lp1305
g743
aS'@@color'
p1306
asg751
(lp1307
g1283
aS'@@p1_mean_stddev'
p1308
asg744
(lp1309
g1281
aS'@@p7_mean_stddev'
p1310
asg761
(lp1311
(lp1312
F0.0
aF0.0
aaS'@@p3_mean_stddev'
p1313
asg762
(lp1314
(lp1315
F0.0
aF0.0
aaS'@@p6_mean_stddev'
p1316
asg755
(lp1317
g1284
aS'@@p5_mean_stddev'
p1318
asg746
(lp1319
g1282
aS'@@p8_mean_stddev'
p1320
asg763
(lp1321
(lp1322
F0.0
aF0.0
aaS'@@p2_mean_stddev'
p1323
asg764
(lp1324
(lp1325
F0.0
aF0.0
aaS'@@p4_mean_stddev'
p1326
asg765
(lp1327
(lp1328
F0.0
aF0.0
aaS'@@p0_mean_stddev'
p1329
asg766
(lp1330
g1171
aS'@@@Jsequence_KJones'
p1331
asg767
(lp1332
g1171
aS'@@@Jsequence_simul'
p1333
asg37
(lp1334
I5
aS'@@size'
p1335
asg768
(lp1336
(lp1337
F0.0
aF0.0
aaS'@@p9_mean_stddev'
p1338
asg36
(lp1339
NaS'@@unit'
p1340
asg769
(lp1341
g1171
aS'@@@Jsequence'
p1342
assg66
g837
sg167
S'** Description of available inarg record(s) for: MG_JEN_Joneset::EJones_WSRT()  version=15dec2005  defined=2006-04-13 17:23'
p1343
sg178
I00
sg171
S'2006-04-13 17:23'
p1344
sg169
g1270
sg172
S'MG_JEN_Joneset'
p1345
sg176
S'** Specific description of inarg record for: MG_JEN_Joneset::EJones_WSRT()  version=15dec2005  defined=2006-04-13 17:23'
p1346
sg844
(dp1347
g2
I00
sg760
I00
ssg54
g1344
sg179
(lp1348
g49
ag760
ag2
ag769
ag767
ag766
ag40
ag36
ag30
ag38
ag37
ag749
ag765
ag751
ag763
ag761
ag764
ag755
ag762
ag744
ag746
ag768
asg181
(dp1349
g749
g852
sg38
g193
sg2
g848
sg40
g854
sg760
g860
sg30
g187
sg751
g853
sg744
g849
sg761
g862
sg762
g863
sg755
g855
sg746
g850
sg763
g864
sg764
g865
sg765
g856
sg766
g858
sg767
g858
sg37
g857
sg768
g859
sg36
g36
sg769
g858
ssg64
S'MG_JEN_JonesetEJones_WSRT'
p1350
ssg765
g1328
sg37
I5
sg769
g1171
sg766
g1171
sg768
g1337
sg760
g1304
sg761
g1312
sg762
g1315
sg763
g1322
sg764
g1325
sg767
g1171
ssg769
Nssg2
S'@@polrep'
p1351
sg760
S'@@stations'
p1352
sS'visu'
p1353
I01
sg49
(dp1354
g53
g736
sg181
(dp1355
g2
g848
sg760
g860
sg1353
S'if True, visualise the source contribitions'
p1356
sS'nr_lsm_sources'
p1357
S'nr of lsm sources to be included (in order of brightness)'
p1358
sg766
g858
sg767
g858
sg769
g858
ssg68
g69
sg172
S'MG_JEN_Cohset'
p1359
sg56
(dp1360
g766
I01
sg767
I01
sg769
I01
sg2
I01
sg760
I01
ssg169
S'20mar2006'
p1361
sg844
(dp1362
g2
I00
sg760
I00
ssg213
S'Obsolete (upward compatibility) version of .predict_cps()'
p1363
sg174
(dp1364
g1353
I00
ssg70
S'MG_JEN_Cohset::predict_lsm()  version=20mar2006  defined=2006-04-13 17:23'
p1365
sg74
(dp1366
g2
(lp1367
g3
ag775
ag1351
asg760
(lp1368
(lp1369
I0
aI1
aI2
aI3
aI4
aa(lp1370
I0
aI1
aI2
aI3
aI4
aI5
aI6
aa(lp1371
I0
aI1
aI2
aI3
aI4
aI5
aI6
aI7
aI8
aI9
aI10
aI11
aI12
aI13
aa(lp1372
I0
aI1
aI2
aI3
aI4
aI5
aI6
aI7
aI8
aI9
aI10
aI11
aI12
aI13
aI14
aag818
ag1352
asg1353
(lp1373
I01
aI00
aS'@@visu'
p1374
asg1357
(lp1375
I1
aI2
aI3
aI5
aI10
aI20
aI100
aI1000
aI10000
aS'@@nr_lsm_sources'
p1376
asg766
(lp1377
NaS'@@@Jsequence_KJones'
p1378
asg767
(lp1379
NaS'@@@Jsequence_simul'
p1380
asg769
(lp1381
NaS'@@@Jsequence'
p1382
assg66
g221
sg54
S'2006-04-13 17:23'
p1383
sg51
S'MG_JEN_Cohset::predict_lsm()'
p1384
sg176
S'** Specific description of inarg record for: MG_JEN_Cohset::predict_lsm()  version=20mar2006  defined=2006-04-13 17:23'
p1385
sg64
S'MG_JEN_Cohsetpredict_lsm'
p1386
sg72
S'predict_lsm'
p1387
sg167
S'** Description of available inarg record(s) for: MG_JEN_Cohset::predict_lsm()  version=20mar2006  defined=2006-04-13 17:23'
p1388
sg178
I00
sg171
g1383
sg225
(dp1389
g355
S'** JEN_inarg.attach(): attached: [simul_uvp]./MG_JEN_Cohset.Jones()'
p1390
sg227
S'** JEN_inarg.attach(): attached: [simul_imp]./MG_JEN_Cohset.Jones()'
p1391
ssg179
(lp1392
g49
ag1357
ag1353
ag760
ag2
ag769
ag767
ag766
aS'[simul_imp]./MG_JEN_Cohset.Jones()'
p1393
ag738
assg1357
I10000
sg766
Nsg767
Nsg1393
(dp1394
S'[simul_imp]./MG_JEN_Joneset.BJones()'
p1395
(dp1396
g2
S'@@polrep'
p1397
sg30
g743
sg744
(lp1398
F0.0
aF0.0
asg746
(lp1399
F0.0
aF0.0
asg36
Nsg749
Nsg38
g750
sg751
(lp1400
F0.0
aF0.0
asg40
g753
sg754
F0.20000000000000001
sg755
(lp1401
F0.0
aF0.0
asg49
(dp1402
g51
S'MG_JEN_Joneset::BJones()'
p1403
sg53
g1395
sg56
(dp1404
g749
I01
sg38
I01
sg2
I01
sg40
I01
sg760
I01
sg30
I01
sg751
I01
sg744
I01
sg761
I01
sg762
I01
sg755
I01
sg746
I01
sg763
I01
sg764
I01
sg765
I01
sg766
I01
sg767
I01
sg37
I01
sg768
I01
sg36
I01
sg769
I01
ssg213
g883
sg68
g69
sg70
S'MG_JEN_Joneset::BJones()  version=16dec2005  defined=2006-04-13 17:23'
p1405
sg72
S'BJones'
p1406
sg74
(dp1407
g749
(lp1408
g790
aNaS'@@simul_funklet'
p1409
asg38
(lp1410
g750
aS'@@style'
p1411
asg2
(lp1412
g3
ag775
ag1397
asg40
(lp1413
g753
aS'@@descr'
p1414
asg760
(lp1415
(lp1416
I0
aI1
aI2
aI3
aI4
aa(lp1417
I0
aI1
aI2
aI3
aI4
aI5
aI6
aa(lp1418
I0
aI1
aI2
aI3
aI4
aI5
aI6
aI7
aI8
aI9
aI10
aI11
aI12
aI13
aa(lp1419
I0
aI1
aI2
aI3
aI4
aI5
aI6
aI7
aI8
aI9
aI10
aI11
aI12
aI13
aI14
aag818
aS'@@stations'
p1420
asg30
(lp1421
g743
aS'@@color'
p1422
asg751
(lp1423
g1400
aS'@@p1_mean_stddev'
p1424
asg744
(lp1425
g1398
aS'@@p7_mean_stddev'
p1426
asg761
(lp1427
(lp1428
F0.0
aF0.0
aaS'@@p3_mean_stddev'
p1429
asg762
(lp1430
(lp1431
F0.0
aF0.0
aaS'@@p6_mean_stddev'
p1432
asg755
(lp1433
g1401
aS'@@p5_mean_stddev'
p1434
asg746
(lp1435
g1399
aS'@@p8_mean_stddev'
p1436
asg763
(lp1437
(lp1438
F0.0
aF0.0
aaS'@@p2_mean_stddev'
p1439
asg764
(lp1440
(lp1441
F0.0
aF0.0
aaS'@@p4_mean_stddev'
p1442
asg765
(lp1443
(lp1444
F0.0
aF0.0
aaS'@@p0_mean_stddev'
p1445
asg766
(lp1446
g926
aS'@@@Jsequence_KJones'
p1447
asg767
(lp1448
g926
aS'@@@Jsequence_simul'
p1449
asg37
(lp1450
I5
aS'@@size'
p1451
asg768
(lp1452
(lp1453
F0.0
aF0.0
aaS'@@p9_mean_stddev'
p1454
asg36
(lp1455
NaS'@@unit'
p1456
asg769
(lp1457
g926
aS'@@@Jsequence'
p1458
assg66
S'simul_imp'
p1459
sg167
S'** Description of available inarg record(s) for: MG_JEN_Joneset::BJones()  version=16dec2005  defined=2006-04-13 17:23'
p1460
sg178
I00
sg171
S'2006-04-13 17:23'
p1461
sg169
g941
sg172
S'MG_JEN_Joneset'
p1462
sg176
S'** Specific description of inarg record for: MG_JEN_Joneset::BJones()  version=16dec2005  defined=2006-04-13 17:23'
p1463
sg844
(dp1464
g2
I00
sg760
I00
ssg54
g1461
sg179
(lp1465
g49
ag760
ag2
ag769
ag767
ag766
ag40
ag36
ag30
ag38
ag37
ag749
ag765
ag751
ag763
ag761
ag764
ag755
ag762
ag744
ag746
ag768
asg181
(dp1466
g749
g852
sg38
g193
sg2
g848
sg40
g854
sg760
g860
sg30
g187
sg751
g853
sg744
g849
sg761
g862
sg762
g863
sg755
g855
sg746
g850
sg763
g864
sg764
g865
sg765
g856
sg766
g858
sg767
g858
sg37
g857
sg768
g859
sg36
g36
sg769
g858
ssg64
S'MG_JEN_JonesetBJones'
p1467
ssg765
g1444
sg37
I5
sg769
g926
sg867
I100
sg868
I5000
sg766
g926
sg768
g1453
sg760
g1420
sg761
g1428
sg762
g1431
sg763
g1438
sg764
g1441
sg767
g926
sg869
F0.02
ssg2
S'@@polrep'
p1468
sS'[simul_imp]./MG_JEN_Joneset.EJones_WSRT()'
p1469
(dp1470
g2
S'@@polrep'
p1471
sg30
g743
sg744
(lp1472
F0.0
aF0.0
asg746
(lp1473
F0.0
aF0.0
asg36
Nsg749
Nsg38
g750
sg751
(lp1474
F0.0
aF0.0
asg40
g753
sg755
(lp1475
F0.0
aF0.0
asg49
(dp1476
g51
S'MG_JEN_Joneset::EJones_WSRT()'
p1477
sg53
g1469
sg56
(dp1478
g749
I01
sg38
I01
sg2
I01
sg40
I01
sg760
I01
sg30
I01
sg751
I01
sg744
I01
sg761
I01
sg762
I01
sg755
I01
sg746
I01
sg763
I01
sg764
I01
sg765
I01
sg766
I01
sg767
I01
sg37
I01
sg768
I01
sg36
I01
sg769
I01
ssg213
g1288
sg68
g69
sg70
S'MG_JEN_Joneset::EJones_WSRT()  version=15dec2005  defined=2006-04-13 17:23'
p1479
sg72
S'EJones_WSRT'
p1480
sg74
(dp1481
g749
(lp1482
g790
aNaS'@@simul_funklet'
p1483
asg38
(lp1484
g750
aS'@@style'
p1485
asg2
(lp1486
g3
ag775
ag1471
asg40
(lp1487
g753
aS'@@descr'
p1488
asg760
(lp1489
(lp1490
I0
aI1
aI2
aI3
aI4
aa(lp1491
I0
aI1
aI2
aI3
aI4
aI5
aI6
aa(lp1492
I0
aI1
aI2
aI3
aI4
aI5
aI6
aI7
aI8
aI9
aI10
aI11
aI12
aI13
aa(lp1493
I0
aI1
aI2
aI3
aI4
aI5
aI6
aI7
aI8
aI9
aI10
aI11
aI12
aI13
aI14
aag818
aS'@@stations'
p1494
asg30
(lp1495
g743
aS'@@color'
p1496
asg751
(lp1497
g1474
aS'@@p1_mean_stddev'
p1498
asg744
(lp1499
g1472
aS'@@p7_mean_stddev'
p1500
asg761
(lp1501
(lp1502
F0.0
aF0.0
aaS'@@p3_mean_stddev'
p1503
asg762
(lp1504
(lp1505
F0.0
aF0.0
aaS'@@p6_mean_stddev'
p1506
asg755
(lp1507
g1475
aS'@@p5_mean_stddev'
p1508
asg746
(lp1509
g1473
aS'@@p8_mean_stddev'
p1510
asg763
(lp1511
(lp1512
F0.0
aF0.0
aaS'@@p2_mean_stddev'
p1513
asg764
(lp1514
(lp1515
F0.0
aF0.0
aaS'@@p4_mean_stddev'
p1516
asg765
(lp1517
(lp1518
F0.0
aF0.0
aaS'@@p0_mean_stddev'
p1519
asg766
(lp1520
g1171
aS'@@@Jsequence_KJones'
p1521
asg767
(lp1522
g1171
aS'@@@Jsequence_simul'
p1523
asg37
(lp1524
I5
aS'@@size'
p1525
asg768
(lp1526
(lp1527
F0.0
aF0.0
aaS'@@p9_mean_stddev'
p1528
asg36
(lp1529
NaS'@@unit'
p1530
asg769
(lp1531
g1171
aS'@@@Jsequence'
p1532
assg66
g1459
sg167
S'** Description of available inarg record(s) for: MG_JEN_Joneset::EJones_WSRT()  version=15dec2005  defined=2006-04-13 17:23'
p1533
sg178
I00
sg171
S'2006-04-13 17:23'
p1534
sg169
g1270
sg172
S'MG_JEN_Joneset'
p1535
sg176
S'** Specific description of inarg record for: MG_JEN_Joneset::EJones_WSRT()  version=15dec2005  defined=2006-04-13 17:23'
p1536
sg844
(dp1537
g2
I00
sg760
I00
ssg54
g1534
sg179
(lp1538
g49
ag760
ag2
ag769
ag767
ag766
ag40
ag36
ag30
ag38
ag37
ag749
ag765
ag751
ag763
ag761
ag764
ag755
ag762
ag744
ag746
ag768
asg181
(dp1539
g749
g852
sg38
g193
sg2
g848
sg40
g854
sg760
g860
sg30
g187
sg751
g853
sg744
g849
sg761
g862
sg762
g863
sg755
g855
sg746
g850
sg763
g864
sg764
g865
sg765
g856
sg766
g858
sg767
g858
sg37
g857
sg768
g859
sg36
g36
sg769
g858
ssg64
S'MG_JEN_JonesetEJones_WSRT'
p1540
ssg765
g1518
sg37
I5
sg769
g1171
sg766
g1171
sg768
g1527
sg760
g1494
sg761
g1502
sg762
g1505
sg763
g1512
sg764
g1515
sg767
g1171
ssg760
S'@@stations'
p1541
sS'[simul_imp]./MG_JEN_Joneset.GJones()'
p1542
(dp1543
g2
S'@@polrep'
p1544
sg30
g743
sg744
(lp1545
F0.0
aF0.0
asg746
(lp1546
F0.0
aF0.0
asg36
Nsg37
I5
sg38
g750
sg751
(lp1547
F0.0
aF0.0
asg40
g753
sg755
(lp1548
F0.0
aF0.0
asg49
(dp1549
g51
S'MG_JEN_Joneset::GJones()'
p1550
sg53
g1542
sg56
(dp1551
g2
I01
sg30
I01
sg744
I01
sg746
I01
sg36
I01
sg37
I01
sg38
I01
sg751
I01
sg40
I01
sg755
I01
sg765
I01
sg749
I01
sg769
I01
sg766
I01
sg1210
I01
sg768
I01
sg760
I01
sg761
I01
sg762
I01
sg763
I01
sg764
I01
sg767
I01
ssg213
g1211
sg68
g69
sg70
S'MG_JEN_Joneset::GJones()  version=15dec2005  defined=2006-04-13 17:23'
p1552
sg72
S'GJones'
p1553
sg74
(dp1554
g2
(lp1555
g3
ag775
ag1544
asg30
(lp1556
g743
aS'@@color'
p1557
asg744
(lp1558
g1545
aS'@@p7_mean_stddev'
p1559
asg746
(lp1560
g1546
aS'@@p8_mean_stddev'
p1561
asg36
(lp1562
NaS'@@unit'
p1563
asg37
(lp1564
I5
aS'@@size'
p1565
asg38
(lp1566
g750
aS'@@style'
p1567
asg751
(lp1568
g1547
aS'@@p1_mean_stddev'
p1569
asg40
(lp1570
g753
aS'@@descr'
p1571
asg755
(lp1572
g1548
aS'@@p5_mean_stddev'
p1573
asg765
(lp1574
(lp1575
F0.0
aF0.0
aaS'@@p0_mean_stddev'
p1576
asg749
(lp1577
g790
aNaS'@@simul_funklet'
p1578
asg769
(lp1579
g1164
aS'@@@Jsequence'
p1580
asg766
(lp1581
g1164
aS'@@@Jsequence_KJones'
p1582
asg1210
(lp1583
I01
aI00
aS'@@Gpolar'
p1584
asg768
(lp1585
(lp1586
F0.0
aF0.0
aaS'@@p9_mean_stddev'
p1587
asg760
(lp1588
(lp1589
I0
aI1
aI2
aI3
aI4
aa(lp1590
I0
aI1
aI2
aI3
aI4
aI5
aI6
aa(lp1591
I0
aI1
aI2
aI3
aI4
aI5
aI6
aI7
aI8
aI9
aI10
aI11
aI12
aI13
aa(lp1592
I0
aI1
aI2
aI3
aI4
aI5
aI6
aI7
aI8
aI9
aI10
aI11
aI12
aI13
aI14
aag818
aS'@@stations'
p1593
asg761
(lp1594
(lp1595
F0.0
aF0.0
aaS'@@p3_mean_stddev'
p1596
asg762
(lp1597
(lp1598
F0.0
aF0.0
aaS'@@p6_mean_stddev'
p1599
asg763
(lp1600
(lp1601
F0.0
aF0.0
aaS'@@p2_mean_stddev'
p1602
asg764
(lp1603
(lp1604
F0.0
aF0.0
aaS'@@p4_mean_stddev'
p1605
asg767
(lp1606
g1164
aS'@@@Jsequence_simul'
p1607
assg66
g1459
sg167
S'** Description of available inarg record(s) for: MG_JEN_Joneset::GJones()  version=15dec2005  defined=2006-04-13 17:23'
p1608
sg178
I00
sg171
S'2006-04-13 17:23'
p1609
sg169
g1270
sg172
S'MG_JEN_Joneset'
p1610
sg174
(dp1611
g1210
I00
ssg176
S'** Specific description of inarg record for: MG_JEN_Joneset::GJones()  version=15dec2005  defined=2006-04-13 17:23'
p1612
sg844
(dp1613
g2
I00
sg760
I00
ssg54
g1609
sg179
(lp1614
g49
ag760
ag2
ag769
ag767
ag766
ag1210
ag40
ag36
ag30
ag38
ag37
ag749
ag765
ag751
ag763
ag761
ag764
ag755
ag762
ag744
ag746
ag768
asg181
(dp1615
g2
g848
sg30
g187
sg744
g849
sg746
g850
sg36
g36
sg37
g857
sg38
g193
sg751
g853
sg40
g854
sg755
g855
sg765
g856
sg749
g852
sg769
g858
sg766
g858
sg1210
g1277
sg768
g859
sg760
g860
sg761
g862
sg762
g863
sg763
g864
sg764
g865
sg767
g858
ssg64
S'MG_JEN_JonesetGJones'
p1616
ssg765
g1575
sg749
Nsg769
g1164
sg766
g1164
sg1210
I01
sg768
g1586
sg760
g1593
sg761
g1595
sg762
g1598
sg763
g1601
sg764
g1604
sg767
g1164
ssg1161
(lp1617
g1171
asS'[simul_imp]./MG_JEN_Joneset.DJones_WSRT()'
p1618
(dp1619
g2
S'@@polrep'
p1620
sg30
g743
sg744
(lp1621
F0.0
aF0.0
asg1061
I01
sg746
(lp1622
F0.0
aF0.0
asg36
Nsg749
Nsg38
g750
sg751
(lp1623
F0.0
aF0.0
asg40
g753
sg754
F0.002
sg755
(lp1624
F0.0
aF0.0
asg49
(dp1625
g51
S'MG_JEN_Joneset::DJones_WSRT()'
p1626
sg53
g1618
sg56
(dp1627
g749
I01
sg38
I01
sg2
I01
sg40
I01
sg760
I01
sg30
I01
sg751
I01
sg744
I01
sg761
I01
sg762
I01
sg755
I01
sg746
I01
sg763
I01
sg764
I01
sg765
I01
sg766
I01
sg767
I01
sg37
I01
sg768
I01
sg36
I01
sg769
I01
ssg213
g1068
sg68
g69
sg70
S'MG_JEN_Joneset::DJones_WSRT()  version=16dec2005  defined=2006-04-13 17:23'
p1628
sg72
S'DJones_WSRT'
p1629
sg74
(dp1630
g2
(lp1631
g3
ag775
ag1620
asg30
(lp1632
g743
aS'@@color'
p1633
asg744
(lp1634
g1621
aS'@@p7_mean_stddev'
p1635
asg1061
(lp1636
I01
aI00
aS'@@coupled_XY_Dell'
p1637
asg746
(lp1638
g1622
aS'@@p8_mean_stddev'
p1639
asg36
(lp1640
NaS'@@unit'
p1641
asg749
(lp1642
g790
aNaS'@@simul_funklet'
p1643
asg38
(lp1644
g750
aS'@@style'
p1645
asg751
(lp1646
g1623
aS'@@p1_mean_stddev'
p1647
asg40
(lp1648
g753
aS'@@descr'
p1649
asg755
(lp1650
g1624
aS'@@p5_mean_stddev'
p1651
asg765
(lp1652
(lp1653
F0.0
aF0.0
aaS'@@p0_mean_stddev'
p1654
asg37
(lp1655
I5
aS'@@size'
p1656
asg769
(lp1657
g1099
aS'@@@Jsequence'
p1658
asg766
(lp1659
g1099
aS'@@@Jsequence_KJones'
p1660
asg1103
(lp1661
I01
aI00
aS'@@coupled_XY_Dang'
p1662
asg768
(lp1663
(lp1664
F0.0
aF0.0
aaS'@@p9_mean_stddev'
p1665
asg760
(lp1666
(lp1667
I0
aI1
aI2
aI3
aI4
aa(lp1668
I0
aI1
aI2
aI3
aI4
aI5
aI6
aa(lp1669
I0
aI1
aI2
aI3
aI4
aI5
aI6
aI7
aI8
aI9
aI10
aI11
aI12
aI13
aa(lp1670
I0
aI1
aI2
aI3
aI4
aI5
aI6
aI7
aI8
aI9
aI10
aI11
aI12
aI13
aI14
aag818
aS'@@stations'
p1671
asg761
(lp1672
(lp1673
F0.0
aF0.0
aaS'@@p3_mean_stddev'
p1674
asg762
(lp1675
(lp1676
F0.0
aF0.0
aaS'@@p6_mean_stddev'
p1677
asg763
(lp1678
(lp1679
F0.0
aF0.0
aaS'@@p2_mean_stddev'
p1680
asg764
(lp1681
(lp1682
F0.0
aF0.0
aaS'@@p4_mean_stddev'
p1683
asg767
(lp1684
g1099
aS'@@@Jsequence_simul'
p1685
assg66
g1459
sg167
S'** Description of available inarg record(s) for: MG_JEN_Joneset::DJones_WSRT()  version=16dec2005  defined=2006-04-13 17:23'
p1686
sg178
I00
sg171
S'2006-04-13 17:23'
p1687
sg169
g941
sg172
S'MG_JEN_Joneset'
p1688
sg174
(dp1689
g1103
I00
sg1061
I00
ssg176
S'** Specific description of inarg record for: MG_JEN_Joneset::DJones_WSRT()  version=16dec2005  defined=2006-04-13 17:23'
p1690
sg844
(dp1691
g2
I00
sg760
I00
ssg54
g1687
sg179
(lp1692
g49
ag760
ag2
ag769
ag767
ag766
ag1103
ag1061
ag40
ag36
ag30
ag38
ag37
ag749
ag765
ag751
ag763
ag761
ag764
ag755
ag762
ag744
ag746
ag768
asg181
(dp1693
g2
g848
sg30
g187
sg744
g849
sg1061
g1137
sg746
g850
sg36
g36
sg749
g852
sg38
g193
sg751
g853
sg40
g854
sg755
g855
sg765
g856
sg37
g857
sg769
g858
sg766
g858
sg1103
g1138
sg768
g859
sg760
g860
sg761
g862
sg762
g863
sg763
g864
sg764
g865
sg767
g858
ssg64
S'MG_JEN_JonesetDJones_WSRT'
p1694
ssg765
g1653
sg37
I5
sg769
g1099
sg867
I100
sg868
I3000
sg766
g1099
sg1103
I01
sg768
g1664
sg760
g1671
sg761
g1673
sg762
g1676
sg763
g1679
sg764
g1682
sg767
g1099
sg869
F0.00020000000000000001
ssg871
S'@@uvplane_effect'
p1695
sg13
S'@@parmtable'
p1696
sg49
(dp1697
g51
g1141
sg53
g1393
sg56
(dp1698
g2
I01
sg760
I01
sg871
I01
sg13
I01
sg766
I01
sg767
I01
sg769
I01
ssg64
S'MG_JEN_CohsetJones'
p1699
sg68
g69
sg213
g1144
sg70
S'MG_JEN_Cohset::Jones()  version=25dec2005  defined=2006-04-13 17:23'
p1700
sg72
S'Jones'
p1701
sg74
(dp1702
g2
(lp1703
g3
ag775
ag1468
asg760
(lp1704
(lp1705
I0
aI1
aI2
aI3
aI4
aa(lp1706
I0
aI1
aI2
aI3
aI4
aI5
aI6
aa(lp1707
I0
aI1
aI2
aI3
aI4
aI5
aI6
aI7
aI8
aI9
aI10
aI11
aI12
aI13
aa(lp1708
I0
aI1
aI2
aI3
aI4
aI5
aI6
aI7
aI8
aI9
aI10
aI11
aI12
aI13
aI14
aag818
ag1541
asg871
(lp1709
I00
ag1695
asg13
(lp1710
Nag1156
ag1696
asg766
(lp1711
NaS'@@@Jsequence_KJones'
p1712
asg767
(lp1713
NaS'@@@Jsequence_simul'
p1714
asg1161
(lp1715
(lp1716
g1164
aa(lp1717
g926
aa(lp1718
g1035
aa(lp1719
g961
aa(lp1720
g1099
aa(lp1721
g1164
ag1099
aa(lp1722
g1171
aa(lp1723
g1164
ag1171
aa(lp1724
g806
aa(lp1725
aS'@@Jsequence'
p1726
asg769
(lp1727
NaS'@@@Jsequence'
p1728
assg66
g1459
sg167
S'** Description of available inarg record(s) for: MG_JEN_Cohset::Jones()  version=25dec2005  defined=2006-04-13 17:23'
p1729
sg178
I00
sg171
S'2006-04-13 17:23'
p1730
sg169
g1180
sg172
S'MG_JEN_Cohset'
p1731
sg176
S'** Specific description of inarg record for: MG_JEN_Cohset::Jones()  version=25dec2005  defined=2006-04-13 17:23'
p1732
sg225
(dp1733
g355
S'** JEN_inarg.attach(): attached: [simul_imp]./MG_JEN_Joneset.FJones()'
p1734
sg227
S'** JEN_inarg.attach(): attached: [simul_imp]./MG_JEN_Joneset.GJones()'
p1735
sg405
S'** JEN_inarg.attach(): attached: [simul_imp]./MG_JEN_Joneset.KJones()'
p1736
sg407
S'** JEN_inarg.attach(): attached: [simul_imp]./MG_JEN_Joneset.BJones()'
p1737
sg409
S'** JEN_inarg.attach(): attached: [simul_imp]./MG_JEN_Joneset.EJones_WSRT()'
p1738
sg411
S'** JEN_inarg.attach(): attached: [simul_imp]./MG_JEN_Joneset.DJones_WSRT()'
p1739
sS'7'
p1740
S"  2: ....[simul_imp]./MG_JEN_Cohset.Jones() (qual=simul_imp): .modify(Jsequence):   []  ->  ['EJones_WSRT']"
p1741
sg1190
S'** JEN_inarg.attach(): attached: [simul_imp]./MG_JEN_Joneset.JJones()'
p1742
ssg54
g1730
sg844
(dp1743
g871
I00
sg13
I00
sg2
I00
sg760
I00
ssg179
(lp1744
g49
ag760
ag2
ag769
ag767
ag766
ag13
ag871
ag1161
ag1542
aS'[simul_imp]./MG_JEN_Joneset.FJones()'
p1745
ag1395
aS'[simul_imp]./MG_JEN_Joneset.KJones()'
p1746
ag1618
ag1469
aS'[simul_imp]./MG_JEN_Joneset.JJones()'
p1747
asg181
(dp1748
g2
g848
sg760
g860
sg871
g1197
sg13
g1198
sg766
g858
sg767
g858
sg1161
g1199
sg769
g858
sssg1747
(dp1749
g2
S'@@polrep'
p1750
sg30
g743
sg744
(lp1751
F0.0
aF0.0
asg746
(lp1752
F0.0
aF0.0
asg748
Nsg36
Nsg749
Nsg38
g750
sg751
(lp1753
F0.0
aF0.0
asg40
g753
sg754
F0.20000000000000001
sg755
(lp1754
F0.0
aF0.0
asg49
(dp1755
g51
S'MG_JEN_Joneset::JJones()'
p1756
sg53
g1747
sg56
(dp1757
g749
I01
sg38
I01
sg2
I01
sg40
I01
sg760
I01
sg30
I01
sg751
I01
sg744
I01
sg761
I01
sg762
I01
sg755
I01
sg746
I01
sg763
I01
sg764
I01
sg765
I01
sg766
I01
sg767
I01
sg37
I01
sg768
I01
sg36
I01
sg769
I01
ssg213
g770
sg68
g69
sg70
S'MG_JEN_Joneset::JJones()  version=14feb2006  defined=2006-04-13 17:23'
p1758
sg72
S'JJones'
p1759
sg74
(dp1760
g2
(lp1761
g3
ag775
ag1750
asg30
(lp1762
g743
aS'@@color'
p1763
asg744
(lp1764
g1751
aS'@@p7_mean_stddev'
p1765
asg746
(lp1766
g1752
aS'@@p8_mean_stddev'
p1767
asg748
(lp1768
Na(lp1769
I14
aa(lp1770
I1
aag785
aS'@@all4_always'
p1771
asg36
(lp1772
NaS'@@unit'
p1773
asg749
(lp1774
g790
aNaS'@@simul_funklet'
p1775
asg38
(lp1776
g750
aS'@@style'
p1777
asg751
(lp1778
g1753
aS'@@p1_mean_stddev'
p1779
asg40
(lp1780
g753
aS'@@descr'
p1781
asg755
(lp1782
g1754
aS'@@p5_mean_stddev'
p1783
asg765
(lp1784
(lp1785
F0.0
aF0.0
aaS'@@p0_mean_stddev'
p1786
asg37
(lp1787
I5
aS'@@size'
p1788
asg769
(lp1789
g806
aS'@@@Jsequence'
p1790
asg766
(lp1791
g806
aS'@@@Jsequence_KJones'
p1792
asg768
(lp1793
(lp1794
F0.0
aF0.0
aaS'@@p9_mean_stddev'
p1795
asg760
(lp1796
(lp1797
I0
aI1
aI2
aI3
aI4
aa(lp1798
I0
aI1
aI2
aI3
aI4
aI5
aI6
aa(lp1799
I0
aI1
aI2
aI3
aI4
aI5
aI6
aI7
aI8
aI9
aI10
aI11
aI12
aI13
aa(lp1800
I0
aI1
aI2
aI3
aI4
aI5
aI6
aI7
aI8
aI9
aI10
aI11
aI12
aI13
aI14
aag818
aS'@@stations'
p1801
asg820
(lp1802
I01
aI00
aS'@@diagonal_only'
p1803
asg761
(lp1804
(lp1805
F0.0
aF0.0
aaS'@@p3_mean_stddev'
p1806
asg762
(lp1807
(lp1808
F0.0
aF0.0
aaS'@@p6_mean_stddev'
p1809
asg763
(lp1810
(lp1811
F0.0
aF0.0
aaS'@@p2_mean_stddev'
p1812
asg764
(lp1813
(lp1814
F0.0
aF0.0
aaS'@@p4_mean_stddev'
p1815
asg767
(lp1816
g806
aS'@@@Jsequence_simul'
p1817
assg66
g1459
sg167
S'** Description of available inarg record(s) for: MG_JEN_Joneset::JJones()  version=14feb2006  defined=2006-04-13 17:23'
p1818
sg178
I00
sg171
S'2006-04-13 17:23'
p1819
sg169
g840
sg172
S'MG_JEN_Joneset'
p1820
sg174
(dp1821
g820
I00
ssg176
S'** Specific description of inarg record for: MG_JEN_Joneset::JJones()  version=14feb2006  defined=2006-04-13 17:23'
p1822
sg844
(dp1823
g2
I00
sg760
I00
ssg54
g1819
sg179
(lp1824
g49
ag760
ag2
ag769
ag767
ag766
ag820
ag748
ag40
ag36
ag30
ag38
ag37
ag749
ag765
ag751
ag763
ag761
ag764
ag755
ag762
ag744
ag746
ag768
asg181
(dp1825
g2
g848
sg30
g187
sg744
g849
sg746
g850
sg748
g851
sg36
g36
sg749
g852
sg38
g193
sg751
g853
sg40
g854
sg755
g855
sg765
g856
sg37
g857
sg769
g858
sg766
g858
sg768
g859
sg760
g860
sg820
g861
sg761
g862
sg762
g863
sg763
g864
sg764
g865
sg767
g858
ssg64
S'MG_JEN_JonesetJJones'
p1826
ssg765
g1785
sg37
I5
sg769
g806
sg867
I50
sg868
I500
sg766
g806
sg768
g1794
sg760
g1801
sg820
I00
sg761
g1805
sg762
g1808
sg763
g1811
sg764
g1814
sg767
g806
sg869
F0.02
ssg766
Nsg767
Nsg769
Nsg1746
(dp1827
g2
S'@@polrep'
p1828
sg760
S'@@stations'
p1829
sg49
(dp1830
g51
S'MG_JEN_Joneset::KJones()'
p1831
sg53
g1746
sg56
(dp1832
g766
I01
sg767
I01
sg769
I01
sg2
I01
sg760
I01
ssg213
g956
sg68
g69
sg70
S'MG_JEN_Joneset::KJones()  version=12dec2005  defined=2006-04-13 17:23'
p1833
sg72
S'KJones'
p1834
sg74
(dp1835
g766
(lp1836
g961
aS'@@@Jsequence_KJones'
p1837
asg767
(lp1838
g961
aS'@@@Jsequence_simul'
p1839
asg769
(lp1840
g961
aS'@@@Jsequence'
p1841
asg2
(lp1842
g3
ag775
ag1828
asg760
(lp1843
(lp1844
I0
aI1
aI2
aI3
aI4
aa(lp1845
I0
aI1
aI2
aI3
aI4
aI5
aI6
aa(lp1846
I0
aI1
aI2
aI3
aI4
aI5
aI6
aI7
aI8
aI9
aI10
aI11
aI12
aI13
aa(lp1847
I0
aI1
aI2
aI3
aI4
aI5
aI6
aI7
aI8
aI9
aI10
aI11
aI12
aI13
aI14
aag818
ag1829
assg66
g1459
sg167
S'** Description of available inarg record(s) for: MG_JEN_Joneset::KJones()  version=12dec2005  defined=2006-04-13 17:23'
p1848
sg178
I00
sg171
S'2006-04-13 17:23'
p1849
sg169
g975
sg172
S'MG_JEN_Joneset'
p1850
sg176
S'** Specific description of inarg record for: MG_JEN_Joneset::KJones()  version=12dec2005  defined=2006-04-13 17:23'
p1851
sg844
(dp1852
g2
I00
sg760
I00
ssg54
g1849
sg179
(lp1853
g49
ag760
ag2
ag769
ag767
ag766
asg181
(dp1854
g766
g858
sg767
g858
sg769
g858
sg2
g848
sg760
g860
ssg64
S'MG_JEN_JonesetKJones'
p1855
ssg766
g961
sg767
g961
sg769
g961
ssg1745
(dp1856
g2
S'@@polrep'
p1857
sg30
g743
sg744
(lp1858
F0.0
aF0.0
asg746
(lp1859
F0.0
aF0.0
asg36
Nsg749
Nsg38
g750
sg751
(lp1860
F0.0
aF0.0
asg40
g753
sg754
F0.20000000000000001
sg755
(lp1861
F0.0
aF0.0
asg49
(dp1862
g51
S'MG_JEN_Joneset::FJones()'
p1863
sg53
g1745
sg56
(dp1864
g749
I01
sg38
I01
sg2
I01
sg40
I01
sg760
I01
sg30
I01
sg751
I01
sg744
I01
sg761
I01
sg762
I01
sg755
I01
sg746
I01
sg763
I01
sg764
I01
sg765
I01
sg766
I01
sg767
I01
sg37
I01
sg768
I01
sg36
I01
sg769
I01
ssg213
g992
sg68
g69
sg70
S'MG_JEN_Joneset::FJones()  version=16dec2005  defined=2006-04-13 17:23'
p1865
sg72
S'FJones'
p1866
sg74
(dp1867
g749
(lp1868
g790
aNaS'@@simul_funklet'
p1869
asg38
(lp1870
g750
aS'@@style'
p1871
asg2
(lp1872
g3
ag775
ag1857
asg40
(lp1873
g753
aS'@@descr'
p1874
asg760
(lp1875
(lp1876
I0
aI1
aI2
aI3
aI4
aa(lp1877
I0
aI1
aI2
aI3
aI4
aI5
aI6
aa(lp1878
I0
aI1
aI2
aI3
aI4
aI5
aI6
aI7
aI8
aI9
aI10
aI11
aI12
aI13
aa(lp1879
I0
aI1
aI2
aI3
aI4
aI5
aI6
aI7
aI8
aI9
aI10
aI11
aI12
aI13
aI14
aag818
aS'@@stations'
p1880
asg30
(lp1881
g743
aS'@@color'
p1882
asg751
(lp1883
g1860
aS'@@p1_mean_stddev'
p1884
asg744
(lp1885
g1858
aS'@@p7_mean_stddev'
p1886
asg761
(lp1887
(lp1888
F0.0
aF0.0
aaS'@@p3_mean_stddev'
p1889
asg762
(lp1890
(lp1891
F0.0
aF0.0
aaS'@@p6_mean_stddev'
p1892
asg755
(lp1893
g1861
aS'@@p5_mean_stddev'
p1894
asg746
(lp1895
g1859
aS'@@p8_mean_stddev'
p1896
asg763
(lp1897
(lp1898
F0.0
aF0.0
aaS'@@p2_mean_stddev'
p1899
asg764
(lp1900
(lp1901
F0.0
aF0.0
aaS'@@p4_mean_stddev'
p1902
asg765
(lp1903
(lp1904
F0.0
aF0.0
aaS'@@p0_mean_stddev'
p1905
asg766
(lp1906
g1035
aS'@@@Jsequence_KJones'
p1907
asg767
(lp1908
g1035
aS'@@@Jsequence_simul'
p1909
asg37
(lp1910
I5
aS'@@size'
p1911
asg768
(lp1912
(lp1913
F0.0
aF0.0
aaS'@@p9_mean_stddev'
p1914
asg36
(lp1915
NaS'@@unit'
p1916
asg769
(lp1917
g1035
aS'@@@Jsequence'
p1918
assg66
g1459
sg167
S'** Description of available inarg record(s) for: MG_JEN_Joneset::FJones()  version=16dec2005  defined=2006-04-13 17:23'
p1919
sg178
I00
sg171
S'2006-04-13 17:23'
p1920
sg169
g941
sg172
S'MG_JEN_Joneset'
p1921
sg176
S'** Specific description of inarg record for: MG_JEN_Joneset::FJones()  version=16dec2005  defined=2006-04-13 17:23'
p1922
sg844
(dp1923
g2
I00
sg760
I00
ssg54
g1920
sg179
(lp1924
g49
ag760
ag2
ag769
ag767
ag766
ag40
ag36
ag30
ag38
ag37
ag749
ag765
ag751
ag763
ag761
ag764
ag755
ag762
ag744
ag746
ag768
asg181
(dp1925
g749
g852
sg38
g193
sg2
g848
sg40
g854
sg760
g860
sg30
g187
sg751
g853
sg744
g849
sg761
g862
sg762
g863
sg755
g855
sg746
g850
sg763
g864
sg764
g865
sg765
g856
sg766
g858
sg767
g858
sg37
g857
sg768
g859
sg36
g36
sg769
g858
ssg64
S'MG_JEN_JonesetFJones'
p1926
ssg765
g1904
sg37
I5
sg769
g1035
sg867
I50
sg868
I500
sg766
g1035
sg768
g1913
sg760
g1880
sg761
g1888
sg762
g1891
sg763
g1898
sg764
g1901
sg767
g1035
sg869
F0.02
sssg769
Nssg49
(dp1927
g53
S'./MG_JEN_simul.'
p1928
sg181
(dp1929
g1
S'if True, add to existing uv-data (from MS column)'
p1930
sg2
g848
sS'master_reqseq'
p1931
S'if True, use a master reqseq for solver(s)'
p1932
sg760
g860
sg15
S'if True, use same (simul) LSM for solving too'
p1933
sS'redun'
p1934
S'if True, redundant spacing calibration'
p1935
sg735
S'stddev of gaussian noise, to be added'
p1936
sg11
S'name of the (AIPS++) Measurement Set'
p1937
sS'chain_solvers'
p1938
S'if True, chain the solvers (recommended)'
p1939
sg14
S'if True, insert a solver'
p1940
sS'num_cells'
p1941
S'if defined, ModRes argument [ntime,nfreq]'
p1942
sg13
g1198
sg766
g858
sg767
g858
sS'tile_size'
p1943
S'(inputrec) size (in time-slots) of the input data-tile'
p1944
sg871
g1197
sg769
g858
ssS'reference'
p1945
I00
sg68
g69
sg172
S'MG_JEN_simul'
p1946
sg56
(dp1947
g2
I00
sg1931
I01
sg760
I00
sS'last_changed'
p1948
I01
sg1934
I00
sg871
I00
sg1938
I01
sg1941
I00
sg766
I01
sg767
I01
sg769
I01
ssg370
(dp1949
g11
S'*.MS'
p1950
ssg169
g1270
sg213
S"\n    -------------------------------------------------------------\n    General description of the MeqTree TDL script MG_JEN_simul.py\n    -------------------------------------------------------------\n\n    The MG_JEN_simul.py script is used to put simulated visibilities into the\n    CORRECTED_DATA column of an existing Measurement Set (MS). The original DATA\n    in the MS are untouched. The advantage of this approach is that it is not\n    necessary to specify pointing centre, uv-coverage, spectral-window etc.\n\n    * The input source model is either an existing Local Sky Model (LSM),\n    or a 'punit' point source in the centre of the field.\n\n    * The nominal source visibilities may be corrupted by:\n      - various (uv-plane) Jones matrices\n      - image-plane effects from EJones and IJones (MIM)\n      - ifr-based errors (additive, multiplicative)\n      - noise\n\n    * Optionally, the simulated visibilities may be added to the existing uv-data,\n    either from the DATA column or the CORRECTED_DATA column of the MS\n\n    * Optionally, a parallel solver branch may be inserted, which uses the simulated\n    uv-data to solve for instrumental parameters. The latter may be compared with\n    the simulated instrumental parameters.\n\n    Different types of simulations may be specified by loading (and editing) socalled\n    'inarg' records from files (like this one). These contain input arguments\n    for generating a suitable MeqTree forest for the desired operation.\n    "
p1951
sg174
(dp1952
g1
I00
sg1931
I00
sg15
I00
sg1948
I00
sg14
I00
sg1934
I00
ssg70
S'** Top-level CTRL-record of: MG_JEN_simul.inarg'
p1953
sg74
(dp1954
g1
(lp1955
I01
aI00
aS'@@add_to_existing'
p1956
asg2
(lp1957
g3
ag775
aS'@@polrep'
p1958
asg1931
(lp1959
I01
aI00
aS'@@master_reqseq'
p1960
asg760
(lp1961
(lp1962
I0
aI1
aI2
aI3
aI4
aa(lp1963
I0
aI1
aI2
aI3
aI4
aI5
aI6
aa(lp1964
I0
aI1
aI2
aI3
aI4
aI5
aI6
aI7
aI8
aI9
aI10
aI11
aI12
aI13
aa(lp1965
I0
aI1
aI2
aI3
aI4
aI5
aI6
aI7
aI8
aI9
aI10
aI11
aI12
aI13
aI14
aag818
aS'@@stations'
p1966
asg15
(lp1967
I01
aI00
aS'@@use_same_LSM'
p1968
asg1948
(lp1969
S'd30jan2006'
p1970
aS'@@last_changed'
p1971
asg735
(lp1972
I0
aF0.001
aF0.0030000000000000001
aF0.01
aF0.029999999999999999
aF0.10000000000000001
aF0.29999999999999999
aI1
aI3
aS'@@stddev_noise_Jy'
p1973
asg1934
(lp1974
I01
aI00
aS'@@redun'
p1975
asg11
(lp1976
g12
aS'@@ms_name'
p1977
asg1938
(lp1978
I01
aS'@@chain_solvers'
p1979
asg14
(lp1980
I01
aI00
aS'@@insert_solver'
p1981
asg1941
(lp1982
Na(lp1983
I5
aI2
aa(lp1984
I2
aI2
aa(lp1985
I3
aI3
aaS'@@num_cells'
p1986
asg13
(lp1987
Nag1156
aS'@@parmtable'
p1988
asg766
(lp1989
NaS'@@@Jsequence_KJones'
p1990
asg767
(lp1991
NaS'@@@Jsequence_simul'
p1992
asg1943
(lp1993
I1
aI2
aI3
aI5
aI10
aI20
aI50
aI100
aS'@@tile_size'
p1994
asg871
(lp1995
I00
aS'@@uvplane_effect'
p1996
asg769
(lp1997
NaS'@@@Jsequence'
p1998
assg66
Nsg54
S'2006-04-13 17:23'
p1999
sS'HISTORY'
p2000
(dp2001
g227
S'2006-04-13 17:23: Derived from: MG_JEN_simul.inarg'
p2002
ssg51
g10
sg176
S'Predefined inarg record for simulating with EJones corruption'
p2003
sS'save_file'
p2004
S'MG_JEN_simul_EJones.inarg'
p2005
sS'file_filter'
p2006
S'MG_JEN_simul*.inarg'
p2007
sg72
S''
p2008
sg167
S'\n====================================================\n** Description of available predefined inarg records (files)\n   for the TDL script: MG_JEN_simul:\n\n====================================================\n\n\n** Description of predefined inarg record (file): MG_JEN_simul_GJones.inarg:\nPredefined inarg record for simulating with GJones corruption\n\n\n** Description of predefined inarg record (file): MG_JEN_simul_DJones.inarg:\nPredefined inarg record for simulating with DJones corruption\n\n\n** Description of predefined inarg record (file): MG_JEN_simul_EJones.inarg:\nPredefined inarg record for simulating with EJones corruption\n====================================================\n'
p2009
sg178
I00
sg171
g1999
sg225
(dp2010
S'11'
p2011
S'** JEN_inarg.attach(): attached: [solve]./MG_JEN_Cohset.predict_lsm()'
p2012
sS'10'
p2013
S'** JEN_inarg.attach(): attached: [solve]./MG_JEN_lsm.get_lsm()'
p2014
sS'13'
p2015
S'** JEN_inarg.separator(): : finishing touches'
p2016
sS'12'
p2017
S'** JEN_inarg.attach(): attached: ./MG_JEN_Cohset.insert_solver()'
p2018
sS'15'
p2019
S'  0: ./MG_JEN_simul. (qual=None): .modify(use_same_LSM):   True  ->  False'
p2020
sS'14'
p2021
S'** JEN_inarg.attach(): attached: ./MG_JEN_Cohset.make_sinks()'
p2022
sS'17'
p2023
S".modify():   ** OK ** (['taper'])"
p2024
sS'16'
p2025
S".modify():   ** OK ** (['saveAs', 'test_pattern', 'use_same_LSM', 'insert_solver', 'solvegroup', 'num_iter'])"
p2026
sS'19'
p2027
S".modify():   ** OK ** (['Jsequence'])"
p2028
sS'18'
p2029
S".modify():   ** OK ** (['taper'])"
p2030
sS'20'
p2031
S".modify():   ** OK ** (['Jsequence'])"
p2032
sg355
S'  0: ./MG_JEN_simul. (qual=None): .modify(tile_size):   10  ->  1'
p2033
sg227
S'  0: ./MG_JEN_simul. (qual=None): .modify(uvplane_effect):   False  ->  True'
p2034
sg405
S'** JEN_inarg.separator(): : uv-data (MS) stream_control'
p2035
sg407
S".modify():   ** OK ** (['uvplane_effect', 'tile_size'])"
p2036
sg409
S'** JEN_inarg.attach(): attached: ./MG_JEN_Cohset.make_spigots()'
p2037
sg411
S'** JEN_inarg.attach(): attached: ./MG_JEN_exec.stream_control()'
p2038
sg1740
S'** JEN_inarg.attach(): attached: [simul]./MG_JEN_lsm.get_lsm()'
p2039
sg1190
S'** JEN_inarg.separator(): : uv-data simulation (LeafSet)'
p2040
sS'9'
p2041
S'** JEN_inarg.separator(): : solver-branch (ParmSet)'
p2042
sS'8'
p2043
S'** JEN_inarg.attach(): attached: [simul]./MG_JEN_Cohset.predict_lsm()'
p2044
ssg179
(lp2045
g49
ag9
ag1948
ag11
ag1943
ag760
ag2
ag769
ag767
ag766
ag13
ag871
ag1938
ag1931
ag1934
ag1941
ag1
ag735
ag14
ag5
aS'./MG_JEN_exec.stream_control()'
p2046
aS'./MG_JEN_Cohset.make_spigots()'
p2047
aS'_JEN_inarg_separator_record:_2'
p2048
ag16
ag736
aS'_JEN_inarg_separator_record:_3'
p2049
ag15
aS'[solve]./MG_JEN_lsm.get_lsm()'
p2050
aS'[solve]./MG_JEN_Cohset.predict_lsm()'
p2051
aS'./MG_JEN_Cohset.insert_solver()'
p2052
aS'_JEN_inarg_separator_record:_4'
p2053
aS'./MG_JEN_Cohset.make_sinks()'
p2054
assg2054
(dp2055
S'fullDomainMux'
p2056
I01
sS'output_col'
p2057
S'PREDICT'
p2058
sg1353
I01
sS'flag'
p2059
I00
sg49
(dp2060
g51
S'MG_JEN_Cohset::make_sinks()'
p2061
sg53
g2054
sg54
S'2006-04-13 17:23'
p2062
sg176
S'** Specific description of inarg record for: MG_JEN_Cohset::make_sinks()  version=25dec2005  defined=2006-04-13 17:23'
p2063
sg64
S'MG_JEN_Cohsetmake_sinks'
p2064
sg68
g69
sg70
S'MG_JEN_Cohset::make_sinks()  version=25dec2005  defined=2006-04-13 17:23'
p2065
sg72
S'make_sinks'
p2066
sg74
(dp2067
g2059
(lp2068
I01
aI00
aS'@@flag'
p2069
asg1353
(lp2070
I01
aI00
aS'@@visu'
p2071
asg2056
(lp2072
I01
aI00
aS'@@fullDomainMux'
p2073
asg2057
(lp2074
g2058
aS'RESIDUALS'
p2075
aS'DATA'
p2076
aS'@@output_col'
p2077
asS'visu_array_config'
p2078
(lp2079
I01
aI00
aS'@@visu_array_config'
p2080
assg66
Nsg167
S'** Description of available inarg record(s) for: MG_JEN_Cohset::make_sinks()  version=25dec2005  defined=2006-04-13 17:23'
p2081
sg169
g1180
sg171
g2062
sg172
S'MG_JEN_Cohset'
p2082
sg174
(dp2083
g2059
I00
sg1353
I00
sg2056
I00
sg2078
I00
ssg178
I00
sg179
(lp2084
g49
ag2057
ag2078
ag1353
ag2059
ag2056
asg181
(dp2085
g2059
S'if True, insert a flagger for the output uv-data'
p2086
sg1353
S'if True, visualise the output uv-data'
p2087
sg2056
S'if True, attach an extra VisDataMux'
p2088
sg2057
S'name of the logical (VisTile) output column'
p2089
sg2078
S'if True, visualise the array config (from MS)'
p2090
ssg213
S'Make sink nodes in the given Cohset object'
p2091
ssg2078
I01
ssg1943
I1
sg2047
(dp2092
g2059
I00
sg1353
I01
sg49
(dp2093
g51
S'MG_JEN_Cohset::make_spigots()'
p2094
sg53
g2047
sg54
S'2006-04-13 17:23'
p2095
sg56
(dp2096
S'input_col'
p2097
I01
ssg64
S'MG_JEN_Cohsetmake_spigots'
p2098
sg68
g69
sg70
S'MG_JEN_Cohset::make_spigots()  version=25dec2005  defined=2006-04-13 17:23'
p2099
sg72
S'make_spigots'
p2100
sg74
(dp2101
g2059
(lp2102
I01
aI00
aS'@@flag'
p2103
asS'MS_corr_index'
p2104
(lp2105
(lp2106
I0
aI1
aI2
aI3
aa(lp2107
I0
aI-1
aI-1
aI1
aa(lp2108
I0
aI-1
aI-1
aI3
aaS'@@MS_corr_index'
p2109
asg2097
(lp2110
g2076
ag2058
ag2075
aS'@@input_col'
p2111
asg1353
(lp2112
I01
aI00
aS'@@visu'
p2113
assg66
Nsg167
S'** Description of available inarg record(s) for: MG_JEN_Cohset::make_spigots()  version=25dec2005  defined=2006-04-13 17:23'
p2114
sg169
g1180
sg171
g2095
sg172
S'MG_JEN_Cohset'
p2115
sg174
(dp2116
g2059
I00
sg1353
I00
ssg176
S'** Specific description of inarg record for: MG_JEN_Cohset::make_spigots()  version=25dec2005  defined=2006-04-13 17:23'
p2117
sg178
I00
sg179
(lp2118
g49
ag2097
ag2104
ag1353
ag2059
asg181
(dp2119
g2059
S'if True, insert a flagger for the input uv-data'
p2120
sg2104
S'correlations to be used: \n- [0,1,2,3]:   all corrs available, use all \n- [0,-1,-1,1]: only XX/YY (or RR/LL) available \n- [0,-1,-1,3]: all available, but use only XX/YY or RR/LL'
p2121
sg2097
S'name of the logical (VisTile) input column'
p2122
sg1353
S'if True, visualise the input uv-data'
p2123
ssg213
S'Make spigot nodes in the given Cohset object'
p2124
ssg2097
g2076
sg2104
(lp2125
I0
aI1
aI2
aI3
assg2051
(dp2126
S'[solve_imp]./MG_JEN_Cohset.Jones()'
p2127
(dp2128
S'[solve_imp]./MG_JEN_Joneset.FJones()'
p2129
(dp2130
g27
I00
sg2
S'@@polrep'
p2131
sg30
g31
sg32
I00
sg13
S'@@parmtable'
p2132
sg36
Nsg37
I10
sg38
g39
sg40
g41
sg44
g45
sg47
Nsg49
(dp2133
g51
S'MG_JEN_Joneset::FJones()'
p2134
sg53
g2129
sg56
(dp2135
g38
I01
sg2
I01
sg62
I01
sg40
I01
sg760
I01
sg30
I01
sg43
I01
sg44
I01
sg871
I01
sg47
I01
sg61
I01
sg13
I01
sg766
I01
sg767
I01
sg37
I01
sg36
I01
sg769
I01
ssg213
g992
sg68
g69
sg70
S'MG_JEN_Joneset::FJones()  version=16dec2005  defined=2006-04-13 17:23'
p2136
sg72
S'FJones'
p2137
sg74
(dp2138
g27
(lp2139
I01
aI00
aS'@@reset_funklet'
p2140
asg2
(lp2141
g3
ag775
ag2131
asg30
(lp2142
g31
aS'@@color'
p2143
asg32
(lp2144
I01
aI00
aS'@@save_all'
p2145
asg61
(lp2146
NaS'@@tfdeg'
p2147
asg36
(lp2148
NaS'@@unit'
p2149
asg37
(lp2150
I10
aS'@@size'
p2151
asg38
(lp2152
g39
aS'@@style'
p2153
asg40
(lp2154
g41
aS'@@descr'
p2155
asg44
(lp2156
g45
aS'@@condeq_corrs'
p2157
asg47
(lp2158
NaS'@@funklet_shape'
p2159
asg162
(lp2160
I01
aI00
aS'@@auto_save'
p2161
asg766
(lp2162
g1035
aS'@@@Jsequence_KJones'
p2163
asg769
(lp2164
g1035
aS'@@@Jsequence'
p2165
asg62
(lp2166
F1.0
aS'@@c00_default'
p2167
asg871
(lp2168
I00
aS'@@uvplane_effect'
p2169
asg760
(lp2170
(lp2171
I0
aI1
aI2
aI3
aI4
aa(lp2172
I0
aI1
aI2
aI3
aI4
aI5
aI6
aa(lp2173
I0
aI1
aI2
aI3
aI4
aI5
aI6
aI7
aI8
aI9
aI10
aI11
aI12
aI13
aa(lp2174
I0
aI1
aI2
aI3
aI4
aI5
aI6
aI7
aI8
aI9
aI10
aI11
aI12
aI13
aI14
aag818
aS'@@stations'
p2175
asS'tdeg_RM'
p2176
(lp2177
I0
aI1
aI2
aI3
aS'@@tdeg_RM'
p2178
asg153
(lp2179
I01
aI00
aS'@@use_previous'
p2180
asS'fdeg_RM'
p2181
(lp2182
I0
aI1
aI2
aI3
aS'@@fdeg_RM'
p2183
asg43
(lp2184
NaS'@@subtile_size'
p2185
asg13
(lp2186
Nag1156
ag2132
asS'subtile_size_RM'
p2187
(lp2188
NaI1
aI2
aI5
aI10
aI20
aI50
aI100
aI200
aI500
aS'@@subtile_size_RM'
p2189
asg767
(lp2190
g1035
aS'@@@Jsequence_simul'
p2191
assg66
S'solve_imp'
p2192
sg167
S'** Description of available inarg record(s) for: MG_JEN_Joneset::FJones()  version=16dec2005  defined=2006-04-13 17:23'
p2193
sg178
I00
sg171
S'2006-04-13 17:23'
p2194
sg169
g941
sg172
S'MG_JEN_Joneset'
p2195
sg174
(dp2196
g27
I00
sg32
I00
sg162
I00
sg153
I00
ssg176
S'** Specific description of inarg record for: MG_JEN_Joneset::FJones()  version=16dec2005  defined=2006-04-13 17:23'
p2197
sg844
(dp2198
g871
I00
sg13
I00
sg2
I00
sg760
I00
ssg54
g2194
sg179
(lp2199
g49
ag760
ag2
ag769
ag767
ag766
ag13
ag871
ag2176
ag2181
ag2187
ag153
ag162
ag32
ag27
ag40
ag36
ag30
ag38
ag37
ag62
ag61
ag47
ag43
ag44
asg181
(dp2200
g27
g184
sg2
g848
sg30
g187
sg32
g188
sg61
g211
sg36
g36
sg37
g192
sg38
g193
sg40
g194
sg44
g197
sg47
g199
sg162
g212
sg766
g858
sg769
g858
sg62
g204
sg871
g1197
sg760
g860
sg2176
S'degree of time polynomial'
p2201
sg153
g209
sg2181
S'degree of freq polynomial'
p2202
sg43
g196
sg13
g1198
sg2187
S'sub-tile size (None=entire tile)'
p2203
sg767
g858
ssg64
S'MG_JEN_JonesetFJones'
p2204
ssg766
g1035
sg769
g1035
sg62
F1.0
sg871
g2169
sg760
g2175
sg2176
I0
sg153
I01
sg2181
I2
sg43
Nsg61
Nsg2187
I1
sg767
g1035
sg162
I00
ssg766
NsS'[solve_imp]./MG_JEN_Joneset.JJones()'
p2205
(dp2206
g27
I00
sg2
S'@@polrep'
p2207
sS'tdeg_Jreal'
p2208
I0
sg30
g31
sg32
I00
sg748
Nsg13
S'@@parmtable'
p2209
sS'subtile_size_Jreal'
p2210
Nsg36
Nsg37
I10
sg38
g39
sS'tdeg_Jimag'
p2211
S'@tdeg_Jreal'
p2212
sg40
g41
sg44
g45
sg47
Nsg49
(dp2213
g51
S'MG_JEN_Joneset::JJones()'
p2214
sg53
g2205
sg56
(dp2215
g38
I01
sg2
I01
sg62
I01
sg40
I01
sg760
I01
sg30
I01
sg43
I01
sg44
I01
sg871
I01
sg47
I01
sg61
I01
sg13
I01
sg766
I01
sg767
I01
sg37
I01
sg36
I01
sg769
I01
ssg213
g770
sg68
g69
sg70
S'MG_JEN_Joneset::JJones()  version=14feb2006  defined=2006-04-13 17:23'
p2216
sg72
S'JJones'
p2217
sg74
(dp2218
g27
(lp2219
I01
aI00
aS'@@reset_funklet'
p2220
asg2
(lp2221
g3
ag775
ag2207
asg2208
(lp2222
I0
aI1
aI2
aI3
aS'@@tdeg_Jreal'
p2223
asg30
(lp2224
g31
aS'@@color'
p2225
asg32
(lp2226
I01
aI00
aS'@@save_all'
p2227
asg748
(lp2228
Na(lp2229
I14
aa(lp2230
I1
aag785
aS'@@all4_always'
p2231
asg13
(lp2232
Nag1156
ag2209
asg2210
(lp2233
NaI1
aI2
aI5
aI10
aI20
aI50
aI100
aI200
aI500
aS'@@subtile_size_Jreal'
p2234
asg36
(lp2235
NaS'@@unit'
p2236
asg37
(lp2237
I10
aS'@@size'
p2238
asg38
(lp2239
g39
aS'@@style'
p2240
asg2211
(lp2241
I0
aI1
aI2
aI3
ag2212
aS'@@tdeg_Jimag'
p2242
asg40
(lp2243
g41
aS'@@descr'
p2244
asg44
(lp2245
g45
aS'@@condeq_corrs'
p2246
asg47
(lp2247
NaS'@@funklet_shape'
p2248
asg162
(lp2249
I01
aI00
aS'@@auto_save'
p2250
asg766
(lp2251
g806
aS'@@@Jsequence_KJones'
p2252
asS'fdeg_Jreal'
p2253
(lp2254
I0
aI1
aI2
aI3
aS'@@fdeg_Jreal'
p2255
asg62
(lp2256
F1.0
aS'@@c00_default'
p2257
asg871
(lp2258
I00
aS'@@uvplane_effect'
p2259
asS'fdeg_Jimag'
p2260
(lp2261
I0
aI1
aI2
aI3
aS'@fdeg_Jreal'
p2262
aS'@@fdeg_Jimag'
p2263
asS'subtile_size_Jimag'
p2264
(lp2265
S'@subtile_size_Jreal'
p2266
aNaI1
aI2
aI5
aI10
aI20
aI50
aI100
aI200
aI500
aS'@@subtile_size_Jimag'
p2267
asg760
(lp2268
(lp2269
I0
aI1
aI2
aI3
aI4
aa(lp2270
I0
aI1
aI2
aI3
aI4
aI5
aI6
aa(lp2271
I0
aI1
aI2
aI3
aI4
aI5
aI6
aI7
aI8
aI9
aI10
aI11
aI12
aI13
aa(lp2272
I0
aI1
aI2
aI3
aI4
aI5
aI6
aI7
aI8
aI9
aI10
aI11
aI12
aI13
aI14
aag818
aS'@@stations'
p2273
asg820
(lp2274
I01
aI00
aS'@@diagonal_only'
p2275
asg153
(lp2276
I01
aI00
aS'@@use_previous'
p2277
asg43
(lp2278
NaS'@@subtile_size'
p2279
asg61
(lp2280
NaS'@@tfdeg'
p2281
asg767
(lp2282
g806
aS'@@@Jsequence_simul'
p2283
asg769
(lp2284
g806
aS'@@@Jsequence'
p2285
assg66
g2192
sg167
S'** Description of available inarg record(s) for: MG_JEN_Joneset::JJones()  version=14feb2006  defined=2006-04-13 17:23'
p2286
sg178
I00
sg171
S'2006-04-13 17:23'
p2287
sg169
g840
sg172
S'MG_JEN_Joneset'
p2288
sg174
(dp2289
g27
I00
sg820
I00
sg32
I00
sg162
I00
sg153
I00
ssg176
S'** Specific description of inarg record for: MG_JEN_Joneset::JJones()  version=14feb2006  defined=2006-04-13 17:23'
p2290
sg844
(dp2291
g871
I00
sg13
I00
sg2
I00
sg760
I00
ssg54
g2287
sg179
(lp2292
g49
ag760
ag2
ag769
ag767
ag766
ag820
ag748
ag13
ag871
ag2208
ag2211
ag2253
ag2260
ag2210
ag2264
ag153
ag162
ag32
ag27
ag40
ag36
ag30
ag38
ag37
ag62
ag61
ag47
ag43
ag44
asg181
(dp2293
g27
g184
sg2
g848
sg2208
S'degree of time polynomial'
p2294
sg30
g187
sg32
g188
sg748
g851
sg13
g1198
sg2210
S'sub-tile size (None=entire tile)'
p2295
sg36
g36
sg37
g192
sg38
g193
sg2211
g2294
sg40
g194
sg44
g197
sg47
g199
sg162
g212
sg766
g858
sg2253
S'degree of freq polynomial'
p2296
sg62
g204
sg871
g1197
sg2260
g2296
sg2264
g2295
sg760
g860
sg820
g861
sg153
g209
sg43
g196
sg61
g211
sg767
g858
sg769
g858
ssg64
S'MG_JEN_JonesetJJones'
p2297
ssg766
g806
sg2253
I0
sg62
F1.0
sg871
g2259
sg2260
g2262
sg2264
g2266
sg760
g2273
sg820
I00
sg153
I01
sg43
Nsg61
Nsg767
g806
sg769
g806
sg162
I00
ssg760
S'@@stations'
p2298
sS'[solve_imp]./MG_JEN_Joneset.BJones()'
p2299
(dp2300
g27
I00
sg2
S'@@polrep'
p2301
sg30
g31
sS'subtile_size_Bimag'
p2302
S'@subtile_size_Breal'
p2303
sg32
I00
sS'subtile_size_Breal'
p2304
Nsg36
Nsg37
I10
sg38
g39
sg40
g41
sS'fdeg_Breal'
p2305
I5
sg44
g45
sg47
Nsg49
(dp2306
g51
S'MG_JEN_Joneset::BJones()'
p2307
sg53
g2299
sg56
(dp2308
g38
I01
sg2
I01
sg62
I01
sg40
I01
sg760
I01
sg30
I01
sg43
I01
sg44
I01
sg871
I01
sg47
I01
sg61
I01
sg13
I01
sg766
I01
sg767
I01
sg37
I01
sg36
I01
sg769
I01
ssg213
g883
sg68
g69
sg70
S'MG_JEN_Joneset::BJones()  version=16dec2005  defined=2006-04-13 17:23'
p2309
sg72
S'BJones'
p2310
sg74
(dp2311
g27
(lp2312
I01
aI00
aS'@@reset_funklet'
p2313
asg2
(lp2314
g3
ag775
ag2301
asg30
(lp2315
g31
aS'@@color'
p2316
asg2302
(lp2317
g2303
aNaI1
aI2
aI5
aI10
aI20
aI50
aI100
aI200
aI500
aS'@@subtile_size_Bimag'
p2318
asg32
(lp2319
I01
aI00
aS'@@save_all'
p2320
asg2304
(lp2321
NaI1
aI2
aI5
aI10
aI20
aI50
aI100
aI200
aI500
aS'@@subtile_size_Breal'
p2322
asg36
(lp2323
NaS'@@unit'
p2324
asg37
(lp2325
I10
aS'@@size'
p2326
asg38
(lp2327
g39
aS'@@style'
p2328
asg40
(lp2329
g41
aS'@@descr'
p2330
asg2305
(lp2331
I3
aI4
aI5
aI6
aS'@@fdeg_Breal'
p2332
asg44
(lp2333
g45
aS'@@condeq_corrs'
p2334
asg47
(lp2335
NaS'@@funklet_shape'
p2336
asg162
(lp2337
I01
aI00
aS'@@auto_save'
p2338
asg766
(lp2339
g926
aS'@@@Jsequence_KJones'
p2340
asS'tdeg_Bimag'
p2341
(lp2342
I0
aI1
aI2
aI3
aS'@tdeg_Breal'
p2343
aS'@@tdeg_Bimag'
p2344
asg769
(lp2345
g926
aS'@@@Jsequence'
p2346
asg62
(lp2347
F1.0
aS'@@c00_default'
p2348
asS'fdeg_Bimag'
p2349
(lp2350
I3
aI4
aI5
aI6
aS'@fdeg_Breal'
p2351
aS'@@fdeg_Bimag'
p2352
asg871
(lp2353
I00
aS'@@uvplane_effect'
p2354
asg760
(lp2355
(lp2356
I0
aI1
aI2
aI3
aI4
aa(lp2357
I0
aI1
aI2
aI3
aI4
aI5
aI6
aa(lp2358
I0
aI1
aI2
aI3
aI4
aI5
aI6
aI7
aI8
aI9
aI10
aI11
aI12
aI13
aa(lp2359
I0
aI1
aI2
aI3
aI4
aI5
aI6
aI7
aI8
aI9
aI10
aI11
aI12
aI13
aI14
aag818
aS'@@stations'
p2360
asg61
(lp2361
NaS'@@tfdeg'
p2362
asS'tdeg_Breal'
p2363
(lp2364
I0
aI1
aI2
aI3
aS'@@tdeg_Breal'
p2365
asg153
(lp2366
I01
aI00
aS'@@use_previous'
p2367
asg43
(lp2368
NaS'@@subtile_size'
p2369
asg13
(lp2370
Nag1156
aS'@@parmtable'
p2371
asg767
(lp2372
g926
aS'@@@Jsequence_simul'
p2373
assg66
g2192
sg167
S'** Description of available inarg record(s) for: MG_JEN_Joneset::BJones()  version=16dec2005  defined=2006-04-13 17:23'
p2374
sg178
I00
sg171
S'2006-04-13 17:23'
p2375
sg169
g941
sg172
S'MG_JEN_Joneset'
p2376
sg174
(dp2377
g27
I00
sg32
I00
sg162
I00
sg153
I00
ssg176
S'** Specific description of inarg record for: MG_JEN_Joneset::BJones()  version=16dec2005  defined=2006-04-13 17:23'
p2378
sg844
(dp2379
g871
I00
sg13
I00
sg2
I00
sg760
I00
ssg54
g2375
sg179
(lp2380
g49
ag760
ag2
ag769
ag767
ag766
ag13
ag871
ag2363
ag2341
ag2305
ag2349
ag2304
ag2302
ag153
ag162
ag32
ag27
ag40
ag36
ag30
ag38
ag37
ag62
ag61
ag47
ag43
ag44
asg181
(dp2381
g27
g184
sg2
g848
sg30
g187
sg2302
S'sub-tile size (None=entire tile)'
p2382
sg32
g188
sg2304
g2382
sg36
g36
sg37
g192
sg38
g193
sg40
g194
sg2305
S'degree of freq polynomial'
p2383
sg44
g197
sg47
g199
sg162
g212
sg766
g858
sg2341
S'degree of time polynomial'
p2384
sg769
g858
sg62
g204
sg2349
g2383
sg871
g1197
sg760
g860
sg61
g211
sg2363
g2384
sg153
g209
sg43
g196
sg13
g1198
sg767
g858
ssg64
S'MG_JEN_JonesetBJones'
p2385
ssg766
g926
sg2341
g2343
sg769
g926
sg62
F1.0
sg2349
g2351
sg871
g2354
sg760
g2360
sg61
Nsg2363
I0
sg153
I01
sg43
Nsg13
g2371
sg767
g926
sg162
I00
ssS'[solve_imp]./MG_JEN_Joneset.DJones_WSRT()'
p2386
(dp2387
g27
I00
sg2
S'@@polrep'
p2388
sg30
g31
sS'fdeg_Dell'
p2389
S'@fdeg_Dang'
p2390
sg1061
I01
sg32
I00
sg36
Nsg13
S'@@parmtable'
p2391
sS'subtile_size_Dang'
p2392
Nsg162
I00
sg37
I10
sg38
g39
sg40
g41
sg44
g45
sg47
Nsg49
(dp2393
g51
S'MG_JEN_Joneset::DJones_WSRT()'
p2394
sg53
g2386
sg56
(dp2395
g38
I01
sg2
I01
sg62
I01
sg40
I01
sg760
I01
sg30
I01
sg43
I01
sg44
I01
sg871
I01
sg47
I01
sg61
I01
sg13
I01
sg766
I01
sg767
I01
sg37
I01
sg36
I01
sg769
I01
ssg213
g1068
sg68
g69
sg70
S'MG_JEN_Joneset::DJones_WSRT()  version=16dec2005  defined=2006-04-13 17:23'
p2396
sg72
S'DJones_WSRT'
p2397
sg74
(dp2398
g27
(lp2399
I01
aI00
aS'@@reset_funklet'
p2400
asg2
(lp2401
g3
ag775
ag2388
asg30
(lp2402
g31
aS'@@color'
p2403
asg2389
(lp2404
I0
aI1
aI2
aI3
ag2390
aS'@@fdeg_Dell'
p2405
asg1061
(lp2406
I01
aI00
aS'@@coupled_XY_Dell'
p2407
asg32
(lp2408
I01
aI00
aS'@@save_all'
p2409
asg13
(lp2410
Nag1156
ag2391
asg2392
(lp2411
NaI1
aI2
aI5
aI10
aI20
aI50
aI100
aI200
aI500
aS'@@subtile_size_Dang'
p2412
asg36
(lp2413
NaS'@@unit'
p2414
asg37
(lp2415
I10
aS'@@size'
p2416
asg38
(lp2417
g39
aS'@@style'
p2418
asg40
(lp2419
g41
aS'@@descr'
p2420
asg44
(lp2421
g45
aS'@@condeq_corrs'
p2422
asg47
(lp2423
NaS'@@funklet_shape'
p2424
asg162
(lp2425
I01
aI00
aS'@@auto_save'
p2426
asg766
(lp2427
g1099
aS'@@@Jsequence_KJones'
p2428
asS'subtile_size_Dell'
p2429
(lp2430
S'@subtile_size_Dang'
p2431
aNaI1
aI2
aI5
aI10
aI20
aI50
aI100
aI200
aI500
aS'@@subtile_size_Dell'
p2432
asg769
(lp2433
g1099
aS'@@@Jsequence'
p2434
asS'fdeg_Dang'
p2435
(lp2436
I0
aI1
aI2
aI3
aS'@@fdeg_Dang'
p2437
asg62
(lp2438
F1.0
aS'@@c00_default'
p2439
asg871
(lp2440
I00
aS'@@uvplane_effect'
p2441
asS'tdeg_Dell'
p2442
(lp2443
I0
aI1
aI2
aI3
aS'@tdeg_Dang'
p2444
aS'@@tdeg_Dell'
p2445
asg1103
(lp2446
I01
aI00
aS'@@coupled_XY_Dang'
p2447
asS'tdeg_Dang'
p2448
(lp2449
I0
aI1
aI2
aI3
aS'@@tdeg_Dang'
p2450
asg760
(lp2451
(lp2452
I0
aI1
aI2
aI3
aI4
aa(lp2453
I0
aI1
aI2
aI3
aI4
aI5
aI6
aa(lp2454
I0
aI1
aI2
aI3
aI4
aI5
aI6
aI7
aI8
aI9
aI10
aI11
aI12
aI13
aa(lp2455
I0
aI1
aI2
aI3
aI4
aI5
aI6
aI7
aI8
aI9
aI10
aI11
aI12
aI13
aI14
aag818
aS'@@stations'
p2456
asg153
(lp2457
I01
aI00
aS'@@use_previous'
p2458
asg43
(lp2459
NaS'@@subtile_size'
p2460
asg61
(lp2461
NaS'@@tfdeg'
p2462
asg767
(lp2463
g1099
aS'@@@Jsequence_simul'
p2464
assg66
g2192
sg167
S'** Description of available inarg record(s) for: MG_JEN_Joneset::DJones_WSRT()  version=16dec2005  defined=2006-04-13 17:23'
p2465
sg178
I00
sg171
S'2006-04-13 17:23'
p2466
sg169
g941
sg172
S'MG_JEN_Joneset'
p2467
sg174
(dp2468
g27
I00
sg1061
I00
sg32
I00
sg1103
I00
sg153
I00
sg162
I00
ssg176
S'** Specific description of inarg record for: MG_JEN_Joneset::DJones_WSRT()  version=16dec2005  defined=2006-04-13 17:23'
p2469
sg844
(dp2470
g871
I00
sg13
I00
sg2
I00
sg760
I00
ssg54
g2466
sg179
(lp2471
g49
ag760
ag2
ag769
ag767
ag766
ag1103
ag1061
ag13
ag871
ag2448
ag2442
ag2435
ag2389
ag2392
ag2429
ag153
ag162
ag32
ag27
ag40
ag36
ag30
ag38
ag37
ag62
ag61
ag47
ag43
ag44
asg181
(dp2472
g27
g184
sg2
g848
sg30
g187
sg2389
S'degree of freq polynomial'
p2473
sg1061
g1137
sg32
g188
sg13
g1198
sg2392
S'sub-tile size (None=entire tile)'
p2474
sg36
g36
sg37
g192
sg38
g193
sg40
g194
sg44
g197
sg47
g199
sg162
g212
sg766
g858
sg2429
g2474
sg769
g858
sg2435
g2473
sg62
g204
sg871
g1197
sg2442
S'degree of time polynomial'
p2475
sg1103
g1138
sg2448
g2475
sg760
g860
sg153
g209
sg43
g196
sg61
g211
sg767
g858
ssg64
S'MG_JEN_JonesetDJones_WSRT'
p2476
ssg766
g1099
sg2429
g2431
sg769
g1099
sg2435
I0
sg62
F1.0
sg871
g2441
sg2442
g2444
sg1103
I01
sg2448
I0
sg760
g2456
sg153
I01
sg43
Nsg61
Nsg767
g1099
ssg871
S'@@uvplane_effect'
p2477
sg13
S'@@parmtable'
p2478
sg49
(dp2479
g51
g1141
sg53
g2127
sg56
(dp2480
g2
I01
sg760
I01
sg871
I01
sg13
I01
sg766
I01
sg767
I01
sg769
I01
ssg64
S'MG_JEN_CohsetJones'
p2481
sg68
g69
sg213
g1144
sg70
S'MG_JEN_Cohset::Jones()  version=25dec2005  defined=2006-04-13 17:23'
p2482
sg72
S'Jones'
p2483
sg74
(dp2484
g2
(lp2485
g3
ag775
aS'@@polrep'
p2486
asg760
(lp2487
(lp2488
I0
aI1
aI2
aI3
aI4
aa(lp2489
I0
aI1
aI2
aI3
aI4
aI5
aI6
aa(lp2490
I0
aI1
aI2
aI3
aI4
aI5
aI6
aI7
aI8
aI9
aI10
aI11
aI12
aI13
aa(lp2491
I0
aI1
aI2
aI3
aI4
aI5
aI6
aI7
aI8
aI9
aI10
aI11
aI12
aI13
aI14
aag818
ag2298
asg871
(lp2492
I00
ag2477
asg13
(lp2493
Nag1156
ag2478
asg766
(lp2494
NaS'@@@Jsequence_KJones'
p2495
asg767
(lp2496
NaS'@@@Jsequence_simul'
p2497
asg1161
(lp2498
(lp2499
g1164
aa(lp2500
g926
aa(lp2501
g1035
aa(lp2502
g961
aa(lp2503
g1099
aa(lp2504
g1164
ag1099
aa(lp2505
g1171
aa(lp2506
g1164
ag1171
aa(lp2507
g806
aa(lp2508
aS'@@Jsequence'
p2509
asg769
(lp2510
NaS'@@@Jsequence'
p2511
assg66
g2192
sg167
S'** Description of available inarg record(s) for: MG_JEN_Cohset::Jones()  version=25dec2005  defined=2006-04-13 17:23'
p2512
sg178
I00
sg171
S'2006-04-13 17:23'
p2513
sg169
g1180
sg172
S'MG_JEN_Cohset'
p2514
sg176
S'** Specific description of inarg record for: MG_JEN_Cohset::Jones()  version=25dec2005  defined=2006-04-13 17:23'
p2515
sg225
(dp2516
g355
S'** JEN_inarg.attach(): attached: [solve_imp]./MG_JEN_Joneset.FJones()'
p2517
sg227
S'** JEN_inarg.attach(): attached: [solve_imp]./MG_JEN_Joneset.GJones()'
p2518
sg405
S'** JEN_inarg.attach(): attached: [solve_imp]./MG_JEN_Joneset.KJones()'
p2519
sg407
S'** JEN_inarg.attach(): attached: [solve_imp]./MG_JEN_Joneset.BJones()'
p2520
sg409
S'** JEN_inarg.attach(): attached: [solve_imp]./MG_JEN_Joneset.EJones_WSRT()'
p2521
sg411
S'** JEN_inarg.attach(): attached: [solve_imp]./MG_JEN_Joneset.DJones_WSRT()'
p2522
sg1740
S"  2: ....[solve_imp]./MG_JEN_Cohset.Jones() (qual=solve_imp): .modify(Jsequence):   []  ->  ['EJones_WSRT']"
p2523
sg1190
S'** JEN_inarg.attach(): attached: [solve_imp]./MG_JEN_Joneset.JJones()'
p2524
ssg54
g2513
sg844
(dp2525
g871
I00
sg13
I00
sg2
I00
sg760
I00
ssg179
(lp2526
g49
ag760
ag2
ag769
ag767
ag766
ag13
ag871
ag1161
aS'[solve_imp]./MG_JEN_Joneset.GJones()'
p2527
ag2129
ag2299
aS'[solve_imp]./MG_JEN_Joneset.KJones()'
p2528
ag2386
aS'[solve_imp]./MG_JEN_Joneset.EJones_WSRT()'
p2529
ag2205
asg181
(dp2530
g2
g848
sg760
g860
sg871
g1197
sg13
g1198
sg766
g858
sg767
g858
sg1161
g1199
sg769
g858
sssg2527
(dp2531
g27
I00
sg2
S'@@polrep'
p2532
sS'fdeg_Ggain'
p2533
I0
sg30
g31
sg32
I00
sg13
S'@@parmtable'
p2534
sg36
Nsg37
I10
sg38
g39
sg40
g41
sS'subtile_size_Ggain'
p2535
I1
sg44
g45
sg47
Nsg49
(dp2536
g51
S'MG_JEN_Joneset::GJones()'
p2537
sg53
g2527
sg56
(dp2538
g37
I01
sg38
I01
sg2
I01
sg62
I01
sg40
I01
sg760
I01
sg30
I01
sg43
I01
sg44
I01
sg871
I01
sg47
I01
sg61
I01
sg13
I01
sg766
I01
sg767
I01
sg1210
I01
sg36
I01
sg769
I01
ssg213
g1211
sg68
g69
sg70
S'MG_JEN_Joneset::GJones()  version=15dec2005  defined=2006-04-13 17:23'
p2539
sg72
S'GJones'
p2540
sg74
(dp2541
g27
(lp2542
I01
aI00
aS'@@reset_funklet'
p2543
asg2
(lp2544
g3
ag775
ag2532
asg2533
(lp2545
I0
aI1
aI2
aI3
aS'@@fdeg_Ggain'
p2546
asg30
(lp2547
g31
aS'@@color'
p2548
asg32
(lp2549
I01
aI00
aS'@@save_all'
p2550
asg13
(lp2551
Nag1156
ag2534
asg36
(lp2552
NaS'@@unit'
p2553
asg37
(lp2554
I10
aS'@@size'
p2555
asg38
(lp2556
g39
aS'@@style'
p2557
asg40
(lp2558
g41
aS'@@descr'
p2559
asg2535
(lp2560
NaI1
aI2
aI5
aI10
aI20
aI50
aI100
aI200
aI500
aS'@@subtile_size_Ggain'
p2561
asg44
(lp2562
g45
aS'@@condeq_corrs'
p2563
asg47
(lp2564
NaS'@@funklet_shape'
p2565
asg162
(lp2566
I01
aI00
aS'@@auto_save'
p2567
asg766
(lp2568
g1164
aS'@@@Jsequence_KJones'
p2569
asg769
(lp2570
g1164
aS'@@@Jsequence'
p2571
asg62
(lp2572
F1.0
aS'@@c00_default'
p2573
asS'tdeg_Gphase'
p2574
(lp2575
I0
aI1
aI2
aI3
aS'@tdeg_Ggain'
p2576
aS'@@tdeg_Gphase'
p2577
asS'tdeg_Ggain'
p2578
(lp2579
I0
aI1
aI2
aI3
aS'@@tdeg_Ggain'
p2580
asS'fdeg_Gphase'
p2581
(lp2582
I0
aI1
aI2
aI3
aS'@fdeg_Ggain'
p2583
aS'@@fdeg_Gphase'
p2584
asS'subtile_size_Gphase'
p2585
(lp2586
S'@subtile_size_Ggain'
p2587
aNaI1
aI2
aI5
aI10
aI20
aI50
aI100
aI200
aI500
aS'@@subtile_size_Gphase'
p2588
asg1210
(lp2589
I01
aI00
aS'@@Gpolar'
p2590
asg871
(lp2591
I00
aS'@@uvplane_effect'
p2592
asg760
(lp2593
(lp2594
I0
aI1
aI2
aI3
aI4
aa(lp2595
I0
aI1
aI2
aI3
aI4
aI5
aI6
aa(lp2596
I0
aI1
aI2
aI3
aI4
aI5
aI6
aI7
aI8
aI9
aI10
aI11
aI12
aI13
aa(lp2597
I0
aI1
aI2
aI3
aI4
aI5
aI6
aI7
aI8
aI9
aI10
aI11
aI12
aI13
aI14
aag818
aS'@@stations'
p2598
asg153
(lp2599
I01
aI00
aS'@@use_previous'
p2600
asg43
(lp2601
NaS'@@subtile_size'
p2602
asg61
(lp2603
NaS'@@tfdeg'
p2604
asg767
(lp2605
g1164
aS'@@@Jsequence_simul'
p2606
assg66
g2192
sg167
S'** Description of available inarg record(s) for: MG_JEN_Joneset::GJones()  version=15dec2005  defined=2006-04-13 17:23'
p2607
sg178
I00
sg171
S'2006-04-13 17:23'
p2608
sg169
g1270
sg172
S'MG_JEN_Joneset'
p2609
sg174
(dp2610
g27
I00
sg1210
I00
sg32
I00
sg162
I00
sg153
I00
ssg176
S'** Specific description of inarg record for: MG_JEN_Joneset::GJones()  version=15dec2005  defined=2006-04-13 17:23'
p2611
sg844
(dp2612
g871
I00
sg13
I00
sg2
I00
sg760
I00
ssg54
g2608
sg179
(lp2613
g49
ag760
ag2
ag769
ag767
ag766
ag1210
ag13
ag871
ag2578
ag2574
ag2533
ag2581
ag2535
ag2585
ag153
ag162
ag32
ag27
ag40
ag36
ag30
ag38
ag37
ag62
ag61
ag47
ag43
ag44
asg181
(dp2614
g27
g184
sg2
g848
sg2533
S'degree of freq polynomial'
p2615
sg30
g187
sg32
g188
sg13
g1198
sg36
g36
sg37
g192
sg38
g193
sg40
g194
sg2535
S'sub-tile size (None=entire tile)'
p2616
sg44
g197
sg47
g199
sg162
g212
sg766
g858
sg769
g858
sg62
g204
sg2574
S'degree of time polynomial'
p2617
sg2578
g2617
sg2581
g2615
sg2585
g2616
sg1210
g1277
sg871
g1197
sg760
g860
sg153
g209
sg43
g196
sg61
g211
sg767
g858
ssg64
S'MG_JEN_JonesetGJones'
p2618
ssg766
g1164
sg769
g1164
sg62
F1.0
sg2574
g2576
sg2578
I0
sg2581
g2583
sg2585
g2587
sg1210
I01
sg871
g2592
sg760
g2598
sg153
I01
sg43
Nsg61
Nsg767
g1164
sg162
I00
ssg2
g2486
sg767
Nsg2528
(dp2619
g2
S'@@polrep'
p2620
sg760
S'@@stations'
p2621
sg49
(dp2622
g51
S'MG_JEN_Joneset::KJones()'
p2623
sg53
g2528
sg56
(dp2624
g766
I01
sg767
I01
sg769
I01
sg2
I01
sg760
I01
ssg213
g956
sg68
g69
sg70
S'MG_JEN_Joneset::KJones()  version=12dec2005  defined=2006-04-13 17:23'
p2625
sg72
S'KJones'
p2626
sg74
(dp2627
g766
(lp2628
g961
aS'@@@Jsequence_KJones'
p2629
asg767
(lp2630
g961
aS'@@@Jsequence_simul'
p2631
asg769
(lp2632
g961
aS'@@@Jsequence'
p2633
asg2
(lp2634
g3
ag775
ag2620
asg760
(lp2635
(lp2636
I0
aI1
aI2
aI3
aI4
aa(lp2637
I0
aI1
aI2
aI3
aI4
aI5
aI6
aa(lp2638
I0
aI1
aI2
aI3
aI4
aI5
aI6
aI7
aI8
aI9
aI10
aI11
aI12
aI13
aa(lp2639
I0
aI1
aI2
aI3
aI4
aI5
aI6
aI7
aI8
aI9
aI10
aI11
aI12
aI13
aI14
aag818
ag2621
assg66
g2192
sg167
S'** Description of available inarg record(s) for: MG_JEN_Joneset::KJones()  version=12dec2005  defined=2006-04-13 17:23'
p2640
sg178
I00
sg171
S'2006-04-13 17:23'
p2641
sg169
g975
sg172
S'MG_JEN_Joneset'
p2642
sg176
S'** Specific description of inarg record for: MG_JEN_Joneset::KJones()  version=12dec2005  defined=2006-04-13 17:23'
p2643
sg844
(dp2644
g2
I00
sg760
I00
ssg54
g2641
sg179
(lp2645
g49
ag760
ag2
ag769
ag767
ag766
asg181
(dp2646
g766
g858
sg767
g858
sg769
g858
sg2
g848
sg760
g860
ssg64
S'MG_JEN_JonesetKJones'
p2647
ssg766
g961
sg767
g961
sg769
g961
ssg1161
(lp2648
g1171
asg2529
(dp2649
g27
I00
sg2
S'@@polrep'
p2650
sg30
g31
sg32
I00
sg36
Nsg13
S'@@parmtable'
p2651
sg162
I00
sg37
I10
sS'tdeg_Edl'
p2652
I0
sS'tdeg_Edm'
p2653
S'@tdeg_Edl'
p2654
sg38
g39
sg40
g41
sg43
Nsg44
g45
sg47
Nsg49
(dp2655
g51
S'MG_JEN_Joneset::EJones_WSRT()'
p2656
sg53
g2529
sg56
(dp2657
g38
I01
sg2
I01
sg62
I01
sg40
I01
sg760
I01
sg30
I01
sg43
I01
sg44
I01
sg871
I01
sg47
I01
sg61
I01
sg13
I01
sg766
I01
sg767
I01
sg37
I01
sg36
I01
sg769
I01
ssg213
g1288
sg68
g69
sg70
S'MG_JEN_Joneset::EJones_WSRT()  version=15dec2005  defined=2006-04-13 17:23'
p2658
sg72
S'EJones_WSRT'
p2659
sg74
(dp2660
g27
(lp2661
I01
aI00
aS'@@reset_funklet'
p2662
asg2
(lp2663
g3
ag775
ag2650
asg30
(lp2664
g31
aS'@@color'
p2665
asg32
(lp2666
I01
aI00
aS'@@save_all'
p2667
asg13
(lp2668
Nag1156
ag2651
asg36
(lp2669
NaS'@@unit'
p2670
asg37
(lp2671
I10
aS'@@size'
p2672
asg2652
(lp2673
I0
aI1
aI2
aI3
aS'@@tdeg_Edl'
p2674
asg2653
(lp2675
I0
aI1
aI2
aI3
ag2654
aS'@@tdeg_Edm'
p2676
asg38
(lp2677
g39
aS'@@style'
p2678
asg40
(lp2679
g41
aS'@@descr'
p2680
asg43
(lp2681
NaS'@@subtile_size'
p2682
asg44
(lp2683
g45
aS'@@condeq_corrs'
p2684
asg47
(lp2685
NaS'@@funklet_shape'
p2686
asg162
(lp2687
I01
aI00
aS'@@auto_save'
p2688
asg766
(lp2689
g1171
aS'@@@Jsequence_KJones'
p2690
asg769
(lp2691
g1171
aS'@@@Jsequence'
p2692
asg62
(lp2693
F1.0
aS'@@c00_default'
p2694
asg871
(lp2695
I00
aS'@@uvplane_effect'
p2696
asg760
(lp2697
(lp2698
I0
aI1
aI2
aI3
aI4
aa(lp2699
I0
aI1
aI2
aI3
aI4
aI5
aI6
aa(lp2700
I0
aI1
aI2
aI3
aI4
aI5
aI6
aI7
aI8
aI9
aI10
aI11
aI12
aI13
aa(lp2701
I0
aI1
aI2
aI3
aI4
aI5
aI6
aI7
aI8
aI9
aI10
aI11
aI12
aI13
aI14
aag818
aS'@@stations'
p2702
asg61
(lp2703
NaS'@@tfdeg'
p2704
asg153
(lp2705
I01
aI00
aS'@@use_previous'
p2706
asS'subtile_size_Edl'
p2707
(lp2708
NaI1
aI2
aI5
aI10
aI20
aI50
aI100
aI200
aI500
aS'@@subtile_size_Edl'
p2709
asS'subtile_size_Edm'
p2710
(lp2711
S'@subtile_size_Edl'
p2712
aNaI1
aI2
aI5
aI10
aI20
aI50
aI100
aI200
aI500
aS'@@subtile_size_Edm'
p2713
asg767
(lp2714
g1171
aS'@@@Jsequence_simul'
p2715
asS'fdeg_Edl'
p2716
(lp2717
I0
aI1
aI2
aI3
aS'@@fdeg_Edl'
p2718
asS'fdeg_Edm'
p2719
(lp2720
I0
aI1
aI2
aI3
aS'@fdeg_Edl'
p2721
aS'@@fdeg_Edm'
p2722
assg66
g2192
sg167
S'** Description of available inarg record(s) for: MG_JEN_Joneset::EJones_WSRT()  version=15dec2005  defined=2006-04-13 17:23'
p2723
sg178
I00
sg171
S'2006-04-13 17:23'
p2724
sg169
g1270
sg172
S'MG_JEN_Joneset'
p2725
sg174
(dp2726
g27
I00
sg32
I00
sg162
I00
sg153
I00
ssg176
S'** Specific description of inarg record for: MG_JEN_Joneset::EJones_WSRT()  version=15dec2005  defined=2006-04-13 17:23'
p2727
sg844
(dp2728
g871
I00
sg13
I00
sg2
I00
sg760
I00
ssg54
g2724
sg179
(lp2729
g49
ag760
ag2
ag769
ag767
ag766
ag13
ag871
ag2652
ag2653
ag2716
ag2719
ag2707
ag2710
ag153
ag162
ag32
ag27
ag40
ag36
ag30
ag38
ag37
ag62
ag61
ag47
ag43
ag44
asg181
(dp2730
g27
g184
sg2
g848
sg30
g187
sg32
g188
sg13
g1198
sg36
g36
sg37
g192
sg2652
S'degree of time polynomial'
p2731
sg2653
g2731
sg38
g193
sg40
g194
sg43
g196
sg44
g197
sg47
g199
sg162
g212
sg766
g858
sg769
g858
sg62
g204
sg871
g1197
sg760
g860
sg61
g211
sg153
g209
sg2707
S'sub-tile size (None=entire tile)'
p2732
sg2710
g2732
sg767
g858
sg2716
S'degree of freq polynomial'
p2733
sg2719
g2733
ssg64
S'MG_JEN_JonesetEJones_WSRT'
p2734
ssg766
g1171
sg769
g1171
sg62
F1.0
sg871
g2696
sg760
g2702
sg61
Nsg153
I01
sg2707
Nsg2710
g2712
sg767
g1171
sg2716
I0
sg2719
g2721
ssg769
Nssg2
S'@@polrep'
p2735
sg760
S'@@stations'
p2736
sg1353
I01
sg49
(dp2737
g53
g2051
sg181
(dp2738
g2
g848
sg760
g860
sg1353
g1356
sg1357
g1358
sg766
g858
sg767
g858
sg769
g858
ssg68
g69
sg172
S'MG_JEN_Cohset'
p2739
sg56
(dp2740
g766
I01
sg767
I01
sg769
I01
sg2
I01
sg760
I01
ssg169
g1361
sg844
(dp2741
g2
I00
sg760
I00
ssg213
g1363
sg174
(dp2742
g1353
I00
ssg70
S'MG_JEN_Cohset::predict_lsm()  version=20mar2006  defined=2006-04-13 17:23'
p2743
sg74
(dp2744
g2
(lp2745
g3
ag775
ag2735
asg760
(lp2746
(lp2747
I0
aI1
aI2
aI3
aI4
aa(lp2748
I0
aI1
aI2
aI3
aI4
aI5
aI6
aa(lp2749
I0
aI1
aI2
aI3
aI4
aI5
aI6
aI7
aI8
aI9
aI10
aI11
aI12
aI13
aa(lp2750
I0
aI1
aI2
aI3
aI4
aI5
aI6
aI7
aI8
aI9
aI10
aI11
aI12
aI13
aI14
aag818
ag2736
asg1353
(lp2751
I01
aI00
aS'@@visu'
p2752
asg1357
(lp2753
I1
aI2
aI3
aI5
aI10
aI20
aI100
aI1000
aI10000
aS'@@nr_lsm_sources'
p2754
asg766
(lp2755
NaS'@@@Jsequence_KJones'
p2756
asg767
(lp2757
NaS'@@@Jsequence_simul'
p2758
asg769
(lp2759
NaS'@@@Jsequence'
p2760
assg66
S'solve'
p2761
sg54
S'2006-04-13 17:23'
p2762
sg51
g1384
sg176
S'** Specific description of inarg record for: MG_JEN_Cohset::predict_lsm()  version=20mar2006  defined=2006-04-13 17:23'
p2763
sg64
S'MG_JEN_Cohsetpredict_lsm'
p2764
sg72
S'predict_lsm'
p2765
sg167
S'** Description of available inarg record(s) for: MG_JEN_Cohset::predict_lsm()  version=20mar2006  defined=2006-04-13 17:23'
p2766
sg178
I00
sg171
g2762
sg225
(dp2767
g355
S'** JEN_inarg.attach(): attached: [solve_uvp]./MG_JEN_Cohset.Jones()'
p2768
sg227
S'** JEN_inarg.attach(): attached: [solve_imp]./MG_JEN_Cohset.Jones()'
p2769
ssg179
(lp2770
g49
ag1357
ag1353
ag760
ag2
ag769
ag767
ag766
ag2127
aS'[solve_uvp]./MG_JEN_Cohset.Jones()'
p2771
assg2771
(dp2772
g766
Nsg2
S'@@polrep'
p2773
sg760
S'@@stations'
p2774
sg1161
(lp2775
sS'[solve_uvp]./MG_JEN_Joneset.KJones()'
p2776
(dp2777
g2
S'@@polrep'
p2778
sg760
S'@@stations'
p2779
sg49
(dp2780
g51
S'MG_JEN_Joneset::KJones()'
p2781
sg53
g2776
sg56
(dp2782
g766
I01
sg767
I01
sg769
I01
sg2
I01
sg760
I01
ssg213
g956
sg68
g69
sg70
S'MG_JEN_Joneset::KJones()  version=12dec2005  defined=2006-04-13 17:23'
p2783
sg72
S'KJones'
p2784
sg74
(dp2785
g766
(lp2786
g961
aS'@@@Jsequence_KJones'
p2787
asg767
(lp2788
g961
aS'@@@Jsequence_simul'
p2789
asg769
(lp2790
g961
aS'@@@Jsequence'
p2791
asg2
(lp2792
g3
ag775
ag2778
asg760
(lp2793
(lp2794
I0
aI1
aI2
aI3
aI4
aa(lp2795
I0
aI1
aI2
aI3
aI4
aI5
aI6
aa(lp2796
I0
aI1
aI2
aI3
aI4
aI5
aI6
aI7
aI8
aI9
aI10
aI11
aI12
aI13
aa(lp2797
I0
aI1
aI2
aI3
aI4
aI5
aI6
aI7
aI8
aI9
aI10
aI11
aI12
aI13
aI14
aag818
ag2779
assg66
S'solve_uvp'
p2798
sg167
S'** Description of available inarg record(s) for: MG_JEN_Joneset::KJones()  version=12dec2005  defined=2006-04-13 17:23'
p2799
sg178
I00
sg171
S'2006-04-13 17:23'
p2800
sg169
g975
sg172
S'MG_JEN_Joneset'
p2801
sg176
S'** Specific description of inarg record for: MG_JEN_Joneset::KJones()  version=12dec2005  defined=2006-04-13 17:23'
p2802
sg844
(dp2803
g2
I00
sg760
I00
ssg54
g2800
sg179
(lp2804
g49
ag760
ag2
ag769
ag767
ag766
asg181
(dp2805
g766
g858
sg767
g858
sg769
g858
sg2
g848
sg760
g860
ssg64
S'MG_JEN_JonesetKJones'
p2806
ssg766
g961
sg767
g961
sg769
g961
ssg871
S'@@uvplane_effect'
p2807
sg13
S'@@parmtable'
p2808
sS'[solve_uvp]./MG_JEN_Joneset.BJones()'
p2809
(dp2810
g27
I00
sg2
S'@@polrep'
p2811
sg30
g31
sg2302
g2303
sg32
I00
sg2304
Nsg36
Nsg37
I10
sg38
g39
sg40
g41
sg2305
I5
sg44
g45
sg47
Nsg49
(dp2812
g51
S'MG_JEN_Joneset::BJones()'
p2813
sg53
g2809
sg56
(dp2814
g38
I01
sg2
I01
sg62
I01
sg40
I01
sg760
I01
sg30
I01
sg43
I01
sg44
I01
sg871
I01
sg47
I01
sg61
I01
sg13
I01
sg766
I01
sg767
I01
sg37
I01
sg36
I01
sg769
I01
ssg213
g883
sg68
g69
sg70
S'MG_JEN_Joneset::BJones()  version=16dec2005  defined=2006-04-13 17:23'
p2815
sg72
S'BJones'
p2816
sg74
(dp2817
g27
(lp2818
I01
aI00
aS'@@reset_funklet'
p2819
asg2
(lp2820
g3
ag775
ag2811
asg30
(lp2821
g31
aS'@@color'
p2822
asg2302
(lp2823
g2303
aNaI1
aI2
aI5
aI10
aI20
aI50
aI100
aI200
aI500
aS'@@subtile_size_Bimag'
p2824
asg32
(lp2825
I01
aI00
aS'@@save_all'
p2826
asg2304
(lp2827
NaI1
aI2
aI5
aI10
aI20
aI50
aI100
aI200
aI500
aS'@@subtile_size_Breal'
p2828
asg36
(lp2829
NaS'@@unit'
p2830
asg37
(lp2831
I10
aS'@@size'
p2832
asg38
(lp2833
g39
aS'@@style'
p2834
asg40
(lp2835
g41
aS'@@descr'
p2836
asg2305
(lp2837
I3
aI4
aI5
aI6
aS'@@fdeg_Breal'
p2838
asg44
(lp2839
g45
aS'@@condeq_corrs'
p2840
asg47
(lp2841
NaS'@@funklet_shape'
p2842
asg162
(lp2843
I01
aI00
aS'@@auto_save'
p2844
asg766
(lp2845
g926
aS'@@@Jsequence_KJones'
p2846
asg2341
(lp2847
I0
aI1
aI2
aI3
ag2343
aS'@@tdeg_Bimag'
p2848
asg769
(lp2849
g926
aS'@@@Jsequence'
p2850
asg62
(lp2851
F1.0
aS'@@c00_default'
p2852
asg2349
(lp2853
I3
aI4
aI5
aI6
ag2351
aS'@@fdeg_Bimag'
p2854
asg871
(lp2855
I00
aS'@@uvplane_effect'
p2856
asg760
(lp2857
(lp2858
I0
aI1
aI2
aI3
aI4
aa(lp2859
I0
aI1
aI2
aI3
aI4
aI5
aI6
aa(lp2860
I0
aI1
aI2
aI3
aI4
aI5
aI6
aI7
aI8
aI9
aI10
aI11
aI12
aI13
aa(lp2861
I0
aI1
aI2
aI3
aI4
aI5
aI6
aI7
aI8
aI9
aI10
aI11
aI12
aI13
aI14
aag818
aS'@@stations'
p2862
asg61
(lp2863
NaS'@@tfdeg'
p2864
asg2363
(lp2865
I0
aI1
aI2
aI3
aS'@@tdeg_Breal'
p2866
asg153
(lp2867
I01
aI00
aS'@@use_previous'
p2868
asg43
(lp2869
NaS'@@subtile_size'
p2870
asg13
(lp2871
Nag1156
aS'@@parmtable'
p2872
asg767
(lp2873
g926
aS'@@@Jsequence_simul'
p2874
assg66
g2798
sg167
S'** Description of available inarg record(s) for: MG_JEN_Joneset::BJones()  version=16dec2005  defined=2006-04-13 17:23'
p2875
sg178
I00
sg171
S'2006-04-13 17:23'
p2876
sg169
g941
sg172
S'MG_JEN_Joneset'
p2877
sg174
(dp2878
g27
I00
sg32
I00
sg162
I00
sg153
I00
ssg176
S'** Specific description of inarg record for: MG_JEN_Joneset::BJones()  version=16dec2005  defined=2006-04-13 17:23'
p2879
sg844
(dp2880
g871
I00
sg13
I00
sg2
I00
sg760
I00
ssg54
g2876
sg179
(lp2881
g49
ag760
ag2
ag769
ag767
ag766
ag13
ag871
ag2363
ag2341
ag2305
ag2349
ag2304
ag2302
ag153
ag162
ag32
ag27
ag40
ag36
ag30
ag38
ag37
ag62
ag61
ag47
ag43
ag44
asg181
(dp2882
g27
g184
sg2
g848
sg30
g187
sg2302
g2382
sg32
g188
sg2304
g2382
sg36
g36
sg37
g192
sg38
g193
sg40
g194
sg2305
g2383
sg44
g197
sg47
g199
sg162
g212
sg766
g858
sg2341
g2384
sg769
g858
sg62
g204
sg2349
g2383
sg871
g1197
sg760
g860
sg61
g211
sg2363
g2384
sg153
g209
sg43
g196
sg13
g1198
sg767
g858
ssg64
S'MG_JEN_JonesetBJones'
p2883
ssg766
g926
sg2341
g2343
sg769
g926
sg62
F1.0
sg2349
g2351
sg871
g2856
sg760
g2862
sg61
Nsg2363
I0
sg153
I01
sg43
Nsg13
g2872
sg767
g926
sg162
I00
ssg49
(dp2884
g51
g1141
sg53
g2771
sg56
(dp2885
g2
I01
sg760
I01
sg871
I01
sg13
I01
sg766
I01
sg767
I01
sg769
I01
ssg64
S'MG_JEN_CohsetJones'
p2886
sg68
g69
sg213
g1144
sg70
S'MG_JEN_Cohset::Jones()  version=25dec2005  defined=2006-04-13 17:23'
p2887
sg72
S'Jones'
p2888
sg74
(dp2889
g2
(lp2890
g3
ag775
ag2773
asg760
(lp2891
(lp2892
I0
aI1
aI2
aI3
aI4
aa(lp2893
I0
aI1
aI2
aI3
aI4
aI5
aI6
aa(lp2894
I0
aI1
aI2
aI3
aI4
aI5
aI6
aI7
aI8
aI9
aI10
aI11
aI12
aI13
aa(lp2895
I0
aI1
aI2
aI3
aI4
aI5
aI6
aI7
aI8
aI9
aI10
aI11
aI12
aI13
aI14
aag818
ag2774
asg871
(lp2896
I00
ag2807
asg13
(lp2897
Nag1156
ag2808
asg766
(lp2898
NaS'@@@Jsequence_KJones'
p2899
asg767
(lp2900
NaS'@@@Jsequence_simul'
p2901
asg1161
(lp2902
(lp2903
g1164
aa(lp2904
g926
aa(lp2905
g1035
aa(lp2906
g961
aa(lp2907
g1099
aa(lp2908
g1164
ag1099
aa(lp2909
g1171
aa(lp2910
g1164
ag1171
aa(lp2911
g806
aa(lp2912
aS'@@Jsequence'
p2913
asg769
(lp2914
NaS'@@@Jsequence'
p2915
assg66
g2798
sg167
S'** Description of available inarg record(s) for: MG_JEN_Cohset::Jones()  version=25dec2005  defined=2006-04-13 17:23'
p2916
sg178
I00
sg171
S'2006-04-13 17:23'
p2917
sg169
g1180
sg172
S'MG_JEN_Cohset'
p2918
sg176
S'** Specific description of inarg record for: MG_JEN_Cohset::Jones()  version=25dec2005  defined=2006-04-13 17:23'
p2919
sg225
(dp2920
g355
S'** JEN_inarg.attach(): attached: [solve_uvp]./MG_JEN_Joneset.FJones()'
p2921
sg227
S'** JEN_inarg.attach(): attached: [solve_uvp]./MG_JEN_Joneset.GJones()'
p2922
sg405
S'** JEN_inarg.attach(): attached: [solve_uvp]./MG_JEN_Joneset.KJones()'
p2923
sg407
S'** JEN_inarg.attach(): attached: [solve_uvp]./MG_JEN_Joneset.BJones()'
p2924
sg409
S'** JEN_inarg.attach(): attached: [solve_uvp]./MG_JEN_Joneset.EJones_WSRT()'
p2925
sg411
S'** JEN_inarg.attach(): attached: [solve_uvp]./MG_JEN_Joneset.DJones_WSRT()'
p2926
sg1190
S'** JEN_inarg.attach(): attached: [solve_uvp]./MG_JEN_Joneset.JJones()'
p2927
ssg54
g2917
sg844
(dp2928
g871
I00
sg13
I00
sg2
I00
sg760
I00
ssg179
(lp2929
g49
ag760
ag2
ag769
ag767
ag766
ag13
ag871
ag1161
aS'[solve_uvp]./MG_JEN_Joneset.GJones()'
p2930
aS'[solve_uvp]./MG_JEN_Joneset.FJones()'
p2931
ag2809
ag2776
aS'[solve_uvp]./MG_JEN_Joneset.DJones_WSRT()'
p2932
aS'[solve_uvp]./MG_JEN_Joneset.EJones_WSRT()'
p2933
aS'[solve_uvp]./MG_JEN_Joneset.JJones()'
p2934
asg181
(dp2935
g2
g848
sg760
g860
sg871
g1197
sg13
g1198
sg766
g858
sg767
g858
sg1161
g1199
sg769
g858
sssg2930
(dp2936
g27
I00
sg2
S'@@polrep'
p2937
sg2533
I0
sg30
g31
sg32
I00
sg13
S'@@parmtable'
p2938
sg36
Nsg37
I10
sg38
g39
sg40
g41
sg2535
I1
sg44
g45
sg47
Nsg49
(dp2939
g51
S'MG_JEN_Joneset::GJones()'
p2940
sg53
g2930
sg56
(dp2941
g37
I01
sg38
I01
sg2
I01
sg62
I01
sg40
I01
sg760
I01
sg30
I01
sg43
I01
sg44
I01
sg871
I01
sg47
I01
sg61
I01
sg13
I01
sg766
I01
sg767
I01
sg1210
I01
sg36
I01
sg769
I01
ssg213
g1211
sg68
g69
sg70
S'MG_JEN_Joneset::GJones()  version=15dec2005  defined=2006-04-13 17:23'
p2942
sg72
S'GJones'
p2943
sg74
(dp2944
g27
(lp2945
I01
aI00
aS'@@reset_funklet'
p2946
asg2
(lp2947
g3
ag775
ag2937
asg2533
(lp2948
I0
aI1
aI2
aI3
aS'@@fdeg_Ggain'
p2949
asg30
(lp2950
g31
aS'@@color'
p2951
asg32
(lp2952
I01
aI00
aS'@@save_all'
p2953
asg13
(lp2954
Nag1156
ag2938
asg36
(lp2955
NaS'@@unit'
p2956
asg37
(lp2957
I10
aS'@@size'
p2958
asg38
(lp2959
g39
aS'@@style'
p2960
asg40
(lp2961
g41
aS'@@descr'
p2962
asg2535
(lp2963
NaI1
aI2
aI5
aI10
aI20
aI50
aI100
aI200
aI500
aS'@@subtile_size_Ggain'
p2964
asg44
(lp2965
g45
aS'@@condeq_corrs'
p2966
asg47
(lp2967
NaS'@@funklet_shape'
p2968
asg162
(lp2969
I01
aI00
aS'@@auto_save'
p2970
asg766
(lp2971
g1164
aS'@@@Jsequence_KJones'
p2972
asg769
(lp2973
g1164
aS'@@@Jsequence'
p2974
asg62
(lp2975
F1.0
aS'@@c00_default'
p2976
asg2574
(lp2977
I0
aI1
aI2
aI3
ag2576
aS'@@tdeg_Gphase'
p2978
asg2578
(lp2979
I0
aI1
aI2
aI3
aS'@@tdeg_Ggain'
p2980
asg2581
(lp2981
I0
aI1
aI2
aI3
ag2583
aS'@@fdeg_Gphase'
p2982
asg2585
(lp2983
g2587
aNaI1
aI2
aI5
aI10
aI20
aI50
aI100
aI200
aI500
aS'@@subtile_size_Gphase'
p2984
asg1210
(lp2985
I01
aI00
aS'@@Gpolar'
p2986
asg871
(lp2987
I00
aS'@@uvplane_effect'
p2988
asg760
(lp2989
(lp2990
I0
aI1
aI2
aI3
aI4
aa(lp2991
I0
aI1
aI2
aI3
aI4
aI5
aI6
aa(lp2992
I0
aI1
aI2
aI3
aI4
aI5
aI6
aI7
aI8
aI9
aI10
aI11
aI12
aI13
aa(lp2993
I0
aI1
aI2
aI3
aI4
aI5
aI6
aI7
aI8
aI9
aI10
aI11
aI12
aI13
aI14
aag818
aS'@@stations'
p2994
asg153
(lp2995
I01
aI00
aS'@@use_previous'
p2996
asg43
(lp2997
NaS'@@subtile_size'
p2998
asg61
(lp2999
NaS'@@tfdeg'
p3000
asg767
(lp3001
g1164
aS'@@@Jsequence_simul'
p3002
assg66
g2798
sg167
S'** Description of available inarg record(s) for: MG_JEN_Joneset::GJones()  version=15dec2005  defined=2006-04-13 17:23'
p3003
sg178
I00
sg171
S'2006-04-13 17:23'
p3004
sg169
g1270
sg172
S'MG_JEN_Joneset'
p3005
sg174
(dp3006
g27
I00
sg1210
I00
sg32
I00
sg162
I00
sg153
I00
ssg176
S'** Specific description of inarg record for: MG_JEN_Joneset::GJones()  version=15dec2005  defined=2006-04-13 17:23'
p3007
sg844
(dp3008
g871
I00
sg13
I00
sg2
I00
sg760
I00
ssg54
g3004
sg179
(lp3009
g49
ag760
ag2
ag769
ag767
ag766
ag1210
ag13
ag871
ag2578
ag2574
ag2533
ag2581
ag2535
ag2585
ag153
ag162
ag32
ag27
ag40
ag36
ag30
ag38
ag37
ag62
ag61
ag47
ag43
ag44
asg181
(dp3010
g27
g184
sg2
g848
sg2533
g2615
sg30
g187
sg32
g188
sg13
g1198
sg36
g36
sg37
g192
sg38
g193
sg40
g194
sg2535
g2616
sg44
g197
sg47
g199
sg162
g212
sg766
g858
sg769
g858
sg62
g204
sg2574
g2617
sg2578
g2617
sg2581
g2615
sg2585
g2616
sg1210
g1277
sg871
g1197
sg760
g860
sg153
g209
sg43
g196
sg61
g211
sg767
g858
ssg64
S'MG_JEN_JonesetGJones'
p3011
ssg766
g1164
sg769
g1164
sg62
F1.0
sg2574
g2576
sg2578
I0
sg2581
g2583
sg2585
g2587
sg1210
I01
sg871
g2988
sg760
g2994
sg153
I01
sg43
Nsg61
Nsg767
g1164
sg162
I00
ssg2934
(dp3012
g27
I00
sg2
S'@@polrep'
p3013
sg2208
I0
sg30
g31
sg32
I00
sg748
Nsg13
S'@@parmtable'
p3014
sg2210
Nsg36
Nsg37
I10
sg38
g39
sg2211
g2212
sg40
g41
sg44
g45
sg47
Nsg49
(dp3015
g51
S'MG_JEN_Joneset::JJones()'
p3016
sg53
g2934
sg56
(dp3017
g38
I01
sg2
I01
sg62
I01
sg40
I01
sg760
I01
sg30
I01
sg43
I01
sg44
I01
sg871
I01
sg47
I01
sg61
I01
sg13
I01
sg766
I01
sg767
I01
sg37
I01
sg36
I01
sg769
I01
ssg213
g770
sg68
g69
sg70
S'MG_JEN_Joneset::JJones()  version=14feb2006  defined=2006-04-13 17:23'
p3018
sg72
S'JJones'
p3019
sg74
(dp3020
g27
(lp3021
I01
aI00
aS'@@reset_funklet'
p3022
asg2
(lp3023
g3
ag775
ag3013
asg2208
(lp3024
I0
aI1
aI2
aI3
aS'@@tdeg_Jreal'
p3025
asg30
(lp3026
g31
aS'@@color'
p3027
asg32
(lp3028
I01
aI00
aS'@@save_all'
p3029
asg748
(lp3030
Na(lp3031
I14
aa(lp3032
I1
aag785
aS'@@all4_always'
p3033
asg13
(lp3034
Nag1156
ag3014
asg2210
(lp3035
NaI1
aI2
aI5
aI10
aI20
aI50
aI100
aI200
aI500
aS'@@subtile_size_Jreal'
p3036
asg36
(lp3037
NaS'@@unit'
p3038
asg37
(lp3039
I10
aS'@@size'
p3040
asg38
(lp3041
g39
aS'@@style'
p3042
asg2211
(lp3043
I0
aI1
aI2
aI3
ag2212
aS'@@tdeg_Jimag'
p3044
asg40
(lp3045
g41
aS'@@descr'
p3046
asg44
(lp3047
g45
aS'@@condeq_corrs'
p3048
asg47
(lp3049
NaS'@@funklet_shape'
p3050
asg162
(lp3051
I01
aI00
aS'@@auto_save'
p3052
asg766
(lp3053
g806
aS'@@@Jsequence_KJones'
p3054
asg2253
(lp3055
I0
aI1
aI2
aI3
aS'@@fdeg_Jreal'
p3056
asg62
(lp3057
F1.0
aS'@@c00_default'
p3058
asg871
(lp3059
I00
aS'@@uvplane_effect'
p3060
asg2260
(lp3061
I0
aI1
aI2
aI3
ag2262
aS'@@fdeg_Jimag'
p3062
asg2264
(lp3063
g2266
aNaI1
aI2
aI5
aI10
aI20
aI50
aI100
aI200
aI500
aS'@@subtile_size_Jimag'
p3064
asg760
(lp3065
(lp3066
I0
aI1
aI2
aI3
aI4
aa(lp3067
I0
aI1
aI2
aI3
aI4
aI5
aI6
aa(lp3068
I0
aI1
aI2
aI3
aI4
aI5
aI6
aI7
aI8
aI9
aI10
aI11
aI12
aI13
aa(lp3069
I0
aI1
aI2
aI3
aI4
aI5
aI6
aI7
aI8
aI9
aI10
aI11
aI12
aI13
aI14
aag818
aS'@@stations'
p3070
asg820
(lp3071
I01
aI00
aS'@@diagonal_only'
p3072
asg153
(lp3073
I01
aI00
aS'@@use_previous'
p3074
asg43
(lp3075
NaS'@@subtile_size'
p3076
asg61
(lp3077
NaS'@@tfdeg'
p3078
asg767
(lp3079
g806
aS'@@@Jsequence_simul'
p3080
asg769
(lp3081
g806
aS'@@@Jsequence'
p3082
assg66
g2798
sg167
S'** Description of available inarg record(s) for: MG_JEN_Joneset::JJones()  version=14feb2006  defined=2006-04-13 17:23'
p3083
sg178
I00
sg171
S'2006-04-13 17:23'
p3084
sg169
g840
sg172
S'MG_JEN_Joneset'
p3085
sg174
(dp3086
g27
I00
sg820
I00
sg32
I00
sg162
I00
sg153
I00
ssg176
S'** Specific description of inarg record for: MG_JEN_Joneset::JJones()  version=14feb2006  defined=2006-04-13 17:23'
p3087
sg844
(dp3088
g871
I00
sg13
I00
sg2
I00
sg760
I00
ssg54
g3084
sg179
(lp3089
g49
ag760
ag2
ag769
ag767
ag766
ag820
ag748
ag13
ag871
ag2208
ag2211
ag2253
ag2260
ag2210
ag2264
ag153
ag162
ag32
ag27
ag40
ag36
ag30
ag38
ag37
ag62
ag61
ag47
ag43
ag44
asg181
(dp3090
g27
g184
sg2
g848
sg2208
g2294
sg30
g187
sg32
g188
sg748
g851
sg13
g1198
sg2210
g2295
sg36
g36
sg37
g192
sg38
g193
sg2211
g2294
sg40
g194
sg44
g197
sg47
g199
sg162
g212
sg766
g858
sg2253
g2296
sg62
g204
sg871
g1197
sg2260
g2296
sg2264
g2295
sg760
g860
sg820
g861
sg153
g209
sg43
g196
sg61
g211
sg767
g858
sg769
g858
ssg64
S'MG_JEN_JonesetJJones'
p3091
ssg766
g806
sg2253
I0
sg62
F1.0
sg871
g3060
sg2260
g2262
sg2264
g2266
sg760
g3070
sg820
I00
sg153
I01
sg43
Nsg61
Nsg767
g806
sg769
g806
sg162
I00
ssg2932
(dp3092
g27
I00
sg2
S'@@polrep'
p3093
sg30
g31
sg2389
g2390
sg1061
I01
sg32
I00
sg36
Nsg13
S'@@parmtable'
p3094
sg2392
Nsg162
I00
sg37
I10
sg38
g39
sg40
g41
sg44
g45
sg47
Nsg49
(dp3095
g51
S'MG_JEN_Joneset::DJones_WSRT()'
p3096
sg53
g2932
sg56
(dp3097
g38
I01
sg2
I01
sg62
I01
sg40
I01
sg760
I01
sg30
I01
sg43
I01
sg44
I01
sg871
I01
sg47
I01
sg61
I01
sg13
I01
sg766
I01
sg767
I01
sg37
I01
sg36
I01
sg769
I01
ssg213
g1068
sg68
g69
sg70
S'MG_JEN_Joneset::DJones_WSRT()  version=16dec2005  defined=2006-04-13 17:23'
p3098
sg72
S'DJones_WSRT'
p3099
sg74
(dp3100
g27
(lp3101
I01
aI00
aS'@@reset_funklet'
p3102
asg2
(lp3103
g3
ag775
ag3093
asg30
(lp3104
g31
aS'@@color'
p3105
asg2389
(lp3106
I0
aI1
aI2
aI3
ag2390
aS'@@fdeg_Dell'
p3107
asg1061
(lp3108
I01
aI00
aS'@@coupled_XY_Dell'
p3109
asg32
(lp3110
I01
aI00
aS'@@save_all'
p3111
asg13
(lp3112
Nag1156
ag3094
asg2392
(lp3113
NaI1
aI2
aI5
aI10
aI20
aI50
aI100
aI200
aI500
aS'@@subtile_size_Dang'
p3114
asg36
(lp3115
NaS'@@unit'
p3116
asg37
(lp3117
I10
aS'@@size'
p3118
asg38
(lp3119
g39
aS'@@style'
p3120
asg40
(lp3121
g41
aS'@@descr'
p3122
asg44
(lp3123
g45
aS'@@condeq_corrs'
p3124
asg47
(lp3125
NaS'@@funklet_shape'
p3126
asg162
(lp3127
I01
aI00
aS'@@auto_save'
p3128
asg766
(lp3129
g1099
aS'@@@Jsequence_KJones'
p3130
asg2429
(lp3131
g2431
aNaI1
aI2
aI5
aI10
aI20
aI50
aI100
aI200
aI500
aS'@@subtile_size_Dell'
p3132
asg769
(lp3133
g1099
aS'@@@Jsequence'
p3134
asg2435
(lp3135
I0
aI1
aI2
aI3
aS'@@fdeg_Dang'
p3136
asg62
(lp3137
F1.0
aS'@@c00_default'
p3138
asg871
(lp3139
I00
aS'@@uvplane_effect'
p3140
asg2442
(lp3141
I0
aI1
aI2
aI3
ag2444
aS'@@tdeg_Dell'
p3142
asg1103
(lp3143
I01
aI00
aS'@@coupled_XY_Dang'
p3144
asg2448
(lp3145
I0
aI1
aI2
aI3
aS'@@tdeg_Dang'
p3146
asg760
(lp3147
(lp3148
I0
aI1
aI2
aI3
aI4
aa(lp3149
I0
aI1
aI2
aI3
aI4
aI5
aI6
aa(lp3150
I0
aI1
aI2
aI3
aI4
aI5
aI6
aI7
aI8
aI9
aI10
aI11
aI12
aI13
aa(lp3151
I0
aI1
aI2
aI3
aI4
aI5
aI6
aI7
aI8
aI9
aI10
aI11
aI12
aI13
aI14
aag818
aS'@@stations'
p3152
asg153
(lp3153
I01
aI00
aS'@@use_previous'
p3154
asg43
(lp3155
NaS'@@subtile_size'
p3156
asg61
(lp3157
NaS'@@tfdeg'
p3158
asg767
(lp3159
g1099
aS'@@@Jsequence_simul'
p3160
assg66
g2798
sg167
S'** Description of available inarg record(s) for: MG_JEN_Joneset::DJones_WSRT()  version=16dec2005  defined=2006-04-13 17:23'
p3161
sg178
I00
sg171
S'2006-04-13 17:23'
p3162
sg169
g941
sg172
S'MG_JEN_Joneset'
p3163
sg174
(dp3164
g27
I00
sg1061
I00
sg32
I00
sg1103
I00
sg153
I00
sg162
I00
ssg176
S'** Specific description of inarg record for: MG_JEN_Joneset::DJones_WSRT()  version=16dec2005  defined=2006-04-13 17:23'
p3165
sg844
(dp3166
g871
I00
sg13
I00
sg2
I00
sg760
I00
ssg54
g3162
sg179
(lp3167
g49
ag760
ag2
ag769
ag767
ag766
ag1103
ag1061
ag13
ag871
ag2448
ag2442
ag2435
ag2389
ag2392
ag2429
ag153
ag162
ag32
ag27
ag40
ag36
ag30
ag38
ag37
ag62
ag61
ag47
ag43
ag44
asg181
(dp3168
g27
g184
sg2
g848
sg30
g187
sg2389
g2473
sg1061
g1137
sg32
g188
sg13
g1198
sg2392
g2474
sg36
g36
sg37
g192
sg38
g193
sg40
g194
sg44
g197
sg47
g199
sg162
g212
sg766
g858
sg2429
g2474
sg769
g858
sg2435
g2473
sg62
g204
sg871
g1197
sg2442
g2475
sg1103
g1138
sg2448
g2475
sg760
g860
sg153
g209
sg43
g196
sg61
g211
sg767
g858
ssg64
S'MG_JEN_JonesetDJones_WSRT'
p3169
ssg766
g1099
sg2429
g2431
sg769
g1099
sg2435
I0
sg62
F1.0
sg871
g3140
sg2442
g2444
sg1103
I01
sg2448
I0
sg760
g3152
sg153
I01
sg43
Nsg61
Nsg767
g1099
ssg767
Nsg769
Nsg2933
(dp3170
g27
I00
sg2
S'@@polrep'
p3171
sg30
g31
sg32
I00
sg36
Nsg13
S'@@parmtable'
p3172
sg162
I00
sg37
I10
sg2652
I0
sg2653
g2654
sg38
g39
sg40
g41
sg43
Nsg44
g45
sg47
Nsg49
(dp3173
g51
S'MG_JEN_Joneset::EJones_WSRT()'
p3174
sg53
g2933
sg56
(dp3175
g38
I01
sg2
I01
sg62
I01
sg40
I01
sg760
I01
sg30
I01
sg43
I01
sg44
I01
sg871
I01
sg47
I01
sg61
I01
sg13
I01
sg766
I01
sg767
I01
sg37
I01
sg36
I01
sg769
I01
ssg213
g1288
sg68
g69
sg70
S'MG_JEN_Joneset::EJones_WSRT()  version=15dec2005  defined=2006-04-13 17:23'
p3176
sg72
S'EJones_WSRT'
p3177
sg74
(dp3178
g27
(lp3179
I01
aI00
aS'@@reset_funklet'
p3180
asg2
(lp3181
g3
ag775
ag3171
asg30
(lp3182
g31
aS'@@color'
p3183
asg32
(lp3184
I01
aI00
aS'@@save_all'
p3185
asg13
(lp3186
Nag1156
ag3172
asg36
(lp3187
NaS'@@unit'
p3188
asg37
(lp3189
I10
aS'@@size'
p3190
asg2652
(lp3191
I0
aI1
aI2
aI3
aS'@@tdeg_Edl'
p3192
asg2653
(lp3193
I0
aI1
aI2
aI3
ag2654
aS'@@tdeg_Edm'
p3194
asg38
(lp3195
g39
aS'@@style'
p3196
asg40
(lp3197
g41
aS'@@descr'
p3198
asg43
(lp3199
NaS'@@subtile_size'
p3200
asg44
(lp3201
g45
aS'@@condeq_corrs'
p3202
asg47
(lp3203
NaS'@@funklet_shape'
p3204
asg162
(lp3205
I01
aI00
aS'@@auto_save'
p3206
asg766
(lp3207
g1171
aS'@@@Jsequence_KJones'
p3208
asg769
(lp3209
g1171
aS'@@@Jsequence'
p3210
asg62
(lp3211
F1.0
aS'@@c00_default'
p3212
asg871
(lp3213
I00
aS'@@uvplane_effect'
p3214
asg760
(lp3215
(lp3216
I0
aI1
aI2
aI3
aI4
aa(lp3217
I0
aI1
aI2
aI3
aI4
aI5
aI6
aa(lp3218
I0
aI1
aI2
aI3
aI4
aI5
aI6
aI7
aI8
aI9
aI10
aI11
aI12
aI13
aa(lp3219
I0
aI1
aI2
aI3
aI4
aI5
aI6
aI7
aI8
aI9
aI10
aI11
aI12
aI13
aI14
aag818
aS'@@stations'
p3220
asg61
(lp3221
NaS'@@tfdeg'
p3222
asg153
(lp3223
I01
aI00
aS'@@use_previous'
p3224
asg2707
(lp3225
NaI1
aI2
aI5
aI10
aI20
aI50
aI100
aI200
aI500
aS'@@subtile_size_Edl'
p3226
asg2710
(lp3227
g2712
aNaI1
aI2
aI5
aI10
aI20
aI50
aI100
aI200
aI500
aS'@@subtile_size_Edm'
p3228
asg767
(lp3229
g1171
aS'@@@Jsequence_simul'
p3230
asg2716
(lp3231
I0
aI1
aI2
aI3
aS'@@fdeg_Edl'
p3232
asg2719
(lp3233
I0
aI1
aI2
aI3
ag2721
aS'@@fdeg_Edm'
p3234
assg66
g2798
sg167
S'** Description of available inarg record(s) for: MG_JEN_Joneset::EJones_WSRT()  version=15dec2005  defined=2006-04-13 17:23'
p3235
sg178
I00
sg171
S'2006-04-13 17:23'
p3236
sg169
g1270
sg172
S'MG_JEN_Joneset'
p3237
sg174
(dp3238
g27
I00
sg32
I00
sg162
I00
sg153
I00
ssg176
S'** Specific description of inarg record for: MG_JEN_Joneset::EJones_WSRT()  version=15dec2005  defined=2006-04-13 17:23'
p3239
sg844
(dp3240
g871
I00
sg13
I00
sg2
I00
sg760
I00
ssg54
g3236
sg179
(lp3241
g49
ag760
ag2
ag769
ag767
ag766
ag13
ag871
ag2652
ag2653
ag2716
ag2719
ag2707
ag2710
ag153
ag162
ag32
ag27
ag40
ag36
ag30
ag38
ag37
ag62
ag61
ag47
ag43
ag44
asg181
(dp3242
g27
g184
sg2
g848
sg30
g187
sg32
g188
sg13
g1198
sg36
g36
sg37
g192
sg2652
g2731
sg2653
g2731
sg38
g193
sg40
g194
sg43
g196
sg44
g197
sg47
g199
sg162
g212
sg766
g858
sg769
g858
sg62
g204
sg871
g1197
sg760
g860
sg61
g211
sg153
g209
sg2707
g2732
sg2710
g2732
sg767
g858
sg2716
g2733
sg2719
g2733
ssg64
S'MG_JEN_JonesetEJones_WSRT'
p3243
ssg766
g1171
sg769
g1171
sg62
F1.0
sg871
g3214
sg760
g3220
sg61
Nsg153
I01
sg2707
Nsg2710
g2712
sg767
g1171
sg2716
I0
sg2719
g2721
ssg2931
(dp3244
g27
I00
sg2
S'@@polrep'
p3245
sg30
g31
sg32
I00
sg13
S'@@parmtable'
p3246
sg36
Nsg37
I10
sg38
g39
sg40
g41
sg44
g45
sg47
Nsg49
(dp3247
g51
S'MG_JEN_Joneset::FJones()'
p3248
sg53
g2931
sg56
(dp3249
g38
I01
sg2
I01
sg62
I01
sg40
I01
sg760
I01
sg30
I01
sg43
I01
sg44
I01
sg871
I01
sg47
I01
sg61
I01
sg13
I01
sg766
I01
sg767
I01
sg37
I01
sg36
I01
sg769
I01
ssg213
g992
sg68
g69
sg70
S'MG_JEN_Joneset::FJones()  version=16dec2005  defined=2006-04-13 17:23'
p3250
sg72
S'FJones'
p3251
sg74
(dp3252
g27
(lp3253
I01
aI00
aS'@@reset_funklet'
p3254
asg2
(lp3255
g3
ag775
ag3245
asg30
(lp3256
g31
aS'@@color'
p3257
asg32
(lp3258
I01
aI00
aS'@@save_all'
p3259
asg61
(lp3260
NaS'@@tfdeg'
p3261
asg36
(lp3262
NaS'@@unit'
p3263
asg37
(lp3264
I10
aS'@@size'
p3265
asg38
(lp3266
g39
aS'@@style'
p3267
asg40
(lp3268
g41
aS'@@descr'
p3269
asg44
(lp3270
g45
aS'@@condeq_corrs'
p3271
asg47
(lp3272
NaS'@@funklet_shape'
p3273
asg162
(lp3274
I01
aI00
aS'@@auto_save'
p3275
asg766
(lp3276
g1035
aS'@@@Jsequence_KJones'
p3277
asg769
(lp3278
g1035
aS'@@@Jsequence'
p3279
asg62
(lp3280
F1.0
aS'@@c00_default'
p3281
asg871
(lp3282
I00
aS'@@uvplane_effect'
p3283
asg760
(lp3284
(lp3285
I0
aI1
aI2
aI3
aI4
aa(lp3286
I0
aI1
aI2
aI3
aI4
aI5
aI6
aa(lp3287
I0
aI1
aI2
aI3
aI4
aI5
aI6
aI7
aI8
aI9
aI10
aI11
aI12
aI13
aa(lp3288
I0
aI1
aI2
aI3
aI4
aI5
aI6
aI7
aI8
aI9
aI10
aI11
aI12
aI13
aI14
aag818
aS'@@stations'
p3289
asg2176
(lp3290
I0
aI1
aI2
aI3
aS'@@tdeg_RM'
p3291
asg153
(lp3292
I01
aI00
aS'@@use_previous'
p3293
asg2181
(lp3294
I0
aI1
aI2
aI3
aS'@@fdeg_RM'
p3295
asg43
(lp3296
NaS'@@subtile_size'
p3297
asg13
(lp3298
Nag1156
ag3246
asg2187
(lp3299
NaI1
aI2
aI5
aI10
aI20
aI50
aI100
aI200
aI500
aS'@@subtile_size_RM'
p3300
asg767
(lp3301
g1035
aS'@@@Jsequence_simul'
p3302
assg66
g2798
sg167
S'** Description of available inarg record(s) for: MG_JEN_Joneset::FJones()  version=16dec2005  defined=2006-04-13 17:23'
p3303
sg178
I00
sg171
S'2006-04-13 17:23'
p3304
sg169
g941
sg172
S'MG_JEN_Joneset'
p3305
sg174
(dp3306
g27
I00
sg32
I00
sg162
I00
sg153
I00
ssg176
S'** Specific description of inarg record for: MG_JEN_Joneset::FJones()  version=16dec2005  defined=2006-04-13 17:23'
p3307
sg844
(dp3308
g871
I00
sg13
I00
sg2
I00
sg760
I00
ssg54
g3304
sg179
(lp3309
g49
ag760
ag2
ag769
ag767
ag766
ag13
ag871
ag2176
ag2181
ag2187
ag153
ag162
ag32
ag27
ag40
ag36
ag30
ag38
ag37
ag62
ag61
ag47
ag43
ag44
asg181
(dp3310
g27
g184
sg2
g848
sg30
g187
sg32
g188
sg61
g211
sg36
g36
sg37
g192
sg38
g193
sg40
g194
sg44
g197
sg47
g199
sg162
g212
sg766
g858
sg769
g858
sg62
g204
sg871
g1197
sg760
g860
sg2176
g2201
sg153
g209
sg2181
g2202
sg43
g196
sg13
g1198
sg2187
g2203
sg767
g858
ssg64
S'MG_JEN_JonesetFJones'
p3311
ssg766
g1035
sg769
g1035
sg62
F1.0
sg871
g3283
sg760
g3289
sg2176
I0
sg153
I01
sg2181
I2
sg43
Nsg61
Nsg2187
I1
sg767
g1035
sg162
I00
sssg1357
I10000
sg766
Nsg767
Nsg769
Nssg769
Nsg766
Nsg1948
g1970
sg871
I01
sg1941
Nsg1931
I00
sg760
g1962
sg2053
(dp3312
g7
S'finishing touches'
p3313
ssg2046
(dp3314
S'orphans_are_roots'
p3315
I01
sS'channel_start_index'
p3316
I0
sS'cache_policy'
p3317
I0
sS'data_column_name'
p3318
S'CORRECTED_DATA'
p3319
sS'predict_column'
p3320
g3319
sg11
S'@@ms_name'
p3321
sg49
(dp3322
g53
g2046
sg181
(dp3323
g3315
S'If False, delete all orphaned nodes'
p3324
sg3316
S'(inputrec.sel) index of first selected freq channel'
p3325
sg3317
S'MeqTree caching policy (0=smart, 100=all)'
p3326
sg3318
S'(inputrec) MS input column'
p3327
sg3320
S'MS output column to be associated with the VisTile predict-column'
p3328
sg11
g1937
sg1943
g1944
sS'channel_increment'
p3329
S'(inputrec.sel) take every nth channel (1=all)'
p3330
sS'channel_end_index'
p3331
S'(inputrec.sel) index of last selected freq channel'
p3332
sS'write_flags'
p3333
S'(outputrec) if True, write flags to MS'
p3334
ssg68
g69
sg172
S'MG_JEN_exec'
p3335
sg56
(dp3336
g11
I01
sg1943
I01
ssg370
(dp3337
g11
g1950
ssg169
S'20jan2006'
p3338
sg844
(dp3339
g11
I00
sg1943
I00
ssg213
S'** Description of script: MG_JEN_exec::stream_control()  version=20jan2006  defined=2006-04-13 17:23'
p3340
sg174
(dp3341
g3315
I00
sg3333
I00
ssg70
S'MG_JEN_exec::stream_control()  version=20jan2006  defined=2006-04-13 17:23'
p3342
sg74
(dp3343
g3315
(lp3344
I01
aI00
aS'@@orphans_are_roots'
p3345
asg3316
(lp3346
I0
aI5
aI10
aI20
aS'@@channel_start_index'
p3347
asg3317
(lp3348
I-10
aI-1
aI0
aI100
aS'@@cache_policy'
p3349
asg3318
(lp3350
g2076
ag3319
aS'@@data_column_name'
p3351
asg3320
(lp3352
g2076
ag3319
aS'MODEL_DATA'
p3353
aS'@@predict_column'
p3354
asg11
(lp3355
g12
ag3321
asg1943
(lp3356
I1
aI2
aI3
aI5
aI10
aI20
aI50
aI100
aS'@@tile_size'
p3357
asg3329
(lp3358
I1
aI2
aI3
aI5
aI10
aS'@@channel_increment'
p3359
asg3331
(lp3360
I-1
aI25
aI50
aI100
aS'@@channel_end_index'
p3361
asg3333
(lp3362
I01
aI00
aS'@@write_flags'
p3363
assg66
Nsg54
S'2006-04-13 17:23'
p3364
sg51
S'MG_JEN_exec::stream_control()'
p3365
sg176
S'** Specific description of inarg record for: MG_JEN_exec::stream_control()  version=20jan2006  defined=2006-04-13 17:23'
p3366
sg64
S'MG_JEN_execstream_control'
p3367
sg72
S'stream_control'
p3368
sg167
S'** Description of available inarg record(s) for: MG_JEN_exec::stream_control()  version=20jan2006  defined=2006-04-13 17:23'
p3369
sg178
I00
sg171
g3364
sg225
(dp3370
g355
S'  1: .../MG_JEN_exec.stream_control() (qual=None): .modify(channel_start_index):   10  ->  0'
p3371
sg227
S'  1: .../MG_JEN_exec.stream_control() (qual=None): .modify(data_column_name):   DATA  ->  CORRECTED_DATA'
p3372
sg407
S'  1: .../MG_JEN_exec.stream_control() (qual=None): .modify(channel_end_index):   50  ->  -1'
p3373
ssg179
(lp3374
g49
ag11
ag1943
ag3318
ag3316
ag3331
ag3329
ag3333
ag3320
ag3317
ag3315
assg1943
g3357
sg3329
I1
sg3331
I-1
sg3333
I00
ssg1934
I00
sg2049
(dp3375
g7
S'solver-branch (ParmSet)'
p3376
ssg2048
(dp3377
g7
S'uv-data simulation (LeafSet)'
p3378
ssg1938
I01
sg767
Nsg2050
(dp3379
g18
g19
sg20
g21
sS'[solve]./MG_JEN_lsm.add_double()'
p3380
(dp3381
g318
I20
sS'[solve_double_1]./MG_JEN_Sixpack.newstar_source()'
p3382
(dp3383
g26
F1000000.0
sg27
I00
sg28
F0.0
sg29
I00
sg30
g31
sg32
I00
sg33
g34
sg13
Nsg35
Nsg36
Nsg37
I10
sg38
g39
sg40
g41
sg42
F1.0
sg43
Nsg44
g45
sg46
Nsg47
Nsg48
F0.0
sg49
(dp3384
g51
g52
sg53
g3382
sg54
S'2006-04-13 17:23'
p3385
sg56
(dp3386
g26
I01
sg28
I01
sg29
I01
sg58
I01
sg40
I01
sg47
I01
sg30
I01
sg33
I01
sg59
I01
sg60
I00
sg43
I01
sg48
I01
sg44
I01
sg61
I01
sg36
I01
sg62
I01
sg38
I01
sg63
I01
sg37
I01
ssg64
S'MG_JEN_Sixpacknewstar_source'
p3387
sg66
S'solve_double_1'
p3388
sg68
g69
sg70
S'MG_JEN_Sixpack::newstar_source()  version=10feb2006  defined=2006-04-13 17:23'
p3389
sg72
S'newstar_source'
p3390
sg74
(dp3391
g26
(lp3392
F1000000.0
aS'@@f0'
p3393
asg27
(lp3394
I01
aI00
aS'@@reset_funklet'
p3395
asg28
(lp3396
F0.0
aF1.0
aF10.0
aF100.0
aS'@@major'
p3397
asg29
(lp3398
I01
aI00
aS'@@unsolvable'
p3399
asg30
(lp3400
g31
aS'@@color'
p3401
asg32
(lp3402
I01
aI00
aS'@@save_all'
p3403
asg33
(lp3404
g34
ag89
aS'@@shape'
p3405
asg13
(lp3406
NaS'@@parmtable'
p3407
asg35
(lp3408
NaF-0.10000000000000001
aF0.050000000000000003
aF-0.01
aS'@@Upct'
p3409
asg36
(lp3410
NaS'@@unit'
p3411
asg37
(lp3412
I10
aS'@@size'
p3413
asg38
(lp3414
g39
aS'@@style'
p3415
asg40
(lp3416
g41
aS'@@descr'
p3417
asg42
(lp3418
F1.0
aF10.0
aS'@@I0'
p3419
asg43
(lp3420
NaS'@@subtile_size'
p3421
asg44
(lp3422
g45
aS'@@condeq_corrs'
p3423
asg46
(lp3424
NaF0.01
aF-0.0050000000000000001
aF0.001
aS'@@Vpct'
p3425
asg47
(lp3426
NaS'@@funklet_shape'
p3427
asg48
(lp3428
F0.0
aF1.0
aF-0.5
aS'@@pa'
p3429
asg115
(lp3430
F0.0
aF0.5
aF1.0
aF1.4950000000000001
aF4.3570000000000002
aS'@@RA'
p3431
asg118
(lp3432
NaF1.0
aF3.0
aF10.0
aF-10.0
aF60.0
aS'@@RM'
p3433
asg63
(lp3434
F0.0
aF0.5
aF5.0
aF50.0
aS'@@minor'
p3435
asg62
(lp3436
F1.0
aS'@@c00_default'
p3437
asg125
(lp3438
NaF0.10000000000000001
aF-0.050000000000000003
aF0.01
aS'@@Qpct'
p3439
asg60
(lp3440
g129
ag130
ag131
ag132
ag133
ag134
ag135
ag136
ag137
ag138
ag139
ag140
ag141
ag142
ag143
ag144
aS'@@punit'
p3441
asg146
(lp3442
F0.5
aF1.0
aF0.87
aF1.0920000000000001
aS'@@Dec'
p3443
asg58
(lp3444
NaS'@@name'
p3445
asg59
(lp3446
I01
aI00
aS'@@fsr_trace'
p3447
asg153
(lp3448
I01
aI00
aS'@@use_previous'
p3449
asg156
(lp3450
NaF-0.69999999999999996
a(lp3451
F0.44700000000000001
aF-0.184
aaS'@@SI'
p3452
asg61
(lp3453
NaS'@@tfdeg'
p3454
asg162
(lp3455
I01
aI00
aS'@@auto_save'
p3456
assg165
(dp3457
g60
I01
ssg167
S'** Description of available inarg record(s) for: MG_JEN_Sixpack::newstar_source()  version=10feb2006  defined=2006-04-13 17:23'
p3458
sg169
g170
sg171
g3385
sg172
S'MG_JEN_Sixpack'
p3459
sg174
(dp3460
g27
I00
sg29
I00
sg59
I00
sg32
I00
sg153
I00
sg162
I00
ssg176
S'** Specific description of inarg record for: MG_JEN_Sixpack::newstar_source()  version=10feb2006  defined=2006-04-13 17:23'
p3461
sg178
I00
sg179
(lp3462
g49
ag60
ag58
ag13
ag29
ag42
ag125
ag35
ag46
ag118
ag156
ag26
ag115
ag146
ag59
ag33
ag28
ag63
ag48
ag153
ag162
ag32
ag27
ag40
ag36
ag30
ag38
ag37
ag62
ag61
ag47
ag43
ag44
asg181
(dp3463
g26
g183
sg27
g184
sg28
g185
sg29
g186
sg30
g187
sg32
g188
sg33
g189
sg13
g190
sg35
g191
sg36
g36
sg37
g192
sg38
g193
sg40
g194
sg42
g195
sg43
g196
sg44
g197
sg46
g198
sg47
g199
sg48
g200
sg115
g201
sg118
g202
sg63
g203
sg62
g204
sg125
g205
sg60
S'name of calibrator source/patch \n- unpol:     unpolarised, I=1Jy \n- unpol2:    idem, I=2Jy \n- unpol10:   idem, I=10Jy \n- RMtest:    Rotation Measure \n- SItest:    Spectral Index \n- ellgauss:  Elliptic Gaussian \n- QUV:       non-zero Q,U,V \n- QU:        non-zero Q,U \n- QU2:       stronger version of QU \n- Qonly:     non-zero Q \n- Uonly:     non-zero U \n- Vonly:     non-zero V \n- 3c286:     \n- 3c48:      \n- 3c295:     \n- 3c147:     \n- D1:        cps in D1.MS \n'
p3464
sg146
g207
sg59
g208
sg153
g209
sg156
g210
sg61
g211
sg162
g212
ssg213
g214
ssg118
Nsg63
F0.0
sg115
F1.4950000000000001
sg62
F1.0
sg125
Nsg60
g129
sg146
F0.87
sg58
Nsg59
I01
sg153
I01
sg156
Nsg61
Nsg162
I00
ssg345
I20
sg49
(dp3465
g51
g631
sg53
g3380
sg176
S'** Specific description of inarg record for: MG_JEN_lsm::add_double()  version=10feb2006  defined=2006-04-13 17:23'
p3466
sg64
S'MG_JEN_lsmadd_double'
p3467
sg68
g69
sg213
g634
sg70
S'MG_JEN_lsm::add_double()  version=10feb2006  defined=2006-04-13 17:23'
p3468
sg72
S'add_double'
p3469
sg74
(dp3470
g345
(lp3471
I20
aS'@@dRA'
p3472
asg318
(lp3473
I20
aS'@@dDec'
p3474
assg66
g2761
sg167
S'** Description of available inarg record(s) for: MG_JEN_lsm::add_double()  version=10feb2006  defined=2006-04-13 17:23'
p3475
sg178
I00
sg171
S'2006-04-13 17:23'
p3476
sg169
g170
sg172
S'MG_JEN_lsm'
p3477
sg225
(dp3478
g355
S'** JEN_inarg.attach(): attached: [solve_double_2]./MG_JEN_Sixpack.newstar_source()'
p3479
sg227
S'** JEN_inarg.attach(): attached: [solve_double_1]./MG_JEN_Sixpack.newstar_source()'
p3480
ssg54
g3476
sg179
(lp3481
g49
ag3382
aS'[solve_double_2]./MG_JEN_Sixpack.newstar_source()'
p3482
ag345
ag318
asg181
(dp3483
g345
g651
sg318
g652
sssg3482
(dp3484
g26
F1000000.0
sg27
I00
sg28
F0.0
sg29
I00
sg30
g31
sg32
I00
sg33
g34
sg13
Nsg35
Nsg36
Nsg37
I10
sg38
g39
sg40
g41
sg42
F1.0
sg43
Nsg44
g45
sg46
Nsg47
Nsg48
F0.0
sg49
(dp3485
g51
g52
sg53
g3482
sg54
S'2006-04-13 17:23'
p3486
sg56
(dp3487
g26
I01
sg28
I01
sg29
I01
sg58
I01
sg40
I01
sg47
I01
sg30
I01
sg33
I01
sg59
I01
sg60
I00
sg43
I01
sg48
I01
sg44
I01
sg61
I01
sg36
I01
sg62
I01
sg38
I01
sg63
I01
sg37
I01
ssg64
S'MG_JEN_Sixpacknewstar_source'
p3488
sg66
S'solve_double_2'
p3489
sg68
g69
sg70
S'MG_JEN_Sixpack::newstar_source()  version=10feb2006  defined=2006-04-13 17:23'
p3490
sg72
S'newstar_source'
p3491
sg74
(dp3492
g26
(lp3493
F1000000.0
aS'@@f0'
p3494
asg27
(lp3495
I01
aI00
aS'@@reset_funklet'
p3496
asg28
(lp3497
F0.0
aF1.0
aF10.0
aF100.0
aS'@@major'
p3498
asg29
(lp3499
I01
aI00
aS'@@unsolvable'
p3500
asg30
(lp3501
g31
aS'@@color'
p3502
asg32
(lp3503
I01
aI00
aS'@@save_all'
p3504
asg33
(lp3505
g34
ag89
aS'@@shape'
p3506
asg13
(lp3507
NaS'@@parmtable'
p3508
asg35
(lp3509
NaF-0.10000000000000001
aF0.050000000000000003
aF-0.01
aS'@@Upct'
p3510
asg36
(lp3511
NaS'@@unit'
p3512
asg37
(lp3513
I10
aS'@@size'
p3514
asg38
(lp3515
g39
aS'@@style'
p3516
asg40
(lp3517
g41
aS'@@descr'
p3518
asg42
(lp3519
F1.0
aF10.0
aS'@@I0'
p3520
asg43
(lp3521
NaS'@@subtile_size'
p3522
asg44
(lp3523
g45
aS'@@condeq_corrs'
p3524
asg46
(lp3525
NaF0.01
aF-0.0050000000000000001
aF0.001
aS'@@Vpct'
p3526
asg47
(lp3527
NaS'@@funklet_shape'
p3528
asg48
(lp3529
F0.0
aF1.0
aF-0.5
aS'@@pa'
p3530
asg115
(lp3531
F0.0
aF0.5
aF1.0
aF1.4950000000000001
aF4.3570000000000002
aS'@@RA'
p3532
asg118
(lp3533
NaF1.0
aF3.0
aF10.0
aF-10.0
aF60.0
aS'@@RM'
p3534
asg63
(lp3535
F0.0
aF0.5
aF5.0
aF50.0
aS'@@minor'
p3536
asg62
(lp3537
F1.0
aS'@@c00_default'
p3538
asg125
(lp3539
NaF0.10000000000000001
aF-0.050000000000000003
aF0.01
aS'@@Qpct'
p3540
asg60
(lp3541
g129
ag130
ag131
ag132
ag133
ag134
ag135
ag136
ag137
ag138
ag139
ag140
ag141
ag142
ag143
ag144
aS'@@punit'
p3542
asg146
(lp3543
F0.5
aF1.0
aF0.87
aF1.0920000000000001
aS'@@Dec'
p3544
asg58
(lp3545
NaS'@@name'
p3546
asg59
(lp3547
I01
aI00
aS'@@fsr_trace'
p3548
asg153
(lp3549
I01
aI00
aS'@@use_previous'
p3550
asg156
(lp3551
NaF-0.69999999999999996
a(lp3552
F0.44700000000000001
aF-0.184
aaS'@@SI'
p3553
asg61
(lp3554
NaS'@@tfdeg'
p3555
asg162
(lp3556
I01
aI00
aS'@@auto_save'
p3557
assg165
(dp3558
g60
I01
ssg167
S'** Description of available inarg record(s) for: MG_JEN_Sixpack::newstar_source()  version=10feb2006  defined=2006-04-13 17:23'
p3559
sg169
g170
sg171
g3486
sg172
S'MG_JEN_Sixpack'
p3560
sg174
(dp3561
g27
I00
sg29
I00
sg59
I00
sg32
I00
sg153
I00
sg162
I00
ssg176
S'** Specific description of inarg record for: MG_JEN_Sixpack::newstar_source()  version=10feb2006  defined=2006-04-13 17:23'
p3562
sg178
I00
sg179
(lp3563
g49
ag60
ag58
ag13
ag29
ag42
ag125
ag35
ag46
ag118
ag156
ag26
ag115
ag146
ag59
ag33
ag28
ag63
ag48
ag153
ag162
ag32
ag27
ag40
ag36
ag30
ag38
ag37
ag62
ag61
ag47
ag43
ag44
asg181
(dp3564
g26
g183
sg27
g184
sg28
g185
sg29
g186
sg30
g187
sg32
g188
sg33
g189
sg13
g190
sg35
g191
sg36
g36
sg37
g192
sg38
g193
sg40
g194
sg42
g195
sg43
g196
sg44
g197
sg46
g198
sg47
g199
sg48
g200
sg115
g201
sg118
g202
sg63
g203
sg62
g204
sg125
g205
sg60
S'name of calibrator source/patch \n- unpol:     unpolarised, I=1Jy \n- unpol2:    idem, I=2Jy \n- unpol10:   idem, I=10Jy \n- RMtest:    Rotation Measure \n- SItest:    Spectral Index \n- ellgauss:  Elliptic Gaussian \n- QUV:       non-zero Q,U,V \n- QU:        non-zero Q,U \n- QU2:       stronger version of QU \n- Qonly:     non-zero Q \n- Uonly:     non-zero U \n- Vonly:     non-zero V \n- 3c286:     \n- 3c48:      \n- 3c295:     \n- 3c147:     \n- D1:        cps in D1.MS \n'
p3565
sg146
g207
sg59
g208
sg153
g209
sg156
g210
sg61
g211
sg162
g212
ssg213
g214
ssg118
Nsg63
F0.0
sg115
F1.4950000000000001
sg62
F1.0
sg125
Nsg60
g129
sg146
F0.87
sg58
Nsg59
I01
sg153
I01
sg156
Nsg61
Nsg162
I00
sssS'[solve]./MG_JEN_lsm.add_single()'
p3566
(dp3567
S'[solve_single]./MG_JEN_Sixpack.newstar_source()'
p3568
(dp3569
g26
F1000000.0
sg27
I00
sg28
F0.0
sg29
I00
sg30
g31
sg32
I00
sg33
g34
sg13
Nsg35
Nsg36
Nsg37
I10
sg38
g39
sg40
g41
sg42
F1.0
sg43
Nsg44
g45
sg46
Nsg47
Nsg48
F0.0
sg49
(dp3570
g51
g52
sg53
g3568
sg54
S'2006-04-13 17:23'
p3571
sg56
(dp3572
g26
I01
sg28
I01
sg29
I01
sg58
I01
sg40
I01
sg47
I01
sg30
I01
sg33
I01
sg59
I01
sg60
I00
sg43
I01
sg48
I01
sg44
I01
sg61
I01
sg36
I01
sg62
I01
sg38
I01
sg63
I01
sg37
I01
ssg64
S'MG_JEN_Sixpacknewstar_source'
p3573
sg66
S'solve_single'
p3574
sg68
g69
sg70
S'MG_JEN_Sixpack::newstar_source()  version=10feb2006  defined=2006-04-13 17:23'
p3575
sg72
S'newstar_source'
p3576
sg74
(dp3577
g26
(lp3578
F1000000.0
aS'@@f0'
p3579
asg27
(lp3580
I01
aI00
aS'@@reset_funklet'
p3581
asg28
(lp3582
F0.0
aF1.0
aF10.0
aF100.0
aS'@@major'
p3583
asg29
(lp3584
I01
aI00
aS'@@unsolvable'
p3585
asg30
(lp3586
g31
aS'@@color'
p3587
asg32
(lp3588
I01
aI00
aS'@@save_all'
p3589
asg33
(lp3590
g34
ag89
aS'@@shape'
p3591
asg13
(lp3592
NaS'@@parmtable'
p3593
asg35
(lp3594
NaF-0.10000000000000001
aF0.050000000000000003
aF-0.01
aS'@@Upct'
p3595
asg36
(lp3596
NaS'@@unit'
p3597
asg37
(lp3598
I10
aS'@@size'
p3599
asg38
(lp3600
g39
aS'@@style'
p3601
asg40
(lp3602
g41
aS'@@descr'
p3603
asg42
(lp3604
F1.0
aF10.0
aS'@@I0'
p3605
asg43
(lp3606
NaS'@@subtile_size'
p3607
asg44
(lp3608
g45
aS'@@condeq_corrs'
p3609
asg46
(lp3610
NaF0.01
aF-0.0050000000000000001
aF0.001
aS'@@Vpct'
p3611
asg47
(lp3612
NaS'@@funklet_shape'
p3613
asg48
(lp3614
F0.0
aF1.0
aF-0.5
aS'@@pa'
p3615
asg115
(lp3616
F0.0
aF0.5
aF1.0
aF1.4950000000000001
aF4.3570000000000002
aS'@@RA'
p3617
asg118
(lp3618
NaF1.0
aF3.0
aF10.0
aF-10.0
aF60.0
aS'@@RM'
p3619
asg63
(lp3620
F0.0
aF0.5
aF5.0
aF50.0
aS'@@minor'
p3621
asg62
(lp3622
F1.0
aS'@@c00_default'
p3623
asg125
(lp3624
NaF0.10000000000000001
aF-0.050000000000000003
aF0.01
aS'@@Qpct'
p3625
asg60
(lp3626
g129
ag130
ag131
ag132
ag133
ag134
ag135
ag136
ag137
ag138
ag139
ag140
ag141
ag142
ag143
ag144
aS'@@punit'
p3627
asg146
(lp3628
F0.5
aF1.0
aF0.87
aF1.0920000000000001
aS'@@Dec'
p3629
asg58
(lp3630
NaS'@@name'
p3631
asg59
(lp3632
I01
aI00
aS'@@fsr_trace'
p3633
asg153
(lp3634
I01
aI00
aS'@@use_previous'
p3635
asg156
(lp3636
NaF-0.69999999999999996
a(lp3637
F0.44700000000000001
aF-0.184
aaS'@@SI'
p3638
asg61
(lp3639
NaS'@@tfdeg'
p3640
asg162
(lp3641
I01
aI00
aS'@@auto_save'
p3642
assg165
(dp3643
g60
I01
ssg167
S'** Description of available inarg record(s) for: MG_JEN_Sixpack::newstar_source()  version=10feb2006  defined=2006-04-13 17:23'
p3644
sg169
g170
sg171
g3571
sg172
S'MG_JEN_Sixpack'
p3645
sg174
(dp3646
g27
I00
sg29
I00
sg59
I00
sg32
I00
sg153
I00
sg162
I00
ssg176
S'** Specific description of inarg record for: MG_JEN_Sixpack::newstar_source()  version=10feb2006  defined=2006-04-13 17:23'
p3647
sg178
I00
sg179
(lp3648
g49
ag60
ag58
ag13
ag29
ag42
ag125
ag35
ag46
ag118
ag156
ag26
ag115
ag146
ag59
ag33
ag28
ag63
ag48
ag153
ag162
ag32
ag27
ag40
ag36
ag30
ag38
ag37
ag62
ag61
ag47
ag43
ag44
asg181
(dp3649
g26
g183
sg27
g184
sg28
g185
sg29
g186
sg30
g187
sg32
g188
sg33
g189
sg13
g190
sg35
g191
sg36
g36
sg37
g192
sg38
g193
sg40
g194
sg42
g195
sg43
g196
sg44
g197
sg46
g198
sg47
g199
sg48
g200
sg115
g201
sg118
g202
sg63
g203
sg62
g204
sg125
g205
sg60
S'name of calibrator source/patch \n- unpol:     unpolarised, I=1Jy \n- unpol2:    idem, I=2Jy \n- unpol10:   idem, I=10Jy \n- RMtest:    Rotation Measure \n- SItest:    Spectral Index \n- ellgauss:  Elliptic Gaussian \n- QUV:       non-zero Q,U,V \n- QU:        non-zero Q,U \n- QU2:       stronger version of QU \n- Qonly:     non-zero Q \n- Uonly:     non-zero U \n- Vonly:     non-zero V \n- 3c286:     \n- 3c48:      \n- 3c295:     \n- 3c147:     \n- D1:        cps in D1.MS \n'
p3650
sg146
g207
sg59
g208
sg153
g209
sg156
g210
sg61
g211
sg162
g212
ssg213
g214
ssg118
Nsg63
F0.0
sg115
F1.4950000000000001
sg62
F1.0
sg125
Nsg60
g129
sg146
F0.87
sg58
Nsg59
I01
sg153
I01
sg156
Nsg61
Nsg162
I00
ssg49
(dp3651
g51
g216
sg53
g3566
sg176
S'** Specific description of inarg record for: MG_JEN_lsm::add_single()  version=10feb2006  defined=2006-04-13 17:23'
p3652
sg213
g218
sg68
g69
sg70
S'MG_JEN_lsm::add_single()  version=10feb2006  defined=2006-04-13 17:23'
p3653
sg72
S'add_single'
p3654
sg66
g2761
sg167
S'** Description of available inarg record(s) for: MG_JEN_lsm::add_single()  version=10feb2006  defined=2006-04-13 17:23'
p3655
sg178
I00
sg171
S'2006-04-13 17:23'
p3656
sg169
g170
sg172
S'MG_JEN_lsm'
p3657
sg225
(dp3658
g227
S'** JEN_inarg.attach(): attached: [solve_single]./MG_JEN_Sixpack.newstar_source()'
p3659
ssg54
g3656
sg179
(lp3660
g49
ag3568
asg64
S'MG_JEN_lsmadd_single'
p3661
sssS'[solve]./MG_JEN_lsm.add_grid()'
p3662
(dp3663
g233
Nsg317
I1
sS'[solve_grid]./MG_JEN_Sixpack.newstar_source()'
p3664
(dp3665
g26
F1000000.0
sg27
I00
sg28
F0.0
sg29
I00
sg30
g31
sg32
I00
sg33
g34
sg13
Nsg35
Nsg36
Nsg37
I10
sg38
g39
sg40
g41
sg42
F1.0
sg43
Nsg44
g45
sg46
Nsg47
Nsg48
F0.0
sg49
(dp3666
g51
g52
sg53
g3664
sg54
S'2006-04-13 17:23'
p3667
sg56
(dp3668
g26
I01
sg28
I01
sg29
I01
sg58
I01
sg40
I01
sg47
I01
sg30
I01
sg33
I01
sg59
I01
sg60
I00
sg43
I01
sg48
I01
sg44
I01
sg61
I01
sg36
I01
sg62
I01
sg38
I01
sg63
I01
sg37
I01
ssg64
S'MG_JEN_Sixpacknewstar_source'
p3669
sg66
S'solve_grid'
p3670
sg68
g69
sg70
S'MG_JEN_Sixpack::newstar_source()  version=10feb2006  defined=2006-04-13 17:23'
p3671
sg72
S'newstar_source'
p3672
sg74
(dp3673
g26
(lp3674
F1000000.0
aS'@@f0'
p3675
asg27
(lp3676
I01
aI00
aS'@@reset_funklet'
p3677
asg28
(lp3678
F0.0
aF1.0
aF10.0
aF100.0
aS'@@major'
p3679
asg29
(lp3680
I01
aI00
aS'@@unsolvable'
p3681
asg30
(lp3682
g31
aS'@@color'
p3683
asg32
(lp3684
I01
aI00
aS'@@save_all'
p3685
asg33
(lp3686
g34
ag89
aS'@@shape'
p3687
asg13
(lp3688
NaS'@@parmtable'
p3689
asg35
(lp3690
NaF-0.10000000000000001
aF0.050000000000000003
aF-0.01
aS'@@Upct'
p3691
asg36
(lp3692
NaS'@@unit'
p3693
asg37
(lp3694
I10
aS'@@size'
p3695
asg38
(lp3696
g39
aS'@@style'
p3697
asg40
(lp3698
g41
aS'@@descr'
p3699
asg42
(lp3700
F1.0
aF10.0
aS'@@I0'
p3701
asg43
(lp3702
NaS'@@subtile_size'
p3703
asg44
(lp3704
g45
aS'@@condeq_corrs'
p3705
asg46
(lp3706
NaF0.01
aF-0.0050000000000000001
aF0.001
aS'@@Vpct'
p3707
asg47
(lp3708
NaS'@@funklet_shape'
p3709
asg48
(lp3710
F0.0
aF1.0
aF-0.5
aS'@@pa'
p3711
asg115
(lp3712
F0.0
aF0.5
aF1.0
aF1.4950000000000001
aF4.3570000000000002
aS'@@RA'
p3713
asg118
(lp3714
NaF1.0
aF3.0
aF10.0
aF-10.0
aF60.0
aS'@@RM'
p3715
asg63
(lp3716
F0.0
aF0.5
aF5.0
aF50.0
aS'@@minor'
p3717
asg62
(lp3718
F1.0
aS'@@c00_default'
p3719
asg125
(lp3720
NaF0.10000000000000001
aF-0.050000000000000003
aF0.01
aS'@@Qpct'
p3721
asg60
(lp3722
g129
ag130
ag131
ag132
ag133
ag134
ag135
ag136
ag137
ag138
ag139
ag140
ag141
ag142
ag143
ag144
aS'@@punit'
p3723
asg146
(lp3724
F0.5
aF1.0
aF0.87
aF1.0920000000000001
aS'@@Dec'
p3725
asg58
(lp3726
NaS'@@name'
p3727
asg59
(lp3728
I01
aI00
aS'@@fsr_trace'
p3729
asg153
(lp3730
I01
aI00
aS'@@use_previous'
p3731
asg156
(lp3732
NaF-0.69999999999999996
a(lp3733
F0.44700000000000001
aF-0.184
aaS'@@SI'
p3734
asg61
(lp3735
NaS'@@tfdeg'
p3736
asg162
(lp3737
I01
aI00
aS'@@auto_save'
p3738
assg165
(dp3739
g60
I01
ssg167
S'** Description of available inarg record(s) for: MG_JEN_Sixpack::newstar_source()  version=10feb2006  defined=2006-04-13 17:23'
p3740
sg169
g170
sg171
g3667
sg172
S'MG_JEN_Sixpack'
p3741
sg174
(dp3742
g27
I00
sg29
I00
sg59
I00
sg32
I00
sg153
I00
sg162
I00
ssg176
S'** Specific description of inarg record for: MG_JEN_Sixpack::newstar_source()  version=10feb2006  defined=2006-04-13 17:23'
p3743
sg178
I00
sg179
(lp3744
g49
ag60
ag58
ag13
ag29
ag42
ag125
ag35
ag46
ag118
ag156
ag26
ag115
ag146
ag59
ag33
ag28
ag63
ag48
ag153
ag162
ag32
ag27
ag40
ag36
ag30
ag38
ag37
ag62
ag61
ag47
ag43
ag44
asg181
(dp3745
g26
g183
sg27
g184
sg28
g185
sg29
g186
sg30
g187
sg32
g188
sg33
g189
sg13
g190
sg35
g191
sg36
g36
sg37
g192
sg38
g193
sg40
g194
sg42
g195
sg43
g196
sg44
g197
sg46
g198
sg47
g199
sg48
g200
sg115
g201
sg118
g202
sg63
g203
sg62
g204
sg125
g205
sg60
S'name of calibrator source/patch \n- unpol:     unpolarised, I=1Jy \n- unpol2:    idem, I=2Jy \n- unpol10:   idem, I=10Jy \n- RMtest:    Rotation Measure \n- SItest:    Spectral Index \n- ellgauss:  Elliptic Gaussian \n- QUV:       non-zero Q,U,V \n- QU:        non-zero Q,U \n- QU2:       stronger version of QU \n- Qonly:     non-zero Q \n- Uonly:     non-zero U \n- Vonly:     non-zero V \n- 3c286:     \n- 3c48:      \n- 3c295:     \n- 3c147:     \n- D1:        cps in D1.MS \n'
p3746
sg146
g207
sg59
g208
sg153
g209
sg156
g210
sg61
g211
sg162
g212
ssg213
g214
ssg118
Nsg63
F0.0
sg115
F1.4950000000000001
sg62
F1.0
sg125
Nsg60
g129
sg146
F0.87
sg58
Nsg59
I01
sg153
I01
sg156
Nsg61
Nsg162
I00
ssg318
I20
sg319
g320
sg49
(dp3747
g51
g322
sg53
g3662
sg176
S'** Specific description of inarg record for: MG_JEN_lsm::add_grid()  version=10feb2006  defined=2006-04-13 17:23'
p3748
sg64
S'MG_JEN_lsmadd_grid'
p3749
sg68
g69
sg213
g325
sg70
S'MG_JEN_lsm::add_grid()  version=10feb2006  defined=2006-04-13 17:23'
p3750
sg72
S'add_grid'
p3751
sg74
(dp3752
g233
(lp3753
F0.5
aI1
aI2
aI5
aI10
aI100
aNaS'@@taper'
p3754
asg317
(lp3755
I0
aI1
aI2
aI3
aS'@@nRA2'
p3756
asg318
(lp3757
I5
aI10
aI20
aS'@@dDec'
p3758
asg319
(lp3759
g336
ag337
ag338
ag339
ag340
ag341
ag320
ag342
ag343
aS'@@relpos'
p3760
asg345
(lp3761
I5
aI10
aI20
aS'@@dRA'
p3762
asg348
(lp3763
I0
aI1
aI2
aI3
aS'@@nDec2'
p3764
assg66
g2761
sg167
S'** Description of available inarg record(s) for: MG_JEN_lsm::add_grid()  version=10feb2006  defined=2006-04-13 17:23'
p3765
sg178
I00
sg171
S'2006-04-13 17:23'
p3766
sg169
g170
sg172
S'MG_JEN_lsm'
p3767
sg225
(dp3768
g355
S'  2: ....[solve]./MG_JEN_lsm.add_grid() (qual=solve): .modify(taper):   1.0  ->  None'
p3769
sg227
S'** JEN_inarg.attach(): attached: [solve_grid]./MG_JEN_Sixpack.newstar_source()'
p3770
ssg54
g3766
sg179
(lp3771
g49
ag317
ag348
ag345
ag318
ag233
ag319
ag3664
asg181
(dp3772
g233
g360
sg317
g361
sg318
g362
sg319
g363
sg345
g364
sg348
g365
sssg345
I20
sg348
I1
ssg49
(dp3773
g51
g367
sg53
g2050
sg176
S'** Specific description of inarg record for: MG_JEN_lsm::get_lsm()  version=02apr2006  defined=2006-04-13 17:23'
p3774
sg64
S'MG_JEN_lsmget_lsm'
p3775
sg370
(dp3776
g372
g373
sg18
g373
ssg68
g69
sg70
S'MG_JEN_lsm::get_lsm()  version=02apr2006  defined=2006-04-13 17:23'
p3777
sg72
S'get_lsm'
p3778
sg74
(dp3779
g372
(lp3780
g378
ag379
ag380
ag381
aNaS'@@input_LSM'
p3781
asg18
(lp3782
g384
aNaS'@@saveAs'
p3783
asg20
(lp3784
Nag387
ag388
ag21
ag389
aS'@@test_pattern'
p3785
asg391
(lp3786
I01
aI00
aS'@@display'
p3787
asg394
(lp3788
I01
aI00
aS'@@save_as_current'
p3789
assg66
g2761
sg167
S'** Description of available inarg record(s) for: MG_JEN_lsm::get_lsm()  version=02apr2006  defined=2006-04-13 17:23'
p3790
sg178
I00
sg171
S'2006-04-13 17:23'
p3791
sg169
g399
sg172
S'MG_JEN_lsm'
p3792
sg174
(dp3793
g391
I00
sg394
I00
ssg225
(dp3794
g355
S'** JEN_inarg.attach(): attached: [solve]./MG_JEN_lsm.add_double()'
p3795
sg227
S'** JEN_inarg.attach(): attached: [solve]./MG_JEN_lsm.add_single()'
p3796
sg405
S'** JEN_inarg.attach(): attached: [solve]./MG_JEN_lsm.add_spiral()'
p3797
sg407
S'** JEN_inarg.attach(): attached: [solve]./MG_JEN_lsm.add_grid()'
p3798
sg409
S'  1: ..[solve]./MG_JEN_lsm.get_lsm() (qual=None): .modify(test_pattern):   single  ->  grid'
p3799
sg411
S'  1: ..[solve]./MG_JEN_lsm.get_lsm() (qual=None): .modify(saveAs):   None  ->  <automatic>'
p3800
ssg54
g3791
sg179
(lp3801
g49
ag372
ag391
ag394
ag18
ag20
ag3566
ag3380
ag3662
aS'[solve]./MG_JEN_lsm.add_spiral()'
p3802
asg181
(dp3803
g372
g417
sg18
g418
sg20
g419
sg391
g420
sg394
g421
ssg213
g422
ssg394
I01
sg372
Nsg391
I01
sg3802
(dp3804
S'[solve_spiral]./MG_JEN_Sixpack.newstar_source()'
p3805
(dp3806
g26
F1000000.0
sg27
I00
sg28
F0.0
sg29
I00
sg30
g31
sg32
I00
sg33
g34
sg13
Nsg35
Nsg36
Nsg37
I10
sg38
g39
sg40
g41
sg42
F1.0
sg43
Nsg44
g45
sg46
Nsg47
Nsg48
F0.0
sg49
(dp3807
g51
g52
sg53
g3805
sg54
S'2006-04-13 17:23'
p3808
sg56
(dp3809
g26
I01
sg28
I01
sg29
I01
sg58
I01
sg40
I01
sg47
I01
sg30
I01
sg33
I01
sg59
I01
sg60
I00
sg43
I01
sg48
I01
sg44
I01
sg61
I01
sg36
I01
sg62
I01
sg38
I01
sg63
I01
sg37
I01
ssg64
S'MG_JEN_Sixpacknewstar_source'
p3810
sg66
S'solve_spiral'
p3811
sg68
g69
sg70
S'MG_JEN_Sixpack::newstar_source()  version=10feb2006  defined=2006-04-13 17:23'
p3812
sg72
S'newstar_source'
p3813
sg74
(dp3814
g26
(lp3815
F1000000.0
aS'@@f0'
p3816
asg27
(lp3817
I01
aI00
aS'@@reset_funklet'
p3818
asg28
(lp3819
F0.0
aF1.0
aF10.0
aF100.0
aS'@@major'
p3820
asg29
(lp3821
I01
aI00
aS'@@unsolvable'
p3822
asg30
(lp3823
g31
aS'@@color'
p3824
asg32
(lp3825
I01
aI00
aS'@@save_all'
p3826
asg33
(lp3827
g34
ag89
aS'@@shape'
p3828
asg13
(lp3829
NaS'@@parmtable'
p3830
asg35
(lp3831
NaF-0.10000000000000001
aF0.050000000000000003
aF-0.01
aS'@@Upct'
p3832
asg36
(lp3833
NaS'@@unit'
p3834
asg37
(lp3835
I10
aS'@@size'
p3836
asg38
(lp3837
g39
aS'@@style'
p3838
asg40
(lp3839
g41
aS'@@descr'
p3840
asg42
(lp3841
F1.0
aF10.0
aS'@@I0'
p3842
asg43
(lp3843
NaS'@@subtile_size'
p3844
asg44
(lp3845
g45
aS'@@condeq_corrs'
p3846
asg46
(lp3847
NaF0.01
aF-0.0050000000000000001
aF0.001
aS'@@Vpct'
p3848
asg47
(lp3849
NaS'@@funklet_shape'
p3850
asg48
(lp3851
F0.0
aF1.0
aF-0.5
aS'@@pa'
p3852
asg115
(lp3853
F0.0
aF0.5
aF1.0
aF1.4950000000000001
aF4.3570000000000002
aS'@@RA'
p3854
asg118
(lp3855
NaF1.0
aF3.0
aF10.0
aF-10.0
aF60.0
aS'@@RM'
p3856
asg63
(lp3857
F0.0
aF0.5
aF5.0
aF50.0
aS'@@minor'
p3858
asg62
(lp3859
F1.0
aS'@@c00_default'
p3860
asg125
(lp3861
NaF0.10000000000000001
aF-0.050000000000000003
aF0.01
aS'@@Qpct'
p3862
asg60
(lp3863
g129
ag130
ag131
ag132
ag133
ag134
ag135
ag136
ag137
ag138
ag139
ag140
ag141
ag142
ag143
ag144
aS'@@punit'
p3864
asg146
(lp3865
F0.5
aF1.0
aF0.87
aF1.0920000000000001
aS'@@Dec'
p3866
asg58
(lp3867
NaS'@@name'
p3868
asg59
(lp3869
I01
aI00
aS'@@fsr_trace'
p3870
asg153
(lp3871
I01
aI00
aS'@@use_previous'
p3872
asg156
(lp3873
NaF-0.69999999999999996
a(lp3874
F0.44700000000000001
aF-0.184
aaS'@@SI'
p3875
asg61
(lp3876
NaS'@@tfdeg'
p3877
asg162
(lp3878
I01
aI00
aS'@@auto_save'
p3879
assg165
(dp3880
g60
I01
ssg167
S'** Description of available inarg record(s) for: MG_JEN_Sixpack::newstar_source()  version=10feb2006  defined=2006-04-13 17:23'
p3881
sg169
g170
sg171
g3808
sg172
S'MG_JEN_Sixpack'
p3882
sg174
(dp3883
g27
I00
sg29
I00
sg59
I00
sg32
I00
sg153
I00
sg162
I00
ssg176
S'** Specific description of inarg record for: MG_JEN_Sixpack::newstar_source()  version=10feb2006  defined=2006-04-13 17:23'
p3884
sg178
I00
sg179
(lp3885
g49
ag60
ag58
ag13
ag29
ag42
ag125
ag35
ag46
ag118
ag156
ag26
ag115
ag146
ag59
ag33
ag28
ag63
ag48
ag153
ag162
ag32
ag27
ag40
ag36
ag30
ag38
ag37
ag62
ag61
ag47
ag43
ag44
asg181
(dp3886
g26
g183
sg27
g184
sg28
g185
sg29
g186
sg30
g187
sg32
g188
sg33
g189
sg13
g190
sg35
g191
sg36
g36
sg37
g192
sg38
g193
sg40
g194
sg42
g195
sg43
g196
sg44
g197
sg46
g198
sg47
g199
sg48
g200
sg115
g201
sg118
g202
sg63
g203
sg62
g204
sg125
g205
sg60
S'name of calibrator source/patch \n- unpol:     unpolarised, I=1Jy \n- unpol2:    idem, I=2Jy \n- unpol10:   idem, I=10Jy \n- RMtest:    Rotation Measure \n- SItest:    Spectral Index \n- ellgauss:  Elliptic Gaussian \n- QUV:       non-zero Q,U,V \n- QU:        non-zero Q,U \n- QU2:       stronger version of QU \n- Qonly:     non-zero Q \n- Uonly:     non-zero U \n- Vonly:     non-zero V \n- 3c286:     \n- 3c48:      \n- 3c295:     \n- 3c147:     \n- D1:        cps in D1.MS \n'
p3887
sg146
g207
sg59
g208
sg153
g209
sg156
g210
sg61
g211
sg162
g212
ssg213
g214
ssg118
Nsg63
F0.0
sg115
F1.4950000000000001
sg62
F1.0
sg125
Nsg60
g129
sg146
F0.87
sg58
Nsg59
I01
sg153
I01
sg156
Nsg61
Nsg162
I00
ssg424
I5
sg233
Nsg508
I0
sg509
F1.1000000000000001
sg510
I20
sg49
(dp3888
g51
g512
sg53
g3802
sg176
S'** Specific description of inarg record for: MG_JEN_lsm::add_spiral()  version=10feb2006  defined=2006-04-13 17:23'
p3889
sg64
S'MG_JEN_lsmadd_spiral'
p3890
sg68
g69
sg213
g515
sg70
S'MG_JEN_lsm::add_spiral()  version=10feb2006  defined=2006-04-13 17:23'
p3891
sg72
S'add_spiral'
p3892
sg74
(dp3893
g424
(lp3894
I2
aI3
aI4
aI5
aI10
aS'@@nr_of_sources'
p3895
asg233
(lp3896
F0.5
aI1
aI2
aI5
aI10
aI100
aNaS'@@taper'
p3897
asg508
(lp3898
I0
aI30
aI45
aI90
aI180
aI270
aS'@@astart'
p3899
asg509
(lp3900
F1.01
aF1.1000000000000001
aF1.2
aF1.5
aI2
aS'@@rmult'
p3901
asg510
(lp3902
I1
aI2
aI5
aI10
aI20
aI50
aI100
aS'@@rstart'
p3903
asg529
(lp3904
I10
aI20
aI30
aI45
aI90
aI180
aI360
aI0
aS'@@ainc'
p3905
assg66
g2761
sg167
S'** Description of available inarg record(s) for: MG_JEN_lsm::add_spiral()  version=10feb2006  defined=2006-04-13 17:23'
p3906
sg178
I00
sg171
S'2006-04-13 17:23'
p3907
sg169
g170
sg172
S'MG_JEN_lsm'
p3908
sg225
(dp3909
g355
S'  2: ....[solve]./MG_JEN_lsm.add_spiral() (qual=solve): .modify(taper):   1.0  ->  None'
p3910
sg227
S'** JEN_inarg.attach(): attached: [solve_spiral]./MG_JEN_Sixpack.newstar_source()'
p3911
ssg54
g3907
sg179
(lp3912
g49
ag424
ag510
ag508
ag509
ag529
ag233
ag3805
asg181
(dp3913
g424
g540
sg233
g541
sg508
g542
sg509
g543
sg510
g544
sg529
g545
sssg529
I10
sssg2052
(dp3914
S'correct_after'
p3915
I00
sg1931
S'@@master_reqseq'
p3916
sS'condeq_unop'
p3917
Nsg1353
I01
sg1934
S'@@redun'
p3918
sS'solver_subtree'
p3919
NsS'subtract_after'
p3920
I01
sg1938
S'@@chain_solvers'
p3921
sg49
(dp3922
g53
g2052
sg181
(dp3923
g3915
S'if True, correct measured with predicted.Joneset'
p3924
sg1931
g1932
sg3917
S'Optional unary operation on Condeq inputs'
p3925
sg1353
S'if True, include full visualisation'
p3926
sg1934
g1935
sg3919
S'solver subtree qualifier(s)'
p3927
sg3920
S'if True, subtract predicted from measured'
p3928
sg1938
g1939
sS'flag_residuals'
p3929
S'if True, flag the residuals'
p3930
sg1941
g1942
ssg68
g69
sg172
S'MG_JEN_Cohset'
p3931
sg56
(dp3932
g1931
I01
sg1934
I01
sg3919
I01
sg1938
I01
sg3929
I01
sg1941
I01
ssg169
g1180
sg844
(dp3933
g1934
I00
sg1938
I00
sg1931
I00
sg1941
I00
ssg213
S'insert one or more solver subtrees in the data stream'
p3934
sg174
(dp3935
g3915
I00
sg1931
I00
sg1353
I00
sg1934
I00
sg3920
I00
sg3929
I00
ssg70
S'MG_JEN_Cohset::insert_solver()  version=25dec2005  defined=2006-04-13 17:23'
p3936
sg74
(dp3937
g3915
(lp3938
I01
aI00
aS'@@correct_after'
p3939
asg1931
(lp3940
I01
aI00
ag3916
asg3917
(lp3941
NaS'Abs'
p3942
aS'Arg'
p3943
aS'@@condeq_unop'
p3944
asg1353
(lp3945
I01
aI00
aS'@@visu'
p3946
asg1934
(lp3947
I01
aI00
ag3918
asg3919
(lp3948
NaS'@@solver_subtree'
p3949
asg3920
(lp3950
I01
aI00
aS'@@subtract_after'
p3951
asg1938
(lp3952
I01
ag3921
asg3929
(lp3953
I01
aI00
aS'@@flag_residuals'
p3954
asg1941
(lp3955
Na(lp3956
I5
aI2
aa(lp3957
I2
aI2
aa(lp3958
I3
aI3
aaS'@@num_cells'
p3959
assg66
Nsg54
S'2006-04-13 17:23'
p3960
sg51
S'MG_JEN_Cohset::insert_solver()'
p3961
sg176
S'** Specific description of inarg record for: MG_JEN_Cohset::insert_solver()  version=25dec2005  defined=2006-04-13 17:23'
p3962
sg64
S'MG_JEN_Cohsetinsert_solver'
p3963
sg72
S'insert_solver'
p3964
sg167
S'** Description of available inarg record(s) for: MG_JEN_Cohset::insert_solver()  version=25dec2005  defined=2006-04-13 17:23'
p3965
sg178
I00
sg171
g3960
sg225
(dp3966
g355
S'  1: .../MG_JEN_Cohset.insert_solver() (qual=None): .modify(subtract_after):   False  ->  True'
p3967
sg227
S'** JEN_inarg.attach(): attached: ./MG_JEN_Cohset.solver_subtree()'
p3968
sg407
S'  1: .../MG_JEN_Cohset.insert_solver() (qual=None): .modify(correct_after):   True  ->  False'
p3969
ssg179
(lp3970
g49
ag3919
ag1934
ag1941
ag1938
ag1931
ag3917
ag1353
ag3920
ag3915
ag3929
aS'./MG_JEN_Cohset.solver_subtree()'
p3971
assg1941
g3959
sg3971
(dp3972
S'rmin'
p3973
NsS'setBalanced'
p3974
I00
sg1353
I01
sS'epsilon'
p3975
F0.0001
sS'rmax'
p3976
NsS'derivative_eps'
p3977
F1e-08
sS'usesvd'
p3978
I01
sS'debug_level'
p3979
I10
sS'solvegroup'
p3980
(lp3981
S'EJones'
p3982
asg49
(dp3983
g51
S'MG_JEN_Cohset::solver_subtree()'
p3984
sg53
g3971
sg225
(dp3985
g355
S'  2: ...../MG_JEN_Cohset.solver_subtree() (qual=None): .modify(num_iter):   5  ->  2'
p3986
sg227
S"  2: ...../MG_JEN_Cohset.solver_subtree() (qual=None): .modify(solvegroup):   []  ->  ['EJones']"
p3987
ssg56
(dp3988
g3979
I01
sg3977
I01
sg3974
I01
sS'epsval'
p3989
I01
sg1941
I00
ssg64
S'MG_JEN_Cohsetsolver_subtree'
p3990
sg68
g69
sg213
S'Make a solver-subtree for the given Condeq Cohset'
p3991
sg70
S'MG_JEN_Cohset::solver_subtree()  version=20dec2005  defined=2006-04-13 17:23'
p3992
sg72
S'solver_subtree'
p3993
sg74
(dp3994
g3973
(lp3995
NaI100
aI200
aI500
aS'@@rmin'
p3996
asg1353
(lp3997
I01
aI00
aS'@@visu'
p3998
asg3975
(lp3999
F0.001
aF0.0001
aF1.0000000000000001e-05
aS'@@epsilon'
p4000
asS'colin_factor'
p4001
(lp4002
F1e-08
aF0.0
aS'@@colin_factor'
p4003
asg3976
(lp4004
NaI500
aI1000
aI2000
aS'@@rmax'
p4005
asg3977
(lp4006
F1e-08
aF0.001
aF0.0001
aF1.0000000000000001e-05
aS'@@derivative_eps'
p4007
asg3978
(lp4008
I01
aI00
aS'@@usesvd'
p4009
asg3979
(lp4010
I10
aS'@@debug_level'
p4011
asg3980
(lp4012
(lp4013
a(lp4014
g1164
aa(lp4015
S'Ggain'
p4016
aa(lp4017
S'Gphase'
p4018
aa(lp4019
S'Gpol1'
p4020
aa(lp4021
S'Gpol2'
p4022
aa(lp4023
g806
aa(lp4024
g806
aS'stokesU'
p4025
aa(lp4026
g806
aS'stokesQ'
p4027
aa(lp4028
g806
aS'stokesV'
p4029
aa(lp4030
S'stokesQU'
p4031
ag806
aa(lp4032
S'stokesQUV'
p4033
ag806
aa(lp4034
g1164
aS'stokesI'
p4035
aa(lp4036
g4035
ag33
aa(lp4037
g4035
aa(lp4038
S'stokesIQU'
p4039
aa(lp4040
S'stokesIQUV'
p4041
aa(lp4042
S'stokesIV'
p4043
aa(lp4044
g4031
aa(lp4045
g4033
aa(lp4046
g1164
aS'DJones'
p4047
aa(lp4048
g4047
aa(lp4049
S'Dang'
p4050
aa(lp4051
S'Dell'
p4052
aa(lp4053
S'Dreal'
p4054
aa(lp4055
S'Dimag'
p4056
aa(lp4057
g1164
ag4047
ag1035
aa(lp4058
g1035
aa(lp4059
g3982
aa(lp4060
S'Epointing'
p4061
aa(lp4062
g1164
ag926
aa(lp4063
g926
aa(lp4064
S'Breal'
p4065
aa(lp4066
S'Bimag'
p4067
aa(lp4068
S'Bpol1'
p4069
aa(lp4070
S'Bpol2'
p4071
aaS'@@solvegroup'
p4072
asg3989
(lp4073
F1e-08
aF0.001
aF0.0001
aF1.0000000000000001e-05
aS'@@epsval'
p4074
asg1941
(lp4075
Na(lp4076
I5
aI2
aa(lp4077
I2
aI2
aa(lp4078
I3
aI3
aaS'@@num_cells'
p4079
asg3974
(lp4080
I01
aI00
aS'@@setBalanced'
p4081
asS'num_iter'
p4082
(lp4083
I1
aI3
aI5
aI10
aI20
aS'@@num_iter'
p4084
asS'condition'
p4085
(lp4086
NaS'Gphase_X_sum=0.0'
p4087
aS'Gphase_Y_sum=0.0'
p4088
a(lp4089
g4087
ag4088
aa(lp4090
S'Gphase_X_first=0.0'
p4091
aS'Gphase_Y_first=0.0'
p4092
aa(lp4093
S'Gphase_X_last=0.0'
p4094
aS'Gphase_Y_last=0.0'
p4095
aaS'Dang_sum=0.0'
p4096
a(lp4097
S'Bimag_X_sum=0.0'
p4098
aS'Bimag_Y_sum=0.0'
p4099
aa(lp4100
S'Breal_X_product=1.0'
p4101
aS'Breal_Y_product=1.0'
p4102
aaS'@@condition'
p4103
asS'history'
p4104
(lp4105
I01
aI00
aS'@@history'
p4106
assg66
Nsg167
S'** Description of available inarg record(s) for: MG_JEN_Cohset::solver_subtree()  version=20dec2005  defined=2006-04-13 17:23'
p4107
sg169
S'20dec2005'
p4108
sg171
S'2006-04-13 17:23'
p4109
sg172
S'MG_JEN_Cohset'
p4110
sg174
(dp4111
g3978
I00
sg3974
I00
sg1353
I00
sg4104
I00
ssg176
S'** Specific description of inarg record for: MG_JEN_Cohset::solver_subtree()  version=20dec2005  defined=2006-04-13 17:23'
p4112
sg178
I00
sg54
g4109
sg179
(lp4113
g49
ag3980
ag4085
ag3973
ag3976
ag1941
ag4082
ag3975
ag3989
ag3977
ag4001
ag3978
ag3974
ag3979
ag1353
ag4104
asg181
(dp4114
g3973
S'if specified, only use baselines>=rmin'
p4115
sg1353
S'if True, include visualisation'
p4116
sg3975
S'iteration control criterion...'
p4117
sg4001
S'colinearity factor'
p4118
sg3976
S'if specified, only use baselines<=rmax'
p4119
sg3977
S'NEW: also iteration control...'
p4120
sg3978
S'if True, use Singular Value Decomposition (SVD)'
p4121
sg3979
S'solver debug_level'
p4122
sg3980
S'solvegroup: list of parmgroups, to be solved for:\n- [GJones]:  all GJones MeqParms\n- [Ggain]:   GJones station gains (both pols)\n- [Gphase]:  GJones station phases (both pols)\n- [Gpol1]:   All GJones MeqParms for pol1 (X or R)\n- [Gpol2]:   All GJones MeqParms for pol2 (Y or L)\n- [JJones,stokesU]:     actually solves for U!\n- [JJones,stokesQ]:     -> zero Q(?), but better freq sol(?)\n- [JJones,stokesV]:     -> punit V(?)...\n- [stokesI]:    stokes I (incl SI(f), if relevant)\n- [shape]:      parameters of extended source(s)\n- [stokesIQU]:  stokes I,Q,U (incl RM and SI(f))\n- [stokesIQUV]: stokes I,Q,U,V (incl RM and SI(f))'
p4123
sg3989
S'NEW: WNB version of epsilon....'
p4124
sg1941
g1942
sg3974
S'NEW: if True, add (..) to diagonal, otherwise multiply (1+lambda)'
p4125
sg4082
S'max number of iterations (now also in fitter)'
p4126
sg4085
S'(list of) extra condition equations:\n- [...phase_sum=0.0]:   sum of phases = zero\n- [...phase_first=0.0]: phase of first station = zero\n- [...phase_last=0.0]:  phase of last station = zero\n- [Dang_sum=0.0]:   sum of dipole pos.angle errors = zero\n- [...imag_sum=0.0]:   sum of imag.parts = zero\n- [...real_product=1.0]:   product of real.parts = unity'
p4127
sg4104
S'if True, include history collection of metrics'
p4128
sssg1941
Nsg3989
F1e-08
sg4104
I01
sg4082
I2
sg4085
Nsg4001
F0.0
ssg3929
I00
ss.